
main.axf:     file format elf32-littlearm


Disassembly of section .text:

00000000 <g_pfnVectors>:
       0:	20000100 	andcs	r0, r0, r0, lsl #2
       4:	0000026d 	andeq	r0, r0, sp, ror #4
       8:	000002d9 	ldrdeq	r0, [r0], -r9
       c:	000002df 	ldrdeq	r0, [r0], -pc	; <UNPREDICTABLE>
      10:	000002e5 	andeq	r0, r0, r5, ror #5
      14:	000002e5 	andeq	r0, r0, r5, ror #5
      18:	000002e5 	andeq	r0, r0, r5, ror #5
	...
      2c:	000002e5 	andeq	r0, r0, r5, ror #5
      30:	000002e5 	andeq	r0, r0, r5, ror #5
      34:	00000000 	andeq	r0, r0, r0
      38:	000002e5 	andeq	r0, r0, r5, ror #5
      3c:	000002e5 	andeq	r0, r0, r5, ror #5
      40:	000002e5 	andeq	r0, r0, r5, ror #5
      44:	000002e5 	andeq	r0, r0, r5, ror #5
      48:	000002e5 	andeq	r0, r0, r5, ror #5
      4c:	000002e5 	andeq	r0, r0, r5, ror #5
      50:	000002e5 	andeq	r0, r0, r5, ror #5
      54:	00000301 	andeq	r0, r0, r1, lsl #6
      58:	000002e5 	andeq	r0, r0, r5, ror #5
      5c:	000002e5 	andeq	r0, r0, r5, ror #5
      60:	000002e5 	andeq	r0, r0, r5, ror #5
      64:	000002e5 	andeq	r0, r0, r5, ror #5
      68:	000002e5 	andeq	r0, r0, r5, ror #5
      6c:	000002e5 	andeq	r0, r0, r5, ror #5
      70:	000002e5 	andeq	r0, r0, r5, ror #5
      74:	000002e5 	andeq	r0, r0, r5, ror #5
      78:	000002e5 	andeq	r0, r0, r5, ror #5
      7c:	000002e5 	andeq	r0, r0, r5, ror #5
      80:	000002e5 	andeq	r0, r0, r5, ror #5
      84:	000002e5 	andeq	r0, r0, r5, ror #5
      88:	000002e5 	andeq	r0, r0, r5, ror #5
      8c:	000002e5 	andeq	r0, r0, r5, ror #5
      90:	000002e5 	andeq	r0, r0, r5, ror #5
      94:	000002e5 	andeq	r0, r0, r5, ror #5
      98:	000002e5 	andeq	r0, r0, r5, ror #5
      9c:	000002e5 	andeq	r0, r0, r5, ror #5
      a0:	000002e5 	andeq	r0, r0, r5, ror #5
      a4:	000002e5 	andeq	r0, r0, r5, ror #5
      a8:	000002e5 	andeq	r0, r0, r5, ror #5
      ac:	000002e5 	andeq	r0, r0, r5, ror #5
      b0:	000002e5 	andeq	r0, r0, r5, ror #5
      b4:	000002e5 	andeq	r0, r0, r5, ror #5
      b8:	000002e5 	andeq	r0, r0, r5, ror #5
      bc:	000002e5 	andeq	r0, r0, r5, ror #5
      c0:	000002e5 	andeq	r0, r0, r5, ror #5
      c4:	000002e5 	andeq	r0, r0, r5, ror #5
      c8:	000002e5 	andeq	r0, r0, r5, ror #5
      cc:	000002e5 	andeq	r0, r0, r5, ror #5
      d0:	000002e5 	andeq	r0, r0, r5, ror #5
      d4:	000002e5 	andeq	r0, r0, r5, ror #5
      d8:	000002e5 	andeq	r0, r0, r5, ror #5
      dc:	000002e5 	andeq	r0, r0, r5, ror #5
      e0:	000002e5 	andeq	r0, r0, r5, ror #5
      e4:	000002e5 	andeq	r0, r0, r5, ror #5
      e8:	000002e5 	andeq	r0, r0, r5, ror #5
      ec:	000002e5 	andeq	r0, r0, r5, ror #5
      f0:	00000bf9 	strdeq	r0, [r0], -r9
      f4:	000002e5 	andeq	r0, r0, r5, ror #5
      f8:	000002e5 	andeq	r0, r0, r5, ror #5
      fc:	000002e5 	andeq	r0, r0, r5, ror #5
     100:	000002e5 	andeq	r0, r0, r5, ror #5
     104:	000002e5 	andeq	r0, r0, r5, ror #5
     108:	000002e5 	andeq	r0, r0, r5, ror #5
     10c:	000002e5 	andeq	r0, r0, r5, ror #5
     110:	000002e5 	andeq	r0, r0, r5, ror #5
     114:	000002e5 	andeq	r0, r0, r5, ror #5
     118:	000002e5 	andeq	r0, r0, r5, ror #5
     11c:	000002e5 	andeq	r0, r0, r5, ror #5
     120:	000002e5 	andeq	r0, r0, r5, ror #5
     124:	000002e5 	andeq	r0, r0, r5, ror #5
     128:	000002e5 	andeq	r0, r0, r5, ror #5
     12c:	000002e5 	andeq	r0, r0, r5, ror #5
     130:	000002e5 	andeq	r0, r0, r5, ror #5
     134:	000002e5 	andeq	r0, r0, r5, ror #5
     138:	000002e5 	andeq	r0, r0, r5, ror #5
     13c:	000002e5 	andeq	r0, r0, r5, ror #5
	...
     150:	000002e5 	andeq	r0, r0, r5, ror #5
     154:	000002e5 	andeq	r0, r0, r5, ror #5
     158:	000002e5 	andeq	r0, r0, r5, ror #5
     15c:	000002e5 	andeq	r0, r0, r5, ror #5
	...
     1b0:	000002e5 	andeq	r0, r0, r5, ror #5
     1b4:	000002e5 	andeq	r0, r0, r5, ror #5
     1b8:	000002e5 	andeq	r0, r0, r5, ror #5
     1bc:	000002e5 	andeq	r0, r0, r5, ror #5
     1c0:	000002e5 	andeq	r0, r0, r5, ror #5
     1c4:	000002e5 	andeq	r0, r0, r5, ror #5
     1c8:	000002e5 	andeq	r0, r0, r5, ror #5
     1cc:	000002e5 	andeq	r0, r0, r5, ror #5
     1d0:	000002e5 	andeq	r0, r0, r5, ror #5
     1d4:	000002e5 	andeq	r0, r0, r5, ror #5
     1d8:	000002e5 	andeq	r0, r0, r5, ror #5
     1dc:	000002e5 	andeq	r0, r0, r5, ror #5
     1e0:	000002e5 	andeq	r0, r0, r5, ror #5
     1e4:	000002e5 	andeq	r0, r0, r5, ror #5
     1e8:	000002e5 	andeq	r0, r0, r5, ror #5
     1ec:	000002e5 	andeq	r0, r0, r5, ror #5
     1f0:	000002e5 	andeq	r0, r0, r5, ror #5
     1f4:	000002e5 	andeq	r0, r0, r5, ror #5
     1f8:	000002e5 	andeq	r0, r0, r5, ror #5
     1fc:	000002e5 	andeq	r0, r0, r5, ror #5
     200:	000002e5 	andeq	r0, r0, r5, ror #5
     204:	000002e5 	andeq	r0, r0, r5, ror #5
     208:	000002e5 	andeq	r0, r0, r5, ror #5
     20c:	00000000 	andeq	r0, r0, r0
     210:	000002e5 	andeq	r0, r0, r5, ror #5
     214:	000002e5 	andeq	r0, r0, r5, ror #5
     218:	000002e5 	andeq	r0, r0, r5, ror #5
     21c:	000002e5 	andeq	r0, r0, r5, ror #5
     220:	000002e5 	andeq	r0, r0, r5, ror #5
     224:	000002e5 	andeq	r0, r0, r5, ror #5
     228:	000002e5 	andeq	r0, r0, r5, ror #5
     22c:	000002e5 	andeq	r0, r0, r5, ror #5
     230:	000002e5 	andeq	r0, r0, r5, ror #5
     234:	000002e5 	andeq	r0, r0, r5, ror #5
     238:	000002e5 	andeq	r0, r0, r5, ror #5
     23c:	000002e5 	andeq	r0, r0, r5, ror #5
     240:	000002e5 	andeq	r0, r0, r5, ror #5
     244:	000002e5 	andeq	r0, r0, r5, ror #5
     248:	000002e5 	andeq	r0, r0, r5, ror #5
     24c:	000002e5 	andeq	r0, r0, r5, ror #5
     250:	000002e5 	andeq	r0, r0, r5, ror #5
     254:	000002e5 	andeq	r0, r0, r5, ror #5
     258:	000002e5 	andeq	r0, r0, r5, ror #5
     25c:	000002e5 	andeq	r0, r0, r5, ror #5
     260:	000002e5 	andeq	r0, r0, r5, ror #5
     264:	000002e5 	andeq	r0, r0, r5, ror #5
     268:	000002e5 	andeq	r0, r0, r5, ror #5

0000026c <ResetISR>:
     26c:	b580      	push	{r7, lr}
     26e:	b082      	sub	sp, #8
     270:	af00      	add	r7, sp, #0
     272:	4b13      	ldr	r3, [pc, #76]	; (2c0 <zero_loop+0x24>)
     274:	607b      	str	r3, [r7, #4]
     276:	4b13      	ldr	r3, [pc, #76]	; (2c4 <zero_loop+0x28>)
     278:	603b      	str	r3, [r7, #0]
     27a:	e007      	b.n	28c <ResetISR+0x20>
     27c:	687a      	ldr	r2, [r7, #4]
     27e:	1d13      	adds	r3, r2, #4
     280:	607b      	str	r3, [r7, #4]
     282:	683b      	ldr	r3, [r7, #0]
     284:	1d19      	adds	r1, r3, #4
     286:	6039      	str	r1, [r7, #0]
     288:	6812      	ldr	r2, [r2, #0]
     28a:	601a      	str	r2, [r3, #0]
     28c:	683b      	ldr	r3, [r7, #0]
     28e:	4a0e      	ldr	r2, [pc, #56]	; (2c8 <zero_loop+0x2c>)
     290:	4293      	cmp	r3, r2
     292:	d3f3      	bcc.n	27c <ResetISR+0x10>
     294:	480e      	ldr	r0, [pc, #56]	; (2d0 <zero_loop+0x34>)
     296:	490f      	ldr	r1, [pc, #60]	; (2d4 <zero_loop+0x38>)
     298:	f04f 0200 	mov.w	r2, #0

0000029c <zero_loop>:
     29c:	4288      	cmp	r0, r1
     29e:	bfb8      	it	lt
     2a0:	f840 2b04 	strlt.w	r2, [r0], #4
     2a4:	dbfa      	blt.n	29c <zero_loop>
     2a6:	4b09      	ldr	r3, [pc, #36]	; (2cc <zero_loop+0x30>)
     2a8:	681b      	ldr	r3, [r3, #0]
     2aa:	4a08      	ldr	r2, [pc, #32]	; (2cc <zero_loop+0x30>)
     2ac:	f443 0370 	orr.w	r3, r3, #15728640	; 0xf00000
     2b0:	6013      	str	r3, [r2, #0]
     2b2:	f000 f855 	bl	360 <main>
     2b6:	bf00      	nop
     2b8:	3708      	adds	r7, #8
     2ba:	46bd      	mov	sp, r7
     2bc:	bd80      	pop	{r7, pc}
     2be:	bf00      	nop
     2c0:	00001130 	andeq	r1, r0, r0, lsr r1
     2c4:	20000000 	andcs	r0, r0, r0
     2c8:	20000000 	andcs	r0, r0, r0
     2cc:	e000ed88 	and	lr, r0, r8, lsl #27
     2d0:	20000000 	andcs	r0, r0, r0
     2d4:	20000104 	andcs	r0, r0, r4, lsl #2

000002d8 <NmiSR>:
     2d8:	b480      	push	{r7}
     2da:	af00      	add	r7, sp, #0
     2dc:	e7fe      	b.n	2dc <NmiSR+0x4>

000002de <FaultISR>:
     2de:	b480      	push	{r7}
     2e0:	af00      	add	r7, sp, #0
     2e2:	e7fe      	b.n	2e2 <FaultISR+0x4>

000002e4 <IntDefaultHandler>:
     2e4:	b480      	push	{r7}
     2e6:	af00      	add	r7, sp, #0
     2e8:	e7fe      	b.n	2e8 <IntDefaultHandler+0x4>

000002ea <__error__>:
     2ea:	b480      	push	{r7}
     2ec:	b083      	sub	sp, #12
     2ee:	af00      	add	r7, sp, #0
     2f0:	6078      	str	r0, [r7, #4]
     2f2:	6039      	str	r1, [r7, #0]
     2f4:	bf00      	nop
     2f6:	370c      	adds	r7, #12
     2f8:	46bd      	mov	sp, r7
     2fa:	f85d 7b04 	ldr.w	r7, [sp], #4
     2fe:	4770      	bx	lr

00000300 <UART0IntHandler>:
     300:	b480      	push	{r7}
     302:	af00      	add	r7, sp, #0
     304:	bf00      	nop
     306:	46bd      	mov	sp, r7
     308:	f85d 7b04 	ldr.w	r7, [sp], #4
     30c:	4770      	bx	lr
	...

00000310 <InitConsole>:
     310:	b580      	push	{r7, lr}
     312:	af00      	add	r7, sp, #0
     314:	480e      	ldr	r0, [pc, #56]	; (350 <InitConsole+0x40>)
     316:	f000 fdaf 	bl	e78 <SysCtlPeripheralEnable>
     31a:	2001      	movs	r0, #1
     31c:	f000 fd78 	bl	e10 <GPIOPinConfigure>
     320:	f240 4001 	movw	r0, #1025	; 0x401
     324:	f000 fd74 	bl	e10 <GPIOPinConfigure>
     328:	480a      	ldr	r0, [pc, #40]	; (354 <InitConsole+0x44>)
     32a:	f000 fda5 	bl	e78 <SysCtlPeripheralEnable>
     32e:	2100      	movs	r1, #0
     330:	4809      	ldr	r0, [pc, #36]	; (358 <InitConsole+0x48>)
     332:	f000 fe74 	bl	101e <UARTClockSourceSet>
     336:	2103      	movs	r1, #3
     338:	f04f 2040 	mov.w	r0, #1073758208	; 0x40004000
     33c:	f000 fd66 	bl	e0c <GPIOPinTypeUART>
     340:	4a06      	ldr	r2, [pc, #24]	; (35c <InitConsole+0x4c>)
     342:	f44f 31e1 	mov.w	r1, #115200	; 0x1c200
     346:	2000      	movs	r0, #0
     348:	f000 f826 	bl	398 <UARTStdioConfig>
     34c:	bf00      	nop
     34e:	bd80      	pop	{r7, pc}
     350:	f0000800 			; <UNDEFINED> instruction: 0xf0000800
     354:	f0001800 			; <UNDEFINED> instruction: 0xf0001800
     358:	4000c000 	andmi	ip, r0, r0
     35c:	02faf080 	rscseq	pc, sl, #128	; 0x80

00000360 <main>:
     360:	b580      	push	{r7, lr}
     362:	b082      	sub	sp, #8
     364:	af00      	add	r7, sp, #0
     366:	2300      	movs	r3, #0
     368:	607b      	str	r3, [r7, #4]
     36a:	2300      	movs	r3, #0
     36c:	603b      	str	r3, [r7, #0]
     36e:	4807      	ldr	r0, [pc, #28]	; (38c <main+0x2c>)
     370:	f000 fd96 	bl	ea0 <SysCtlClockSet>
     374:	f7ff ffcc 	bl	310 <InitConsole>
     378:	4805      	ldr	r0, [pc, #20]	; (390 <main+0x30>)
     37a:	f000 faa1 	bl	8c0 <UARTprintf>
     37e:	f000 fc2d 	bl	bdc <USBInit>
     382:	4804      	ldr	r0, [pc, #16]	; (394 <main+0x34>)
     384:	f000 fa9c 	bl	8c0 <UARTprintf>
     388:	e7fe      	b.n	388 <main+0x28>
     38a:	bf00      	nop
     38c:	01c00540 	biceq	r0, r0, r0, asr #10
     390:	00001024 	andeq	r1, r0, r4, lsr #32
     394:	0000102c 	andeq	r1, r0, ip, lsr #32

00000398 <UARTStdioConfig>:
     398:	b580      	push	{r7, lr}
     39a:	b084      	sub	sp, #16
     39c:	af00      	add	r7, sp, #0
     39e:	60f8      	str	r0, [r7, #12]
     3a0:	60b9      	str	r1, [r7, #8]
     3a2:	607a      	str	r2, [r7, #4]
     3a4:	68fb      	ldr	r3, [r7, #12]
     3a6:	2b00      	cmp	r3, #0
     3a8:	d00a      	beq.n	3c0 <UARTStdioConfig+0x28>
     3aa:	68fb      	ldr	r3, [r7, #12]
     3ac:	2b01      	cmp	r3, #1
     3ae:	d007      	beq.n	3c0 <UARTStdioConfig+0x28>
     3b0:	68fb      	ldr	r3, [r7, #12]
     3b2:	2b02      	cmp	r3, #2
     3b4:	d004      	beq.n	3c0 <UARTStdioConfig+0x28>
     3b6:	f240 1153 	movw	r1, #339	; 0x153
     3ba:	4817      	ldr	r0, [pc, #92]	; (418 <UARTStdioConfig+0x80>)
     3bc:	f7ff ff95 	bl	2ea <__error__>
     3c0:	4a16      	ldr	r2, [pc, #88]	; (41c <UARTStdioConfig+0x84>)
     3c2:	68fb      	ldr	r3, [r7, #12]
     3c4:	f852 3023 	ldr.w	r3, [r2, r3, lsl #2]
     3c8:	4618      	mov	r0, r3
     3ca:	f000 fd43 	bl	e54 <SysCtlPeripheralPresent>
     3ce:	4603      	mov	r3, r0
     3d0:	f083 0301 	eor.w	r3, r3, #1
     3d4:	b2db      	uxtb	r3, r3
     3d6:	2b00      	cmp	r3, #0
     3d8:	d119      	bne.n	40e <UARTStdioConfig+0x76>
     3da:	4a11      	ldr	r2, [pc, #68]	; (420 <UARTStdioConfig+0x88>)
     3dc:	68fb      	ldr	r3, [r7, #12]
     3de:	f852 3023 	ldr.w	r3, [r2, r3, lsl #2]
     3e2:	4a10      	ldr	r2, [pc, #64]	; (424 <UARTStdioConfig+0x8c>)
     3e4:	6013      	str	r3, [r2, #0]
     3e6:	4a0d      	ldr	r2, [pc, #52]	; (41c <UARTStdioConfig+0x84>)
     3e8:	68fb      	ldr	r3, [r7, #12]
     3ea:	f852 3023 	ldr.w	r3, [r2, r3, lsl #2]
     3ee:	4618      	mov	r0, r3
     3f0:	f000 fd42 	bl	e78 <SysCtlPeripheralEnable>
     3f4:	4b0b      	ldr	r3, [pc, #44]	; (424 <UARTStdioConfig+0x8c>)
     3f6:	6818      	ldr	r0, [r3, #0]
     3f8:	2360      	movs	r3, #96	; 0x60
     3fa:	68ba      	ldr	r2, [r7, #8]
     3fc:	6879      	ldr	r1, [r7, #4]
     3fe:	f000 fde6 	bl	fce <UARTConfigSetExpClk>
     402:	4b08      	ldr	r3, [pc, #32]	; (424 <UARTStdioConfig+0x8c>)
     404:	681b      	ldr	r3, [r3, #0]
     406:	4618      	mov	r0, r3
     408:	f000 fdc8 	bl	f9c <UARTEnable>
     40c:	e000      	b.n	410 <UARTStdioConfig+0x78>
     40e:	bf00      	nop
     410:	3710      	adds	r7, #16
     412:	46bd      	mov	sp, r7
     414:	bd80      	pop	{r7, pc}
     416:	bf00      	nop
     418:	00001048 	andeq	r1, r0, r8, asr #32
     41c:	00001088 	andeq	r1, r0, r8, lsl #1
     420:	0000107c 	andeq	r1, r0, ip, ror r0
     424:	20000100 	andcs	r0, r0, r0, lsl #2

00000428 <UARTwrite>:
     428:	b580      	push	{r7, lr}
     42a:	b084      	sub	sp, #16
     42c:	af00      	add	r7, sp, #0
     42e:	6078      	str	r0, [r7, #4]
     430:	6039      	str	r1, [r7, #0]
     432:	4b1f      	ldr	r3, [pc, #124]	; (4b0 <UARTwrite+0x88>)
     434:	681b      	ldr	r3, [r3, #0]
     436:	2b00      	cmp	r3, #0
     438:	d104      	bne.n	444 <UARTwrite+0x1c>
     43a:	f240 2101 	movw	r1, #513	; 0x201
     43e:	481d      	ldr	r0, [pc, #116]	; (4b4 <UARTwrite+0x8c>)
     440:	f7ff ff53 	bl	2ea <__error__>
     444:	687b      	ldr	r3, [r7, #4]
     446:	2b00      	cmp	r3, #0
     448:	d104      	bne.n	454 <UARTwrite+0x2c>
     44a:	f240 2102 	movw	r1, #514	; 0x202
     44e:	4819      	ldr	r0, [pc, #100]	; (4b4 <UARTwrite+0x8c>)
     450:	f7ff ff4b 	bl	2ea <__error__>
     454:	2300      	movs	r3, #0
     456:	60fb      	str	r3, [r7, #12]
     458:	e01e      	b.n	498 <UARTwrite+0x70>
     45a:	687a      	ldr	r2, [r7, #4]
     45c:	68fb      	ldr	r3, [r7, #12]
     45e:	4413      	add	r3, r2
     460:	781b      	ldrb	r3, [r3, #0]
     462:	2b0a      	cmp	r3, #10
     464:	d106      	bne.n	474 <UARTwrite+0x4c>
     466:	4b12      	ldr	r3, [pc, #72]	; (4b0 <UARTwrite+0x88>)
     468:	681b      	ldr	r3, [r3, #0]
     46a:	210d      	movs	r1, #13
     46c:	4618      	mov	r0, r3
     46e:	f000 fdd1 	bl	1014 <UARTCharPut>
     472:	e005      	b.n	480 <UARTwrite+0x58>
     474:	687a      	ldr	r2, [r7, #4]
     476:	68fb      	ldr	r3, [r7, #12]
     478:	4413      	add	r3, r2
     47a:	781b      	ldrb	r3, [r3, #0]
     47c:	2b00      	cmp	r3, #0
     47e:	d010      	beq.n	4a2 <UARTwrite+0x7a>
     480:	4b0b      	ldr	r3, [pc, #44]	; (4b0 <UARTwrite+0x88>)
     482:	6818      	ldr	r0, [r3, #0]
     484:	687a      	ldr	r2, [r7, #4]
     486:	68fb      	ldr	r3, [r7, #12]
     488:	4413      	add	r3, r2
     48a:	781b      	ldrb	r3, [r3, #0]
     48c:	4619      	mov	r1, r3
     48e:	f000 fdc1 	bl	1014 <UARTCharPut>
     492:	68fb      	ldr	r3, [r7, #12]
     494:	3301      	adds	r3, #1
     496:	60fb      	str	r3, [r7, #12]
     498:	68fa      	ldr	r2, [r7, #12]
     49a:	683b      	ldr	r3, [r7, #0]
     49c:	429a      	cmp	r2, r3
     49e:	d3dc      	bcc.n	45a <UARTwrite+0x32>
     4a0:	e000      	b.n	4a4 <UARTwrite+0x7c>
     4a2:	bf00      	nop
     4a4:	68fb      	ldr	r3, [r7, #12]
     4a6:	4618      	mov	r0, r3
     4a8:	3710      	adds	r7, #16
     4aa:	46bd      	mov	sp, r7
     4ac:	bd80      	pop	{r7, pc}
     4ae:	bf00      	nop
     4b0:	20000100 	andcs	r0, r0, r0, lsl #2
     4b4:	00001048 	andeq	r1, r0, r8, asr #32

000004b8 <UARTvprintf>:
     4b8:	b580      	push	{r7, lr}
     4ba:	b08e      	sub	sp, #56	; 0x38
     4bc:	af00      	add	r7, sp, #0
     4be:	6078      	str	r0, [r7, #4]
     4c0:	6039      	str	r1, [r7, #0]
     4c2:	687b      	ldr	r3, [r7, #4]
     4c4:	2b00      	cmp	r3, #0
     4c6:	f040 81ed 	bne.w	8a4 <UARTvprintf+0x3ec>
     4ca:	f44f 715b 	mov.w	r1, #876	; 0x36c
     4ce:	48ae      	ldr	r0, [pc, #696]	; (788 <UARTvprintf+0x2d0>)
     4d0:	f7ff ff0b 	bl	2ea <__error__>
     4d4:	e1e6      	b.n	8a4 <UARTvprintf+0x3ec>
     4d6:	2300      	movs	r3, #0
     4d8:	637b      	str	r3, [r7, #52]	; 0x34
     4da:	e002      	b.n	4e2 <UARTvprintf+0x2a>
     4dc:	6b7b      	ldr	r3, [r7, #52]	; 0x34
     4de:	3301      	adds	r3, #1
     4e0:	637b      	str	r3, [r7, #52]	; 0x34
     4e2:	687a      	ldr	r2, [r7, #4]
     4e4:	6b7b      	ldr	r3, [r7, #52]	; 0x34
     4e6:	4413      	add	r3, r2
     4e8:	781b      	ldrb	r3, [r3, #0]
     4ea:	2b25      	cmp	r3, #37	; 0x25
     4ec:	d005      	beq.n	4fa <UARTvprintf+0x42>
     4ee:	687a      	ldr	r2, [r7, #4]
     4f0:	6b7b      	ldr	r3, [r7, #52]	; 0x34
     4f2:	4413      	add	r3, r2
     4f4:	781b      	ldrb	r3, [r3, #0]
     4f6:	2b00      	cmp	r3, #0
     4f8:	d1f0      	bne.n	4dc <UARTvprintf+0x24>
     4fa:	6b79      	ldr	r1, [r7, #52]	; 0x34
     4fc:	6878      	ldr	r0, [r7, #4]
     4fe:	f7ff ff93 	bl	428 <UARTwrite>
     502:	687a      	ldr	r2, [r7, #4]
     504:	6b7b      	ldr	r3, [r7, #52]	; 0x34
     506:	4413      	add	r3, r2
     508:	607b      	str	r3, [r7, #4]
     50a:	687b      	ldr	r3, [r7, #4]
     50c:	781b      	ldrb	r3, [r3, #0]
     50e:	2b25      	cmp	r3, #37	; 0x25
     510:	f040 81c7 	bne.w	8a2 <UARTvprintf+0x3ea>
     514:	687b      	ldr	r3, [r7, #4]
     516:	3301      	adds	r3, #1
     518:	607b      	str	r3, [r7, #4]
     51a:	2300      	movs	r3, #0
     51c:	62fb      	str	r3, [r7, #44]	; 0x2c
     51e:	2320      	movs	r3, #32
     520:	f887 3023 	strb.w	r3, [r7, #35]	; 0x23
     524:	687b      	ldr	r3, [r7, #4]
     526:	1c5a      	adds	r2, r3, #1
     528:	607a      	str	r2, [r7, #4]
     52a:	781b      	ldrb	r3, [r3, #0]
     52c:	3b25      	subs	r3, #37	; 0x25
     52e:	2b53      	cmp	r3, #83	; 0x53
     530:	f200 81b2 	bhi.w	898 <UARTvprintf+0x3e0>
     534:	a201      	add	r2, pc, #4	; (adr r2, 53c <UARTvprintf+0x84>)
     536:	f852 f023 	ldr.w	pc, [r2, r3, lsl #2]
     53a:	bf00      	nop
     53c:	0000088b 	andeq	r0, r0, fp, lsl #17
     540:	00000899 	muleq	r0, r9, r8
     544:	00000899 	muleq	r0, r9, r8
     548:	00000899 	muleq	r0, r9, r8
     54c:	00000899 	muleq	r0, r9, r8
     550:	00000899 	muleq	r0, r9, r8
     554:	00000899 	muleq	r0, r9, r8
     558:	00000899 	muleq	r0, r9, r8
     55c:	00000899 	muleq	r0, r9, r8
     560:	00000899 	muleq	r0, r9, r8
     564:	00000899 	muleq	r0, r9, r8
     568:	0000068d 	andeq	r0, r0, sp, lsl #13
     56c:	0000068d 	andeq	r0, r0, sp, lsl #13
     570:	0000068d 	andeq	r0, r0, sp, lsl #13
     574:	0000068d 	andeq	r0, r0, sp, lsl #13
     578:	0000068d 	andeq	r0, r0, sp, lsl #13
     57c:	0000068d 	andeq	r0, r0, sp, lsl #13
     580:	0000068d 	andeq	r0, r0, sp, lsl #13
     584:	0000068d 	andeq	r0, r0, sp, lsl #13
     588:	0000068d 	andeq	r0, r0, sp, lsl #13
     58c:	0000068d 	andeq	r0, r0, sp, lsl #13
     590:	00000899 	muleq	r0, r9, r8
     594:	00000899 	muleq	r0, r9, r8
     598:	00000899 	muleq	r0, r9, r8
     59c:	00000899 	muleq	r0, r9, r8
     5a0:	00000899 	muleq	r0, r9, r8
     5a4:	00000899 	muleq	r0, r9, r8
     5a8:	00000899 	muleq	r0, r9, r8
     5ac:	00000899 	muleq	r0, r9, r8
     5b0:	00000899 	muleq	r0, r9, r8
     5b4:	00000899 	muleq	r0, r9, r8
     5b8:	00000899 	muleq	r0, r9, r8
     5bc:	00000899 	muleq	r0, r9, r8
     5c0:	00000899 	muleq	r0, r9, r8
     5c4:	00000899 	muleq	r0, r9, r8
     5c8:	00000899 	muleq	r0, r9, r8
     5cc:	00000899 	muleq	r0, r9, r8
     5d0:	00000899 	muleq	r0, r9, r8
     5d4:	00000899 	muleq	r0, r9, r8
     5d8:	00000899 	muleq	r0, r9, r8
     5dc:	00000899 	muleq	r0, r9, r8
     5e0:	00000899 	muleq	r0, r9, r8
     5e4:	00000899 	muleq	r0, r9, r8
     5e8:	00000899 	muleq	r0, r9, r8
     5ec:	00000899 	muleq	r0, r9, r8
     5f0:	00000899 	muleq	r0, r9, r8
     5f4:	00000899 	muleq	r0, r9, r8
     5f8:	00000899 	muleq	r0, r9, r8
     5fc:	00000899 	muleq	r0, r9, r8
     600:	00000899 	muleq	r0, r9, r8
     604:	00000899 	muleq	r0, r9, r8
     608:	0000076d 	andeq	r0, r0, sp, ror #14
     60c:	00000899 	muleq	r0, r9, r8
     610:	00000899 	muleq	r0, r9, r8
     614:	00000899 	muleq	r0, r9, r8
     618:	00000899 	muleq	r0, r9, r8
     61c:	00000899 	muleq	r0, r9, r8
     620:	00000899 	muleq	r0, r9, r8
     624:	00000899 	muleq	r0, r9, r8
     628:	00000899 	muleq	r0, r9, r8
     62c:	00000899 	muleq	r0, r9, r8
     630:	00000899 	muleq	r0, r9, r8
     634:	000006c1 	andeq	r0, r0, r1, asr #13
     638:	000006d9 	ldrdeq	r0, [r0], -r9
     63c:	00000899 	muleq	r0, r9, r8
     640:	00000899 	muleq	r0, r9, r8
     644:	00000899 	muleq	r0, r9, r8
     648:	00000899 	muleq	r0, r9, r8
     64c:	000006d9 	ldrdeq	r0, [r0], -r9
     650:	00000899 	muleq	r0, r9, r8
     654:	00000899 	muleq	r0, r9, r8
     658:	00000899 	muleq	r0, r9, r8
     65c:	00000899 	muleq	r0, r9, r8
     660:	00000899 	muleq	r0, r9, r8
     664:	00000899 	muleq	r0, r9, r8
     668:	0000076d 	andeq	r0, r0, sp, ror #14
     66c:	00000899 	muleq	r0, r9, r8
     670:	00000899 	muleq	r0, r9, r8
     674:	00000703 	andeq	r0, r0, r3, lsl #14
     678:	00000899 	muleq	r0, r9, r8
     67c:	00000755 	andeq	r0, r0, r5, asr r7
     680:	00000899 	muleq	r0, r9, r8
     684:	00000899 	muleq	r0, r9, r8
     688:	0000076d 	andeq	r0, r0, sp, ror #14
     68c:	687b      	ldr	r3, [r7, #4]
     68e:	3b01      	subs	r3, #1
     690:	781b      	ldrb	r3, [r3, #0]
     692:	2b30      	cmp	r3, #48	; 0x30
     694:	d105      	bne.n	6a2 <UARTvprintf+0x1ea>
     696:	6afb      	ldr	r3, [r7, #44]	; 0x2c
     698:	2b00      	cmp	r3, #0
     69a:	d102      	bne.n	6a2 <UARTvprintf+0x1ea>
     69c:	2330      	movs	r3, #48	; 0x30
     69e:	f887 3023 	strb.w	r3, [r7, #35]	; 0x23
     6a2:	6afa      	ldr	r2, [r7, #44]	; 0x2c
     6a4:	4613      	mov	r3, r2
     6a6:	009b      	lsls	r3, r3, #2
     6a8:	4413      	add	r3, r2
     6aa:	005b      	lsls	r3, r3, #1
     6ac:	62fb      	str	r3, [r7, #44]	; 0x2c
     6ae:	687b      	ldr	r3, [r7, #4]
     6b0:	3b01      	subs	r3, #1
     6b2:	781b      	ldrb	r3, [r3, #0]
     6b4:	461a      	mov	r2, r3
     6b6:	6afb      	ldr	r3, [r7, #44]	; 0x2c
     6b8:	4413      	add	r3, r2
     6ba:	3b30      	subs	r3, #48	; 0x30
     6bc:	62fb      	str	r3, [r7, #44]	; 0x2c
     6be:	e731      	b.n	524 <UARTvprintf+0x6c>
     6c0:	683b      	ldr	r3, [r7, #0]
     6c2:	1d1a      	adds	r2, r3, #4
     6c4:	603a      	str	r2, [r7, #0]
     6c6:	681b      	ldr	r3, [r3, #0]
     6c8:	61bb      	str	r3, [r7, #24]
     6ca:	f107 0318 	add.w	r3, r7, #24
     6ce:	2101      	movs	r1, #1
     6d0:	4618      	mov	r0, r3
     6d2:	f7ff fea9 	bl	428 <UARTwrite>
     6d6:	e0e5      	b.n	8a4 <UARTvprintf+0x3ec>
     6d8:	683b      	ldr	r3, [r7, #0]
     6da:	1d1a      	adds	r2, r3, #4
     6dc:	603a      	str	r2, [r7, #0]
     6de:	681b      	ldr	r3, [r3, #0]
     6e0:	61bb      	str	r3, [r7, #24]
     6e2:	2300      	movs	r3, #0
     6e4:	633b      	str	r3, [r7, #48]	; 0x30
     6e6:	69bb      	ldr	r3, [r7, #24]
     6e8:	2b00      	cmp	r3, #0
     6ea:	da05      	bge.n	6f8 <UARTvprintf+0x240>
     6ec:	69bb      	ldr	r3, [r7, #24]
     6ee:	425b      	negs	r3, r3
     6f0:	61bb      	str	r3, [r7, #24]
     6f2:	2301      	movs	r3, #1
     6f4:	627b      	str	r3, [r7, #36]	; 0x24
     6f6:	e001      	b.n	6fc <UARTvprintf+0x244>
     6f8:	2300      	movs	r3, #0
     6fa:	627b      	str	r3, [r7, #36]	; 0x24
     6fc:	230a      	movs	r3, #10
     6fe:	62bb      	str	r3, [r7, #40]	; 0x28
     700:	e03f      	b.n	782 <UARTvprintf+0x2ca>
     702:	683b      	ldr	r3, [r7, #0]
     704:	1d1a      	adds	r2, r3, #4
     706:	603a      	str	r2, [r7, #0]
     708:	681b      	ldr	r3, [r3, #0]
     70a:	61fb      	str	r3, [r7, #28]
     70c:	2300      	movs	r3, #0
     70e:	637b      	str	r3, [r7, #52]	; 0x34
     710:	e002      	b.n	718 <UARTvprintf+0x260>
     712:	6b7b      	ldr	r3, [r7, #52]	; 0x34
     714:	3301      	adds	r3, #1
     716:	637b      	str	r3, [r7, #52]	; 0x34
     718:	69fa      	ldr	r2, [r7, #28]
     71a:	6b7b      	ldr	r3, [r7, #52]	; 0x34
     71c:	4413      	add	r3, r2
     71e:	781b      	ldrb	r3, [r3, #0]
     720:	2b00      	cmp	r3, #0
     722:	d1f6      	bne.n	712 <UARTvprintf+0x25a>
     724:	6b79      	ldr	r1, [r7, #52]	; 0x34
     726:	69f8      	ldr	r0, [r7, #28]
     728:	f7ff fe7e 	bl	428 <UARTwrite>
     72c:	6afa      	ldr	r2, [r7, #44]	; 0x2c
     72e:	6b7b      	ldr	r3, [r7, #52]	; 0x34
     730:	429a      	cmp	r2, r3
     732:	f240 80b7 	bls.w	8a4 <UARTvprintf+0x3ec>
     736:	6afa      	ldr	r2, [r7, #44]	; 0x2c
     738:	6b7b      	ldr	r3, [r7, #52]	; 0x34
     73a:	1ad3      	subs	r3, r2, r3
     73c:	62fb      	str	r3, [r7, #44]	; 0x2c
     73e:	e003      	b.n	748 <UARTvprintf+0x290>
     740:	2101      	movs	r1, #1
     742:	4812      	ldr	r0, [pc, #72]	; (78c <UARTvprintf+0x2d4>)
     744:	f7ff fe70 	bl	428 <UARTwrite>
     748:	6afb      	ldr	r3, [r7, #44]	; 0x2c
     74a:	1e5a      	subs	r2, r3, #1
     74c:	62fa      	str	r2, [r7, #44]	; 0x2c
     74e:	2b00      	cmp	r3, #0
     750:	d1f6      	bne.n	740 <UARTvprintf+0x288>
     752:	e0a7      	b.n	8a4 <UARTvprintf+0x3ec>
     754:	683b      	ldr	r3, [r7, #0]
     756:	1d1a      	adds	r2, r3, #4
     758:	603a      	str	r2, [r7, #0]
     75a:	681b      	ldr	r3, [r3, #0]
     75c:	61bb      	str	r3, [r7, #24]
     75e:	2300      	movs	r3, #0
     760:	633b      	str	r3, [r7, #48]	; 0x30
     762:	230a      	movs	r3, #10
     764:	62bb      	str	r3, [r7, #40]	; 0x28
     766:	2300      	movs	r3, #0
     768:	627b      	str	r3, [r7, #36]	; 0x24
     76a:	e00a      	b.n	782 <UARTvprintf+0x2ca>
     76c:	683b      	ldr	r3, [r7, #0]
     76e:	1d1a      	adds	r2, r3, #4
     770:	603a      	str	r2, [r7, #0]
     772:	681b      	ldr	r3, [r3, #0]
     774:	61bb      	str	r3, [r7, #24]
     776:	2300      	movs	r3, #0
     778:	633b      	str	r3, [r7, #48]	; 0x30
     77a:	2310      	movs	r3, #16
     77c:	62bb      	str	r3, [r7, #40]	; 0x28
     77e:	2300      	movs	r3, #0
     780:	627b      	str	r3, [r7, #36]	; 0x24
     782:	2301      	movs	r3, #1
     784:	637b      	str	r3, [r7, #52]	; 0x34
     786:	e00b      	b.n	7a0 <UARTvprintf+0x2e8>
     788:	00001048 	andeq	r1, r0, r8, asr #32
     78c:	00001070 	andeq	r1, r0, r0, ror r0
     790:	6b7b      	ldr	r3, [r7, #52]	; 0x34
     792:	6aba      	ldr	r2, [r7, #40]	; 0x28
     794:	fb02 f303 	mul.w	r3, r2, r3
     798:	637b      	str	r3, [r7, #52]	; 0x34
     79a:	6afb      	ldr	r3, [r7, #44]	; 0x2c
     79c:	3b01      	subs	r3, #1
     79e:	62fb      	str	r3, [r7, #44]	; 0x2c
     7a0:	6b7b      	ldr	r3, [r7, #52]	; 0x34
     7a2:	6aba      	ldr	r2, [r7, #40]	; 0x28
     7a4:	fb03 f202 	mul.w	r2, r3, r2
     7a8:	69bb      	ldr	r3, [r7, #24]
     7aa:	429a      	cmp	r2, r3
     7ac:	d809      	bhi.n	7c2 <UARTvprintf+0x30a>
     7ae:	6b7b      	ldr	r3, [r7, #52]	; 0x34
     7b0:	6aba      	ldr	r2, [r7, #40]	; 0x28
     7b2:	fb03 f202 	mul.w	r2, r3, r2
     7b6:	6abb      	ldr	r3, [r7, #40]	; 0x28
     7b8:	fbb2 f3f3 	udiv	r3, r2, r3
     7bc:	6b7a      	ldr	r2, [r7, #52]	; 0x34
     7be:	429a      	cmp	r2, r3
     7c0:	d0e6      	beq.n	790 <UARTvprintf+0x2d8>
     7c2:	6a7b      	ldr	r3, [r7, #36]	; 0x24
     7c4:	2b00      	cmp	r3, #0
     7c6:	d002      	beq.n	7ce <UARTvprintf+0x316>
     7c8:	6afb      	ldr	r3, [r7, #44]	; 0x2c
     7ca:	3b01      	subs	r3, #1
     7cc:	62fb      	str	r3, [r7, #44]	; 0x2c
     7ce:	6a7b      	ldr	r3, [r7, #36]	; 0x24
     7d0:	2b00      	cmp	r3, #0
     7d2:	d00e      	beq.n	7f2 <UARTvprintf+0x33a>
     7d4:	f897 3023 	ldrb.w	r3, [r7, #35]	; 0x23
     7d8:	2b30      	cmp	r3, #48	; 0x30
     7da:	d10a      	bne.n	7f2 <UARTvprintf+0x33a>
     7dc:	6b3b      	ldr	r3, [r7, #48]	; 0x30
     7de:	1c5a      	adds	r2, r3, #1
     7e0:	633a      	str	r2, [r7, #48]	; 0x30
     7e2:	f107 0238 	add.w	r2, r7, #56	; 0x38
     7e6:	4413      	add	r3, r2
     7e8:	222d      	movs	r2, #45	; 0x2d
     7ea:	f803 2c30 	strb.w	r2, [r3, #-48]
     7ee:	2300      	movs	r3, #0
     7f0:	627b      	str	r3, [r7, #36]	; 0x24
     7f2:	6afb      	ldr	r3, [r7, #44]	; 0x2c
     7f4:	2b01      	cmp	r3, #1
     7f6:	d916      	bls.n	826 <UARTvprintf+0x36e>
     7f8:	6afb      	ldr	r3, [r7, #44]	; 0x2c
     7fa:	2b0f      	cmp	r3, #15
     7fc:	d813      	bhi.n	826 <UARTvprintf+0x36e>
     7fe:	6afb      	ldr	r3, [r7, #44]	; 0x2c
     800:	3b01      	subs	r3, #1
     802:	62fb      	str	r3, [r7, #44]	; 0x2c
     804:	e00c      	b.n	820 <UARTvprintf+0x368>
     806:	6b3b      	ldr	r3, [r7, #48]	; 0x30
     808:	1c5a      	adds	r2, r3, #1
     80a:	633a      	str	r2, [r7, #48]	; 0x30
     80c:	f107 0238 	add.w	r2, r7, #56	; 0x38
     810:	4413      	add	r3, r2
     812:	f897 2023 	ldrb.w	r2, [r7, #35]	; 0x23
     816:	f803 2c30 	strb.w	r2, [r3, #-48]
     81a:	6afb      	ldr	r3, [r7, #44]	; 0x2c
     81c:	3b01      	subs	r3, #1
     81e:	62fb      	str	r3, [r7, #44]	; 0x2c
     820:	6afb      	ldr	r3, [r7, #44]	; 0x2c
     822:	2b00      	cmp	r3, #0
     824:	d1ef      	bne.n	806 <UARTvprintf+0x34e>
     826:	6a7b      	ldr	r3, [r7, #36]	; 0x24
     828:	2b00      	cmp	r3, #0
     82a:	d024      	beq.n	876 <UARTvprintf+0x3be>
     82c:	6b3b      	ldr	r3, [r7, #48]	; 0x30
     82e:	1c5a      	adds	r2, r3, #1
     830:	633a      	str	r2, [r7, #48]	; 0x30
     832:	f107 0238 	add.w	r2, r7, #56	; 0x38
     836:	4413      	add	r3, r2
     838:	222d      	movs	r2, #45	; 0x2d
     83a:	f803 2c30 	strb.w	r2, [r3, #-48]
     83e:	e01a      	b.n	876 <UARTvprintf+0x3be>
     840:	481d      	ldr	r0, [pc, #116]	; (8b8 <UARTvprintf+0x400>)
     842:	69ba      	ldr	r2, [r7, #24]
     844:	6b7b      	ldr	r3, [r7, #52]	; 0x34
     846:	fbb2 f3f3 	udiv	r3, r2, r3
     84a:	6aba      	ldr	r2, [r7, #40]	; 0x28
     84c:	fbb3 f2f2 	udiv	r2, r3, r2
     850:	6ab9      	ldr	r1, [r7, #40]	; 0x28
     852:	fb01 f202 	mul.w	r2, r1, r2
     856:	1a9b      	subs	r3, r3, r2
     858:	18c2      	adds	r2, r0, r3
     85a:	6b3b      	ldr	r3, [r7, #48]	; 0x30
     85c:	1c59      	adds	r1, r3, #1
     85e:	6339      	str	r1, [r7, #48]	; 0x30
     860:	7812      	ldrb	r2, [r2, #0]
     862:	f107 0138 	add.w	r1, r7, #56	; 0x38
     866:	440b      	add	r3, r1
     868:	f803 2c30 	strb.w	r2, [r3, #-48]
     86c:	6b7a      	ldr	r2, [r7, #52]	; 0x34
     86e:	6abb      	ldr	r3, [r7, #40]	; 0x28
     870:	fbb2 f3f3 	udiv	r3, r2, r3
     874:	637b      	str	r3, [r7, #52]	; 0x34
     876:	6b7b      	ldr	r3, [r7, #52]	; 0x34
     878:	2b00      	cmp	r3, #0
     87a:	d1e1      	bne.n	840 <UARTvprintf+0x388>
     87c:	f107 0308 	add.w	r3, r7, #8
     880:	6b39      	ldr	r1, [r7, #48]	; 0x30
     882:	4618      	mov	r0, r3
     884:	f7ff fdd0 	bl	428 <UARTwrite>
     888:	e00c      	b.n	8a4 <UARTvprintf+0x3ec>
     88a:	687b      	ldr	r3, [r7, #4]
     88c:	3b01      	subs	r3, #1
     88e:	2101      	movs	r1, #1
     890:	4618      	mov	r0, r3
     892:	f7ff fdc9 	bl	428 <UARTwrite>
     896:	e005      	b.n	8a4 <UARTvprintf+0x3ec>
     898:	2105      	movs	r1, #5
     89a:	4808      	ldr	r0, [pc, #32]	; (8bc <UARTvprintf+0x404>)
     89c:	f7ff fdc4 	bl	428 <UARTwrite>
     8a0:	e000      	b.n	8a4 <UARTvprintf+0x3ec>
     8a2:	bf00      	nop
     8a4:	687b      	ldr	r3, [r7, #4]
     8a6:	781b      	ldrb	r3, [r3, #0]
     8a8:	2b00      	cmp	r3, #0
     8aa:	f47f ae14 	bne.w	4d6 <UARTvprintf+0x1e>
     8ae:	bf00      	nop
     8b0:	bf00      	nop
     8b2:	3738      	adds	r7, #56	; 0x38
     8b4:	46bd      	mov	sp, r7
     8b6:	bd80      	pop	{r7, pc}
     8b8:	00001034 	andeq	r1, r0, r4, lsr r0
     8bc:	00001074 	andeq	r1, r0, r4, ror r0

000008c0 <UARTprintf>:
     8c0:	b40f      	push	{r0, r1, r2, r3}
     8c2:	b580      	push	{r7, lr}
     8c4:	b082      	sub	sp, #8
     8c6:	af00      	add	r7, sp, #0
     8c8:	f107 0314 	add.w	r3, r7, #20
     8cc:	607b      	str	r3, [r7, #4]
     8ce:	6879      	ldr	r1, [r7, #4]
     8d0:	6938      	ldr	r0, [r7, #16]
     8d2:	f7ff fdf1 	bl	4b8 <UARTvprintf>
     8d6:	bf00      	nop
     8d8:	3708      	adds	r7, #8
     8da:	46bd      	mov	sp, r7
     8dc:	e8bd 4080 	ldmia.w	sp!, {r7, lr}
     8e0:	b004      	add	sp, #16
     8e2:	4770      	bx	lr

000008e4 <USBPinInitialize>:
     8e4:	b480      	push	{r7}
     8e6:	af00      	add	r7, sp, #0
     8e8:	4b1a      	ldr	r3, [pc, #104]	; (954 <USBPinInitialize+0x70>)
     8ea:	681b      	ldr	r3, [r3, #0]
     8ec:	4a19      	ldr	r2, [pc, #100]	; (954 <USBPinInitialize+0x70>)
     8ee:	f043 0308 	orr.w	r3, r3, #8
     8f2:	6013      	str	r3, [r2, #0]
     8f4:	4b18      	ldr	r3, [pc, #96]	; (958 <USBPinInitialize+0x74>)
     8f6:	681b      	ldr	r3, [r3, #0]
     8f8:	4a17      	ldr	r2, [pc, #92]	; (958 <USBPinInitialize+0x74>)
     8fa:	f023 0330 	bic.w	r3, r3, #48	; 0x30
     8fe:	6013      	str	r3, [r2, #0]
     900:	4b16      	ldr	r3, [pc, #88]	; (95c <USBPinInitialize+0x78>)
     902:	681b      	ldr	r3, [r3, #0]
     904:	4a15      	ldr	r2, [pc, #84]	; (95c <USBPinInitialize+0x78>)
     906:	f043 0330 	orr.w	r3, r3, #48	; 0x30
     90a:	6013      	str	r3, [r2, #0]
     90c:	4b14      	ldr	r3, [pc, #80]	; (960 <USBPinInitialize+0x7c>)
     90e:	681b      	ldr	r3, [r3, #0]
     910:	4a13      	ldr	r2, [pc, #76]	; (960 <USBPinInitialize+0x7c>)
     912:	f423 037f 	bic.w	r3, r3, #16711680	; 0xff0000
     916:	6013      	str	r3, [r2, #0]
     918:	4b12      	ldr	r3, [pc, #72]	; (964 <USBPinInitialize+0x80>)
     91a:	681b      	ldr	r3, [r3, #0]
     91c:	4a11      	ldr	r2, [pc, #68]	; (964 <USBPinInitialize+0x80>)
     91e:	f043 0330 	orr.w	r3, r3, #48	; 0x30
     922:	6013      	str	r3, [r2, #0]
     924:	4b10      	ldr	r3, [pc, #64]	; (968 <USBPinInitialize+0x84>)
     926:	681b      	ldr	r3, [r3, #0]
     928:	4a0f      	ldr	r2, [pc, #60]	; (968 <USBPinInitialize+0x84>)
     92a:	f023 0330 	bic.w	r3, r3, #48	; 0x30
     92e:	6013      	str	r3, [r2, #0]
     930:	4b0e      	ldr	r3, [pc, #56]	; (96c <USBPinInitialize+0x88>)
     932:	681b      	ldr	r3, [r3, #0]
     934:	4a0d      	ldr	r2, [pc, #52]	; (96c <USBPinInitialize+0x88>)
     936:	f023 0330 	bic.w	r3, r3, #48	; 0x30
     93a:	6013      	str	r3, [r2, #0]
     93c:	4b0c      	ldr	r3, [pc, #48]	; (970 <USBPinInitialize+0x8c>)
     93e:	681b      	ldr	r3, [r3, #0]
     940:	4a0b      	ldr	r2, [pc, #44]	; (970 <USBPinInitialize+0x8c>)
     942:	f043 0330 	orr.w	r3, r3, #48	; 0x30
     946:	6013      	str	r3, [r2, #0]
     948:	bf00      	nop
     94a:	46bd      	mov	sp, r7
     94c:	f85d 7b04 	ldr.w	r7, [sp], #4
     950:	4770      	bx	lr
     952:	bf00      	nop
     954:	400fe608 	andmi	lr, pc, r8, lsl #12
     958:	40007400 	andmi	r7, r0, r0, lsl #8
     95c:	40007420 	andmi	r7, r0, r0, lsr #8
     960:	4000752c 	andmi	r7, r0, ip, lsr #10
     964:	40007500 	andmi	r7, r0, r0, lsl #10
     968:	40007504 	andmi	r7, r0, r4, lsl #10
     96c:	4000750c 	andmi	r7, r0, ip, lsl #10
     970:	40007528 	andmi	r7, r0, r8, lsr #10

00000974 <USBBusConnect>:
     974:	b480      	push	{r7}
     976:	af00      	add	r7, sp, #0
     978:	4b05      	ldr	r3, [pc, #20]	; (990 <USBBusConnect+0x1c>)
     97a:	781b      	ldrb	r3, [r3, #0]
     97c:	4a04      	ldr	r2, [pc, #16]	; (990 <USBBusConnect+0x1c>)
     97e:	f043 0340 	orr.w	r3, r3, #64	; 0x40
     982:	b2db      	uxtb	r3, r3
     984:	7013      	strb	r3, [r2, #0]
     986:	bf00      	nop
     988:	46bd      	mov	sp, r7
     98a:	f85d 7b04 	ldr.w	r7, [sp], #4
     98e:	4770      	bx	lr
     990:	40050001 	andmi	r0, r5, r1

00000994 <EndpointInitialize>:
     994:	b480      	push	{r7}
     996:	af00      	add	r7, sp, #0
     998:	bf00      	nop
     99a:	46bd      	mov	sp, r7
     99c:	f85d 7b04 	ldr.w	r7, [sp], #4
     9a0:	4770      	bx	lr
	...

000009a4 <USBInterruptInitialize>:
     9a4:	b480      	push	{r7}
     9a6:	b083      	sub	sp, #12
     9a8:	af00      	add	r7, sp, #0
     9aa:	4b15      	ldr	r3, [pc, #84]	; (a00 <USBInterruptInitialize+0x5c>)
     9ac:	781b      	ldrb	r3, [r3, #0]
     9ae:	4a14      	ldr	r2, [pc, #80]	; (a00 <USBInterruptInitialize+0x5c>)
     9b0:	f043 032f 	orr.w	r3, r3, #47	; 0x2f
     9b4:	b2db      	uxtb	r3, r3
     9b6:	7013      	strb	r3, [r2, #0]
     9b8:	4b12      	ldr	r3, [pc, #72]	; (a04 <USBInterruptInitialize+0x60>)
     9ba:	881b      	ldrh	r3, [r3, #0]
     9bc:	4a11      	ldr	r2, [pc, #68]	; (a04 <USBInterruptInitialize+0x60>)
     9be:	f043 0302 	orr.w	r3, r3, #2
     9c2:	b29b      	uxth	r3, r3
     9c4:	8013      	strh	r3, [r2, #0]
     9c6:	4b10      	ldr	r3, [pc, #64]	; (a08 <USBInterruptInitialize+0x64>)
     9c8:	881b      	ldrh	r3, [r3, #0]
     9ca:	4a0f      	ldr	r2, [pc, #60]	; (a08 <USBInterruptInitialize+0x64>)
     9cc:	f043 0302 	orr.w	r3, r3, #2
     9d0:	b29b      	uxth	r3, r3
     9d2:	8013      	strh	r3, [r2, #0]
     9d4:	4b0d      	ldr	r3, [pc, #52]	; (a0c <USBInterruptInitialize+0x68>)
     9d6:	781b      	ldrb	r3, [r3, #0]
     9d8:	607b      	str	r3, [r7, #4]
     9da:	4b0d      	ldr	r3, [pc, #52]	; (a10 <USBInterruptInitialize+0x6c>)
     9dc:	881b      	ldrh	r3, [r3, #0]
     9de:	607b      	str	r3, [r7, #4]
     9e0:	4b0c      	ldr	r3, [pc, #48]	; (a14 <USBInterruptInitialize+0x70>)
     9e2:	881b      	ldrh	r3, [r3, #0]
     9e4:	607b      	str	r3, [r7, #4]
     9e6:	4b0c      	ldr	r3, [pc, #48]	; (a18 <USBInterruptInitialize+0x74>)
     9e8:	681b      	ldr	r3, [r3, #0]
     9ea:	4a0b      	ldr	r2, [pc, #44]	; (a18 <USBInterruptInitialize+0x74>)
     9ec:	f443 5380 	orr.w	r3, r3, #4096	; 0x1000
     9f0:	6013      	str	r3, [r2, #0]
     9f2:	bf00      	nop
     9f4:	370c      	adds	r7, #12
     9f6:	46bd      	mov	sp, r7
     9f8:	f85d 7b04 	ldr.w	r7, [sp], #4
     9fc:	4770      	bx	lr
     9fe:	bf00      	nop
     a00:	4005000b 	andmi	r0, r5, fp
     a04:	40050008 	andmi	r0, r5, r8
     a08:	40050006 	andmi	r0, r5, r6
     a0c:	4005000a 	andmi	r0, r5, sl
     a10:	40050002 	andmi	r0, r5, r2
     a14:	40050004 	andmi	r0, r5, r4
     a18:	e000e104 	and	lr, r0, r4, lsl #2

00000a1c <USBDeviceInit>:
     a1c:	b480      	push	{r7}
     a1e:	b083      	sub	sp, #12
     a20:	af00      	add	r7, sp, #0
     a22:	4b18      	ldr	r3, [pc, #96]	; (a84 <USBDeviceInit+0x68>)
     a24:	681b      	ldr	r3, [r3, #0]
     a26:	4a17      	ldr	r2, [pc, #92]	; (a84 <USBDeviceInit+0x68>)
     a28:	f423 4380 	bic.w	r3, r3, #16384	; 0x4000
     a2c:	6013      	str	r3, [r2, #0]
     a2e:	4b16      	ldr	r3, [pc, #88]	; (a88 <USBDeviceInit+0x6c>)
     a30:	681b      	ldr	r3, [r3, #0]
     a32:	4a15      	ldr	r2, [pc, #84]	; (a88 <USBDeviceInit+0x6c>)
     a34:	f043 0301 	orr.w	r3, r3, #1
     a38:	6013      	str	r3, [r2, #0]
     a3a:	4b14      	ldr	r3, [pc, #80]	; (a8c <USBDeviceInit+0x70>)
     a3c:	681b      	ldr	r3, [r3, #0]
     a3e:	4a13      	ldr	r2, [pc, #76]	; (a8c <USBDeviceInit+0x70>)
     a40:	f443 3380 	orr.w	r3, r3, #65536	; 0x10000
     a44:	6013      	str	r3, [r2, #0]
     a46:	2300      	movs	r3, #0
     a48:	71fb      	strb	r3, [r7, #7]
     a4a:	e004      	b.n	a56 <USBDeviceInit+0x3a>
     a4c:	79fb      	ldrb	r3, [r7, #7]
     a4e:	b2db      	uxtb	r3, r3
     a50:	3301      	adds	r3, #1
     a52:	b2db      	uxtb	r3, r3
     a54:	71fb      	strb	r3, [r7, #7]
     a56:	79fb      	ldrb	r3, [r7, #7]
     a58:	b2db      	uxtb	r3, r3
     a5a:	2b0f      	cmp	r3, #15
     a5c:	d9f6      	bls.n	a4c <USBDeviceInit+0x30>
     a5e:	4b0b      	ldr	r3, [pc, #44]	; (a8c <USBDeviceInit+0x70>)
     a60:	681b      	ldr	r3, [r3, #0]
     a62:	4a0a      	ldr	r2, [pc, #40]	; (a8c <USBDeviceInit+0x70>)
     a64:	f423 3380 	bic.w	r3, r3, #65536	; 0x10000
     a68:	6013      	str	r3, [r2, #0]
     a6a:	4b09      	ldr	r3, [pc, #36]	; (a90 <USBDeviceInit+0x74>)
     a6c:	681b      	ldr	r3, [r3, #0]
     a6e:	4a08      	ldr	r2, [pc, #32]	; (a90 <USBDeviceInit+0x74>)
     a70:	f043 0303 	orr.w	r3, r3, #3
     a74:	6013      	str	r3, [r2, #0]
     a76:	bf00      	nop
     a78:	370c      	adds	r7, #12
     a7a:	46bd      	mov	sp, r7
     a7c:	f85d 7b04 	ldr.w	r7, [sp], #4
     a80:	4770      	bx	lr
     a82:	bf00      	nop
     a84:	400fe070 	andmi	lr, pc, r0, ror r0	; <UNPREDICTABLE>
     a88:	400fe628 	andmi	lr, pc, r8, lsr #12
     a8c:	400fe048 	andmi	lr, pc, r8, asr #32
     a90:	4005041c 	andmi	r0, r5, ip, lsl r4

00000a94 <readRxFIFO>:
     a94:	b480      	push	{r7}
     a96:	b085      	sub	sp, #20
     a98:	af00      	add	r7, sp, #0
     a9a:	60f8      	str	r0, [r7, #12]
     a9c:	60b9      	str	r1, [r7, #8]
     a9e:	607a      	str	r2, [r7, #4]
     aa0:	687b      	ldr	r3, [r7, #4]
     aa2:	2b20      	cmp	r3, #32
     aa4:	d01b      	beq.n	ade <readRxFIFO+0x4a>
     aa6:	687b      	ldr	r3, [r7, #4]
     aa8:	2b20      	cmp	r3, #32
     aaa:	d820      	bhi.n	aee <readRxFIFO+0x5a>
     aac:	687b      	ldr	r3, [r7, #4]
     aae:	2b08      	cmp	r3, #8
     ab0:	d003      	beq.n	aba <readRxFIFO+0x26>
     ab2:	687b      	ldr	r3, [r7, #4]
     ab4:	2b10      	cmp	r3, #16
     ab6:	d009      	beq.n	acc <readRxFIFO+0x38>
     ab8:	e019      	b.n	aee <readRxFIFO+0x5a>
     aba:	68fa      	ldr	r2, [r7, #12]
     abc:	4b0f      	ldr	r3, [pc, #60]	; (afc <readRxFIFO+0x68>)
     abe:	4413      	add	r3, r2
     ac0:	009b      	lsls	r3, r3, #2
     ac2:	781b      	ldrb	r3, [r3, #0]
     ac4:	461a      	mov	r2, r3
     ac6:	68bb      	ldr	r3, [r7, #8]
     ac8:	601a      	str	r2, [r3, #0]
     aca:	e010      	b.n	aee <readRxFIFO+0x5a>
     acc:	68fa      	ldr	r2, [r7, #12]
     ace:	4b0b      	ldr	r3, [pc, #44]	; (afc <readRxFIFO+0x68>)
     ad0:	4413      	add	r3, r2
     ad2:	009b      	lsls	r3, r3, #2
     ad4:	881b      	ldrh	r3, [r3, #0]
     ad6:	461a      	mov	r2, r3
     ad8:	68bb      	ldr	r3, [r7, #8]
     ada:	601a      	str	r2, [r3, #0]
     adc:	e007      	b.n	aee <readRxFIFO+0x5a>
     ade:	68fa      	ldr	r2, [r7, #12]
     ae0:	4b06      	ldr	r3, [pc, #24]	; (afc <readRxFIFO+0x68>)
     ae2:	4413      	add	r3, r2
     ae4:	009b      	lsls	r3, r3, #2
     ae6:	681a      	ldr	r2, [r3, #0]
     ae8:	68bb      	ldr	r3, [r7, #8]
     aea:	601a      	str	r2, [r3, #0]
     aec:	bf00      	nop
     aee:	bf00      	nop
     af0:	3714      	adds	r7, #20
     af2:	46bd      	mov	sp, r7
     af4:	f85d 7b04 	ldr.w	r7, [sp], #4
     af8:	4770      	bx	lr
     afa:	bf00      	nop
     afc:	10014008 	andne	r4, r1, r8

00000b00 <readPacket>:
     b00:	b580      	push	{r7, lr}
     b02:	b084      	sub	sp, #16
     b04:	af00      	add	r7, sp, #0
     b06:	60f8      	str	r0, [r7, #12]
     b08:	60b9      	str	r1, [r7, #8]
     b0a:	4613      	mov	r3, r2
     b0c:	80fb      	strh	r3, [r7, #6]
     b0e:	e00a      	b.n	b26 <readPacket+0x26>
     b10:	2220      	movs	r2, #32
     b12:	68b9      	ldr	r1, [r7, #8]
     b14:	68f8      	ldr	r0, [r7, #12]
     b16:	f7ff ffbd 	bl	a94 <readRxFIFO>
     b1a:	88fb      	ldrh	r3, [r7, #6]
     b1c:	3b04      	subs	r3, #4
     b1e:	80fb      	strh	r3, [r7, #6]
     b20:	68bb      	ldr	r3, [r7, #8]
     b22:	3304      	adds	r3, #4
     b24:	60bb      	str	r3, [r7, #8]
     b26:	88fb      	ldrh	r3, [r7, #6]
     b28:	2b03      	cmp	r3, #3
     b2a:	d8f1      	bhi.n	b10 <readPacket+0x10>
     b2c:	88fb      	ldrh	r3, [r7, #6]
     b2e:	2b00      	cmp	r3, #0
     b30:	d00e      	beq.n	b50 <readPacket+0x50>
     b32:	e00a      	b.n	b4a <readPacket+0x4a>
     b34:	2208      	movs	r2, #8
     b36:	68b9      	ldr	r1, [r7, #8]
     b38:	68f8      	ldr	r0, [r7, #12]
     b3a:	f7ff ffab 	bl	a94 <readRxFIFO>
     b3e:	88fb      	ldrh	r3, [r7, #6]
     b40:	3b01      	subs	r3, #1
     b42:	80fb      	strh	r3, [r7, #6]
     b44:	68bb      	ldr	r3, [r7, #8]
     b46:	3301      	adds	r3, #1
     b48:	60bb      	str	r3, [r7, #8]
     b4a:	88fb      	ldrh	r3, [r7, #6]
     b4c:	2b00      	cmp	r3, #0
     b4e:	d1f1      	bne.n	b34 <readPacket+0x34>
     b50:	bf00      	nop
     b52:	3710      	adds	r7, #16
     b54:	46bd      	mov	sp, r7
     b56:	bd80      	pop	{r7, pc}

00000b58 <USBDeviceGetIntStatus>:
     b58:	b480      	push	{r7}
     b5a:	b083      	sub	sp, #12
     b5c:	af00      	add	r7, sp, #0
     b5e:	4b0c      	ldr	r3, [pc, #48]	; (b90 <USBDeviceGetIntStatus+0x38>)
     b60:	781b      	ldrb	r3, [r3, #0]
     b62:	607b      	str	r3, [r7, #4]
     b64:	4b0b      	ldr	r3, [pc, #44]	; (b94 <USBDeviceGetIntStatus+0x3c>)
     b66:	881b      	ldrh	r3, [r3, #0]
     b68:	021b      	lsls	r3, r3, #8
     b6a:	461a      	mov	r2, r3
     b6c:	687b      	ldr	r3, [r7, #4]
     b6e:	4313      	orrs	r3, r2
     b70:	607b      	str	r3, [r7, #4]
     b72:	4b09      	ldr	r3, [pc, #36]	; (b98 <USBDeviceGetIntStatus+0x40>)
     b74:	881b      	ldrh	r3, [r3, #0]
     b76:	041b      	lsls	r3, r3, #16
     b78:	461a      	mov	r2, r3
     b7a:	687b      	ldr	r3, [r7, #4]
     b7c:	4313      	orrs	r3, r2
     b7e:	607b      	str	r3, [r7, #4]
     b80:	687b      	ldr	r3, [r7, #4]
     b82:	4618      	mov	r0, r3
     b84:	370c      	adds	r7, #12
     b86:	46bd      	mov	sp, r7
     b88:	f85d 7b04 	ldr.w	r7, [sp], #4
     b8c:	4770      	bx	lr
     b8e:	bf00      	nop
     b90:	4005000a 	andmi	r0, r5, sl
     b94:	40050002 	andmi	r0, r5, r2
     b98:	40050004 	andmi	r0, r5, r4

00000b9c <USBGetRcvBytes>:
     b9c:	b480      	push	{r7}
     b9e:	b085      	sub	sp, #20
     ba0:	af00      	add	r7, sp, #0
     ba2:	6078      	str	r0, [r7, #4]
     ba4:	2300      	movs	r3, #0
     ba6:	81fb      	strh	r3, [r7, #14]
     ba8:	687b      	ldr	r3, [r7, #4]
     baa:	2b00      	cmp	r3, #0
     bac:	d103      	bne.n	bb6 <USBGetRcvBytes+0x1a>
     bae:	4b09      	ldr	r3, [pc, #36]	; (bd4 <USBGetRcvBytes+0x38>)
     bb0:	781b      	ldrb	r3, [r3, #0]
     bb2:	81fb      	strh	r3, [r7, #14]
     bb4:	e006      	b.n	bc4 <USBGetRcvBytes+0x28>
     bb6:	687b      	ldr	r3, [r7, #4]
     bb8:	3b01      	subs	r3, #1
     bba:	011a      	lsls	r2, r3, #4
     bbc:	4b06      	ldr	r3, [pc, #24]	; (bd8 <USBGetRcvBytes+0x3c>)
     bbe:	4413      	add	r3, r2
     bc0:	881b      	ldrh	r3, [r3, #0]
     bc2:	81fb      	strh	r3, [r7, #14]
     bc4:	89fb      	ldrh	r3, [r7, #14]
     bc6:	4618      	mov	r0, r3
     bc8:	3714      	adds	r7, #20
     bca:	46bd      	mov	sp, r7
     bcc:	f85d 7b04 	ldr.w	r7, [sp], #4
     bd0:	4770      	bx	lr
     bd2:	bf00      	nop
     bd4:	40050108 	andmi	r0, r5, r8, lsl #2
     bd8:	40050118 	andmi	r0, r5, r8, lsl r1

00000bdc <USBInit>:
     bdc:	b580      	push	{r7, lr}
     bde:	af00      	add	r7, sp, #0
     be0:	f7ff fe80 	bl	8e4 <USBPinInitialize>
     be4:	f7ff ff1a 	bl	a1c <USBDeviceInit>
     be8:	f7ff fedc 	bl	9a4 <USBInterruptInitialize>
     bec:	f7ff fed2 	bl	994 <EndpointInitialize>
     bf0:	f7ff fec0 	bl	974 <USBBusConnect>
     bf4:	bf00      	nop
     bf6:	bd80      	pop	{r7, pc}

00000bf8 <USBInterruptStatus>:
     bf8:	b580      	push	{r7, lr}
     bfa:	b094      	sub	sp, #80	; 0x50
     bfc:	af00      	add	r7, sp, #0
     bfe:	2300      	movs	r3, #0
     c00:	647b      	str	r3, [r7, #68]	; 0x44
     c02:	2300      	movs	r3, #0
     c04:	64fb      	str	r3, [r7, #76]	; 0x4c
     c06:	2300      	movs	r3, #0
     c08:	f8a7 304a 	strh.w	r3, [r7, #74]	; 0x4a
     c0c:	2300      	movs	r3, #0
     c0e:	f887 3049 	strb.w	r3, [r7, #73]	; 0x49
     c12:	f7ff ffa1 	bl	b58 <USBDeviceGetIntStatus>
     c16:	4603      	mov	r3, r0
     c18:	647b      	str	r3, [r7, #68]	; 0x44
     c1a:	6c7b      	ldr	r3, [r7, #68]	; 0x44
     c1c:	6c7b      	ldr	r3, [r7, #68]	; 0x44
     c1e:	6c7b      	ldr	r3, [r7, #68]	; 0x44
     c20:	6c7b      	ldr	r3, [r7, #68]	; 0x44
     c22:	6c7b      	ldr	r3, [r7, #68]	; 0x44
     c24:	2000      	movs	r0, #0
     c26:	f7ff ffb9 	bl	b9c <USBGetRcvBytes>
     c2a:	4603      	mov	r3, r0
     c2c:	f8a7 304a 	strh.w	r3, [r7, #74]	; 0x4a
     c30:	6c7b      	ldr	r3, [r7, #68]	; 0x44
     c32:	f403 7380 	and.w	r3, r3, #256	; 0x100
     c36:	2b00      	cmp	r3, #0
     c38:	d01c      	beq.n	c74 <USBInterruptStatus+0x7c>
     c3a:	f8b7 204a 	ldrh.w	r2, [r7, #74]	; 0x4a
     c3e:	1d3b      	adds	r3, r7, #4
     c40:	4619      	mov	r1, r3
     c42:	2000      	movs	r0, #0
     c44:	f7ff ff5c 	bl	b00 <readPacket>
     c48:	2300      	movs	r3, #0
     c4a:	64fb      	str	r3, [r7, #76]	; 0x4c
     c4c:	e00a      	b.n	c64 <USBInterruptStatus+0x6c>
     c4e:	1d3a      	adds	r2, r7, #4
     c50:	6cfb      	ldr	r3, [r7, #76]	; 0x4c
     c52:	4413      	add	r3, r2
     c54:	781b      	ldrb	r3, [r3, #0]
     c56:	4619      	mov	r1, r3
     c58:	4808      	ldr	r0, [pc, #32]	; (c7c <USBInterruptStatus+0x84>)
     c5a:	f7ff fe31 	bl	8c0 <UARTprintf>
     c5e:	6cfb      	ldr	r3, [r7, #76]	; 0x4c
     c60:	3301      	adds	r3, #1
     c62:	64fb      	str	r3, [r7, #76]	; 0x4c
     c64:	f8b7 304a 	ldrh.w	r3, [r7, #74]	; 0x4a
     c68:	6cfa      	ldr	r2, [r7, #76]	; 0x4c
     c6a:	429a      	cmp	r2, r3
     c6c:	d3ef      	bcc.n	c4e <USBInterruptStatus+0x56>
     c6e:	4804      	ldr	r0, [pc, #16]	; (c80 <USBInterruptStatus+0x88>)
     c70:	f7ff fe26 	bl	8c0 <UARTprintf>
     c74:	bf00      	nop
     c76:	3750      	adds	r7, #80	; 0x50
     c78:	46bd      	mov	sp, r7
     c7a:	bd80      	pop	{r7, pc}
     c7c:	00001094 	muleq	r0, r4, r0
     c80:	0000109c 	muleq	r0, ip, r0

00000c84 <GPIODirModeSet>:
     c84:	f8d0 3400 	ldr.w	r3, [r0, #1024]	; 0x400
     c88:	f012 0f01 	tst.w	r2, #1
     c8c:	bf14      	ite	ne
     c8e:	430b      	orrne	r3, r1
     c90:	438b      	biceq	r3, r1
     c92:	f8c0 3400 	str.w	r3, [r0, #1024]	; 0x400
     c96:	f8d0 3420 	ldr.w	r3, [r0, #1056]	; 0x420
     c9a:	0792      	lsls	r2, r2, #30
     c9c:	bf4c      	ite	mi
     c9e:	4319      	orrmi	r1, r3
     ca0:	ea23 0101 	bicpl.w	r1, r3, r1
     ca4:	f8c0 1420 	str.w	r1, [r0, #1056]	; 0x420
     ca8:	4770      	bx	lr
	...

00000cac <GPIOPadConfigSet>:
     cac:	b5f0      	push	{r4, r5, r6, r7, lr}
     cae:	4c4e      	ldr	r4, [pc, #312]	; (de8 <GPIOPadConfigSet+0x13c>)
     cb0:	6825      	ldr	r5, [r4, #0]
     cb2:	4c4e      	ldr	r4, [pc, #312]	; (dec <GPIOPadConfigSet+0x140>)
     cb4:	402c      	ands	r4, r5
     cb6:	4d4e      	ldr	r5, [pc, #312]	; (df0 <GPIOPadConfigSet+0x144>)
     cb8:	42ac      	cmp	r4, r5
     cba:	d106      	bne.n	cca <GPIOPadConfigSet+0x1e>
     cbc:	07d5      	lsls	r5, r2, #31
     cbe:	d421      	bmi.n	d04 <GPIOPadConfigSet+0x58>
     cc0:	f8d0 4500 	ldr.w	r4, [r0, #1280]	; 0x500
     cc4:	ea24 0401 	bic.w	r4, r4, r1
     cc8:	e01f      	b.n	d0a <GPIOPadConfigSet+0x5e>
     cca:	f3c2 1741 	ubfx	r7, r2, #5, #2
     cce:	2500      	movs	r5, #0
     cd0:	f04f 0c03 	mov.w	ip, #3
     cd4:	fa41 f405 	asr.w	r4, r1, r5
     cd8:	07e4      	lsls	r4, r4, #31
     cda:	d50f      	bpl.n	cfc <GPIOPadConfigSet+0x50>
     cdc:	f8d0 6fc4 	ldr.w	r6, [r0, #4036]	; 0xfc4
     ce0:	006c      	lsls	r4, r5, #1
     ce2:	fa0c fe04 	lsl.w	lr, ip, r4
     ce6:	ea26 060e 	bic.w	r6, r6, lr
     cea:	f8c0 6fc4 	str.w	r6, [r0, #4036]	; 0xfc4
     cee:	f8d0 6fc4 	ldr.w	r6, [r0, #4036]	; 0xfc4
     cf2:	fa07 f404 	lsl.w	r4, r7, r4
     cf6:	4334      	orrs	r4, r6
     cf8:	f8c0 4fc4 	str.w	r4, [r0, #4036]	; 0xfc4
     cfc:	3501      	adds	r5, #1
     cfe:	2d08      	cmp	r5, #8
     d00:	d1e8      	bne.n	cd4 <GPIOPadConfigSet+0x28>
     d02:	e7db      	b.n	cbc <GPIOPadConfigSet+0x10>
     d04:	f8d0 4500 	ldr.w	r4, [r0, #1280]	; 0x500
     d08:	430c      	orrs	r4, r1
     d0a:	f8c0 4500 	str.w	r4, [r0, #1280]	; 0x500
     d0e:	f8d0 4504 	ldr.w	r4, [r0, #1284]	; 0x504
     d12:	0797      	lsls	r7, r2, #30
     d14:	bf4c      	ite	mi
     d16:	430c      	orrmi	r4, r1
     d18:	438c      	bicpl	r4, r1
     d1a:	f8c0 4504 	str.w	r4, [r0, #1284]	; 0x504
     d1e:	f8d0 4508 	ldr.w	r4, [r0, #1288]	; 0x508
     d22:	0756      	lsls	r6, r2, #29
     d24:	bf4c      	ite	mi
     d26:	430c      	orrmi	r4, r1
     d28:	438c      	bicpl	r4, r1
     d2a:	f8c0 4508 	str.w	r4, [r0, #1288]	; 0x508
     d2e:	f8d0 4518 	ldr.w	r4, [r0, #1304]	; 0x518
     d32:	0715      	lsls	r5, r2, #28
     d34:	bf4c      	ite	mi
     d36:	430c      	orrmi	r4, r1
     d38:	438c      	bicpl	r4, r1
     d3a:	f8c0 4518 	str.w	r4, [r0, #1304]	; 0x518
     d3e:	4c2a      	ldr	r4, [pc, #168]	; (de8 <GPIOPadConfigSet+0x13c>)
     d40:	6825      	ldr	r5, [r4, #0]
     d42:	4c2a      	ldr	r4, [pc, #168]	; (dec <GPIOPadConfigSet+0x140>)
     d44:	402c      	ands	r4, r5
     d46:	4d2a      	ldr	r5, [pc, #168]	; (df0 <GPIOPadConfigSet+0x144>)
     d48:	42ac      	cmp	r4, r5
     d4a:	d008      	beq.n	d5e <GPIOPadConfigSet+0xb2>
     d4c:	f012 0f10 	tst.w	r2, #16
     d50:	f8d0 253c 	ldr.w	r2, [r0, #1340]	; 0x53c
     d54:	bf14      	ite	ne
     d56:	430a      	orrne	r2, r1
     d58:	438a      	biceq	r2, r1
     d5a:	f8c0 253c 	str.w	r2, [r0, #1340]	; 0x53c
     d5e:	f8d0 250c 	ldr.w	r2, [r0, #1292]	; 0x50c
     d62:	07dc      	lsls	r4, r3, #31
     d64:	bf4c      	ite	mi
     d66:	430a      	orrmi	r2, r1
     d68:	438a      	bicpl	r2, r1
     d6a:	f8c0 250c 	str.w	r2, [r0, #1292]	; 0x50c
     d6e:	f8d0 2510 	ldr.w	r2, [r0, #1296]	; 0x510
     d72:	079f      	lsls	r7, r3, #30
     d74:	bf4c      	ite	mi
     d76:	430a      	orrmi	r2, r1
     d78:	438a      	bicpl	r2, r1
     d7a:	f8c0 2510 	str.w	r2, [r0, #1296]	; 0x510
     d7e:	f8d0 2514 	ldr.w	r2, [r0, #1300]	; 0x514
     d82:	075e      	lsls	r6, r3, #29
     d84:	bf4c      	ite	mi
     d86:	430a      	orrmi	r2, r1
     d88:	438a      	bicpl	r2, r1
     d8a:	f8c0 2514 	str.w	r2, [r0, #1300]	; 0x514
     d8e:	f8d0 251c 	ldr.w	r2, [r0, #1308]	; 0x51c
     d92:	071d      	lsls	r5, r3, #28
     d94:	bf4c      	ite	mi
     d96:	430a      	orrmi	r2, r1
     d98:	438a      	bicpl	r2, r1
     d9a:	f8c0 251c 	str.w	r2, [r0, #1308]	; 0x51c
     d9e:	4a12      	ldr	r2, [pc, #72]	; (de8 <GPIOPadConfigSet+0x13c>)
     da0:	6814      	ldr	r4, [r2, #0]
     da2:	4a12      	ldr	r2, [pc, #72]	; (dec <GPIOPadConfigSet+0x140>)
     da4:	4022      	ands	r2, r4
     da6:	4c12      	ldr	r4, [pc, #72]	; (df0 <GPIOPadConfigSet+0x144>)
     da8:	42a2      	cmp	r2, r4
     daa:	d010      	beq.n	dce <GPIOPadConfigSet+0x122>
     dac:	f8d0 2544 	ldr.w	r2, [r0, #1348]	; 0x544
     db0:	059c      	lsls	r4, r3, #22
     db2:	bf4c      	ite	mi
     db4:	430a      	orrmi	r2, r1
     db6:	438a      	bicpl	r2, r1
     db8:	f8c0 2544 	str.w	r2, [r0, #1348]	; 0x544
     dbc:	f8d0 2540 	ldr.w	r2, [r0, #1344]	; 0x540
     dc0:	f413 7f40 	tst.w	r3, #768	; 0x300
     dc4:	bf14      	ite	ne
     dc6:	430a      	orrne	r2, r1
     dc8:	438a      	biceq	r2, r1
     dca:	f8c0 2540 	str.w	r2, [r0, #1344]	; 0x540
     dce:	b92b      	cbnz	r3, ddc <GPIOPadConfigSet+0x130>
     dd0:	f8d0 3528 	ldr.w	r3, [r0, #1320]	; 0x528
     dd4:	4319      	orrs	r1, r3
     dd6:	f8c0 1528 	str.w	r1, [r0, #1320]	; 0x528
     dda:	bdf0      	pop	{r4, r5, r6, r7, pc}
     ddc:	f8d0 3528 	ldr.w	r3, [r0, #1320]	; 0x528
     de0:	ea23 0101 	bic.w	r1, r3, r1
     de4:	e7f7      	b.n	dd6 <GPIOPadConfigSet+0x12a>
     de6:	bf00      	nop
     de8:	400fe000 	andmi	lr, pc, r0
     dec:	70ff0000 	rscsvc	r0, pc, r0
     df0:	10050000 	andne	r0, r5, r0

00000df4 <GPIOPinTypeComparatorOutput>:
     df4:	b510      	push	{r4, lr}
     df6:	2202      	movs	r2, #2
     df8:	460c      	mov	r4, r1
     dfa:	f7ff ff43 	bl	c84 <GPIODirModeSet>
     dfe:	4621      	mov	r1, r4
     e00:	2308      	movs	r3, #8
     e02:	e8bd 4010 	ldmia.w	sp!, {r4, lr}
     e06:	2201      	movs	r2, #1
     e08:	f7ff bf50 	b.w	cac <GPIOPadConfigSet>

00000e0c <GPIOPinTypeUART>:
     e0c:	f7ff bff2 	b.w	df4 <GPIOPinTypeComparatorOutput>

00000e10 <GPIOPinConfigure>:
     e10:	4b0e      	ldr	r3, [pc, #56]	; (e4c <GPIOPinConfigure+0x3c>)
     e12:	f3c0 4107 	ubfx	r1, r0, #16, #8
     e16:	b510      	push	{r4, lr}
     e18:	2201      	movs	r2, #1
     e1a:	6edc      	ldr	r4, [r3, #108]	; 0x6c
     e1c:	408a      	lsls	r2, r1
     e1e:	004b      	lsls	r3, r1, #1
     e20:	4222      	tst	r2, r4
     e22:	bf18      	it	ne
     e24:	3301      	addne	r3, #1
     e26:	4a0a      	ldr	r2, [pc, #40]	; (e50 <GPIOPinConfigure+0x40>)
     e28:	f852 2023 	ldr.w	r2, [r2, r3, lsl #2]
     e2c:	f3c0 2407 	ubfx	r4, r0, #8, #8
     e30:	f8d2 352c 	ldr.w	r3, [r2, #1324]	; 0x52c
     e34:	210f      	movs	r1, #15
     e36:	40a1      	lsls	r1, r4
     e38:	f000 000f 	and.w	r0, r0, #15
     e3c:	ea23 0301 	bic.w	r3, r3, r1
     e40:	40a0      	lsls	r0, r4
     e42:	4318      	orrs	r0, r3
     e44:	f8c2 052c 	str.w	r0, [r2, #1324]	; 0x52c
     e48:	bd10      	pop	{r4, pc}
     e4a:	bf00      	nop
     e4c:	400fe000 	andmi	lr, pc, r0
     e50:	000010a0 	andeq	r1, r0, r0, lsr #1

00000e54 <SysCtlPeripheralPresent>:
     e54:	4b07      	ldr	r3, [pc, #28]	; (e74 <SysCtlPeripheralPresent+0x20>)
     e56:	f3c0 2207 	ubfx	r2, r0, #8, #8
     e5a:	0080      	lsls	r0, r0, #2
     e5c:	4413      	add	r3, r2
     e5e:	f400 707f 	and.w	r0, r0, #1020	; 0x3fc
     e62:	ea40 1043 	orr.w	r0, r0, r3, lsl #5
     e66:	f040 4084 	orr.w	r0, r0, #1107296256	; 0x42000000
     e6a:	6800      	ldr	r0, [r0, #0]
     e6c:	3800      	subs	r0, #0
     e6e:	bf18      	it	ne
     e70:	2001      	movne	r0, #1
     e72:	4770      	bx	lr
     e74:	400fe300 	andmi	lr, pc, r0, lsl #6

00000e78 <SysCtlPeripheralEnable>:
     e78:	4b06      	ldr	r3, [pc, #24]	; (e94 <SysCtlPeripheralEnable+0x1c>)
     e7a:	f3c0 2207 	ubfx	r2, r0, #8, #8
     e7e:	0080      	lsls	r0, r0, #2
     e80:	4413      	add	r3, r2
     e82:	f400 707f 	and.w	r0, r0, #1020	; 0x3fc
     e86:	ea40 1043 	orr.w	r0, r0, r3, lsl #5
     e8a:	f040 4084 	orr.w	r0, r0, #1107296256	; 0x42000000
     e8e:	2301      	movs	r3, #1
     e90:	6003      	str	r3, [r0, #0]
     e92:	4770      	bx	lr
     e94:	400fe600 	andmi	lr, pc, r0, lsl #12

00000e98 <SysCtlDelay>:
     e98:	3801      	subs	r0, #1
     e9a:	f47f affd 	bne.w	e98 <SysCtlDelay>
     e9e:	4770      	bx	lr

00000ea0 <SysCtlClockSet>:
     ea0:	493a      	ldr	r1, [pc, #232]	; (f8c <SysCtlClockSet+0xec>)
     ea2:	b430      	push	{r4, r5}
     ea4:	6e0c      	ldr	r4, [r1, #96]	; 0x60
     ea6:	6f0b      	ldr	r3, [r1, #112]	; 0x70
     ea8:	f424 0280 	bic.w	r2, r4, #4194304	; 0x400000
     eac:	f443 6500 	orr.w	r5, r3, #2048	; 0x800
     eb0:	f442 6200 	orr.w	r2, r2, #2048	; 0x800
     eb4:	660a      	str	r2, [r1, #96]	; 0x60
     eb6:	670d      	str	r5, [r1, #112]	; 0x70
     eb8:	07e5      	lsls	r5, r4, #31
     eba:	d50d      	bpl.n	ed8 <SysCtlClockSet+0x38>
     ebc:	07c4      	lsls	r4, r0, #31
     ebe:	d40b      	bmi.n	ed8 <SysCtlClockSet+0x38>
     ec0:	f060 0401 	orn	r4, r0, #1
     ec4:	4022      	ands	r2, r4
     ec6:	f44f 7480 	mov.w	r4, #256	; 0x100
     eca:	658c      	str	r4, [r1, #88]	; 0x58
     ecc:	660a      	str	r2, [r1, #96]	; 0x60
     ece:	f44f 2400 	mov.w	r4, #524288	; 0x80000
     ed2:	6d0d      	ldr	r5, [r1, #80]	; 0x50
     ed4:	05ed      	lsls	r5, r5, #23
     ed6:	d555      	bpl.n	f84 <SysCtlClockSet+0xe4>
     ed8:	f422 61fe 	bic.w	r1, r2, #2032	; 0x7f0
     edc:	f400 62fe 	and.w	r2, r0, #2032	; 0x7f0
     ee0:	430a      	orrs	r2, r1
     ee2:	492b      	ldr	r1, [pc, #172]	; (f90 <SysCtlClockSet+0xf0>)
     ee4:	f023 4300 	bic.w	r3, r3, #2147483648	; 0x80000000
     ee8:	4001      	ands	r1, r0
     eea:	f023 0370 	bic.w	r3, r3, #112	; 0x70
     eee:	430b      	orrs	r3, r1
     ef0:	00c1      	lsls	r1, r0, #3
     ef2:	f001 0140 	and.w	r1, r1, #64	; 0x40
     ef6:	430b      	orrs	r3, r1
     ef8:	4924      	ldr	r1, [pc, #144]	; (f8c <SysCtlClockSet+0xec>)
     efa:	f443 6400 	orr.w	r4, r3, #2048	; 0x800
     efe:	660a      	str	r2, [r1, #96]	; 0x60
     f00:	f423 5300 	bic.w	r3, r3, #8192	; 0x2000
     f04:	670c      	str	r4, [r1, #112]	; 0x70
     f06:	f422 5200 	bic.w	r2, r2, #8192	; 0x2000
     f0a:	f400 5400 	and.w	r4, r0, #8192	; 0x2000
     f0e:	4322      	orrs	r2, r4
     f10:	4323      	orrs	r3, r4
     f12:	2440      	movs	r4, #64	; 0x40
     f14:	658c      	str	r4, [r1, #88]	; 0x58
     f16:	f453 6400 	orrs.w	r4, r3, #2048	; 0x800
     f1a:	bf55      	itete	pl
     f1c:	660a      	strpl	r2, [r1, #96]	; 0x60
     f1e:	670c      	strmi	r4, [r1, #112]	; 0x70
     f20:	670c      	strpl	r4, [r1, #112]	; 0x70
     f22:	660a      	strmi	r2, [r1, #96]	; 0x60
     f24:	491b      	ldr	r1, [pc, #108]	; (f94 <SysCtlClockSet+0xf4>)
     f26:	f022 62f8 	bic.w	r2, r2, #130023424	; 0x7c00000
     f2a:	4001      	ands	r1, r0
     f2c:	f022 0201 	bic.w	r2, r2, #1
     f30:	f023 53fc 	bic.w	r3, r3, #528482304	; 0x1f800000
     f34:	430a      	orrs	r2, r1
     f36:	f443 6300 	orr.w	r3, r3, #2048	; 0x800
     f3a:	f000 51fc 	and.w	r1, r0, #528482304	; 0x1f800000
     f3e:	430b      	orrs	r3, r1
     f40:	0041      	lsls	r1, r0, #1
     f42:	bf41      	itttt	mi
     f44:	4914      	ldrmi	r1, [pc, #80]	; (f98 <SysCtlClockSet+0xf8>)
     f46:	f423 0380 	bicmi.w	r3, r3, #4194304	; 0x400000
     f4a:	4001      	andmi	r1, r0
     f4c:	f442 0280 	orrmi.w	r2, r2, #4194304	; 0x400000
     f50:	bf4c      	ite	mi
     f52:	430b      	orrmi	r3, r1
     f54:	f023 4380 	bicpl.w	r3, r3, #1073741824	; 0x40000000
     f58:	0505      	lsls	r5, r0, #20
     f5a:	d40c      	bmi.n	f76 <SysCtlClockSet+0xd6>
     f5c:	480b      	ldr	r0, [pc, #44]	; (f8c <SysCtlClockSet+0xec>)
     f5e:	f44f 4100 	mov.w	r1, #32768	; 0x8000
     f62:	f8d0 4168 	ldr.w	r4, [r0, #360]	; 0x168
     f66:	07e4      	lsls	r4, r4, #31
     f68:	d401      	bmi.n	f6e <SysCtlClockSet+0xce>
     f6a:	3901      	subs	r1, #1
     f6c:	d1f9      	bne.n	f62 <SysCtlClockSet+0xc2>
     f6e:	f422 6200 	bic.w	r2, r2, #2048	; 0x800
     f72:	f423 6300 	bic.w	r3, r3, #2048	; 0x800
     f76:	4905      	ldr	r1, [pc, #20]	; (f8c <SysCtlClockSet+0xec>)
     f78:	bc30      	pop	{r4, r5}
     f7a:	660a      	str	r2, [r1, #96]	; 0x60
     f7c:	2010      	movs	r0, #16
     f7e:	670b      	str	r3, [r1, #112]	; 0x70
     f80:	f7ff bf8a 	b.w	e98 <SysCtlDelay>
     f84:	3c01      	subs	r4, #1
     f86:	d1a4      	bne.n	ed2 <SysCtlClockSet+0x32>
     f88:	bc30      	pop	{r4, r5}
     f8a:	4770      	bx	lr
     f8c:	400fe000 	andmi	lr, pc, r0
     f90:	80000030 	andhi	r0, r0, r0, lsr r0
     f94:	07c00001 	strbeq	r0, [r0, r1]
     f98:	40400000 	submi	r0, r0, r0

00000f9c <UARTEnable>:
     f9c:	6ac3      	ldr	r3, [r0, #44]	; 0x2c
     f9e:	f043 0310 	orr.w	r3, r3, #16
     fa2:	62c3      	str	r3, [r0, #44]	; 0x2c
     fa4:	6b03      	ldr	r3, [r0, #48]	; 0x30
     fa6:	f443 7340 	orr.w	r3, r3, #768	; 0x300
     faa:	f043 0301 	orr.w	r3, r3, #1
     fae:	6303      	str	r3, [r0, #48]	; 0x30
     fb0:	4770      	bx	lr

00000fb2 <UARTDisable>:
     fb2:	6983      	ldr	r3, [r0, #24]
     fb4:	071b      	lsls	r3, r3, #28
     fb6:	d4fc      	bmi.n	fb2 <UARTDisable>
     fb8:	6ac3      	ldr	r3, [r0, #44]	; 0x2c
     fba:	f023 0310 	bic.w	r3, r3, #16
     fbe:	62c3      	str	r3, [r0, #44]	; 0x2c
     fc0:	6b03      	ldr	r3, [r0, #48]	; 0x30
     fc2:	f423 7340 	bic.w	r3, r3, #768	; 0x300
     fc6:	f023 0301 	bic.w	r3, r3, #1
     fca:	6303      	str	r3, [r0, #48]	; 0x30
     fcc:	4770      	bx	lr

00000fce <UARTConfigSetExpClk>:
     fce:	b570      	push	{r4, r5, r6, lr}
     fd0:	461e      	mov	r6, r3
     fd2:	f7ff ffee 	bl	fb2 <UARTDisable>
     fd6:	6b03      	ldr	r3, [r0, #48]	; 0x30
     fd8:	ebb1 1f02 	cmp.w	r1, r2, lsl #4
     fdc:	bf34      	ite	cc
     fde:	f043 0320 	orrcc.w	r3, r3, #32
     fe2:	f023 0320 	biccs.w	r3, r3, #32
     fe6:	ea4f 04c1 	mov.w	r4, r1, lsl #3
     fea:	bf38      	it	cc
     fec:	0852      	lsrcc	r2, r2, #1
     fee:	fbb4 f1f2 	udiv	r1, r4, r2
     ff2:	f101 0101 	add.w	r1, r1, #1
     ff6:	bf34      	ite	cc
     ff8:	6303      	strcc	r3, [r0, #48]	; 0x30
     ffa:	6303      	strcs	r3, [r0, #48]	; 0x30
     ffc:	09cb      	lsrs	r3, r1, #7
     ffe:	6243      	str	r3, [r0, #36]	; 0x24
    1000:	f3c1 0145 	ubfx	r1, r1, #1, #6
    1004:	2300      	movs	r3, #0
    1006:	6281      	str	r1, [r0, #40]	; 0x28
    1008:	62c6      	str	r6, [r0, #44]	; 0x2c
    100a:	e8bd 4070 	ldmia.w	sp!, {r4, r5, r6, lr}
    100e:	6183      	str	r3, [r0, #24]
    1010:	f7ff bfc4 	b.w	f9c <UARTEnable>

00001014 <UARTCharPut>:
    1014:	6983      	ldr	r3, [r0, #24]
    1016:	069b      	lsls	r3, r3, #26
    1018:	d4fc      	bmi.n	1014 <UARTCharPut>
    101a:	6001      	str	r1, [r0, #0]
    101c:	4770      	bx	lr

0000101e <UARTClockSourceSet>:
    101e:	f8c0 1fc8 	str.w	r1, [r0, #4040]	; 0xfc8
    1022:	4770      	bx	lr
    1024:	74736554 	ldrbtvc	r6, [r3], #-1364	; 0xfffffaac
    1028:	000a3120 	andeq	r3, sl, r0, lsr #2
    102c:	74736554 	ldrbtvc	r6, [r3], #-1364	; 0xfffffaac
    1030:	000a3220 	andeq	r3, sl, r0, lsr #4
    1034:	33323130 	teqcc	r2, #48, 2
    1038:	37363534 			; <UNDEFINED> instruction: 0x37363534
    103c:	62613938 	rsbvs	r3, r1, #56, 18	; 0xe0000
    1040:	66656463 	strbtvs	r6, [r5], -r3, ror #8
    1044:	00000000 	andeq	r0, r0, r0
    1048:	542f2e2e 	strtpl	r2, [pc], #-3630	; 1050 <UARTClockSourceSet+0x32>
    104c:	57617669 	strbpl	r7, [r1, -r9, ror #12]!
    1050:	2f657261 	svccs	0x00657261
    1054:	6c697475 	cfstrdvs	mvd7, [r9], #-468	; 0xfffffe2c
    1058:	61752f73 	cmnvs	r5, r3, ror pc
    105c:	74737472 	ldrbtvc	r7, [r3], #-1138	; 0xfffffb8e
    1060:	2e6f6964 	vnmulcs.f16	s13, s30, s9	; <UNPREDICTABLE>
    1064:	00000063 	andeq	r0, r0, r3, rrx
    1068:	00082008 	andeq	r2, r8, r8
    106c:	00000a0d 	andeq	r0, r0, sp, lsl #20
    1070:	00000020 	andeq	r0, r0, r0, lsr #32
    1074:	4f525245 	svcmi	0x00525245
    1078:	00000052 	andeq	r0, r0, r2, asr r0

0000107c <g_ui32UARTBase>:
    107c:	4000c000 	andmi	ip, r0, r0
    1080:	4000d000 	andmi	sp, r0, r0
    1084:	4000e000 	andmi	lr, r0, r0

00001088 <g_ui32UARTPeriph>:
    1088:	f0001800 			; <UNDEFINED> instruction: 0xf0001800
    108c:	f0001801 			; <UNDEFINED> instruction: 0xf0001801
    1090:	f0001802 			; <UNDEFINED> instruction: 0xf0001802
    1094:	78323025 	ldmdavc	r2!, {r0, r2, r5, ip, sp}
    1098:	00000020 	andeq	r0, r0, r0, lsr #32
    109c:	0000000a 	andeq	r0, r0, sl

000010a0 <g_pui32GPIOBaseAddrs>:
    10a0:	40004000 	andmi	r4, r0, r0
    10a4:	40058000 	andmi	r8, r5, r0
    10a8:	40005000 	andmi	r5, r0, r0
    10ac:	40059000 	andmi	r9, r5, r0
    10b0:	40006000 	andmi	r6, r0, r0
    10b4:	4005a000 	andmi	sl, r5, r0
    10b8:	40007000 	andmi	r7, r0, r0
    10bc:	4005b000 	andmi	fp, r5, r0
    10c0:	40024000 	andmi	r4, r2, r0
    10c4:	4005c000 	andmi	ip, r5, r0
    10c8:	40025000 	andmi	r5, r2, r0
    10cc:	4005d000 	andmi	sp, r5, r0
    10d0:	40026000 	andmi	r6, r2, r0
    10d4:	4005e000 	andmi	lr, r5, r0
    10d8:	40027000 	andmi	r7, r2, r0
    10dc:	4005f000 	andmi	pc, r5, r0
    10e0:	4003d000 	andmi	sp, r3, r0
    10e4:	40060000 	andmi	r0, r6, r0
    10e8:	40061000 	andmi	r1, r6, r0
    10ec:	40061000 	andmi	r1, r6, r0
    10f0:	40062000 	andmi	r2, r6, r0
    10f4:	40062000 	andmi	r2, r6, r0
    10f8:	40063000 	andmi	r3, r6, r0
    10fc:	40063000 	andmi	r3, r6, r0
    1100:	40064000 	andmi	r4, r6, r0
    1104:	40064000 	andmi	r4, r6, r0
    1108:	40065000 	andmi	r5, r6, r0
    110c:	40065000 	andmi	r5, r6, r0
    1110:	40066000 	andmi	r6, r6, r0
    1114:	40066000 	andmi	r6, r6, r0
    1118:	40067000 	andmi	r7, r6, r0
    111c:	40067000 	andmi	r7, r6, r0
    1120:	40068000 	andmi	r8, r6, r0
    1124:	40068000 	andmi	r8, r6, r0
    1128:	40069000 	andmi	r9, r6, r0
    112c:	40069000 	andmi	r9, r6, r0

Disassembly of section .bss:

20000000 <pulStack>:
	...

20000100 <g_ui32Base>:
20000100:	00000000 	andeq	r0, r0, r0

Disassembly of section .debug_info:

00000000 <.debug_info>:
   0:	00000174 	andeq	r0, r0, r4, ror r1
   4:	00000004 	andeq	r0, r0, r4
   8:	01040000 	mrseq	r0, (UNDEF: 4)
   c:	000000d0 	ldrdeq	r0, [r0], -r0	; <UNPREDICTABLE>
  10:	00007d0c 	andeq	r7, r0, ip, lsl #26
  14:	00004700 	andeq	r4, r0, r0, lsl #14
	...
  24:	06010200 	streq	r0, [r1], -r0, lsl #4
  28:	0000006a 	andeq	r0, r0, sl, rrx
  2c:	68080102 	stmdavs	r8, {r1, r8}
  30:	02000000 	andeq	r0, r0, #0
  34:	00c60502 	sbceq	r0, r6, r2, lsl #10
  38:	02020000 	andeq	r0, r2, #0
  3c:	00009d07 	andeq	r9, r0, r7, lsl #26
  40:	05040200 	streq	r0, [r4, #-512]	; 0xfffffe00
  44:	00000005 	andeq	r0, r0, r5
  48:	00001d03 	andeq	r1, r0, r3, lsl #26
  4c:	194f0200 	stmdbne	pc, {r9}^	; <UNPREDICTABLE>
  50:	00000054 	andeq	r0, r0, r4, asr r0
  54:	2d070402 	cfstrscs	mvf0, [r7, #-8]
  58:	02000000 	andeq	r0, r0, #0
  5c:	00000508 	andeq	r0, r0, r8, lsl #10
  60:	08020000 	stmdaeq	r2, {}	; <UNPREDICTABLE>
  64:	00002807 	andeq	r2, r0, r7, lsl #16
  68:	05040400 	streq	r0, [r4, #-1024]	; 0xfffffc00
  6c:	00746e69 	rsbseq	r6, r4, r9, ror #28
  70:	32070402 	andcc	r0, r7, #33554432	; 0x2000000
  74:	03000000 	movweq	r0, #0
  78:	0000001f 	andeq	r0, r0, pc, lsl r0
  7c:	48143003 	ldmdami	r4, {r0, r1, ip, sp}
  80:	05000000 	streq	r0, [r0, #-0]
  84:	00008e04 	andeq	r8, r0, r4, lsl #28
  88:	00830600 	addeq	r0, r3, r0, lsl #12
  8c:	02070000 	andeq	r0, r7, #0
  90:	00710801 	rsbseq	r0, r1, r1, lsl #16
  94:	54080000 	strpl	r0, [r8], #-0
  98:	a6000000 	strge	r0, [r0], -r0
  9c:	09000000 	stmdbeq	r0, {}	; <UNPREDICTABLE>
  a0:	00000070 	andeq	r0, r0, r0, ror r0
  a4:	140a003f 	strne	r0, [sl], #-63	; 0xffffffc1
  a8:	01000000 	mrseq	r0, (UNDEF: 0)
  ac:	00961636 	addseq	r1, r6, r6, lsr r6
  b0:	03050000 	movweq	r0, #20480	; 0x5000
  b4:	20000000 	andcs	r0, r0, r0
  b8:	00008908 	andeq	r8, r0, r8, lsl #18
  bc:	0000c800 	andeq	ip, r0, r0, lsl #16
  c0:	00700900 	rsbseq	r0, r0, r0, lsl #18
  c4:	009a0000 	addseq	r0, sl, r0
  c8:	0000b806 	andeq	fp, r0, r6, lsl #16
  cc:	00b90b00 	adcseq	r0, r9, r0, lsl #22
  d0:	3f010000 	svccc	0x00010000
  d4:	0000c80f 	andeq	ip, r0, pc, lsl #16
  d8:	00030500 	andeq	r0, r3, r0, lsl #10
  dc:	0c000000 	stceq	0, cr0, [r0], {-0}
  e0:	00000061 	andeq	r0, r0, r1, rrx
  e4:	5416e601 	ldrpl	lr, [r6], #-1537	; 0xfffff9ff
  e8:	0c000000 	stceq	0, cr0, [r0], {-0}
  ec:	0000000e 	andeq	r0, r0, lr
  f0:	5416e701 	ldrpl	lr, [r6], #-1793	; 0xfffff8ff
  f4:	0c000000 	stceq	0, cr0, [r0], {-0}
  f8:	00000076 	andeq	r0, r0, r6, ror r0
  fc:	5416e801 	ldrpl	lr, [r6], #-2049	; 0xfffff7ff
 100:	0d000000 	stceq	0, cr0, [r0, #-0]
 104:	0000008b 	andeq	r0, r0, fp, lsl #1
 108:	01015101 	tsteq	r1, r1, lsl #2
 10c:	000002e4 	andeq	r0, r0, r4, ror #5
 110:	00000006 	andeq	r0, r0, r6
 114:	b00d9c01 	andlt	r9, sp, r1, lsl #24
 118:	01000000 	mrseq	r0, (UNDEF: 0)
 11c:	de01013f 	mcrle	1, 0, r0, cr1, cr15, {1}
 120:	06000002 	streq	r0, [r0], -r2
 124:	01000000 	mrseq	r0, (UNDEF: 0)
 128:	01840d9c 			; <UNDEFINED> instruction: 0x01840d9c
 12c:	2d010000 	stccs	0, cr0, [r1, #-0]
 130:	02d80101 	sbcseq	r0, r8, #1073741824	; 0x40000000
 134:	00060000 	andeq	r0, r6, r0
 138:	9c010000 	stcls	0, cr0, [r1], {-0}
 13c:	00017b0e 	andeq	r7, r1, lr, lsl #22
 140:	01f70100 	mvnseq	r0, r0, lsl #2
 144:	0000026c 	andeq	r0, r0, ip, ror #4
 148:	00000064 	andeq	r0, r0, r4, rrx
 14c:	01719c01 	cmneq	r1, r1, lsl #24
 150:	740a0000 	strvc	r0, [sl], #-0
 154:	01000001 	tsteq	r0, r1
 158:	017114f9 	ldrsheq	r1, [r1, #-73]!	; 0xffffffb7
 15c:	91020000 	mrsls	r0, (UNDEF: 2)
 160:	003f0a74 	eorseq	r0, pc, r4, ror sl	; <UNPREDICTABLE>
 164:	f9010000 			; <UNDEFINED> instruction: 0xf9010000
 168:	0001711d 	andeq	r7, r1, sp, lsl r1
 16c:	70910200 	addsvc	r0, r1, r0, lsl #4
 170:	54040500 	strpl	r0, [r4], #-1280	; 0xfffffb00
 174:	00000000 	andeq	r0, r0, r0
 178:	00000136 	andeq	r0, r0, r6, lsr r1
 17c:	00cd0004 	sbceq	r0, sp, r4
 180:	01040000 	mrseq	r0, (UNDEF: 4)
 184:	000000d0 	ldrdeq	r0, [r0], -r0	; <UNPREDICTABLE>
 188:	0001ae0c 	andeq	sl, r1, ip, lsl #28
 18c:	00004700 	andeq	r4, r0, r0, lsl #14
 190:	00002800 	andeq	r2, r0, r0, lsl #16
 194:	00000000 	andeq	r0, r0, r0
 198:	00016000 	andeq	r6, r1, r0
 19c:	06010200 	streq	r0, [r1], -r0, lsl #4
 1a0:	0000006a 	andeq	r0, r0, sl, rrx
 1a4:	68080102 	stmdavs	r8, {r1, r8}
 1a8:	02000000 	andeq	r0, r0, #0
 1ac:	00c60502 	sbceq	r0, r6, r2, lsl #10
 1b0:	02020000 	andeq	r0, r2, #0
 1b4:	00009d07 	andeq	r9, r0, r7, lsl #26
 1b8:	05040200 	streq	r0, [r4, #-512]	; 0xfffffe00
 1bc:	00000005 	andeq	r0, r0, r5
 1c0:	00001d03 	andeq	r1, r0, r3, lsl #26
 1c4:	194f0200 	stmdbne	pc, {r9}^	; <UNPREDICTABLE>
 1c8:	00000054 	andeq	r0, r0, r4, asr r0
 1cc:	2d070402 	cfstrscs	mvf0, [r7, #-8]
 1d0:	02000000 	andeq	r0, r0, #0
 1d4:	00000508 	andeq	r0, r0, r8, lsl #10
 1d8:	08020000 	stmdaeq	r2, {}	; <UNPREDICTABLE>
 1dc:	00002807 	andeq	r2, r0, r7, lsl #16
 1e0:	05040400 	streq	r0, [r4, #-1024]	; 0xfffffc00
 1e4:	00746e69 	rsbseq	r6, r4, r9, ror #28
 1e8:	32070402 	andcc	r0, r7, #33554432	; 0x2000000
 1ec:	03000000 	movweq	r0, #0
 1f0:	0000001f 	andeq	r0, r0, pc, lsl r0
 1f4:	48143003 	ldmdami	r4, {r0, r1, ip, sp}
 1f8:	02000000 	andeq	r0, r0, #0
 1fc:	01b50201 			; <UNDEFINED> instruction: 0x01b50201
 200:	93050000 	movwls	r0, #20480	; 0x5000
 204:	01000001 	tsteq	r0, r1
 208:	0069053a 	rsbeq	r0, r9, sl, lsr r5
 20c:	03600000 	cmneq	r0, #0
 210:	00380000 	eorseq	r0, r8, r0
 214:	9c010000 	stcls	0, cr0, [r1], {-0}
 218:	000000c1 	andeq	r0, r0, r1, asr #1
 21c:	01006906 	tsteq	r0, r6, lsl #18
 220:	0069093c 	rsbeq	r0, r9, ip, lsr r9
 224:	91020000 	mrsls	r0, (UNDEF: 2)
 228:	01bb0774 			; <UNDEFINED> instruction: 0x01bb0774
 22c:	3d010000 	stccc	0, cr0, [r1, #-0]
 230:	00006909 	andeq	r6, r0, r9, lsl #18
 234:	70910200 	addsvc	r0, r1, r0, lsl #4
 238:	01980800 	orrseq	r0, r8, r0, lsl #16
 23c:	35010000 	strcc	r0, [r1, #-0]
 240:	00000001 	andeq	r0, r0, r1
 244:	00001400 	andeq	r1, r0, r0, lsl #8
 248:	099c0100 	ldmibeq	ip, {r8}
 24c:	000001c1 	andeq	r0, r0, r1, asr #3
 250:	10012901 	andne	r2, r1, r1, lsl #18
 254:	50000003 	andpl	r0, r0, r3
 258:	01000000 	mrseq	r0, (UNDEF: 0)
 25c:	01d80a9c 			; <UNDEFINED> instruction: 0x01d80a9c
 260:	25010000 	strcs	r0, [r1, #-0]
 264:	00030006 	andeq	r0, r3, r6
 268:	00000e00 	andeq	r0, r0, r0, lsl #28
 26c:	0b9c0100 	bleq	fe700674 <_ebss+0xde700570>
 270:	000001a4 	andeq	r0, r0, r4, lsr #3
 274:	ea012001 	b	48280 <_etext+0x47150>
 278:	16000002 	strne	r0, [r0], -r2
 27c:	01000000 	mrseq	r0, (UNDEF: 0)
 280:	00012c9c 	muleq	r1, ip, ip
 284:	01cd0c00 	biceq	r0, sp, r0, lsl #24
 288:	20010000 	andcs	r0, r1, r0
 28c:	00012c11 	andeq	r2, r1, r1, lsl ip
 290:	74910200 	ldrvc	r0, [r1], #512	; 0x200
 294:	00018a0c 	andeq	r8, r1, ip, lsl #20
 298:	26200100 	strtcs	r0, [r0], -r0, lsl #2
 29c:	00000077 	andeq	r0, r0, r7, ror r0
 2a0:	00709102 	rsbseq	r9, r0, r2, lsl #2
 2a4:	0132040d 	teqeq	r2, sp, lsl #8
 2a8:	01020000 	mrseq	r0, (UNDEF: 2)
 2ac:	00007108 	andeq	r7, r0, r8, lsl #2
 2b0:	03a10000 			; <UNDEFINED> instruction: 0x03a10000
 2b4:	00040000 	andeq	r0, r4, r0
 2b8:	000001c6 	andeq	r0, r0, r6, asr #3
 2bc:	00d00104 	sbcseq	r0, r0, r4, lsl #2
 2c0:	740c0000 	strvc	r0, [ip], #-0
 2c4:	47000002 	strmi	r0, [r0, -r2]
 2c8:	58000000 	stmdapl	r0, {}	; <UNPREDICTABLE>
 2cc:	00000000 	andeq	r0, r0, r0
 2d0:	a9000000 	stmdbge	r0, {}	; <UNPREDICTABLE>
 2d4:	02000002 	andeq	r0, r0, #2
 2d8:	000002c4 	andeq	r0, r0, r4, asr #5
 2dc:	31172902 	tstcc	r7, r2, lsl #18
 2e0:	03000000 	movweq	r0, #0
 2e4:	006a0601 	rsbeq	r0, sl, r1, lsl #12
 2e8:	01030000 	mrseq	r0, (UNDEF: 3)
 2ec:	00006808 	andeq	r6, r0, r8, lsl #16
 2f0:	05020300 	streq	r0, [r2, #-768]	; 0xfffffd00
 2f4:	000000c6 	andeq	r0, r0, r6, asr #1
 2f8:	9d070203 	sfmls	f0, 4, [r7, #-12]
 2fc:	02000000 	andeq	r0, r0, #0
 300:	000002f3 	strdeq	r0, [r0], -r3
 304:	59184d02 	ldmdbpl	r8, {r1, r8, sl, fp, lr}
 308:	03000000 	movweq	r0, #0
 30c:	00050504 	andeq	r0, r5, r4, lsl #10
 310:	1d020000 	stcne	0, cr0, [r2, #-0]
 314:	02000000 	andeq	r0, r0, #0
 318:	006c194f 	rsbeq	r1, ip, pc, asr #18
 31c:	04030000 	streq	r0, [r3], #-0
 320:	00002d07 	andeq	r2, r0, r7, lsl #26
 324:	05080300 	streq	r0, [r8, #-768]	; 0xfffffd00
 328:	00000000 	andeq	r0, r0, r0
 32c:	28070803 	stmdacs	r7, {r0, r1, fp}
 330:	04000000 	streq	r0, [r0], #-0
 334:	6e690504 	cdpvs	5, 6, cr0, cr9, cr4, {0}
 338:	04030074 	streq	r0, [r3], #-116	; 0xffffff8c
 33c:	00003207 	andeq	r3, r0, r7, lsl #4
 340:	02c60200 	sbceq	r0, r6, #0, 4
 344:	14030000 	strne	r0, [r3], #-0
 348:	00002512 	andeq	r2, r0, r2, lsl r5
 34c:	02f50200 	rscseq	r0, r5, #0, 4
 350:	2c030000 	stccs	0, cr0, [r3], {-0}
 354:	00004d13 	andeq	r4, r0, r3, lsl sp
 358:	001f0200 	andseq	r0, pc, r0, lsl #4
 35c:	30030000 	andcc	r0, r3, r0
 360:	00006014 	andeq	r6, r0, r4, lsl r0
 364:	00a70500 	adceq	r0, r7, r0, lsl #10
 368:	05020000 	streq	r0, [r2, #-0]
 36c:	04000003 	streq	r0, [r0], #-3
 370:	00c41b28 	sbceq	r1, r4, r8, lsr #22
 374:	5f060000 	svcpl	0x00060000
 378:	04000002 	streq	r0, [r0], #-2
 37c:	00db0005 	sbcseq	r0, fp, r5
 380:	cd070000 	stcgt	0, cr0, [r7, #-0]
 384:	db000002 	blle	394 <main+0x34>
 388:	00000000 	andeq	r0, r0, r0
 38c:	02040800 	andeq	r0, r4, #0, 16
 390:	00000261 	andeq	r0, r0, r1, ror #4
 394:	b8186304 	ldmdalt	r8, {r2, r8, r9, sp, lr}
 398:	09000000 	stmdbeq	r0, {}	; <UNPREDICTABLE>
 39c:	00000269 	andeq	r0, r0, r9, ror #4
 3a0:	a7117e01 	ldrge	r7, [r1, -r1, lsl #28]
 3a4:	05000000 	streq	r0, [r0, #-0]
 3a8:	00010003 	andeq	r0, r1, r3
 3ac:	02da0920 	sbcseq	r0, sl, #32, 18	; 0x80000
 3b0:	86010000 	strhi	r0, [r1], -r0
 3b4:	0001131b 	andeq	r1, r1, fp, lsl r3
 3b8:	00030500 	andeq	r0, r3, r0, lsl #10
 3bc:	0a000000 	beq	3c4 <UARTStdioConfig+0x2c>
 3c0:	00011f04 	andeq	r1, r1, r4, lsl #30
 3c4:	010d0500 	tsteq	sp, r0, lsl #10
 3c8:	01030000 	mrseq	r0, (UNDEF: 3)
 3cc:	00007108 	andeq	r7, r0, r8, lsl #2
 3d0:	01180500 	tsteq	r8, r0, lsl #10
 3d4:	b30b0000 	movwlt	r0, #45056	; 0xb000
 3d8:	34000000 	strcc	r0, [r0], #-0
 3dc:	0c000001 	stceq	0, cr0, [r0], {1}
 3e0:	00000088 	andeq	r0, r0, r8, lsl #1
 3e4:	24050002 	strcs	r0, [r5], #-2
 3e8:	09000001 	stmdbeq	r0, {r0}
 3ec:	0000031d 	andeq	r0, r0, sp, lsl r3
 3f0:	34178d01 	ldrcc	r8, [r7], #-3329	; 0xfffff2ff
 3f4:	05000001 	streq	r0, [r0, #-1]
 3f8:	00107c03 	andseq	r7, r0, r3, lsl #24
 3fc:	022a0900 	eoreq	r0, sl, #0, 18
 400:	aa010000 	bge	40408 <_etext+0x3f2d8>
 404:	00013417 	andeq	r3, r1, r7, lsl r4
 408:	88030500 	stmdahi	r3, {r8, sl}
 40c:	0d000010 	stceq	0, cr0, [r0, #-64]	; 0xffffffc0
 410:	000002ac 	andeq	r0, r0, ip, lsr #5
 414:	01051401 	tsteq	r5, r1, lsl #8
 418:	000008c0 	andeq	r0, r0, r0, asr #17
 41c:	00000024 	andeq	r0, r0, r4, lsr #32
 420:	01969c01 	orrseq	r9, r6, r1, lsl #24
 424:	fe0e0000 	cdp2	0, 0, cr0, cr14, cr0, {0}
 428:	01000001 	tsteq	r0, r1
 42c:	0d180514 	cfldr32eq	mvfx0, [r8, #-80]	; 0xffffffb0
 430:	02000001 	andeq	r0, r0, #1
 434:	100f7091 	mulne	pc, r1, r0	; <UNPREDICTABLE>
 438:	000001e8 	andeq	r0, r0, r8, ror #3
 43c:	0d051601 	stceq	6, cr1, [r5, #-4]
 440:	000000dd 	ldrdeq	r0, [r0], -sp
 444:	00649102 	rsbeq	r9, r4, r2, lsl #2
 448:	0002920d 	andeq	r9, r2, sp, lsl #4
 44c:	03640100 	cmneq	r4, #0, 2
 450:	0004b801 	andeq	fp, r4, r1, lsl #16
 454:	00040800 	andeq	r0, r4, r0, lsl #16
 458:	789c0100 	ldmvc	ip, {r8}
 45c:	0e000002 	cdpeq	0, 0, cr0, cr0, cr2, {0}
 460:	000001fe 	strdeq	r0, [r0], -lr
 464:	19036401 	stmdbne	r3, {r0, sl, sp, lr}
 468:	0000010d 	andeq	r0, r0, sp, lsl #2
 46c:	0e449102 	sqteqs	f1, f2
 470:	000001e8 	andeq	r0, r0, r8, ror #3
 474:	2b036401 	blcs	d9480 <_etext+0xd8350>
 478:	000000dd 	ldrdeq	r0, [r0], -sp
 47c:	10409102 	subne	r9, r0, r2, lsl #2
 480:	000002fd 	strdeq	r0, [r0], -sp
 484:	0e036601 	cfmadd32eq	mvax0, mvfx6, mvfx3, mvfx1
 488:	000000a7 	andeq	r0, r0, r7, lsr #1
 48c:	10749102 	rsbsne	r9, r4, r2, lsl #2
 490:	00000207 	andeq	r0, r0, r7, lsl #4
 494:	17036601 	strne	r6, [r3, -r1, lsl #12]
 498:	000000a7 	andeq	r0, r0, r7, lsr #1
 49c:	10589102 	subsne	r9, r8, r2, lsl #2
 4a0:	0000032c 	andeq	r0, r0, ip, lsr #6
 4a4:	22036601 	andcs	r6, r3, #1048576	; 0x100000
 4a8:	000000a7 	andeq	r0, r0, r7, lsr #1
 4ac:	10709102 	rsbsne	r9, r0, r2, lsl #2
 4b0:	00000220 	andeq	r0, r0, r0, lsr #4
 4b4:	2b036601 	blcs	d9cc0 <_etext+0xd8b90>
 4b8:	000000a7 	andeq	r0, r0, r7, lsr #1
 4bc:	106c9102 	rsbne	r9, ip, r2, lsl #2
 4c0:	0000026b 	andeq	r0, r0, fp, ror #4
 4c4:	36036601 	strcc	r6, [r3], -r1, lsl #12
 4c8:	000000a7 	andeq	r0, r0, r7, lsr #1
 4cc:	10689102 	rsbne	r9, r8, r2, lsl #2
 4d0:	000002a4 	andeq	r0, r0, r4, lsr #5
 4d4:	40036601 	andmi	r6, r3, r1, lsl #12
 4d8:	000000a7 	andeq	r0, r0, r7, lsr #1
 4dc:	10649102 	rsbne	r9, r4, r2, lsl #2
 4e0:	000002e2 	andeq	r0, r0, r2, ror #5
 4e4:	0b036701 	bleq	da0f0 <_etext+0xd8fc0>
 4e8:	00000278 	andeq	r0, r0, r8, ror r2
 4ec:	105c9102 	subsne	r9, ip, r2, lsl #2
 4f0:	00000334 	andeq	r0, r0, r4, lsr r3
 4f4:	12036701 	andne	r6, r3, #262144	; 0x40000
 4f8:	0000027e 	andeq	r0, r0, lr, ror r2
 4fc:	10489102 	subne	r9, r8, r2, lsl #2
 500:	000001ef 	andeq	r0, r0, pc, ror #3
 504:	1d036701 	stcne	7, cr6, [r3, #-4]
 508:	00000118 	andeq	r0, r0, r8, lsl r1
 50c:	11639102 	cmnne	r3, r2, lsl #2
 510:	00000343 	andeq	r0, r0, r3, asr #6
 514:	01039c01 	tsteq	r3, r1, lsl #24
 518:	00000524 	andeq	r0, r0, r4, lsr #10
 51c:	00023b11 	andeq	r3, r2, r1, lsl fp
 520:	047a0100 	ldrbteq	r0, [sl], #-256	; 0xffffff00
 524:	00078201 	andeq	r8, r7, r1, lsl #4
 528:	040a0000 	streq	r0, [sl], #-0
 52c:	00000118 	andeq	r0, r0, r8, lsl r1
 530:	0001180b 	andeq	r1, r1, fp, lsl #16
 534:	00028e00 	andeq	r8, r2, r0, lsl #28
 538:	00880c00 	addeq	r0, r8, r0, lsl #24
 53c:	000f0000 	andeq	r0, pc, r0
 540:	00031412 	andeq	r1, r3, r2, lsl r4
 544:	031a0100 	tsteq	sl, #0, 2
 548:	00003801 	andeq	r3, r0, r1, lsl #16
 54c:	00000000 	andeq	r0, r0, r0
 550:	00001c00 	andeq	r1, r0, r0, lsl #24
 554:	139c0100 	orrsne	r0, ip, #0, 2
 558:	0000033a 	andeq	r0, r0, sl, lsr r3
 55c:	01024101 	tsteq	r2, r1, lsl #2
 560:	00000081 	andeq	r0, r0, r1, lsl #1
 564:	00000000 	andeq	r0, r0, r0
 568:	00000114 	andeq	r0, r0, r4, lsl r1
 56c:	03149c01 	tsteq	r4, #256	; 0x100
 570:	340e0000 	strcc	r0, [lr], #-0
 574:	01000003 	tsteq	r0, r3
 578:	78100241 	ldmdavc	r0, {r0, r6, r9}
 57c:	02000002 	andeq	r0, r0, #2
 580:	d20e6c91 	andle	r6, lr, #37120	; 0x9100
 584:	01000002 	tsteq	r0, r2
 588:	a7200241 	strge	r0, [r0, -r1, asr #4]!
 58c:	02000000 	andeq	r0, r0, #0
 590:	20106891 	mulscs	r0, r1, r8
 594:	01000002 	tsteq	r0, r2
 598:	a70e028b 	strge	r0, [lr, -fp, lsl #5]
 59c:	02000000 	andeq	r0, r0, #0
 5a0:	9e107491 	cfcmpsls	r7, mvf0, mvf1
 5a4:	01000002 	tsteq	r0, r2
 5a8:	8f0c028c 	svchi	0x000c028c
 5ac:	02000000 	andeq	r0, r0, #0
 5b0:	e8107391 	ldmda	r0, {r0, r4, r7, r8, r9, ip, sp, lr}
 5b4:	01000002 	tsteq	r0, r2
 5b8:	8f13028d 	svchi	0x0013028d
 5bc:	05000000 	streq	r0, [r0, #-0]
 5c0:	00000003 	andeq	r0, r0, r3
 5c4:	16130000 	ldrne	r0, [r3], -r0
 5c8:	01000002 	tsteq	r0, r2
 5cc:	810101b4 			; <UNDEFINED> instruction: 0x810101b4
 5d0:	28000000 	stmdacs	r0, {}	; <UNPREDICTABLE>
 5d4:	90000004 	andls	r0, r0, r4
 5d8:	01000000 	mrseq	r0, (UNDEF: 0)
 5dc:	0003609c 	muleq	r3, ip, r0
 5e0:	03340e00 	teqeq	r4, #0, 28
 5e4:	b4010000 	strlt	r0, [r1], #-0
 5e8:	010d1701 	tsteq	sp, r1, lsl #14
 5ec:	91020000 	mrsls	r0, (UNDEF: 2)
 5f0:	02d20e6c 	sbcseq	r0, r2, #108, 28	; 0x6c0
 5f4:	b4010000 	strlt	r0, [r1], #-0
 5f8:	00a72701 	adceq	r2, r7, r1, lsl #14
 5fc:	91020000 	mrsls	r0, (UNDEF: 2)
 600:	02111068 	andseq	r1, r1, #104	; 0x68
 604:	fc010000 	stc2	0, cr0, [r1], {-0}
 608:	00881201 	addeq	r1, r8, r1, lsl #4
 60c:	91020000 	mrsls	r0, (UNDEF: 2)
 610:	43140074 	tstmi	r4, #116	; 0x74
 614:	01000002 	tsteq	r0, r2
 618:	9801014e 	stmdals	r1, {r1, r2, r3, r6, r8}
 61c:	90000003 	andls	r0, r0, r3
 620:	01000000 	mrseq	r0, (UNDEF: 0)
 624:	02530e9c 	subseq	r0, r3, #156, 28	; 0x9c0
 628:	4e010000 	cdpmi	0, 0, cr0, cr1, cr0, {0}
 62c:	00a71a01 	adceq	r1, r7, r1, lsl #20
 630:	91020000 	mrsls	r0, (UNDEF: 2)
 634:	01f50e74 	mvnseq	r0, r4, ror lr
 638:	4e010000 	cdpmi	0, 0, cr0, cr1, cr0, {0}
 63c:	00a73001 	adceq	r3, r7, r1
 640:	91020000 	mrsls	r0, (UNDEF: 2)
 644:	02b70e70 	adcseq	r0, r7, #112, 28	; 0x700
 648:	4e010000 	cdpmi	0, 0, cr0, cr1, cr0, {0}
 64c:	00a74301 	adceq	r4, r7, r1, lsl #6
 650:	91020000 	mrsls	r0, (UNDEF: 2)
 654:	7600006c 	strvc	r0, [r0], -ip, rrx
 658:	04000005 	streq	r0, [r0], #-5
 65c:	0002fb00 	andeq	pc, r2, r0, lsl #22
 660:	d0010400 	andle	r0, r1, r0, lsl #8
 664:	0c000000 	stceq	0, cr0, [r0], {-0}
 668:	000004e2 	andeq	r0, r0, r2, ror #9
 66c:	00000047 	andeq	r0, r0, r7, asr #32
 670:	00000090 	muleq	r0, r0, r0
 674:	00000000 	andeq	r0, r0, r0
 678:	00000762 	andeq	r0, r0, r2, ror #14
 67c:	0003cd02 	andeq	ip, r3, r2, lsl #26
 680:	11021000 	mrsne	r1, (UNDEF: 2)
 684:	00006708 	andeq	r6, r0, r8, lsl #14
 688:	05410300 	strbeq	r0, [r1, #-768]	; 0xfffffd00
 68c:	12020000 	andne	r0, r2, #0
 690:	0000670d 	andeq	r6, r0, sp, lsl #14
 694:	6b030000 	blvs	c069c <_etext+0xbf56c>
 698:	02000003 	andeq	r0, r0, #3
 69c:	006e0d13 	rsbeq	r0, lr, r3, lsl sp
 6a0:	03040000 	movweq	r0, #16384	; 0x4000
 6a4:	000003f0 	strdeq	r0, [r0], -r0	; <UNPREDICTABLE>
 6a8:	6e0d1402 	cdpvs	4, 0, cr1, cr13, cr2, {0}
 6ac:	08000000 	stmdaeq	r0, {}	; <UNPREDICTABLE>
 6b0:	0004d603 	andeq	sp, r4, r3, lsl #12
 6b4:	0d150200 	lfmeq	f0, 4, [r5, #-0]
 6b8:	0000006e 	andeq	r0, r0, lr, rrx
 6bc:	0104000c 	tsteq	r4, ip
 6c0:	0001b502 	andeq	fp, r1, r2, lsl #10
 6c4:	05040500 	streq	r0, [r4, #-1280]	; 0xfffffb00
 6c8:	00746e69 	rsbseq	r6, r4, r9, ror #28
 6cc:	68080104 	stmdavs	r8, {r2, r8}
 6d0:	06000000 	streq	r0, [r0], -r0
 6d4:	00000075 	andeq	r0, r0, r5, ror r0
 6d8:	32070404 	andcc	r0, r7, #4, 8	; 0x4000000
 6dc:	07000000 	streq	r0, [r0, -r0]
 6e0:	091f0224 	ldmdbeq	pc, {r2, r5, r9}	; <UNPREDICTABLE>
 6e4:	00000107 	andeq	r0, r0, r7, lsl #2
 6e8:	00049603 	andeq	r9, r4, r3, lsl #12
 6ec:	0c200200 	sfmeq	f0, 4, [r0], #-0
 6f0:	00000108 	andeq	r0, r0, r8, lsl #2
 6f4:	058f0300 	streq	r0, [pc, #768]	; 9fc <USBInterruptInitialize+0x58>
 6f8:	21020000 	mrscs	r0, (UNDEF: 2)
 6fc:	0001080c 	andeq	r0, r1, ip, lsl #16
 700:	f0030400 			; <UNDEFINED> instruction: 0xf0030400
 704:	02000004 	andeq	r0, r0, #4
 708:	01080c22 	tsteq	r8, r2, lsr #24
 70c:	03080000 	movweq	r0, #32768	; 0x8000
 710:	000003a0 	andeq	r0, r0, r0, lsr #7
 714:	190c2302 	stmdbne	ip, {r1, r8, r9, sp}
 718:	0c000001 	stceq	0, cr0, [r0], {1}
 71c:	00050803 	andeq	r0, r5, r3, lsl #16
 720:	0c240200 	sfmeq	f0, 4, [r4], #-0
 724:	00000119 	andeq	r0, r0, r9, lsl r1
 728:	03da0310 	bicseq	r0, sl, #16, 6	; 0x40000000
 72c:	25020000 	strcs	r0, [r2, #-0]
 730:	00012f0c 	andeq	r2, r1, ip, lsl #30
 734:	6d031400 	cfstrsvs	mvf1, [r3, #-0]
 738:	02000004 	andeq	r0, r0, #4
 73c:	012f0c26 			; <UNDEFINED> instruction: 0x012f0c26
 740:	03180000 	tsteq	r8, #0
 744:	00000579 	andeq	r0, r0, r9, ror r5
 748:	530c2702 	movwpl	r2, #50946	; 0xc702
 74c:	1c000001 	stcne	0, cr0, [r0], {1}
 750:	00046103 	andeq	r6, r4, r3, lsl #2
 754:	0c280200 	sfmeq	f0, 4, [r8], #-0
 758:	0000016e 	andeq	r0, r0, lr, ror #2
 75c:	09080020 	stmdbeq	r8, {r5}
 760:	00010704 	andeq	r0, r1, r4, lsl #14
 764:	01190a00 	tsteq	r9, r0, lsl #20
 768:	6e0b0000 	cdpvs	0, 0, cr0, cr11, cr0, {0}
 76c:	00000000 	andeq	r0, r0, r0
 770:	010e0409 	tsteq	lr, r9, lsl #8
 774:	2f0a0000 	svccs	0x000a0000
 778:	0b000001 	bleq	784 <UARTvprintf+0x2cc>
 77c:	0000006e 	andeq	r0, r0, lr, rrx
 780:	0000250b 	andeq	r2, r0, fp, lsl #10
 784:	04090000 	streq	r0, [r9], #-0
 788:	0000011f 	andeq	r0, r0, pc, lsl r1
 78c:	0001450a 	andeq	r4, r1, sl, lsl #10
 790:	01450b00 	cmpeq	r5, r0, lsl #22
 794:	4c0b0000 	stcmi	0, cr0, [fp], {-0}
 798:	00000001 	andeq	r0, r0, r1
 79c:	014b0409 	cmpeq	fp, r9, lsl #8
 7a0:	040c0000 	streq	r0, [ip], #-0
 7a4:	009d0702 	addseq	r0, sp, r2, lsl #14
 7a8:	04090000 	streq	r0, [r9], #-0
 7ac:	00000135 	andeq	r0, r0, r5, lsr r1
 7b0:	00016e0a 	andeq	r6, r1, sl, lsl #28
 7b4:	00810b00 	addeq	r0, r1, r0, lsl #22
 7b8:	450b0000 	strmi	r0, [fp, #-0]
 7bc:	0b000001 	bleq	7c8 <UARTvprintf+0x310>
 7c0:	0000014c 	andeq	r0, r0, ip, asr #2
 7c4:	59040900 	stmdbpl	r4, {r8, fp}
 7c8:	0d000001 	stceq	0, cr0, [r0, #-4]
 7cc:	0000048c 	andeq	r0, r0, ip, lsl #9
 7d0:	88032902 	stmdahi	r3, {r1, r8, fp, sp}
 7d4:	0e000000 	cdpeq	0, 0, cr0, cr0, cr0, {0}
 7d8:	00000419 	andeq	r0, r0, r9, lsl r4
 7dc:	74122b02 	ldrvc	r2, [r2], #-2818	; 0xfffff4fe
 7e0:	0f000001 	svceq	0x00000001
 7e4:	00000180 	andeq	r0, r0, r0, lsl #3
 7e8:	0b016b01 	bleq	5b3f4 <_etext+0x5a2c4>
 7ec:	00000305 	andeq	r0, r0, r5, lsl #6
 7f0:	be100000 	cdplt	0, 1, cr0, cr0, cr0, {0}
 7f4:	01000004 	tsteq	r0, r4
 7f8:	4c10015f 	ldfmis	f0, [r0], {95}	; 0x5f
 7fc:	9c000001 	stcls	0, cr0, [r0], {1}
 800:	4000000b 	andmi	r0, r0, fp
 804:	01000000 	mrseq	r0, (UNDEF: 0)
 808:	0001d79c 	muleq	r1, ip, r7
 80c:	03fc1100 	mvnseq	r1, #0, 2
 810:	5f010000 	svcpl	0x00010000
 814:	006e2301 	rsbeq	r2, lr, r1, lsl #6
 818:	91020000 	mrsls	r0, (UNDEF: 2)
 81c:	0484126c 	streq	r1, [r4], #620	; 0x26c
 820:	60010000 	andvs	r0, r1, r0
 824:	014c1401 	cmpeq	ip, r1, lsl #8
 828:	91020000 	mrsls	r0, (UNDEF: 2)
 82c:	3e100076 	mrccc	0, 0, r0, cr0, cr6, {3}
 830:	01000004 	tsteq	r0, r4
 834:	810e0154 	tsthi	lr, r4, asr r1
 838:	58000000 	stmdapl	r0, {}	; <UNPREDICTABLE>
 83c:	4400000b 	strmi	r0, [r0], #-11
 840:	01000000 	mrseq	r0, (UNDEF: 0)
 844:	0002039c 	muleq	r2, ip, r3
 848:	04fb1200 	ldrbteq	r1, [fp], #512	; 0x200
 84c:	55010000 	strpl	r0, [r1, #-0]
 850:	00811201 	addeq	r1, r1, r1, lsl #4
 854:	91020000 	mrsls	r0, (UNDEF: 2)
 858:	5f130074 	svcpl	0x00130074
 85c:	01000005 	tsteq	r0, r5
 860:	000d014d 	andeq	r0, sp, sp, asr #2
 864:	2a000000 	bcs	86c <UARTvprintf+0x3b4>
 868:	01000000 	mrseq	r0, (UNDEF: 0)
 86c:	0002299c 	muleq	r2, ip, r9
 870:	00691400 	rsbeq	r1, r9, r0, lsl #8
 874:	12014e01 	andne	r4, r1, #1, 28
 878:	00000081 	andeq	r0, r0, r1, lsl #1
 87c:	00749102 	rsbseq	r9, r4, r2, lsl #2
 880:	00055315 	andeq	r5, r5, r5, lsl r3
 884:	01400100 	mrseq	r0, (UNDEF: 80)
 888:	00000006 	andeq	r0, r0, r6
 88c:	00005800 	andeq	r5, r0, r0, lsl #16
 890:	a79c0100 	ldrge	r0, [ip, r0, lsl #2]
 894:	11000002 	tstne	r0, r2
 898:	000003fc 	strdeq	r0, [r0], -ip
 89c:	16014001 	strne	r4, [r1], -r1
 8a0:	0000006e 	andeq	r0, r0, lr, rrx
 8a4:	11749102 	cmnne	r4, r2, lsl #2
 8a8:	00000572 	andeq	r0, r0, r2, ror r5
 8ac:	29014001 	stmdbcs	r1, {r0, lr}
 8b0:	00000145 	andeq	r0, r0, r5, asr #2
 8b4:	11709102 	cmnne	r0, r2, lsl #2
 8b8:	000005be 			; <UNDEFINED> instruction: 0x000005be
 8bc:	40014001 	andmi	r4, r1, r1
 8c0:	0000014c 	andeq	r0, r0, ip, asr #2
 8c4:	166e9102 	strbtne	r9, [lr], -r2, lsl #2
 8c8:	00000000 	andeq	r0, r0, r0
 8cc:	0000000a 	andeq	r0, r0, sl
 8d0:	0000028d 	andeq	r0, r0, sp, lsl #5
 8d4:	00040d17 	andeq	r0, r4, r7, lsl sp
 8d8:	01420100 	mrseq	r0, (UNDEF: 82)
 8dc:	00006e09 	andeq	r6, r0, r9, lsl #28
 8e0:	00001800 	andeq	r1, r0, r0, lsl #16
 8e4:	00000019 	andeq	r0, r0, r9, lsl r0
 8e8:	00000a00 	andeq	r0, r0, r0, lsl #20
 8ec:	040d1700 	streq	r1, [sp], #-1792	; 0xfffff900
 8f0:	42010000 	andmi	r0, r1, #0
 8f4:	006e0901 	rsbeq	r0, lr, r1, lsl #18
 8f8:	00180000 	andseq	r0, r8, r0
 8fc:	02150000 	andseq	r0, r5, #0
 900:	01000004 	tsteq	r0, r4
 904:	00060135 	andeq	r0, r6, r5, lsr r1
 908:	5800000b 	stmdapl	r0, {r0, r1, r3}
 90c:	01000000 	mrseq	r0, (UNDEF: 0)
 910:	0002ef9c 	muleq	r2, ip, pc	; <UNPREDICTABLE>
 914:	03fc1100 	mvnseq	r1, #0, 2
 918:	35010000 	strcc	r0, [r1, #-0]
 91c:	006e1501 	rsbeq	r1, lr, r1, lsl #10
 920:	91020000 	mrsls	r0, (UNDEF: 2)
 924:	05721174 	ldrbeq	r1, [r2, #-372]!	; 0xfffffe8c
 928:	35010000 	strcc	r0, [r1, #-0]
 92c:	02ef2201 	rsceq	r2, pc, #268435456	; 0x10000000
 930:	91020000 	mrsls	r0, (UNDEF: 2)
 934:	05be1170 	ldreq	r1, [lr, #368]!	; 0x170
 938:	35010000 	strcc	r0, [r1, #-0]
 93c:	014c3901 	cmpeq	ip, r1, lsl #18
 940:	91020000 	mrsls	r0, (UNDEF: 2)
 944:	041a006e 	ldreq	r0, [sl], #-110	; 0xffffff92
 948:	0003ad1b 	andeq	sl, r3, fp, lsl sp
 94c:	01270100 			; <UNDEFINED> instruction: 0x01270100
 950:	000a940d 	andeq	r9, sl, sp, lsl #8
 954:	00006c00 	andeq	r6, r0, r0, lsl #24
 958:	399c0100 	ldmibcc	ip, {r8}
 95c:	11000003 	tstne	r0, r3
 960:	000003fc 	strdeq	r0, [r0], -ip
 964:	1c012701 	stcne	7, cr2, [r1], {1}
 968:	0000006e 	andeq	r0, r0, lr, rrx
 96c:	11749102 	cmnne	r4, r2, lsl #2
 970:	0000000f 	andeq	r0, r0, pc
 974:	31012701 	tstcc	r1, r1, lsl #14
 978:	00000339 	andeq	r0, r0, r9, lsr r3
 97c:	11709102 	cmnne	r0, r2, lsl #2
 980:	00000395 	muleq	r0, r5, r3
 984:	44012701 	strmi	r2, [r1], #-1793	; 0xfffff8ff
 988:	00000081 	andeq	r0, r0, r1, lsl #1
 98c:	006c9102 	rsbeq	r9, ip, r2, lsl #2
 990:	00810409 	addeq	r0, r1, r9, lsl #8
 994:	d91b0000 	ldmdble	fp, {}	; <UNPREDICTABLE>
 998:	01000005 	tsteq	r0, r5
 99c:	000d0118 	andeq	r0, sp, r8, lsl r1
 9a0:	74000000 	strvc	r0, [r0], #-0
 9a4:	01000000 	mrseq	r0, (UNDEF: 0)
 9a8:	0003879c 	muleq	r3, ip, r7
 9ac:	03fc1100 	mvnseq	r1, #0, 2
 9b0:	18010000 	stmdane	r1, {}	; <UNPREDICTABLE>
 9b4:	006e1d01 	rsbeq	r1, lr, r1, lsl #26
 9b8:	91020000 	mrsls	r0, (UNDEF: 2)
 9bc:	000f1174 	andeq	r1, pc, r4, ror r1	; <UNPREDICTABLE>
 9c0:	18010000 	stmdane	r1, {}	; <UNPREDICTABLE>
 9c4:	03393201 	teqeq	r9, #268435456	; 0x10000000
 9c8:	91020000 	mrsls	r0, (UNDEF: 2)
 9cc:	03951170 	orrseq	r1, r5, #112, 2
 9d0:	18010000 	stmdane	r1, {}	; <UNPREDICTABLE>
 9d4:	00814501 	addeq	r4, r1, r1, lsl #10
 9d8:	91020000 	mrsls	r0, (UNDEF: 2)
 9dc:	c31c006c 	tstgt	ip, #108	; 0x6c
 9e0:	01000005 	tsteq	r0, r5
 9e4:	00000de0 	andeq	r0, r0, r0, ror #27
 9e8:	01400000 	mrseq	r0, (UNDEF: 64)
 9ec:	9c010000 	stcls	0, cr0, [r1], {-0}
 9f0:	000003e8 	andeq	r0, r0, r8, ror #7
 9f4:	0003fc1d 	andeq	pc, r3, sp, lsl ip	; <UNPREDICTABLE>
 9f8:	28e00100 	stmiacs	r0!, {r8}^
 9fc:	0000006e 	andeq	r0, r0, lr, rrx
 a00:	1d549102 	ldfnep	f1, [r4, #-8]
 a04:	00000454 	andeq	r0, r0, r4, asr r4
 a08:	6734e001 	ldrvs	lr, [r4, -r1]!
 a0c:	02000000 	andeq	r0, r0, #0
 a10:	a61d5391 			; <UNDEFINED> instruction: 0xa61d5391
 a14:	01000004 	tsteq	r0, r4
 a18:	002556e0 	eoreq	r5, r5, r0, ror #13
 a1c:	91020000 	mrsls	r0, (UNDEF: 2)
 a20:	50451e78 	subpl	r1, r5, r8, ror lr
 a24:	19e10100 	stmibne	r1!, {r8}^
 a28:	00000025 	andeq	r0, r0, r5, lsr #32
 a2c:	1f5c9102 	svcne	0x005c9102
 a30:	000004cd 	andeq	r0, r0, sp, asr #9
 a34:	8112e201 	tsthi	r2, r1, lsl #4
 a38:	02000000 	andeq	r0, r0, #0
 a3c:	20006c91 	mulcs	r0, r1, ip
 a40:	0000052c 	andeq	r0, r0, ip, lsr #10
 a44:	000dd301 	andeq	sp, sp, r1, lsl #6
 a48:	64000000 	strvs	r0, [r0], #-0
 a4c:	01000000 	mrseq	r0, (UNDEF: 0)
 a50:	00042c9c 	muleq	r4, ip, ip
 a54:	03fc1d00 	mvnseq	r1, #0, 26
 a58:	d3010000 	movwle	r0, #4096	; 0x1000
 a5c:	00006e26 	andeq	r6, r0, r6, lsr #28
 a60:	5c910200 	lfmpl	f0, 4, [r1], {0}
 a64:	0004a61d 	andeq	sl, r4, sp, lsl r6
 a68:	41d30100 	bicsmi	r0, r3, r0, lsl #2
 a6c:	00000025 	andeq	r0, r0, r5, lsr #32
 a70:	1f749102 	svcne	0x00749102
 a74:	000004d6 	ldrdeq	r0, [r0], -r6
 a78:	8112d401 	tsthi	r2, r1, lsl #8
 a7c:	02000000 	andeq	r0, r0, #0
 a80:	20006491 	mulcs	r0, r1, r4
 a84:	00000349 	andeq	r0, r0, r9, asr #6
 a88:	000dc901 	andeq	ip, sp, r1, lsl #18
 a8c:	60000000 	andvs	r0, r0, r0
 a90:	01000000 	mrseq	r0, (UNDEF: 0)
 a94:	0004619c 	muleq	r4, ip, r1
 a98:	03fc1d00 	mvnseq	r1, #0, 26
 a9c:	c9010000 	stmdbgt	r1, {}	; <UNPREDICTABLE>
 aa0:	00006e25 	andeq	r6, r0, r5, lsr #28
 aa4:	64910200 	ldrvs	r0, [r1], #512	; 0x200
 aa8:	0004a61d 	andeq	sl, r4, sp, lsl r6
 aac:	40c90100 	sbcmi	r0, r9, r0, lsl #2
 ab0:	00000025 	andeq	r0, r0, r5, lsr #32
 ab4:	00749102 	rsbseq	r9, r4, r2, lsl #2
 ab8:	00059720 	andeq	r9, r5, r0, lsr #14
 abc:	0dbc0100 	ldfeqs	f0, [ip]
 ac0:	00000000 	andeq	r0, r0, r0
 ac4:	00000060 	andeq	r0, r0, r0, rrx
 ac8:	04879c01 	streq	r9, [r7], #3073	; 0xc01
 acc:	fc1d0000 	ldc2	0, cr0, [sp], {-0}
 ad0:	01000003 	tsteq	r0, r3
 ad4:	006e25bc 	strhteq	r2, [lr], #-92	; 0xffffffa4
 ad8:	91020000 	mrsls	r0, (UNDEF: 2)
 adc:	ab210074 	blge	840cb4 <_etext+0x83fb84>
 ae0:	01000005 	tsteq	r0, r5
 ae4:	00000db1 			; <UNDEFINED> instruction: 0x00000db1
 ae8:	00340000 	eorseq	r0, r4, r0
 aec:	9c010000 	stcls	0, cr0, [r1], {-0}
 af0:	0003c11c 	andeq	ip, r3, ip, lsl r1
 af4:	0da90100 	stfeqs	f0, [r9]
 af8:	00000000 	andeq	r0, r0, r0
 afc:	00000034 	andeq	r0, r0, r4, lsr r0
 b00:	04bf9c01 	ldrteq	r9, [pc], #3073	; b08 <readPacket+0x8>
 b04:	fc1d0000 	ldc2	0, cr0, [sp], {-0}
 b08:	01000003 	tsteq	r0, r3
 b0c:	006e1da9 	rsbeq	r1, lr, r9, lsr #27
 b10:	91020000 	mrsls	r0, (UNDEF: 2)
 b14:	321c0074 	andscc	r0, ip, #116	; 0x74
 b18:	01000004 	tsteq	r0, r4
 b1c:	00000da5 	andeq	r0, r0, r5, lsr #27
 b20:	00380000 	eorseq	r0, r8, r0
 b24:	9c010000 	stcls	0, cr0, [r1], {-0}
 b28:	000004e5 	andeq	r0, r0, r5, ror #9
 b2c:	0003fc1d 	andeq	pc, r3, sp, lsl ip	; <UNPREDICTABLE>
 b30:	1da50100 	stfnes	f0, [r5]
 b34:	0000006e 	andeq	r0, r0, lr, rrx
 b38:	00749102 	rsbseq	r9, r4, r2, lsl #2
 b3c:	00035d22 	andeq	r5, r3, r2, lsr #26
 b40:	06920100 	ldreq	r0, [r2], r0, lsl #2
 b44:	00000a1c 	andeq	r0, r0, ip, lsl sl
 b48:	00000078 	andeq	r0, r0, r8, ror r0
 b4c:	050b9c01 	streq	r9, [fp, #-3073]	; 0xfffff3ff
 b50:	8c1f0000 	ldchi	0, cr0, [pc], {-0}
 b54:	01000003 	tsteq	r0, r3
 b58:	007c1c93 			; <UNDEFINED> instruction: 0x007c1c93
 b5c:	91020000 	mrsls	r0, (UNDEF: 2)
 b60:	15220077 	strne	r0, [r2, #-119]!	; 0xffffff89
 b64:	01000005 	tsteq	r0, r5
 b68:	09a4067f 	stmibeq	r4!, {r0, r1, r2, r3, r4, r5, r6, r9, sl}
 b6c:	00780000 	rsbseq	r0, r8, r0
 b70:	9c010000 	stcls	0, cr0, [r1], {-0}
 b74:	00000531 	andeq	r0, r0, r1, lsr r5
 b78:	0003b81f 	andeq	fp, r3, pc, lsl r8
 b7c:	12800100 	addne	r0, r0, #0, 2
 b80:	00000081 	andeq	r0, r0, r1, lsl #1
 b84:	00749102 	rsbseq	r9, r4, r2, lsl #2
 b88:	00037923 	andeq	r7, r3, r3, lsr #18
 b8c:	067b0100 	ldrbteq	r0, [fp], -r0, lsl #2
 b90:	00000994 	muleq	r0, r4, r9
 b94:	0000000e 	andeq	r0, r0, lr
 b98:	86239c01 	strthi	r9, [r3], -r1, lsl #24
 b9c:	01000005 	tsteq	r0, r5
 ba0:	00000677 	andeq	r0, r0, r7, ror r6
 ba4:	00200000 	eoreq	r0, r0, r0
 ba8:	9c010000 	stcls	0, cr0, [r1], {-0}
 bac:	00042423 	andeq	r2, r4, r3, lsr #8
 bb0:	06730100 	ldrbteq	r0, [r3], -r0, lsl #2
 bb4:	00000974 	andeq	r0, r0, r4, ror r9
 bb8:	00000020 	andeq	r0, r0, r0, lsr #32
 bbc:	ad239c01 	stcge	12, cr9, [r3, #-4]!
 bc0:	01000004 	tsteq	r0, r4
 bc4:	08e40662 	stmiaeq	r4!, {r1, r5, r6, r9, sl}^
 bc8:	00900000 	addseq	r0, r0, r0
 bcc:	9c010000 	stcls	0, cr0, [r1], {-0}
 bd0:	00011b00 	andeq	r1, r1, r0, lsl #22
 bd4:	3c000400 	cfstrscc	mvf0, [r0], {-0}
 bd8:	04000005 	streq	r0, [r0], #-5
 bdc:	0000d001 	andeq	sp, r0, r1
 be0:	060e0c00 	streq	r0, [lr], -r0, lsl #24
 be4:	00470000 	subeq	r0, r7, r0
 be8:	01380000 	teqeq	r8, r0
 bec:	00000000 	andeq	r0, r0, r0
 bf0:	0c910000 	ldceq	0, cr0, [r1], {0}
 bf4:	01020000 	mrseq	r0, (UNDEF: 2)
 bf8:	00006a06 	andeq	r6, r0, r6, lsl #20
 bfc:	08010200 	stmdaeq	r1, {r9}
 c00:	00000068 	andeq	r0, r0, r8, rrx
 c04:	c6050202 	strgt	r0, [r5], -r2, lsl #4
 c08:	02000000 	andeq	r0, r0, #0
 c0c:	009d0702 	addseq	r0, sp, r2, lsl #14
 c10:	04020000 	streq	r0, [r2], #-0
 c14:	00000505 	andeq	r0, r0, r5, lsl #10
 c18:	07040200 	streq	r0, [r4, -r0, lsl #4]
 c1c:	0000002d 	andeq	r0, r0, sp, lsr #32
 c20:	00050802 	andeq	r0, r5, r2, lsl #16
 c24:	02000000 	andeq	r0, r0, #0
 c28:	00280708 	eoreq	r0, r8, r8, lsl #14
 c2c:	04030000 	streq	r0, [r3], #-0
 c30:	746e6905 	strbtvc	r6, [lr], #-2309	; 0xfffff6fb
 c34:	07040200 	streq	r0, [r4, -r0, lsl #4]
 c38:	00000032 	andeq	r0, r0, r2, lsr r0
 c3c:	00006404 	andeq	r6, r0, r4, lsl #8
 c40:	02010200 	andeq	r0, r1, #0, 4
 c44:	000001b5 			; <UNDEFINED> instruction: 0x000001b5
 c48:	0005f305 	andeq	pc, r5, r5, lsl #6
 c4c:	06210100 	strteq	r0, [r1], -r0, lsl #2
 c50:	00000bf8 	strdeq	r0, [r0], -r8
 c54:	0000008c 	andeq	r0, r0, ip, lsl #1
 c58:	00d89c01 	sbcseq	r9, r8, r1, lsl #24
 c5c:	e5060000 	str	r0, [r6, #-0]
 c60:	01000005 	tsteq	r0, r5
 c64:	006b1b22 	rsbeq	r1, fp, r2, lsr #22
 c68:	91020000 	mrsls	r0, (UNDEF: 2)
 c6c:	0069076c 	rsbeq	r0, r9, ip, ror #14
 c70:	64122301 	ldrvs	r2, [r2], #-769	; 0xfffffcff
 c74:	02000000 	andeq	r0, r0, #0
 c78:	1f067491 	svcne	0x00067491
 c7c:	01000006 	tsteq	r0, r6
 c80:	003a1424 	eorseq	r1, sl, r4, lsr #8
 c84:	91020000 	mrsls	r0, (UNDEF: 2)
 c88:	06300672 			; <UNDEFINED> instruction: 0x06300672
 c8c:	25010000 	strcs	r0, [r1, #-0]
 c90:	0000d813 	andeq	sp, r0, r3, lsl r8
 c94:	ac910300 	ldcge	3, cr0, [r1], {0}
 c98:	0640067f 			; <UNDEFINED> instruction: 0x0640067f
 c9c:	26010000 	strcs	r0, [r1], -r0
 ca0:	00002c13 	andeq	r2, r0, r3, lsl ip
 ca4:	71910200 	orrsvc	r0, r1, r0, lsl #4
 ca8:	002c0800 	eoreq	r0, ip, r0, lsl #16
 cac:	00e80000 	rsceq	r0, r8, r0
 cb0:	64090000 	strvs	r0, [r9], #-0
 cb4:	3f000000 	svccc	0x00000000
 cb8:	06360a00 	ldrteq	r0, [r6], -r0, lsl #20
 cbc:	11010000 	mrsne	r0, (UNDEF: 1)
 cc0:	00000006 	andeq	r0, r0, r6
 cc4:	00000c00 	andeq	r0, r0, r0, lsl #24
 cc8:	0a9c0100 	beq	fe7010d0 <_ebss+0xde700fcc>
 ccc:	00000625 	andeq	r0, r0, r5, lsr #12
 cd0:	00060d01 	andeq	r0, r6, r1, lsl #26
 cd4:	0c000000 	stceq	0, cr0, [r0], {-0}
 cd8:	01000000 	mrseq	r0, (UNDEF: 0)
 cdc:	06060a9c 			; <UNDEFINED> instruction: 0x06060a9c
 ce0:	05010000 	streq	r0, [r1, #-0]
 ce4:	000bdc06 	andeq	sp, fp, r6, lsl #24
 ce8:	00001c00 	andeq	r1, r0, r0, lsl #24
 cec:	009c0100 	addseq	r0, ip, r0, lsl #2

Disassembly of section .debug_abbrev:

00000000 <.debug_abbrev>:
   0:	25011101 	strcs	r1, [r1, #-257]	; 0xfffffeff
   4:	030b130e 	movweq	r1, #45838	; 0xb30e
   8:	550e1b0e 	strpl	r1, [lr, #-2830]	; 0xfffff4f2
   c:	10011117 	andne	r1, r1, r7, lsl r1
  10:	02000017 	andeq	r0, r0, #23
  14:	0b0b0024 	bleq	2c00ac <_etext+0x2bef7c>
  18:	0e030b3e 	vmoveq.16	d3[0], r0
  1c:	16030000 	strne	r0, [r3], -r0
  20:	3a0e0300 	bcc	380c28 <_etext+0x37faf8>
  24:	390b3b0b 	stmdbcc	fp, {r0, r1, r3, r8, r9, fp, ip, sp}
  28:	0013490b 	andseq	r4, r3, fp, lsl #18
  2c:	00240400 	eoreq	r0, r4, r0, lsl #8
  30:	0b3e0b0b 	bleq	f82c64 <_etext+0xf81b34>
  34:	00000803 	andeq	r0, r0, r3, lsl #16
  38:	0b000f05 	bleq	3c54 <_etext+0x2b24>
  3c:	0013490b 	andseq	r4, r3, fp, lsl #18
  40:	00260600 	eoreq	r0, r6, r0, lsl #12
  44:	00001349 	andeq	r1, r0, r9, asr #6
  48:	27001507 	strcs	r1, [r0, -r7, lsl #10]
  4c:	08000019 	stmdaeq	r0, {r0, r3, r4}
  50:	13490101 	movtne	r0, #37121	; 0x9101
  54:	00001301 	andeq	r1, r0, r1, lsl #6
  58:	49002109 	stmdbmi	r0, {r0, r3, r8, sp}
  5c:	000b2f13 	andeq	r2, fp, r3, lsl pc
  60:	00340a00 	eorseq	r0, r4, r0, lsl #20
  64:	0b3a0e03 	bleq	e83878 <_etext+0xe82748>
  68:	0b390b3b 	bleq	e42d5c <_etext+0xe41c2c>
  6c:	18021349 	stmdane	r2, {r0, r3, r6, r8, r9, ip}
  70:	340b0000 	strcc	r0, [fp], #-0
  74:	3a0e0300 	bcc	380c7c <_etext+0x37fb4c>
  78:	390b3b0b 	stmdbcc	fp, {r0, r1, r3, r8, r9, fp, ip, sp}
  7c:	3f13490b 	svccc	0x0013490b
  80:	00180219 	andseq	r0, r8, r9, lsl r2
  84:	00340c00 	eorseq	r0, r4, r0, lsl #24
  88:	0b3a0e03 	bleq	e8389c <_etext+0xe8276c>
  8c:	0b390b3b 	bleq	e42d80 <_etext+0xe41c50>
  90:	193f1349 	ldmdbne	pc!, {r0, r3, r6, r8, r9, ip}	; <UNPREDICTABLE>
  94:	0000193c 	andeq	r1, r0, ip, lsr r9
  98:	03002e0d 	movweq	r2, #3597	; 0xe0d
  9c:	3b0b3a0e 	blcc	2ce8dc <_etext+0x2cd7ac>
  a0:	270b3905 	strcs	r3, [fp, -r5, lsl #18]
  a4:	12011119 	andne	r1, r1, #1073741830	; 0x40000006
  a8:	97184006 	ldrls	r4, [r8, -r6]
  ac:	00001942 	andeq	r1, r0, r2, asr #18
  b0:	3f012e0e 	svccc	0x00012e0e
  b4:	3a0e0319 	bcc	380d20 <_etext+0x37fbf0>
  b8:	390b3b0b 	stmdbcc	fp, {r0, r1, r3, r8, r9, fp, ip, sp}
  bc:	1119270b 	tstne	r9, fp, lsl #14
  c0:	40061201 	andmi	r1, r6, r1, lsl #4
  c4:	19429618 	stmdbne	r2, {r3, r4, r9, sl, ip, pc}^
  c8:	00001301 	andeq	r1, r0, r1, lsl #6
  cc:	01110100 	tsteq	r1, r0, lsl #2
  d0:	0b130e25 	bleq	4c396c <_etext+0x4c283c>
  d4:	0e1b0e03 	cdpeq	14, 1, cr0, cr11, cr3, {0}
  d8:	01111755 	tsteq	r1, r5, asr r7
  dc:	00001710 	andeq	r1, r0, r0, lsl r7
  e0:	0b002402 	bleq	90f0 <_etext+0x7fc0>
  e4:	030b3e0b 	movweq	r3, #48651	; 0xbe0b
  e8:	0300000e 	movweq	r0, #14
  ec:	0e030016 	mcreq	0, 0, r0, cr3, cr6, {0}
  f0:	0b3b0b3a 	bleq	ec2de0 <_etext+0xec1cb0>
  f4:	13490b39 	movtne	r0, #39737	; 0x9b39
  f8:	24040000 	strcs	r0, [r4], #-0
  fc:	3e0b0b00 	vmlacc.f64	d0, d11, d0
 100:	0008030b 	andeq	r0, r8, fp, lsl #6
 104:	012e0500 			; <UNDEFINED> instruction: 0x012e0500
 108:	0e03193f 			; <UNDEFINED> instruction: 0x0e03193f
 10c:	0b3b0b3a 	bleq	ec2dfc <_etext+0xec1ccc>
 110:	13490b39 	movtne	r0, #39737	; 0x9b39
 114:	06120111 			; <UNDEFINED> instruction: 0x06120111
 118:	42961840 	addsmi	r1, r6, #64, 16	; 0x400000
 11c:	00130119 	andseq	r0, r3, r9, lsl r1
 120:	00340600 	eorseq	r0, r4, r0, lsl #12
 124:	0b3a0803 	bleq	e82138 <_etext+0xe81008>
 128:	0b390b3b 	bleq	e42e1c <_etext+0xe41cec>
 12c:	18021349 	stmdane	r2, {r0, r3, r6, r8, r9, ip}
 130:	34070000 	strcc	r0, [r7], #-0
 134:	3a0e0300 	bcc	380d3c <_etext+0x37fc0c>
 138:	390b3b0b 	stmdbcc	fp, {r0, r1, r3, r8, r9, fp, ip, sp}
 13c:	0213490b 	andseq	r4, r3, #180224	; 0x2c000
 140:	08000018 	stmdaeq	r0, {r3, r4}
 144:	193f002e 	ldmdbne	pc!, {r1, r2, r3, r5}	; <UNPREDICTABLE>
 148:	0b3a0e03 	bleq	e8395c <_etext+0xe8282c>
 14c:	0b390b3b 	bleq	e42e40 <_etext+0xe41d10>
 150:	01111927 	tsteq	r1, r7, lsr #18
 154:	18400612 	stmdane	r0, {r1, r4, r9, sl}^
 158:	00194296 	mulseq	r9, r6, r2
 15c:	002e0900 	eoreq	r0, lr, r0, lsl #18
 160:	0e03193f 			; <UNDEFINED> instruction: 0x0e03193f
 164:	0b3b0b3a 	bleq	ec2e54 <_etext+0xec1d24>
 168:	01110b39 	tsteq	r1, r9, lsr fp
 16c:	18400612 	stmdane	r0, {r1, r4, r9, sl}^
 170:	00194296 	mulseq	r9, r6, r2
 174:	002e0a00 	eoreq	r0, lr, r0, lsl #20
 178:	0e03193f 			; <UNDEFINED> instruction: 0x0e03193f
 17c:	0b3b0b3a 	bleq	ec2e6c <_etext+0xec1d3c>
 180:	19270b39 	stmdbne	r7!, {r0, r3, r4, r5, r8, r9, fp}
 184:	06120111 			; <UNDEFINED> instruction: 0x06120111
 188:	42971840 	addsmi	r1, r7, #64, 16	; 0x400000
 18c:	0b000019 	bleq	1f8 <g_pfnVectors+0x1f8>
 190:	193f012e 	ldmdbne	pc!, {r1, r2, r3, r5, r8}	; <UNPREDICTABLE>
 194:	0b3a0e03 	bleq	e839a8 <_etext+0xe82878>
 198:	0b390b3b 	bleq	e42e8c <_etext+0xe41d5c>
 19c:	01111927 	tsteq	r1, r7, lsr #18
 1a0:	18400612 	stmdane	r0, {r1, r4, r9, sl}^
 1a4:	01194297 			; <UNDEFINED> instruction: 0x01194297
 1a8:	0c000013 	stceq	0, cr0, [r0], {19}
 1ac:	0e030005 	cdpeq	0, 0, cr0, cr3, cr5, {0}
 1b0:	0b3b0b3a 	bleq	ec2ea0 <_etext+0xec1d70>
 1b4:	13490b39 	movtne	r0, #39737	; 0x9b39
 1b8:	00001802 	andeq	r1, r0, r2, lsl #16
 1bc:	0b000f0d 	bleq	3df8 <_etext+0x2cc8>
 1c0:	0013490b 	andseq	r4, r3, fp, lsl #18
 1c4:	11010000 	mrsne	r0, (UNDEF: 1)
 1c8:	130e2501 	movwne	r2, #58625	; 0xe501
 1cc:	1b0e030b 	blne	380e00 <_etext+0x37fcd0>
 1d0:	1117550e 	tstne	r7, lr, lsl #10
 1d4:	00171001 	andseq	r1, r7, r1
 1d8:	00160200 	andseq	r0, r6, r0, lsl #4
 1dc:	0b3a0e03 	bleq	e839f0 <_etext+0xe828c0>
 1e0:	0b390b3b 	bleq	e42ed4 <_etext+0xe41da4>
 1e4:	00001349 	andeq	r1, r0, r9, asr #6
 1e8:	0b002403 	bleq	91fc <_etext+0x80cc>
 1ec:	030b3e0b 	movweq	r3, #48651	; 0xbe0b
 1f0:	0400000e 	streq	r0, [r0], #-14
 1f4:	0b0b0024 	bleq	2c028c <_etext+0x2bf15c>
 1f8:	08030b3e 	stmdaeq	r3, {r1, r2, r3, r4, r5, r8, r9, fp}
 1fc:	26050000 	strcs	r0, [r5], -r0
 200:	00134900 	andseq	r4, r3, r0, lsl #18
 204:	01130600 	tsteq	r3, r0, lsl #12
 208:	0b0b0e03 	bleq	2c3a1c <_etext+0x2c28ec>
 20c:	0b3b0b3a 	bleq	ec2efc <_etext+0xec1dcc>
 210:	00001301 	andeq	r1, r0, r1, lsl #6
 214:	03000d07 	movweq	r0, #3335	; 0xd07
 218:	3813490e 	ldmdacc	r3, {r1, r2, r3, r8, fp, lr}
 21c:	0019340b 	andseq	r3, r9, fp, lsl #8
 220:	000f0800 	andeq	r0, pc, r0, lsl #16
 224:	00000b0b 	andeq	r0, r0, fp, lsl #22
 228:	03003409 	movweq	r3, #1033	; 0x409
 22c:	3b0b3a0e 	blcc	2cea6c <_etext+0x2cd93c>
 230:	490b390b 	stmdbmi	fp, {r0, r1, r3, r8, fp, ip, sp}
 234:	00180213 	andseq	r0, r8, r3, lsl r2
 238:	000f0a00 	andeq	r0, pc, r0, lsl #20
 23c:	13490b0b 	movtne	r0, #39691	; 0x9b0b
 240:	010b0000 	mrseq	r0, (UNDEF: 11)
 244:	01134901 	tsteq	r3, r1, lsl #18
 248:	0c000013 	stceq	0, cr0, [r0], {19}
 24c:	13490021 	movtne	r0, #36897	; 0x9021
 250:	00000b2f 	andeq	r0, r0, pc, lsr #22
 254:	3f012e0d 	svccc	0x00012e0d
 258:	3a0e0319 	bcc	380ec4 <_etext+0x37fd94>
 25c:	39053b0b 	stmdbcc	r5, {r0, r1, r3, r8, r9, fp, ip, sp}
 260:	1119270b 	tstne	r9, fp, lsl #14
 264:	40061201 	andmi	r1, r6, r1, lsl #4
 268:	19429618 	stmdbne	r2, {r3, r4, r9, sl, ip, pc}^
 26c:	00001301 	andeq	r1, r0, r1, lsl #6
 270:	0300050e 	movweq	r0, #1294	; 0x50e
 274:	3b0b3a0e 	blcc	2ceab4 <_etext+0x2cd984>
 278:	490b3905 	stmdbmi	fp, {r0, r2, r8, fp, ip, sp}
 27c:	00180213 	andseq	r0, r8, r3, lsl r2
 280:	00180f00 	andseq	r0, r8, r0, lsl #30
 284:	34100000 	ldrcc	r0, [r0], #-0
 288:	3a0e0300 	bcc	380e90 <_etext+0x37fd60>
 28c:	39053b0b 	stmdbcc	r5, {r0, r1, r3, r8, r9, fp, ip, sp}
 290:	0213490b 	andseq	r4, r3, #180224	; 0x2c000
 294:	11000018 	tstne	r0, r8, lsl r0
 298:	0e03000a 	cdpeq	0, 0, cr0, cr3, cr10, {0}
 29c:	053b0b3a 	ldreq	r0, [fp, #-2874]!	; 0xfffff4c6
 2a0:	01110b39 	tsteq	r1, r9, lsr fp
 2a4:	2e120000 	cdpcs	0, 1, cr0, cr2, cr0, {0}
 2a8:	03193f00 	tsteq	r9, #0, 30
 2ac:	3b0b3a0e 	blcc	2ceaec <_etext+0x2cd9bc>
 2b0:	270b3905 	strcs	r3, [fp, -r5, lsl #18]
 2b4:	11134919 	tstne	r3, r9, lsl r9
 2b8:	40061201 	andmi	r1, r6, r1, lsl #4
 2bc:	19429618 	stmdbne	r2, {r3, r4, r9, sl, ip, pc}^
 2c0:	2e130000 	cdpcs	0, 1, cr0, cr3, cr0, {0}
 2c4:	03193f01 	tsteq	r9, #1, 30
 2c8:	3b0b3a0e 	blcc	2ceb08 <_etext+0x2cd9d8>
 2cc:	270b3905 	strcs	r3, [fp, -r5, lsl #18]
 2d0:	11134919 	tstne	r3, r9, lsl r9
 2d4:	40061201 	andmi	r1, r6, r1, lsl #4
 2d8:	19429618 	stmdbne	r2, {r3, r4, r9, sl, ip, pc}^
 2dc:	00001301 	andeq	r1, r0, r1, lsl #6
 2e0:	3f012e14 	svccc	0x00012e14
 2e4:	3a0e0319 	bcc	380f50 <_etext+0x37fe20>
 2e8:	39053b0b 	stmdbcc	r5, {r0, r1, r3, r8, r9, fp, ip, sp}
 2ec:	1119270b 	tstne	r9, fp, lsl #14
 2f0:	40061201 	andmi	r1, r6, r1, lsl #4
 2f4:	19429618 	stmdbne	r2, {r3, r4, r9, sl, ip, pc}^
 2f8:	01000000 	mrseq	r0, (UNDEF: 0)
 2fc:	0e250111 	mcreq	1, 1, r0, cr5, cr1, {0}
 300:	0e030b13 	vmoveq.32	d3[0], r0
 304:	17550e1b 	smmlane	r5, fp, lr, r0
 308:	17100111 			; <UNDEFINED> instruction: 0x17100111
 30c:	13020000 	movwne	r0, #8192	; 0x2000
 310:	0b0e0301 	bleq	380f1c <_etext+0x37fdec>
 314:	3b0b3a0b 	blcc	2ceb48 <_etext+0x2cda18>
 318:	010b390b 	tsteq	fp, fp, lsl #18
 31c:	03000013 	movweq	r0, #19
 320:	0e03000d 	cdpeq	0, 0, cr0, cr3, cr13, {0}
 324:	0b3b0b3a 	bleq	ec3014 <_etext+0xec1ee4>
 328:	13490b39 	movtne	r0, #39737	; 0x9b39
 32c:	00000b38 	andeq	r0, r0, r8, lsr fp
 330:	0b002404 	bleq	9348 <_etext+0x8218>
 334:	030b3e0b 	movweq	r3, #48651	; 0xbe0b
 338:	0500000e 	streq	r0, [r0, #-14]
 33c:	0b0b0024 	bleq	2c03d4 <_etext+0x2bf2a4>
 340:	08030b3e 	stmdaeq	r3, {r1, r2, r3, r4, r5, r8, r9, fp}
 344:	35060000 	strcc	r0, [r6, #-0]
 348:	00134900 	andseq	r4, r3, r0, lsl #18
 34c:	01130700 	tsteq	r3, r0, lsl #14
 350:	0b3a0b0b 	bleq	e82f84 <_etext+0xe81e54>
 354:	0b390b3b 	bleq	e43048 <_etext+0xe41f18>
 358:	00001301 	andeq	r1, r0, r1, lsl #6
 35c:	27001508 	strcs	r1, [r0, -r8, lsl #10]
 360:	09000019 	stmdbeq	r0, {r0, r3, r4}
 364:	0b0b000f 	bleq	2c03a8 <_etext+0x2bf278>
 368:	00001349 	andeq	r1, r0, r9, asr #6
 36c:	2701150a 	strcs	r1, [r1, -sl, lsl #10]
 370:	00130119 	andseq	r0, r3, r9, lsl r1
 374:	00050b00 	andeq	r0, r5, r0, lsl #22
 378:	00001349 	andeq	r1, r0, r9, asr #6
 37c:	0000260c 	andeq	r2, r0, ip, lsl #12
 380:	00160d00 	andseq	r0, r6, r0, lsl #26
 384:	0b3a0e03 	bleq	e83b98 <_etext+0xe82a68>
 388:	0b390b3b 	bleq	e4307c <_etext+0xe41f4c>
 38c:	00001349 	andeq	r1, r0, r9, asr #6
 390:	0300340e 	movweq	r3, #1038	; 0x40e
 394:	3b0b3a0e 	blcc	2cebd4 <_etext+0x2cdaa4>
 398:	490b390b 	stmdbmi	fp, {r0, r1, r3, r8, fp, ip, sp}
 39c:	3c193f13 	ldccc	15, cr3, [r9], {19}
 3a0:	0f000019 	svceq	0x00000019
 3a4:	13470034 	movtne	r0, #28724	; 0x7034
 3a8:	053b0b3a 	ldreq	r0, [fp, #-2874]!	; 0xfffff4c6
 3ac:	18020b39 	stmdane	r2, {r0, r3, r4, r5, r8, r9, fp}
 3b0:	2e100000 	cdpcs	0, 1, cr0, cr0, cr0, {0}
 3b4:	03193f01 	tsteq	r9, #1, 30
 3b8:	3b0b3a0e 	blcc	2cebf8 <_etext+0x2cdac8>
 3bc:	270b3905 	strcs	r3, [fp, -r5, lsl #18]
 3c0:	11134919 	tstne	r3, r9, lsl r9
 3c4:	40061201 	andmi	r1, r6, r1, lsl #4
 3c8:	19429718 	stmdbne	r2, {r3, r4, r8, r9, sl, ip, pc}^
 3cc:	00001301 	andeq	r1, r0, r1, lsl #6
 3d0:	03000511 	movweq	r0, #1297	; 0x511
 3d4:	3b0b3a0e 	blcc	2cec14 <_etext+0x2cdae4>
 3d8:	490b3905 	stmdbmi	fp, {r0, r2, r8, fp, ip, sp}
 3dc:	00180213 	andseq	r0, r8, r3, lsl r2
 3e0:	00341200 	eorseq	r1, r4, r0, lsl #4
 3e4:	0b3a0e03 	bleq	e83bf8 <_etext+0xe82ac8>
 3e8:	0b39053b 	bleq	e418dc <_etext+0xe407ac>
 3ec:	18021349 	stmdane	r2, {r0, r3, r6, r8, r9, ip}
 3f0:	2e130000 	cdpcs	0, 1, cr0, cr3, cr0, {0}
 3f4:	3a0e0301 	bcc	381000 <_etext+0x37fed0>
 3f8:	39053b0b 	stmdbcc	r5, {r0, r1, r3, r8, r9, fp, ip, sp}
 3fc:	1119270b 	tstne	r9, fp, lsl #14
 400:	40061201 	andmi	r1, r6, r1, lsl #4
 404:	19429618 	stmdbne	r2, {r3, r4, r9, sl, ip, pc}^
 408:	00001301 	andeq	r1, r0, r1, lsl #6
 40c:	03003414 	movweq	r3, #1044	; 0x414
 410:	3b0b3a08 	blcc	2cec38 <_etext+0x2cdb08>
 414:	490b3905 	stmdbmi	fp, {r0, r2, r8, fp, ip, sp}
 418:	00180213 	andseq	r0, r8, r3, lsl r2
 41c:	012e1500 			; <UNDEFINED> instruction: 0x012e1500
 420:	0e03193f 			; <UNDEFINED> instruction: 0x0e03193f
 424:	053b0b3a 	ldreq	r0, [fp, #-2874]!	; 0xfffff4c6
 428:	19270b39 	stmdbne	r7!, {r0, r3, r4, r5, r8, r9, fp}
 42c:	06120111 			; <UNDEFINED> instruction: 0x06120111
 430:	42961840 	addsmi	r1, r6, #64, 16	; 0x400000
 434:	00130119 	andseq	r0, r3, r9, lsl r1
 438:	010b1600 	tsteq	fp, r0, lsl #12
 43c:	06120111 			; <UNDEFINED> instruction: 0x06120111
 440:	00001301 	andeq	r1, r0, r1, lsl #6
 444:	3f012e17 	svccc	0x00012e17
 448:	3a0e0319 	bcc	3810b4 <_etext+0x37ff84>
 44c:	39053b0b 	stmdbcc	r5, {r0, r1, r3, r8, r9, fp, ip, sp}
 450:	3c13490b 			; <UNDEFINED> instruction: 0x3c13490b
 454:	18000019 	stmdane	r0, {r0, r3, r4}
 458:	00000018 	andeq	r0, r0, r8, lsl r0
 45c:	11010b19 	tstne	r1, r9, lsl fp
 460:	00061201 	andeq	r1, r6, r1, lsl #4
 464:	000f1a00 	andeq	r1, pc, r0, lsl #20
 468:	00000b0b 	andeq	r0, r0, fp, lsl #22
 46c:	03012e1b 	movweq	r2, #7707	; 0x1e1b
 470:	3b0b3a0e 	blcc	2cecb0 <_etext+0x2cdb80>
 474:	270b3905 	strcs	r3, [fp, -r5, lsl #18]
 478:	12011119 	andne	r1, r1, #1073741830	; 0x40000006
 47c:	97184006 	ldrls	r4, [r8, -r6]
 480:	13011942 	movwne	r1, #6466	; 0x1942
 484:	2e1c0000 	cdpcs	0, 1, cr0, cr12, cr0, {0}
 488:	3a0e0301 	bcc	381094 <_etext+0x37ff64>
 48c:	390b3b0b 	stmdbcc	fp, {r0, r1, r3, r8, r9, fp, ip, sp}
 490:	1119270b 	tstne	r9, fp, lsl #14
 494:	40061201 	andmi	r1, r6, r1, lsl #4
 498:	19429718 	stmdbne	r2, {r3, r4, r8, r9, sl, ip, pc}^
 49c:	00001301 	andeq	r1, r0, r1, lsl #6
 4a0:	0300051d 	movweq	r0, #1309	; 0x51d
 4a4:	3b0b3a0e 	blcc	2cece4 <_etext+0x2cdbb4>
 4a8:	490b390b 	stmdbmi	fp, {r0, r1, r3, r8, fp, ip, sp}
 4ac:	00180213 	andseq	r0, r8, r3, lsl r2
 4b0:	00341e00 	eorseq	r1, r4, r0, lsl #28
 4b4:	0b3a0803 	bleq	e824c8 <_etext+0xe81398>
 4b8:	0b390b3b 	bleq	e431ac <_etext+0xe4207c>
 4bc:	18021349 	stmdane	r2, {r0, r3, r6, r8, r9, ip}
 4c0:	341f0000 	ldrcc	r0, [pc], #-0	; 4c8 <UARTvprintf+0x10>
 4c4:	3a0e0300 	bcc	3810cc <_etext+0x37ff9c>
 4c8:	390b3b0b 	stmdbcc	fp, {r0, r1, r3, r8, r9, fp, ip, sp}
 4cc:	0213490b 	andseq	r4, r3, #180224	; 0x2c000
 4d0:	20000018 	andcs	r0, r0, r8, lsl r0
 4d4:	0e03012e 	adfeqsp	f0, f3, #0.5
 4d8:	0b3b0b3a 	bleq	ec31c8 <_etext+0xec2098>
 4dc:	19270b39 	stmdbne	r7!, {r0, r3, r4, r5, r8, r9, fp}
 4e0:	06120111 			; <UNDEFINED> instruction: 0x06120111
 4e4:	42961840 	addsmi	r1, r6, #64, 16	; 0x400000
 4e8:	00130119 	andseq	r0, r3, r9, lsl r1
 4ec:	002e2100 	eoreq	r2, lr, r0, lsl #2
 4f0:	0b3a0e03 	bleq	e83d04 <_etext+0xe82bd4>
 4f4:	0b390b3b 	bleq	e431e8 <_etext+0xe420b8>
 4f8:	01111927 	tsteq	r1, r7, lsr #18
 4fc:	18400612 	stmdane	r0, {r1, r4, r9, sl}^
 500:	00194297 	mulseq	r9, r7, r2
 504:	012e2200 			; <UNDEFINED> instruction: 0x012e2200
 508:	0e03193f 			; <UNDEFINED> instruction: 0x0e03193f
 50c:	0b3b0b3a 	bleq	ec31fc <_etext+0xec20cc>
 510:	19270b39 	stmdbne	r7!, {r0, r3, r4, r5, r8, r9, fp}
 514:	06120111 			; <UNDEFINED> instruction: 0x06120111
 518:	42971840 	addsmi	r1, r7, #64, 16	; 0x400000
 51c:	00130119 	andseq	r0, r3, r9, lsl r1
 520:	002e2300 	eoreq	r2, lr, r0, lsl #6
 524:	0e03193f 			; <UNDEFINED> instruction: 0x0e03193f
 528:	0b3b0b3a 	bleq	ec3218 <_etext+0xec20e8>
 52c:	19270b39 	stmdbne	r7!, {r0, r3, r4, r5, r8, r9, fp}
 530:	06120111 			; <UNDEFINED> instruction: 0x06120111
 534:	42971840 	addsmi	r1, r7, #64, 16	; 0x400000
 538:	00000019 	andeq	r0, r0, r9, lsl r0
 53c:	25011101 	strcs	r1, [r1, #-257]	; 0xfffffeff
 540:	030b130e 	movweq	r1, #45838	; 0xb30e
 544:	550e1b0e 	strpl	r1, [lr, #-2830]	; 0xfffff4f2
 548:	10011117 	andne	r1, r1, r7, lsl r1
 54c:	02000017 	andeq	r0, r0, #23
 550:	0b0b0024 	bleq	2c05e8 <_etext+0x2bf4b8>
 554:	0e030b3e 	vmoveq.16	d3[0], r0
 558:	24030000 	strcs	r0, [r3], #-0
 55c:	3e0b0b00 	vmlacc.f64	d0, d11, d0
 560:	0008030b 	andeq	r0, r8, fp, lsl #6
 564:	00350400 	eorseq	r0, r5, r0, lsl #8
 568:	00001349 	andeq	r1, r0, r9, asr #6
 56c:	3f012e05 	svccc	0x00012e05
 570:	3a0e0319 	bcc	3811dc <_etext+0x3800ac>
 574:	390b3b0b 	stmdbcc	fp, {r0, r1, r3, r8, r9, fp, ip, sp}
 578:	1119270b 	tstne	r9, fp, lsl #14
 57c:	40061201 	andmi	r1, r6, r1, lsl #4
 580:	19429618 	stmdbne	r2, {r3, r4, r9, sl, ip, pc}^
 584:	00001301 	andeq	r1, r0, r1, lsl #6
 588:	03003406 	movweq	r3, #1030	; 0x406
 58c:	3b0b3a0e 	blcc	2cedcc <_etext+0x2cdc9c>
 590:	490b390b 	stmdbmi	fp, {r0, r1, r3, r8, fp, ip, sp}
 594:	00180213 	andseq	r0, r8, r3, lsl r2
 598:	00340700 	eorseq	r0, r4, r0, lsl #14
 59c:	0b3a0803 	bleq	e825b0 <_etext+0xe81480>
 5a0:	0b390b3b 	bleq	e43294 <_etext+0xe42164>
 5a4:	18021349 	stmdane	r2, {r0, r3, r6, r8, r9, ip}
 5a8:	01080000 	mrseq	r0, (UNDEF: 8)
 5ac:	01134901 	tsteq	r3, r1, lsl #18
 5b0:	09000013 	stmdbeq	r0, {r0, r1, r4}
 5b4:	13490021 	movtne	r0, #36897	; 0x9021
 5b8:	00000b2f 	andeq	r0, r0, pc, lsr #22
 5bc:	3f002e0a 	svccc	0x00002e0a
 5c0:	3a0e0319 	bcc	38122c <_etext+0x3800fc>
 5c4:	390b3b0b 	stmdbcc	fp, {r0, r1, r3, r8, r9, fp, ip, sp}
 5c8:	1119270b 	tstne	r9, fp, lsl #14
 5cc:	40061201 	andmi	r1, r6, r1, lsl #4
 5d0:	19429618 	stmdbne	r2, {r3, r4, r9, sl, ip, pc}^
 5d4:	Address 0x000005d4 is out of bounds.


Disassembly of section .debug_aranges:

00000000 <.debug_aranges>:
   0:	00000034 	andeq	r0, r0, r4, lsr r0
   4:	00000002 	andeq	r0, r0, r2
   8:	00040000 	andeq	r0, r4, r0
   c:	00000000 	andeq	r0, r0, r0
  10:	0000026c 	andeq	r0, r0, ip, ror #4
  14:	00000064 	andeq	r0, r0, r4, rrx
  18:	000002d8 	ldrdeq	r0, [r0], -r8
  1c:	00000006 	andeq	r0, r0, r6
  20:	000002de 	ldrdeq	r0, [r0], -lr
  24:	00000006 	andeq	r0, r0, r6
  28:	000002e4 	andeq	r0, r0, r4, ror #5
  2c:	00000006 	andeq	r0, r0, r6
	...
  38:	0000003c 	andeq	r0, r0, ip, lsr r0
  3c:	01780002 	cmneq	r8, r2
  40:	00040000 	andeq	r0, r4, r0
  44:	00000000 	andeq	r0, r0, r0
  48:	000002ea 	andeq	r0, r0, sl, ror #5
  4c:	00000016 	andeq	r0, r0, r6, lsl r0
  50:	00000300 	andeq	r0, r0, r0, lsl #6
  54:	0000000e 	andeq	r0, r0, lr
  58:	00000310 	andeq	r0, r0, r0, lsl r3
  5c:	00000050 	andeq	r0, r0, r0, asr r0
  60:	00000000 	andeq	r0, r0, r0
  64:	00000014 	andeq	r0, r0, r4, lsl r0
  68:	00000360 	andeq	r0, r0, r0, ror #6
  6c:	00000038 	andeq	r0, r0, r8, lsr r0
	...
  78:	00000044 	andeq	r0, r0, r4, asr #32
  7c:	02b20002 	adcseq	r0, r2, #2
  80:	00040000 	andeq	r0, r4, r0
  84:	00000000 	andeq	r0, r0, r0
  88:	00000398 	muleq	r0, r8, r3
  8c:	00000090 	muleq	r0, r0, r0
  90:	00000428 	andeq	r0, r0, r8, lsr #8
  94:	00000090 	muleq	r0, r0, r0
  98:	00000000 	andeq	r0, r0, r0
  9c:	00000114 	andeq	r0, r0, r4, lsl r1
  a0:	00000000 	andeq	r0, r0, r0
  a4:	0000001c 	andeq	r0, r0, ip, lsl r0
  a8:	000004b8 			; <UNDEFINED> instruction: 0x000004b8
  ac:	00000408 	andeq	r0, r0, r8, lsl #8
  b0:	000008c0 	andeq	r0, r0, r0, asr #17
  b4:	00000024 	andeq	r0, r0, r4, lsr #32
	...
  c0:	000000b4 	strheq	r0, [r0], -r4
  c4:	06570002 	ldrbeq	r0, [r7], -r2
  c8:	00040000 	andeq	r0, r4, r0
  cc:	00000000 	andeq	r0, r0, r0
  d0:	000008e4 	andeq	r0, r0, r4, ror #17
  d4:	00000090 	muleq	r0, r0, r0
  d8:	00000974 	andeq	r0, r0, r4, ror r9
  dc:	00000020 	andeq	r0, r0, r0, lsr #32
  e0:	00000000 	andeq	r0, r0, r0
  e4:	00000020 	andeq	r0, r0, r0, lsr #32
  e8:	00000994 	muleq	r0, r4, r9
  ec:	0000000e 	andeq	r0, r0, lr
  f0:	000009a4 	andeq	r0, r0, r4, lsr #19
  f4:	00000078 	andeq	r0, r0, r8, ror r0
  f8:	00000a1c 	andeq	r0, r0, ip, lsl sl
  fc:	00000078 	andeq	r0, r0, r8, ror r0
 100:	00000000 	andeq	r0, r0, r0
 104:	00000038 	andeq	r0, r0, r8, lsr r0
 108:	00000000 	andeq	r0, r0, r0
 10c:	00000034 	andeq	r0, r0, r4, lsr r0
 110:	00000000 	andeq	r0, r0, r0
 114:	00000034 	andeq	r0, r0, r4, lsr r0
 118:	00000000 	andeq	r0, r0, r0
 11c:	00000060 	andeq	r0, r0, r0, rrx
 120:	00000000 	andeq	r0, r0, r0
 124:	00000060 	andeq	r0, r0, r0, rrx
 128:	00000000 	andeq	r0, r0, r0
 12c:	00000064 	andeq	r0, r0, r4, rrx
 130:	00000000 	andeq	r0, r0, r0
 134:	00000140 	andeq	r0, r0, r0, asr #2
 138:	00000000 	andeq	r0, r0, r0
 13c:	00000074 	andeq	r0, r0, r4, ror r0
 140:	00000a94 	muleq	r0, r4, sl
 144:	0000006c 	andeq	r0, r0, ip, rrx
 148:	00000b00 	andeq	r0, r0, r0, lsl #22
 14c:	00000058 	andeq	r0, r0, r8, asr r0
 150:	00000000 	andeq	r0, r0, r0
 154:	00000058 	andeq	r0, r0, r8, asr r0
 158:	00000000 	andeq	r0, r0, r0
 15c:	0000002a 	andeq	r0, r0, sl, lsr #32
 160:	00000b58 	andeq	r0, r0, r8, asr fp
 164:	00000044 	andeq	r0, r0, r4, asr #32
 168:	00000b9c 	muleq	r0, ip, fp
 16c:	00000040 	andeq	r0, r0, r0, asr #32
	...
 178:	00000034 	andeq	r0, r0, r4, lsr r0
 17c:	0bd10002 	bleq	ff44018c <_ebss+0xdf440088>
 180:	00040000 	andeq	r0, r4, r0
 184:	00000000 	andeq	r0, r0, r0
 188:	00000bdc 	ldrdeq	r0, [r0], -ip
 18c:	0000001c 	andeq	r0, r0, ip, lsl r0
 190:	00000000 	andeq	r0, r0, r0
 194:	0000000c 	andeq	r0, r0, ip
 198:	00000000 	andeq	r0, r0, r0
 19c:	0000000c 	andeq	r0, r0, ip
 1a0:	00000bf8 	strdeq	r0, [r0], -r8
 1a4:	0000008c 	andeq	r0, r0, ip, lsl #1
	...

Disassembly of section .debug_ranges:

00000000 <.debug_ranges>:
   0:	0000026c 	andeq	r0, r0, ip, ror #4
   4:	000002d0 	ldrdeq	r0, [r0], -r0	; <UNPREDICTABLE>
   8:	000002d8 	ldrdeq	r0, [r0], -r8
   c:	000002de 	ldrdeq	r0, [r0], -lr
  10:	000002de 	ldrdeq	r0, [r0], -lr
  14:	000002e4 	andeq	r0, r0, r4, ror #5
  18:	000002e4 	andeq	r0, r0, r4, ror #5
  1c:	000002ea 	andeq	r0, r0, sl, ror #5
	...
  28:	000002ea 	andeq	r0, r0, sl, ror #5
  2c:	00000300 	andeq	r0, r0, r0, lsl #6
  30:	00000300 	andeq	r0, r0, r0, lsl #6
  34:	0000030e 	andeq	r0, r0, lr, lsl #6
  38:	00000310 	andeq	r0, r0, r0, lsl r3
  3c:	00000360 	andeq	r0, r0, r0, ror #6
  40:	00000001 	andeq	r0, r0, r1
  44:	00000001 	andeq	r0, r0, r1
  48:	00000360 	andeq	r0, r0, r0, ror #6
  4c:	00000398 	muleq	r0, r8, r3
	...
  58:	00000398 	muleq	r0, r8, r3
  5c:	00000428 	andeq	r0, r0, r8, lsr #8
  60:	00000428 	andeq	r0, r0, r8, lsr #8
  64:	000004b8 			; <UNDEFINED> instruction: 0x000004b8
  68:	00000001 	andeq	r0, r0, r1
  6c:	00000001 	andeq	r0, r0, r1
  70:	00000001 	andeq	r0, r0, r1
  74:	00000001 	andeq	r0, r0, r1
  78:	000004b8 			; <UNDEFINED> instruction: 0x000004b8
  7c:	000008c0 	andeq	r0, r0, r0, asr #17
  80:	000008c0 	andeq	r0, r0, r0, asr #17
  84:	000008e4 	andeq	r0, r0, r4, ror #17
	...
  90:	000008e4 	andeq	r0, r0, r4, ror #17
  94:	00000974 	andeq	r0, r0, r4, ror r9
  98:	00000974 	andeq	r0, r0, r4, ror r9
  9c:	00000994 	muleq	r0, r4, r9
  a0:	00000001 	andeq	r0, r0, r1
  a4:	00000001 	andeq	r0, r0, r1
  a8:	00000994 	muleq	r0, r4, r9
  ac:	000009a2 	andeq	r0, r0, r2, lsr #19
  b0:	000009a4 	andeq	r0, r0, r4, lsr #19
  b4:	00000a1c 	andeq	r0, r0, ip, lsl sl
  b8:	00000a1c 	andeq	r0, r0, ip, lsl sl
  bc:	00000a94 	muleq	r0, r4, sl
  c0:	00000001 	andeq	r0, r0, r1
  c4:	00000001 	andeq	r0, r0, r1
  c8:	00000001 	andeq	r0, r0, r1
  cc:	00000001 	andeq	r0, r0, r1
  d0:	00000001 	andeq	r0, r0, r1
  d4:	00000001 	andeq	r0, r0, r1
  d8:	00000001 	andeq	r0, r0, r1
  dc:	00000001 	andeq	r0, r0, r1
  e0:	00000001 	andeq	r0, r0, r1
  e4:	00000001 	andeq	r0, r0, r1
  e8:	00000001 	andeq	r0, r0, r1
  ec:	00000001 	andeq	r0, r0, r1
  f0:	00000001 	andeq	r0, r0, r1
  f4:	00000001 	andeq	r0, r0, r1
  f8:	00000001 	andeq	r0, r0, r1
  fc:	00000001 	andeq	r0, r0, r1
 100:	00000a94 	muleq	r0, r4, sl
 104:	00000b00 	andeq	r0, r0, r0, lsl #22
 108:	00000b00 	andeq	r0, r0, r0, lsl #22
 10c:	00000b58 	andeq	r0, r0, r8, asr fp
 110:	00000001 	andeq	r0, r0, r1
 114:	00000001 	andeq	r0, r0, r1
 118:	00000001 	andeq	r0, r0, r1
 11c:	00000001 	andeq	r0, r0, r1
 120:	00000b58 	andeq	r0, r0, r8, asr fp
 124:	00000b9c 	muleq	r0, ip, fp
 128:	00000b9c 	muleq	r0, ip, fp
 12c:	00000bdc 	ldrdeq	r0, [r0], -ip
	...
 138:	00000bdc 	ldrdeq	r0, [r0], -ip
 13c:	00000bf8 	strdeq	r0, [r0], -r8
 140:	00000001 	andeq	r0, r0, r1
 144:	00000001 	andeq	r0, r0, r1
 148:	00000001 	andeq	r0, r0, r1
 14c:	00000001 	andeq	r0, r0, r1
 150:	00000bf8 	strdeq	r0, [r0], -r8
 154:	00000c84 	andeq	r0, r0, r4, lsl #25
	...

Disassembly of section .debug_line:

00000000 <.debug_line>:
   0:	0000015c 	andeq	r0, r0, ip, asr r1
   4:	00c90003 	sbceq	r0, r9, r3
   8:	01020000 	mrseq	r0, (UNDEF: 2)
   c:	000d0efb 	strdeq	r0, [sp], -fp
  10:	01010101 	tsteq	r1, r1, lsl #2
  14:	01000000 	mrseq	r0, (UNDEF: 0)
  18:	64010000 	strvs	r0, [r1], #-0
  1c:	63675c3a 	cmnvs	r7, #14848	; 0x3a00
  20:	72612d63 	rsbvc	r2, r1, #6336	; 0x18c0
  24:	6f6e2d6d 	svcvs	0x006e2d6d
  28:	652d656e 	strvs	r6, [sp, #-1390]!	; 0xfffffa92
  2c:	2d696261 	sfmcs	f6, 2, [r9, #-388]!	; 0xfffffe7c
  30:	322d3031 	eorcc	r3, sp, #49	; 0x31
  34:	2d303230 	lfmcs	f3, 4, [r0, #-192]!	; 0xffffff40
  38:	6d2d3471 	cfstrsvs	mvf3, [sp, #-452]!	; 0xfffffe3c
  3c:	726f6a61 	rsbvc	r6, pc, #397312	; 0x61000
  40:	6d72615c 	ldfvse	f6, [r2, #-368]!	; 0xfffffe90
  44:	6e6f6e2d 	cdpvs	14, 6, cr6, cr15, cr13, {1}
  48:	61652d65 	cmnvs	r5, r5, ror #26
  4c:	695c6962 	ldmdbvs	ip, {r1, r5, r6, r8, fp, sp, lr}^
  50:	756c636e 	strbvc	r6, [ip, #-878]!	; 0xfffffc92
  54:	6d5c6564 	cfldr64vs	mvdx6, [ip, #-400]	; 0xfffffe70
  58:	69686361 	stmdbvs	r8!, {r0, r5, r6, r8, r9, sp, lr}^
  5c:	6400656e 	strvs	r6, [r0], #-1390	; 0xfffffa92
  60:	63675c3a 	cmnvs	r7, #14848	; 0x3a00
  64:	72612d63 	rsbvc	r2, r1, #6336	; 0x18c0
  68:	6f6e2d6d 	svcvs	0x006e2d6d
  6c:	652d656e 	strvs	r6, [sp, #-1390]!	; 0xfffffa92
  70:	2d696261 	sfmcs	f6, 2, [r9, #-388]!	; 0xfffffe7c
  74:	322d3031 	eorcc	r3, sp, #49	; 0x31
  78:	2d303230 	lfmcs	f3, 4, [r0, #-192]!	; 0xffffff40
  7c:	6d2d3471 	cfstrsvs	mvf3, [sp, #-452]!	; 0xfffffe3c
  80:	726f6a61 	rsbvc	r6, pc, #397312	; 0x61000
  84:	6d72615c 	ldfvse	f6, [r2, #-368]!	; 0xfffffe90
  88:	6e6f6e2d 	cdpvs	14, 6, cr6, cr15, cr13, {1}
  8c:	61652d65 	cmnvs	r5, r5, ror #26
  90:	695c6962 	ldmdbvs	ip, {r1, r5, r6, r8, fp, sp, lr}^
  94:	756c636e 	strbvc	r6, [ip, #-878]!	; 0xfffffc92
  98:	735c6564 	cmpvc	ip, #100, 10	; 0x19000000
  9c:	00007379 	andeq	r7, r0, r9, ror r3
  a0:	72617473 	rsbvc	r7, r1, #1929379840	; 0x73000000
  a4:	5f707574 	svcpl	0x00707574
  a8:	2e636367 	cdpcs	3, 6, cr6, cr3, cr7, {3}
  ac:	00000063 	andeq	r0, r0, r3, rrx
  b0:	65645f00 	strbvs	r5, [r4, #-3840]!	; 0xfffff100
  b4:	6c756166 	ldfvse	f6, [r5], #-408	; 0xfffffe68
  b8:	79745f74 	ldmdbvc	r4!, {r2, r4, r5, r6, r8, r9, sl, fp, ip, lr}^
  bc:	2e736570 	mrccs	5, 3, r6, cr3, cr0, {3}
  c0:	00010068 	andeq	r0, r1, r8, rrx
  c4:	74735f00 	ldrbtvc	r5, [r3], #-3840	; 0xfffff100
  c8:	746e6964 	strbtvc	r6, [lr], #-2404	; 0xfffff69c
  cc:	0200682e 	andeq	r6, r0, #3014656	; 0x2e0000
  d0:	05000000 	streq	r0, [r0, #-0]
  d4:	02050001 	andeq	r0, r5, #1
  d8:	0000026c 	andeq	r0, r0, ip, ror #4
  dc:	0101f703 	tsteq	r1, r3, lsl #14	; <UNPREDICTABLE>
  e0:	05420c05 	strbeq	r0, [r2, #-3077]	; 0xfffff3fb
  e4:	05052f11 	streq	r2, [r5, #-3857]	; 0xfffff0ef
  e8:	2216052e 	andscs	r0, r6, #192937984	; 0xb800000
  ec:	053c0a05 	ldreq	r0, [ip, #-2565]!	; 0xfffff5fb
  f0:	0d053c0f 	stceq	12, cr3, [r5, #-60]	; 0xffffffc4
  f4:	00050520 	andeq	r0, r5, r0, lsr #10
  f8:	1e010402 	cdpne	4, 0, cr0, cr1, cr2, {0}
  fc:	031a0552 	tsteq	sl, #343932928	; 0x14800000
 100:	05059014 	streq	r9, [r5, #-20]	; 0xffffffec
 104:	2218052e 	andscs	r0, r8, #192937984	; 0xb800000
 108:	052c1605 	streq	r1, [ip, #-1541]!	; 0xfffff9fb
 10c:	01052705 	tsteq	r5, r5, lsl #14
 110:	0100082f 	tsteq	r0, pc, lsr #16
 114:	00010501 	andeq	r0, r1, r1, lsl #10
 118:	02d80205 	sbcseq	r0, r8, #1342177280	; 0x50000000
 11c:	ad030000 	stcge	0, cr0, [r3, #-0]
 120:	0a050102 	beq	140530 <_etext+0x13f400>
 124:	01040200 	mrseq	r0, R12_usr
 128:	00010232 	andeq	r0, r1, r2, lsr r2
 12c:	01050101 	tsteq	r5, r1, lsl #2
 130:	de020500 	cfsh32le	mvfx0, mvfx2, #0
 134:	03000002 	movweq	r0, #2
 138:	050102bf 	streq	r0, [r1, #-703]	; 0xfffffd41
 13c:	0402000a 	streq	r0, [r2], #-10
 140:	01023201 	tsteq	r2, r1, lsl #4
 144:	05010100 	streq	r0, [r1, #-256]	; 0xffffff00
 148:	02050001 	andeq	r0, r5, #1
 14c:	000002e4 	andeq	r0, r0, r4, ror #5
 150:	0102d103 	tsteq	r2, r3, lsl #2
 154:	02000a05 	andeq	r0, r0, #20480	; 0x5000
 158:	02320104 	eorseq	r0, r2, #4, 2
 15c:	01010001 	tsteq	r1, r1
 160:	00000145 	andeq	r0, r0, r5, asr #2
 164:	00c20003 	sbceq	r0, r2, r3
 168:	01020000 	mrseq	r0, (UNDEF: 2)
 16c:	000d0efb 	strdeq	r0, [sp], -fp
 170:	01010101 	tsteq	r1, r1, lsl #2
 174:	01000000 	mrseq	r0, (UNDEF: 0)
 178:	64010000 	strvs	r0, [r1], #-0
 17c:	63675c3a 	cmnvs	r7, #14848	; 0x3a00
 180:	72612d63 	rsbvc	r2, r1, #6336	; 0x18c0
 184:	6f6e2d6d 	svcvs	0x006e2d6d
 188:	652d656e 	strvs	r6, [sp, #-1390]!	; 0xfffffa92
 18c:	2d696261 	sfmcs	f6, 2, [r9, #-388]!	; 0xfffffe7c
 190:	322d3031 	eorcc	r3, sp, #49	; 0x31
 194:	2d303230 	lfmcs	f3, 4, [r0, #-192]!	; 0xffffff40
 198:	6d2d3471 	cfstrsvs	mvf3, [sp, #-452]!	; 0xfffffe3c
 19c:	726f6a61 	rsbvc	r6, pc, #397312	; 0x61000
 1a0:	6d72615c 	ldfvse	f6, [r2, #-368]!	; 0xfffffe90
 1a4:	6e6f6e2d 	cdpvs	14, 6, cr6, cr15, cr13, {1}
 1a8:	61652d65 	cmnvs	r5, r5, ror #26
 1ac:	695c6962 	ldmdbvs	ip, {r1, r5, r6, r8, fp, sp, lr}^
 1b0:	756c636e 	strbvc	r6, [ip, #-878]!	; 0xfffffc92
 1b4:	6d5c6564 	cfldr64vs	mvdx6, [ip, #-400]	; 0xfffffe70
 1b8:	69686361 	stmdbvs	r8!, {r0, r5, r6, r8, r9, sp, lr}^
 1bc:	6400656e 	strvs	r6, [r0], #-1390	; 0xfffffa92
 1c0:	63675c3a 	cmnvs	r7, #14848	; 0x3a00
 1c4:	72612d63 	rsbvc	r2, r1, #6336	; 0x18c0
 1c8:	6f6e2d6d 	svcvs	0x006e2d6d
 1cc:	652d656e 	strvs	r6, [sp, #-1390]!	; 0xfffffa92
 1d0:	2d696261 	sfmcs	f6, 2, [r9, #-388]!	; 0xfffffe7c
 1d4:	322d3031 	eorcc	r3, sp, #49	; 0x31
 1d8:	2d303230 	lfmcs	f3, 4, [r0, #-192]!	; 0xffffff40
 1dc:	6d2d3471 	cfstrsvs	mvf3, [sp, #-452]!	; 0xfffffe3c
 1e0:	726f6a61 	rsbvc	r6, pc, #397312	; 0x61000
 1e4:	6d72615c 	ldfvse	f6, [r2, #-368]!	; 0xfffffe90
 1e8:	6e6f6e2d 	cdpvs	14, 6, cr6, cr15, cr13, {1}
 1ec:	61652d65 	cmnvs	r5, r5, ror #26
 1f0:	695c6962 	ldmdbvs	ip, {r1, r5, r6, r8, fp, sp, lr}^
 1f4:	756c636e 	strbvc	r6, [ip, #-878]!	; 0xfffffc92
 1f8:	735c6564 	cmpvc	ip, #100, 10	; 0x19000000
 1fc:	00007379 	andeq	r7, r0, r9, ror r3
 200:	6e69616d 	powvsez	f6, f1, #5.0
 204:	0000632e 	andeq	r6, r0, lr, lsr #6
 208:	645f0000 	ldrbvs	r0, [pc], #-0	; 210 <g_pfnVectors+0x210>
 20c:	75616665 	strbvc	r6, [r1, #-1637]!	; 0xfffff99b
 210:	745f746c 	ldrbvc	r7, [pc], #-1132	; 218 <g_pfnVectors+0x218>
 214:	73657079 	cmnvc	r5, #121	; 0x79
 218:	0100682e 	tsteq	r0, lr, lsr #16
 21c:	735f0000 	cmpvc	pc, #0
 220:	6e696474 	mcrvs	4, 3, r6, cr9, cr4, {3}
 224:	00682e74 	rsbeq	r2, r8, r4, ror lr
 228:	00000002 	andeq	r0, r0, r2
 22c:	05000105 	streq	r0, [r0, #-261]	; 0xfffffefb
 230:	0002ea02 	andeq	lr, r2, r2, lsl #20
 234:	01200300 			; <UNDEFINED> instruction: 0x01200300
 238:	00060259 	andeq	r0, r6, r9, asr r2
 23c:	1b050101 	blne	140648 <_etext+0x13f518>
 240:	00020500 	andeq	r0, r2, r0, lsl #10
 244:	03000003 	movweq	r0, #3
 248:	01050124 	tsteq	r5, r4, lsr #2
 24c:	0005022f 	andeq	r0, r5, pc, lsr #4
 250:	01050101 	tsteq	r5, r1, lsl #2
 254:	10020500 	andne	r0, r2, r0, lsl #10
 258:	03000003 	movweq	r0, #3
 25c:	05050129 	streq	r0, [r5, #-297]	; 0xfffffed7
 260:	4b3d3d2f 	blmi	f4f724 <_etext+0xf4e5f4>
 264:	055a4b3d 	ldrbeq	r4, [sl, #-2877]	; 0xfffff4c3
 268:	0a026701 	beq	99e74 <_etext+0x98d44>
 26c:	05010100 	streq	r0, [r1, #-256]	; 0xffffff00
 270:	02050001 	andeq	r0, r5, #1
 274:	00000000 	andeq	r0, r0, r0
 278:	05013503 	streq	r3, [r1, #-1283]	; 0xfffffafd
 27c:	01052f05 	tsteq	r5, r5, lsl #30
 280:	0005023d 	andeq	r0, r5, sp, lsr r2
 284:	01050101 	tsteq	r5, r1, lsl #2
 288:	60020500 	andvs	r0, r2, r0, lsl #10
 28c:	03000003 	movweq	r0, #3
 290:	0905013a 	stmdbeq	r5, {r1, r3, r4, r5, r8}
 294:	05052f3d 	streq	r2, [r5, #-3901]	; 0xfffff0c3
 298:	3d2f3e30 	stccc	14, cr3, [pc, #-192]!	; 1e0 <g_pfnVectors+0x1e0>
 29c:	000a052f 	andeq	r0, sl, pc, lsr #10
 2a0:	3d010402 	cfstrscc	mvf0, [r1, #-8]
 2a4:	01000802 	tsteq	r0, r2, lsl #16
 2a8:	0004b501 	andeq	fp, r4, r1, lsl #10
 2ac:	3e000300 	cdpcc	3, 0, cr0, cr0, cr0, {0}
 2b0:	02000001 	andeq	r0, r0, #1
 2b4:	0d0efb01 	vstreq	d15, [lr, #-4]
 2b8:	01010100 	mrseq	r0, (UNDEF: 17)
 2bc:	00000001 	andeq	r0, r0, r1
 2c0:	01000001 	tsteq	r0, r1
 2c4:	542f2e2e 	strtpl	r2, [pc], #-3630	; 2cc <zero_loop+0x30>
 2c8:	57617669 	strbpl	r7, [r1, -r9, ror #12]!
 2cc:	2f657261 	svccs	0x00657261
 2d0:	6c697475 	cfstrdvs	mvd7, [r9], #-468	; 0xfffffe2c
 2d4:	3a640073 	bcc	19004a8 <_etext+0x18ff378>
 2d8:	6363675c 	cmnvs	r3, #92, 14	; 0x1700000
 2dc:	6d72612d 	ldfvse	f6, [r2, #-180]!	; 0xffffff4c
 2e0:	6e6f6e2d 	cdpvs	14, 6, cr6, cr15, cr13, {1}
 2e4:	61652d65 	cmnvs	r5, r5, ror #26
 2e8:	312d6962 			; <UNDEFINED> instruction: 0x312d6962
 2ec:	30322d30 	eorscc	r2, r2, r0, lsr sp
 2f0:	712d3032 			; <UNDEFINED> instruction: 0x712d3032
 2f4:	616d2d34 	cmnvs	sp, r4, lsr sp
 2f8:	5c726f6a 	ldclpl	15, cr6, [r2], #-424	; 0xfffffe58
 2fc:	2d6d7261 	sfmcs	f7, 2, [sp, #-388]!	; 0xfffffe7c
 300:	656e6f6e 	strbvs	r6, [lr, #-3950]!	; 0xfffff092
 304:	6261652d 	rsbvs	r6, r1, #188743680	; 0xb400000
 308:	6e695c69 	cdpvs	12, 6, cr5, cr9, cr9, {3}
 30c:	64756c63 	ldrbtvs	r6, [r5], #-3171	; 0xfffff39d
 310:	616d5c65 	cmnvs	sp, r5, ror #24
 314:	6e696863 	cdpvs	8, 6, cr6, cr9, cr3, {3}
 318:	3a640065 	bcc	19004b4 <_etext+0x18ff384>
 31c:	6363675c 	cmnvs	r3, #92, 14	; 0x1700000
 320:	6d72612d 	ldfvse	f6, [r2, #-180]!	; 0xffffff4c
 324:	6e6f6e2d 	cdpvs	14, 6, cr6, cr15, cr13, {1}
 328:	61652d65 	cmnvs	r5, r5, ror #26
 32c:	312d6962 			; <UNDEFINED> instruction: 0x312d6962
 330:	30322d30 	eorscc	r2, r2, r0, lsr sp
 334:	712d3032 			; <UNDEFINED> instruction: 0x712d3032
 338:	616d2d34 	cmnvs	sp, r4, lsr sp
 33c:	5c726f6a 	ldclpl	15, cr6, [r2], #-424	; 0xfffffe58
 340:	2d6d7261 	sfmcs	f7, 2, [sp, #-388]!	; 0xfffffe7c
 344:	656e6f6e 	strbvs	r6, [lr, #-3950]!	; 0xfffff092
 348:	6261652d 	rsbvs	r6, r1, #188743680	; 0xb400000
 34c:	6e695c69 	cdpvs	12, 6, cr5, cr9, cr9, {3}
 350:	64756c63 	ldrbtvs	r6, [r5], #-3171	; 0xfffff39d
 354:	79735c65 	ldmdbvc	r3!, {r0, r2, r5, r6, sl, fp, ip, lr}^
 358:	3a640073 	bcc	190052c <_etext+0x18ff3fc>
 35c:	6363675c 	cmnvs	r3, #92, 14	; 0x1700000
 360:	6d72612d 	ldfvse	f6, [r2, #-180]!	; 0xffffff4c
 364:	6e6f6e2d 	cdpvs	14, 6, cr6, cr15, cr13, {1}
 368:	61652d65 	cmnvs	r5, r5, ror #26
 36c:	312d6962 			; <UNDEFINED> instruction: 0x312d6962
 370:	30322d30 	eorscc	r2, r2, r0, lsr sp
 374:	712d3032 			; <UNDEFINED> instruction: 0x712d3032
 378:	616d2d34 	cmnvs	sp, r4, lsr sp
 37c:	5c726f6a 	ldclpl	15, cr6, [r2], #-424	; 0xfffffe58
 380:	5c62696c 			; <UNDEFINED> instruction: 0x5c62696c
 384:	5c636367 	stclpl	3, cr6, [r3], #-412	; 0xfffffe64
 388:	2d6d7261 	sfmcs	f7, 2, [sp, #-388]!	; 0xfffffe7c
 38c:	656e6f6e 	strbvs	r6, [lr, #-3950]!	; 0xfffff092
 390:	6261652d 	rsbvs	r6, r1, #188743680	; 0xb400000
 394:	30315c69 	eorscc	r5, r1, r9, ror #24
 398:	312e322e 			; <UNDEFINED> instruction: 0x312e322e
 39c:	636e695c 	cmnvs	lr, #92, 18	; 0x170000
 3a0:	6564756c 	strbvs	r7, [r4, #-1388]!	; 0xfffffa94
 3a4:	61750000 	cmnvs	r5, r0
 3a8:	74737472 	ldrbtvc	r7, [r3], #-1138	; 0xfffffb8e
 3ac:	2e6f6964 	vnmulcs.f16	s13, s30, s9	; <UNPREDICTABLE>
 3b0:	00010063 	andeq	r0, r1, r3, rrx
 3b4:	65645f00 	strbvs	r5, [r4, #-3840]!	; 0xfffff100
 3b8:	6c756166 	ldfvse	f6, [r5], #-408	; 0xfffffe68
 3bc:	79745f74 	ldmdbvc	r4!, {r2, r4, r5, r6, r8, r9, sl, fp, ip, lr}^
 3c0:	2e736570 	mrccs	5, 3, r6, cr3, cr0, {3}
 3c4:	00020068 	andeq	r0, r2, r8, rrx
 3c8:	74735f00 	ldrbtvc	r5, [r3], #-3840	; 0xfffff100
 3cc:	746e6964 	strbtvc	r6, [lr], #-2404	; 0xfffff69c
 3d0:	0300682e 	movweq	r6, #2094	; 0x82e
 3d4:	74730000 	ldrbtvc	r0, [r3], #-0
 3d8:	67726164 	ldrbvs	r6, [r2, -r4, ror #2]!
 3dc:	0400682e 	streq	r6, [r0], #-2094	; 0xfffff7d2
 3e0:	623c0000 	eorsvs	r0, ip, #0
 3e4:	746c6975 	strbtvc	r6, [ip], #-2421	; 0xfffff68b
 3e8:	3e6e692d 	vmulcc.f16	s13, s28, s27	; <UNPREDICTABLE>
 3ec:	00000000 	andeq	r0, r0, r0
 3f0:	00010500 	andeq	r0, r1, r0, lsl #10
 3f4:	03980205 	orrseq	r0, r8, #1342177280	; 0x50000000
 3f8:	ce030000 	cdpgt	0, 0, cr0, cr3, cr0, {0}
 3fc:	05050102 	streq	r0, [r5, #-258]	; 0xfffffefe
 400:	0402006a 	streq	r0, [r2], #-106	; 0xffffff96
 404:	003c0601 	eorseq	r0, ip, r1, lsl #12
 408:	3c020402 	cfstrscc	mvf0, [r2], {2}
 40c:	03040200 	movweq	r0, #16896	; 0x4200
 410:	0609053c 			; <UNDEFINED> instruction: 0x0609053c
 414:	05580d03 	ldrbeq	r0, [r8, #-3331]	; 0xfffff2fd
 418:	07058208 	streq	r8, [r5, -r8, lsl #4]
 41c:	3620053c 			; <UNDEFINED> instruction: 0x3620053c
 420:	054a1005 	strbeq	r1, [sl, #-5]
 424:	03793305 	cmneq	r9, #335544320	; 0x14000000
 428:	09057424 	stmdbeq	r5, {r2, r5, sl, ip, sp, lr}
 42c:	05664c03 	strbeq	r4, [r6, #-3075]!	; 0xfffff3fd
 430:	20350301 	eorscs	r0, r5, r1, lsl #6
 434:	01000c02 	tsteq	r0, r2, lsl #24
 438:	00010501 	andeq	r0, r1, r1, lsl #10
 43c:	04280205 	strteq	r0, [r8], #-517	; 0xfffffdfb
 440:	b4030000 	strlt	r0, [r3], #-0
 444:	05050103 	streq	r0, [r5, #-259]	; 0xfffffefd
 448:	5800cc03 	stmdapl	r0, {r0, r1, sl, fp, lr, pc}
 44c:	01040200 	mrseq	r0, R12_usr
 450:	59064a06 	stmdbpl	r6, {r1, r2, r9, fp, lr}
 454:	01040200 	mrseq	r0, R12_usr
 458:	0e053c06 	cdpeq	12, 0, cr3, cr5, cr6, {0}
 45c:	05055d06 	streq	r5, [r5, #-3334]	; 0xfffff2fa
 460:	2611052e 	ldrcs	r0, [r1], -lr, lsr #10
 464:	054a0b05 	strbeq	r0, [sl, #-2821]	; 0xfffff4fb
 468:	1605300d 	strne	r3, [r5], -sp
 46c:	4a100576 	bmi	401a4c <_etext+0x40091c>
 470:	02000905 	andeq	r0, r0, #81920	; 0x14000
 474:	05360204 	ldreq	r0, [r6, #-516]!	; 0xfffffdfc
 478:	0402002a 	streq	r0, [r2], #-42	; 0xffffffd6
 47c:	09052e02 	stmdbeq	r5, {r1, r9, sl, fp, sp}
 480:	02040200 	andeq	r0, r4, #0, 4
 484:	0027053c 	eoreq	r0, r7, ip, lsr r5
 488:	03020402 	movweq	r0, #9218	; 0x2402
 48c:	05054a6e 	streq	r4, [r5, #-2670]	; 0xfffff592
 490:	01040200 	mrseq	r0, R12_usr
 494:	030a053c 	movweq	r0, #42300	; 0xa53c
 498:	0b05580c 	bleq	1564d0 <_etext+0x1553a0>
 49c:	05200c03 	streq	r0, [r0, #-3075]!	; 0xfffff3fd
 4a0:	09022201 	stmdbeq	r2, {r0, r9, sp}
 4a4:	05010100 	streq	r0, [r1, #-256]	; 0xffffff00
 4a8:	02050001 	andeq	r0, r5, #1
 4ac:	00000000 	andeq	r0, r0, r0
 4b0:	0104c103 	tsteq	r4, r3, lsl #2
 4b4:	c9030e05 	stmdbgt	r3, {r0, r2, r9, sl, fp}
 4b8:	05055800 	streq	r5, [r5, #-2048]	; 0xfffff800
 4bc:	04020035 	streq	r0, [r2], #-53	; 0xffffffcb
 4c0:	063c0601 	ldrteq	r0, [ip], -r1, lsl #12
 4c4:	04020059 	streq	r0, [r2], #-89	; 0xffffffa7
 4c8:	063c0601 	ldrteq	r0, [ip], -r1, lsl #12
 4cc:	04020059 	streq	r0, [r2], #-89	; 0xffffffa7
 4d0:	054a0601 	strbeq	r0, [sl, #-1537]	; 0xfffff9ff
 4d4:	055e060c 	ldrbeq	r0, [lr, #-1548]	; 0xfffff9f4
 4d8:	3c0a0311 	stccc	3, cr0, [sl], {17}
 4dc:	05660f05 	strbeq	r0, [r6, #-3845]!	; 0xfffff0fb
 4e0:	0f05250b 	svceq	0x0005250b
 4e4:	41110550 	tstmi	r1, r0, asr r5
 4e8:	054f1a05 	strbeq	r1, [pc, #-2565]	; fffffaeb <_ebss+0xdffff9e7>
 4ec:	0b05420d 	bleq	150d28 <_etext+0x14fbf8>
 4f0:	001c0527 	andseq	r0, ip, r7, lsr #10
 4f4:	4a010402 	bmi	41504 <_etext+0x403d4>
 4f8:	055a1805 	ldrbeq	r1, [sl, #-2053]	; 0xfffff7fb
 4fc:	0b053d0d 	bleq	14f938 <_etext+0x14e808>
 500:	001c0526 	andseq	r0, ip, r6, lsr #10
 504:	4a010402 	bmi	41514 <_etext+0x403e4>
 508:	02002f05 	andeq	r2, r0, #5, 30
 50c:	054a0204 	strbeq	r0, [sl, #-516]	; 0xfffffdfc
 510:	1c05510f 	stfnes	f5, [r5], {15}
 514:	420d054c 	andmi	r0, sp, #76, 10	; 0x13000000
 518:	05280b05 	streq	r0, [r8, #-2821]!	; 0xfffff4fb
 51c:	1e054f12 	mcrne	15, 0, r4, cr5, cr2, {0}
 520:	3316053c 	tstcc	r6, #60, 10	; 0xf000000
 524:	03410d05 	movteq	r0, #7429	; 0x1d05
 528:	0f05824a 	svceq	0x0005824a
 52c:	05206503 	streq	r6, [r0, #-1283]!	; 0xfffffafd
 530:	203a030d 	eorscs	r0, sl, sp, lsl #6
 534:	1e030a05 	vmlane.f32	s0, s6, s10
 538:	3c160520 	cfldr32cc	mvfx0, [r6], {32}
 53c:	05330505 	ldreq	r0, [r3, #-1285]!	; 0xfffffafb
 540:	01054f0b 	tsteq	r5, fp, lsl #30
 544:	000f0222 	andeq	r0, pc, r2, lsr #4
 548:	01050101 	tsteq	r5, r1, lsl #2
 54c:	00020500 	andeq	r0, r2, r0, lsl #10
 550:	03000000 	movweq	r0, #0
 554:	0501069a 	streq	r0, [r1, #-1690]	; 0xfffff966
 558:	2e1e030c 	cdpcs	3, 1, cr0, cr14, cr12, {0}
 55c:	02760105 	rsbseq	r0, r6, #1073741825	; 0x40000001
 560:	01010005 	tsteq	r1, r5
 564:	05000105 	streq	r0, [r0, #-261]	; 0xfffffefb
 568:	0004b802 	andeq	fp, r4, r2, lsl #16
 56c:	06e40300 	strbteq	r0, [r4], r0, lsl #6
 570:	5f050501 	svcpl	0x00050501
 574:	01040200 	mrseq	r0, R12_usr
 578:	0a054a06 	beq	152d98 <_etext+0x151c68>
 57c:	01040200 	mrseq	r0, R12_usr
 580:	15055d06 	strne	r5, [r5, #-3334]	; 0xfffff2fa
 584:	2e090525 	cfsh32cs	mvfx0, mvfx9, #21
 588:	05221405 	streq	r1, [r2, #-1029]!	; 0xfffffbfb
 58c:	04020016 	streq	r0, [r2], #-22	; 0xffffffea
 590:	09053b01 	stmdbeq	r5, {r0, r8, r9, fp, ip, sp}
 594:	01040200 	mrseq	r0, R12_usr
 598:	2f340549 	svccs	0x00340549
 59c:	054a2805 	strbeq	r2, [sl, #-2053]	; 0xfffff7fb
 5a0:	12053609 	andne	r3, r5, #9437184	; 0x900000
 5a4:	4f0c054f 	svcmi	0x000c054f
 5a8:	052e0b05 	streq	r0, [lr, #-2821]!	; 0xfffff4fb
 5ac:	17054115 	smladne	r5, r5, r1, r4
 5b0:	2f130542 	svccs	0x00130542
 5b4:	0c031d05 	stceq	13, cr1, [r3], {5}
 5b8:	3c14053c 	cfldr32cc	mvfx0, [r4], {60}	; 0x3c
 5bc:	14032105 	strne	r2, [r3], #-261	; 0xfffffefb
 5c0:	0101b102 	tsteq	r1, r2, lsl #2
 5c4:	053c1705 	ldreq	r1, [ip, #-1797]!	; 0xfffff8fb
 5c8:	0402002e 	streq	r0, [r2], #-46	; 0xffffffd2
 5cc:	1f052e01 	svcne	0x00052e01
 5d0:	2a05423e 	bcs	150ed0 <_etext+0x14fda0>
 5d4:	3c1f0567 	cfldr32cc	mvfx0, [pc], {103}	; 0x67
 5d8:	055d1505 	ldrbeq	r1, [sp, #-1285]	; 0xfffffafb
 5dc:	200b0321 	andcs	r0, fp, r1, lsr #6
 5e0:	054a1f05 	strbeq	r1, [sl, #-3845]	; 0xfffff0fb
 5e4:	056b2515 	strbeq	r2, [fp, #-1301]!	; 0xfffffaeb
 5e8:	200c0321 	andcs	r0, ip, r1, lsr #6
 5ec:	054a1f05 	strbeq	r1, [sl, #-3845]	; 0xfffff0fb
 5f0:	1805251d 	stmdane	r5, {r0, r2, r3, r4, r8, sl, sp}
 5f4:	20170534 	andscs	r0, r7, r4, lsr r5
 5f8:	05332605 	ldreq	r2, [r3, #-1541]!	; 0xfffff9fb
 5fc:	23052025 	movwcs	r2, #20517	; 0x5025
 600:	25210520 	strcs	r0, [r1, #-1312]!	; 0xfffffae0
 604:	341e0544 	ldrcc	r0, [lr], #-1348	; 0xfffffabc
 608:	05331505 	ldreq	r1, [r3, #-1285]!	; 0xfffffafb
 60c:	200b031b 	andcs	r0, fp, fp, lsl r3
 610:	055d2105 	ldrbeq	r2, [sp, #-261]	; 0xfffffefb
 614:	45052e15 	strmi	r2, [r5, #-3605]	; 0xfffff1eb
 618:	03040200 	movweq	r0, #16896	; 0x4200
 61c:	002b0520 	eoreq	r0, fp, r0, lsr #10
 620:	3c010402 	cfstrscc	mvf0, [r1], {2}
 624:	02001505 	andeq	r1, r0, #20971520	; 0x1400000
 628:	354a0104 	strbcc	r0, [sl, #-260]	; 0xfffffefc
 62c:	054f1705 	strbeq	r1, [pc, #-1797]	; ffffff2f <_ebss+0xdffffe2b>
 630:	1e055a23 	vmlane.f32	s10, s10, s7
 634:	221d054b 	andscs	r0, sp, #314572800	; 0x12c00000
 638:	05482805 	strbeq	r2, [r8, #-2053]	; 0xfffff7fb
 63c:	15053c1e 	strne	r3, [r5, #-3102]	; 0xfffff3e2
 640:	052e0903 	streq	r0, [lr, #-2307]!	; 0xfffff6fd
 644:	200b0321 	andcs	r0, fp, r1, lsr #6
 648:	054a1f05 	strbeq	r1, [sl, #-3845]	; 0xfffff0fb
 64c:	1e05251d 	mcrne	5, 0, r2, cr5, cr13, {0}
 650:	341d0533 	ldrcc	r0, [sp], #-1331	; 0xfffffacd
 654:	05331505 	ldreq	r1, [r3, #-1285]!	; 0xfffffafb
 658:	20100321 	andscs	r0, r0, r1, lsr #6
 65c:	054a1f05 	strbeq	r1, [sl, #-3845]	; 0xfffff0fb
 660:	1e05251d 	mcrne	5, 0, r2, cr5, cr13, {0}
 664:	341d0533 	ldrcc	r0, [sp], #-1331	; 0xfffffacd
 668:	05352105 	ldreq	r2, [r5, #-261]!	; 0xfffffefb
 66c:	21052e15 	tstcs	r5, r5, lsl lr
 670:	5837055b 	ldmdapl	r7!, {r0, r1, r3, r4, r6, r8, sl}
 674:	02002405 	andeq	r2, r0, #83886080	; 0x5000000
 678:	053a0104 	ldreq	r0, [sl, #-260]!	; 0xfffffefc
 67c:	04020030 	streq	r0, [r2], #-48	; 0xffffffd0
 680:	15054a01 	strne	r4, [r5, #-2561]	; 0xfffff5ff
 684:	01040200 	mrseq	r0, R12_usr
 688:	3025051f 	eorcc	r0, r5, pc, lsl r5
 68c:	054a3105 	strbeq	r3, [sl, #-261]	; 0xfffffefb
 690:	17053b3e 	smladxne	r5, lr, fp, r3
 694:	053c0a03 	ldreq	r0, [ip, #-2563]!	; 0xfffff5fd
 698:	17053e22 	strne	r3, [r5, -r2, lsr #28]
 69c:	00200543 	eoreq	r0, r0, r3, asr #10
 6a0:	3c010402 	cfstrscc	mvf0, [r1], {2}
 6a4:	054f2605 	strbeq	r2, [pc, #-1541]	; a7 <g_pfnVectors+0xa7>
 6a8:	21053c2a 	tstcs	r5, sl, lsr #24
 6ac:	3517056c 	ldrcc	r0, [r7, #-1388]	; 0xfffffa94
 6b0:	02002805 	andeq	r2, r0, #327680	; 0x50000
 6b4:	053c0104 	ldreq	r0, [ip, #-260]!	; 0xfffffefc
 6b8:	19053e26 	stmdbne	r5, {r1, r2, r5, r9, sl, fp, ip, sp}
 6bc:	002a053c 	eoreq	r0, sl, ip, lsr r5
 6c0:	22030402 	andcs	r0, r3, #33554432	; 0x2000000
 6c4:	02002e05 	andeq	r2, r0, #5, 28	; 0x50
 6c8:	053c0304 	ldreq	r0, [ip, #-772]!	; 0xfffffcfc
 6cc:	0402003e 	streq	r0, [r2], #-62	; 0xffffffc2
 6d0:	19057203 	stmdbne	r5, {r0, r1, r9, ip, sp, lr}
 6d4:	01040200 	mrseq	r0, R12_usr
 6d8:	0317053c 	tsteq	r7, #60, 10	; 0xf000000
 6dc:	26053c0a 	strcs	r3, [r5], -sl, lsl #24
 6e0:	3c2a0541 	cfstr32cc	mvfx0, [sl], #-260	; 0xfffffefc
 6e4:	056c1505 	strbeq	r1, [ip, #-1285]!	; 0xfffffafb
 6e8:	04020024 	streq	r0, [r2], #-36	; 0xffffffdc
 6ec:	30052302 	andcc	r2, r5, r2, lsl #6
 6f0:	02040200 	andeq	r0, r4, #0, 4
 6f4:	003b0520 	eorseq	r0, fp, r0, lsr #10
 6f8:	4a020402 	bmi	81708 <_etext+0x805d8>
 6fc:	02002405 	andeq	r2, r0, #83886080	; 0x5000000
 700:	05740204 	ldrbeq	r0, [r4, #-516]!	; 0xfffffdfc
 704:	04020026 	streq	r0, [r2], #-38	; 0xffffffda
 708:	24051f02 	strcs	r1, [r5], #-3842	; 0xfffff0fe
 70c:	02040200 	andeq	r0, r4, #0, 4
 710:	002a053d 	eoreq	r0, sl, sp, lsr r5
 714:	1f020402 	svcne	0x00020402
 718:	02002c05 	andeq	r2, r0, #1280	; 0x500
 71c:	05560204 	ldrbeq	r0, [r6, #-516]	; 0xfffffdfc
 720:	04020015 	streq	r0, [r2], #-21	; 0xffffffeb
 724:	09035801 	stmdbeq	r3, {r0, fp, ip, lr}
 728:	0b036b3c 	bleq	db420 <_etext+0xda2f0>
 72c:	0b036b20 	bleq	db3b4 <_etext+0xda284>
 730:	09054f20 	stmdbeq	r5, {r5, r8, r9, sl, fp, lr}
 734:	030b0523 	movweq	r0, #46371	; 0xb523
 738:	05207d88 	streq	r7, [r0, #-3464]!	; 0xfffff278
 73c:	01052e0a 	tsteq	r5, sl, lsl #28
 740:	3c02fa03 			; <UNDEFINED> instruction: 0x3c02fa03
 744:	01000902 	tsteq	r0, r2, lsl #18
 748:	00010501 	andeq	r0, r1, r1, lsl #10
 74c:	08c00205 	stmiaeq	r0, {r0, r2, r9}^
 750:	94030000 	strls	r0, [r3], #-0
 754:	0505010a 	streq	r0, [r5, #-266]	; 0xfffffef6
 758:	01053e50 	tsteq	r5, r0, asr lr
 75c:	00070250 	andeq	r0, r7, r0, asr r2
 760:	052b0101 	streq	r0, [fp, #-257]!	; 0xfffffeff
 764:	00030000 	andeq	r0, r3, r0
 768:	00000035 	andeq	r0, r0, r5, lsr r0
 76c:	0efb0102 	cdpeq	1, 15, cr0, cr11, cr2, {0}
 770:	0101000d 	tsteq	r1, sp
 774:	00000101 	andeq	r0, r0, r1, lsl #2
 778:	00000100 	andeq	r0, r0, r0, lsl #2
 77c:	73750001 	cmnvc	r5, #1
 780:	645f6462 	ldrbvs	r6, [pc], #-1122	; 788 <UARTvprintf+0x2d0>
 784:	65766972 	ldrbvs	r6, [r6, #-2418]!	; 0xfffff68e
 788:	00632e72 	rsbeq	r2, r3, r2, ror lr
 78c:	75000000 	strvc	r0, [r0, #-0]
 790:	5f646273 	svcpl	0x00646273
 794:	76697264 	strbtvc	r7, [r9], -r4, ror #4
 798:	682e7265 	stmdavs	lr!, {r0, r2, r5, r6, r9, ip, sp, lr}
 79c:	00000000 	andeq	r0, r0, r0
 7a0:	001d0500 	andseq	r0, sp, r0, lsl #10
 7a4:	08e40205 	stmiaeq	r4!, {r0, r2, r9}^
 7a8:	e1030000 	mrs	r0, (UNDEF: 3)
 7ac:	10050100 	andne	r0, r5, r0, lsl #2
 7b0:	2e050530 	cfmv64hrcs	mvdx5, r0
 7b4:	05201905 	streq	r1, [r0, #-2309]!	; 0xfffff6fb
 7b8:	13052e0e 	movwne	r2, #24078	; 0x5e0e
 7bc:	2e050521 	cfsh32cs	mvfx0, mvfx5, #17
 7c0:	05201f05 	streq	r1, [r0, #-3845]!	; 0xfffff0fb
 7c4:	15052e11 	strne	r2, [r5, #-3601]	; 0xfffff1ef
 7c8:	2e050521 	cfsh32cs	mvfx0, mvfx5, #17
 7cc:	05202305 	streq	r2, [r0, #-773]!	; 0xfffffcfb
 7d0:	14052e13 	strne	r2, [r5], #-3603	; 0xfffff1ed
 7d4:	2e050521 	cfsh32cs	mvfx0, mvfx5, #17
 7d8:	05202105 	streq	r2, [r0, #-261]!	; 0xfffffefb
 7dc:	14052e12 	strne	r2, [r5], #-3602	; 0xfffff1ee
 7e0:	2e050522 	cfsh32cs	mvfx0, mvfx5, #18
 7e4:	05202105 	streq	r2, [r0, #-261]!	; 0xfffffefb
 7e8:	14052e12 	strne	r2, [r5], #-3602	; 0xfffff1ee
 7ec:	2e050521 	cfsh32cs	mvfx0, mvfx5, #17
 7f0:	05202105 	streq	r2, [r0, #-261]!	; 0xfffffefb
 7f4:	14052e12 	strne	r2, [r5], #-3602	; 0xfffff1ee
 7f8:	2e050521 	cfsh32cs	mvfx0, mvfx5, #17
 7fc:	05202105 	streq	r2, [r0, #-261]!	; 0xfffffefb
 800:	15052e12 	strne	r2, [r5, #-3602]	; 0xfffff1ee
 804:	2e050521 	cfsh32cs	mvfx0, mvfx5, #17
 808:	05202305 	streq	r2, [r0, #-773]!	; 0xfffffcfb
 80c:	01052e13 	tsteq	r5, r3, lsl lr
 810:	00160221 	andseq	r0, r6, r1, lsr #4
 814:	1a050101 	bne	140c20 <_etext+0x13faf0>
 818:	74020500 	strvc	r0, [r2], #-1280	; 0xfffffb00
 81c:	03000009 	movweq	r0, #9
 820:	050100f2 	streq	r0, [r1, #-242]	; 0xffffff0e
 824:	05052f10 	streq	r2, [r5, #-3856]	; 0xfffff0f0
 828:	200e052e 	andcs	r0, lr, lr, lsr #10
 82c:	024b0105 	subeq	r0, fp, #1073741825	; 0x40000001
 830:	01010007 	tsteq	r1, r7
 834:	05001d05 	streq	r1, [r0, #-3333]	; 0xfffff2fb
 838:	00000002 	andeq	r0, r0, r2
 83c:	00f60300 	rscseq	r0, r6, r0, lsl #6
 840:	2f100501 	svccs	0x00100501
 844:	052e0505 	streq	r0, [lr, #-1285]!	; 0xfffffafb
 848:	0e052019 	mcreq	0, 0, r2, cr5, cr9, {0}
 84c:	2101053c 	tstcs	r1, ip, lsr r5
 850:	01000702 	tsteq	r0, r2, lsl #14
 854:	001f0501 	andseq	r0, pc, r1, lsl #10
 858:	09940205 	ldmibeq	r4, {r0, r2, r9}
 85c:	fa030000 	blx	c0864 <_etext+0xbf734>
 860:	01050100 	mrseq	r0, (UNDEF: 21)
 864:	00050230 	andeq	r0, r5, r0, lsr r2
 868:	22050101 	andcs	r0, r5, #1073741824	; 0x40000000
 86c:	a4020500 	strge	r0, [r2], #-1280	; 0xfffffb00
 870:	03000009 	movweq	r0, #9
 874:	050100fe 	streq	r0, [r1, #-254]	; 0xffffff02
 878:	05053f0d 	streq	r3, [r5, #-3853]	; 0xfffff0f3
 87c:	200b052e 	andcs	r0, fp, lr, lsr #10
 880:	054c0f05 	strbeq	r0, [ip, #-3845]	; 0xfffff0fb
 884:	0d052e05 	stceq	14, cr2, [r5, #-20]	; 0xffffffec
 888:	4b0f0520 	blmi	3c1d10 <_etext+0x3c0be0>
 88c:	052e0505 	streq	r0, [lr, #-1285]!	; 0xfffffafb
 890:	1005200d 	andne	r2, r5, sp
 894:	2e0e054c 	cfsh32cs	mvfx0, mvfx14, #44
 898:	05211005 	streq	r1, [r1, #-5]!
 89c:	10052e0e 	andne	r2, r5, lr, lsl #28
 8a0:	2e0e0521 	cfsh32cs	mvfx0, mvfx14, #17
 8a4:	05251605 	streq	r1, [r5, #-1541]!	; 0xfffff9fb
 8a8:	25052e05 	strcs	r2, [r5, #-3589]	; 0xfffff1fb
 8ac:	2e140520 	cfmul64cs	mvdx0, mvdx4, mvdx0
 8b0:	02220105 	eoreq	r0, r2, #1073741825	; 0x40000001
 8b4:	01010015 	tsteq	r1, r5, lsl r0
 8b8:	05001a05 	streq	r1, [r0, #-2565]	; 0xfffff5fb
 8bc:	000a1c02 	andeq	r1, sl, r2, lsl #24
 8c0:	01910300 	orrseq	r0, r1, r0, lsl #6
 8c4:	3f0c0501 	svccc	0x000c0501
 8c8:	052e0505 	streq	r0, [lr, #-1285]!	; 0xfffffafb
 8cc:	0a052011 	beq	148918 <_etext+0x1477e8>
 8d0:	220f052e 	andcs	r0, pc, #192937984	; 0xb800000
 8d4:	052e0505 	streq	r0, [lr, #-1285]!	; 0xfffffafb
 8d8:	0d052017 	stceq	0, cr2, [r5, #-92]	; 0xffffffa4
 8dc:	2211052e 	andscs	r0, r1, #192937984	; 0xb800000
 8e0:	052e0505 	streq	r0, [lr, #-1285]!	; 0xfffffafb
 8e4:	0f05201b 	svceq	0x0005201b
 8e8:	2112052e 	tstcs	r2, lr, lsr #10
 8ec:	052e0505 	streq	r0, [lr, #-1285]!	; 0xfffffafb
 8f0:	0402002e 	streq	r0, [r2], #-46	; 0xffffffd2
 8f4:	20052003 	andcs	r2, r5, r3
 8f8:	01040200 	mrseq	r0, R12_usr
 8fc:	00050558 	andeq	r0, r5, r8, asr r5
 900:	2e010402 	cdpcs	4, 0, cr0, cr1, cr2, {0}
 904:	05311105 	ldreq	r1, [r1, #-261]!	; 0xfffffefb
 908:	1b052e05 	blne	14c124 <_etext+0x14aff4>
 90c:	2e0f0520 	cfsh32cs	mvfx0, mvfx15, #16
 910:	2e050523 	cfsh32cs	mvfx0, mvfx5, #19
 914:	05201705 	streq	r1, [r0, #-1797]!	; 0xfffff8fb
 918:	01052e0d 	tsteq	r5, sp, lsl #28
 91c:	000f0223 	andeq	r0, pc, r3, lsr #4
 920:	24050101 	strcs	r0, [r5], #-257	; 0xfffffeff
 924:	00020500 	andeq	r0, r2, r0, lsl #10
 928:	03000000 	movweq	r0, #0
 92c:	050101a4 	streq	r0, [r1, #-420]	; 0xfffffe5c
 930:	05054b18 	streq	r4, [r5, #-2840]	; 0xfffff4e8
 934:	58290566 	stmdapl	r9!, {r1, r2, r5, r6, r8, sl}
 938:	053c1605 	ldreq	r1, [ip, #-1541]!	; 0xfffff9fb
 93c:	09022101 	stmdbeq	r2, {r0, r8, sp}
 940:	05010100 	streq	r0, [r1, #-256]	; 0xffffff00
 944:	02050024 	andeq	r0, r5, #36	; 0x24
 948:	00000000 	andeq	r0, r0, r0
 94c:	0101a803 	tsteq	r1, r3, lsl #16
 950:	054b1805 	strbeq	r1, [fp, #-2053]	; 0xfffff7fb
 954:	18057405 	stmdane	r5, {r0, r2, sl, ip, sp, lr}
 958:	20160558 	andscs	r0, r6, r8, asr r5
 95c:	02210105 	eoreq	r0, r1, #1073741825	; 0x40000001
 960:	01010008 	tsteq	r1, r8
 964:	05002605 	streq	r2, [r0, #-1541]	; 0xfffff9fb
 968:	00000002 	andeq	r0, r0, r2
 96c:	01b00300 	lslseq	r0, r0, #6
 970:	300f0501 	andcc	r0, pc, r1, lsl #10
 974:	052e0505 	streq	r0, [lr, #-1285]!	; 0xfffffafb
 978:	0f05200d 	svceq	0x0005200d
 97c:	2e05054b 	cfsh32cs	mvfx0, mvfx5, #43
 980:	05200d05 	streq	r0, [r0, #-3333]!	; 0xfffff2fb
 984:	0a024c01 	beq	93990 <_etext+0x92860>
 988:	05010100 	streq	r0, [r1, #-256]	; 0xffffff00
 98c:	0205002c 	andeq	r0, r5, #44	; 0x2c
 990:	00000000 	andeq	r0, r0, r0
 994:	0101bb03 	tsteq	r1, r3, lsl #22
 998:	054b0f05 	strbeq	r0, [fp, #-3845]	; 0xfffff0fb
 99c:	17053c1d 	smladne	r5, sp, ip, r3
 9a0:	5805054a 	stmdapl	r5, {r1, r3, r6, r8, sl}
 9a4:	05201705 	streq	r1, [r0, #-1797]!	; 0xfffff8fb
 9a8:	0f05200d 	svceq	0x0005200d
 9ac:	3c1d0521 	cfldr32cc	mvfx0, [sp], {33}	; 0x21
 9b0:	054a1705 	strbeq	r1, [sl, #-1797]	; 0xfffff8fb
 9b4:	17055805 	strne	r5, [r5, -r5, lsl #16]
 9b8:	200d0520 	andcs	r0, sp, r0, lsr #10
 9bc:	3d230505 	cfstr32cc	mvfx0, [r3, #-20]!	; 0xffffffec
 9c0:	023d0105 	eorseq	r0, sp, #1073741825	; 0x40000001
 9c4:	01010008 	tsteq	r1, r8
 9c8:	05004805 	streq	r4, [r0, #-2053]	; 0xfffff7fb
 9cc:	00000002 	andeq	r0, r0, r2
 9d0:	01c80300 	biceq	r0, r8, r0, lsl #6
 9d4:	00050501 	andeq	r0, r5, r1, lsl #10
 9d8:	91010402 	tstls	r1, r2, lsl #8
 9dc:	d70f053d 	smladxle	pc, sp, r5, r0	; <UNPREDICTABLE>
 9e0:	053c1b05 	ldreq	r1, [ip, #-2821]!	; 0xfffff4fb
 9e4:	05054a17 	streq	r4, [r5, #-2583]	; 0xfffff5e9
 9e8:	2017053c 	andscs	r0, r7, ip, lsr r5
 9ec:	05200d05 	streq	r0, [r0, #-3333]!	; 0xfffff2fb
 9f0:	09022101 	stmdbeq	r2, {r0, r8, sp}
 9f4:	05010100 	streq	r0, [r1, #-256]	; 0xffffff00
 9f8:	02050049 	andeq	r0, r5, #73	; 0x49
 9fc:	00000000 	andeq	r0, r0, r0
 a00:	0101d203 	tsteq	r1, r3, lsl #4
 a04:	05911205 	ldreq	r1, [r1, #517]	; 0x205
 a08:	04020005 	streq	r0, [r2], #-5
 a0c:	053d2f01 	ldreq	r2, [sp, #-3841]!	; 0xfffff0ff
 a10:	1b05d70f 	blne	176654 <_etext+0x175524>
 a14:	4a17053c 	bmi	5c1f0c <_etext+0x5c0ddc>
 a18:	053c0505 	ldreq	r0, [ip, #-1285]!	; 0xfffffafb
 a1c:	0d052017 	stceq	0, cr2, [r5, #-92]	; 0xffffffa4
 a20:	21010520 	tstcs	r1, r0, lsr #10
 a24:	01000902 	tsteq	r0, r2, lsl #18
 a28:	005e0501 	subseq	r0, lr, r1, lsl #10
 a2c:	00000205 	andeq	r0, r0, r5, lsl #4
 a30:	df030000 	svcle	0x00030000
 a34:	19050101 	stmdbne	r5, {r0, r8}
 a38:	751205ad 	ldrvc	r0, [r2, #-1453]	; 0xfffffa53
 a3c:	002f0505 	eoreq	r0, pc, r5, lsl #10
 a40:	06010402 	streq	r0, [r1], -r2, lsl #8
 a44:	04020020 	streq	r0, [r2], #-32	; 0xffffffe0
 a48:	3e590601 	cdpcc	6, 5, cr0, cr9, cr1, {0}
 a4c:	05200e05 	streq	r0, [r0, #-3589]!	; 0xfffff1fb
 a50:	19053d08 	stmdbne	r5, {r3, r8, sl, fp, ip, sp}
 a54:	2009053d 	andcs	r0, r9, sp, lsr r5
 a58:	05201505 	streq	r1, [r0, #-1285]!	; 0xfffffafb
 a5c:	27052f1a 	smladcs	r5, sl, pc, r2	; <UNPREDICTABLE>
 a60:	58090520 	stmdapl	r9, {r5, r8, sl}
 a64:	05201605 	streq	r1, [r0, #-1541]!	; 0xfffff9fb
 a68:	09053f19 	stmdbeq	r5, {r0, r3, r4, r8, r9, sl, fp, ip, sp}
 a6c:	20150520 	andscs	r0, r5, r0, lsr #10
 a70:	052f1a05 	streq	r1, [pc, #-2565]!	; 73 <g_pfnVectors+0x73>
 a74:	09052027 	stmdbeq	r5, {r0, r1, r2, r5, sp}
 a78:	20160558 	andscs	r0, r6, r8, asr r5
 a7c:	05310e05 	ldreq	r0, [r1, #-3589]!	; 0xfffff1fb
 a80:	05840822 	streq	r0, [r4, #2082]	; 0x822
 a84:	22052f0d 	andcs	r2, r5, #13, 30	; 0x34
 a88:	2f0d0522 	svccs	0x000d0522
 a8c:	05222205 	streq	r2, [r2, #-517]!	; 0xfffffdfb
 a90:	22052f0d 	andcs	r2, r5, #13, 30	; 0x34
 a94:	2f0d0522 	svccs	0x000d0522
 a98:	05222205 	streq	r2, [r2, #-517]!	; 0xfffffdfb
 a9c:	22052f0d 	andcs	r2, r5, #13, 30	; 0x34
 aa0:	3d0d0522 	cfstr32cc	mvfx0, [sp, #-136]	; 0xffffff78
 aa4:	05222205 	streq	r2, [r2, #-517]!	; 0xfffffdfb
 aa8:	22053d0d 	andcs	r3, r5, #832	; 0x340
 aac:	3d0d0522 	cfstr32cc	mvfx0, [sp, #-136]	; 0xffffff78
 ab0:	05222205 	streq	r2, [r2, #-517]!	; 0xfffffdfb
 ab4:	02003d0d 	andeq	r3, r0, #832	; 0x340
 ab8:	05220104 	streq	r0, [r2, #-260]!	; 0xfffffefc
 abc:	09052308 	stmdbeq	r5, {r3, r8, r9, sp}
 ac0:	4a1a053d 	bmi	681fbc <_etext+0x680e8c>
 ac4:	05410105 	strbeq	r0, [r1, #-261]	; 0xfffffefb
 ac8:	1a051e09 	bne	1482f4 <_etext+0x1471c4>
 acc:	3e010558 	cfrshl32cc	mvfx1, mvfx8, r0
 ad0:	01001502 	tsteq	r0, r2, lsl #10
 ad4:	00510501 	subseq	r0, r1, r1, lsl #10
 ad8:	00000205 	andeq	r0, r0, r5, lsl #4
 adc:	97030000 	strls	r0, [r3, -r0]
 ae0:	05050102 	streq	r0, [r5, #-258]	; 0xfffffefe
 ae4:	01040200 	mrseq	r0, R12_usr
 ae8:	01053d67 	tsteq	r5, r7, ror #26
 aec:	05ba0b03 	ldreq	r0, [sl, #2819]!	; 0xb03
 af0:	20770330 	rsbscs	r0, r7, r0, lsr r3
 af4:	052e0d05 	streq	r0, [lr, #-3333]!	; 0xfffff2fb
 af8:	1e054a20 	vmlane.f32	s8, s10, s1
 afc:	210d0520 	tstcs	sp, r0, lsr #10
 b00:	05223205 	streq	r3, [r2, #-517]!	; 0xfffffdfb
 b04:	21052e0d 	tstcs	r5, sp, lsl #28
 b08:	201f054a 	andscs	r0, pc, sl, asr #10
 b0c:	22210d05 	eorcs	r0, r1, #320	; 0x140
 b10:	05582105 	ldrbeq	r2, [r8, #-261]	; 0xfffffefb
 b14:	0d052e1f 	stceq	14, cr2, [r5, #-124]	; 0xffffff84
 b18:	22010521 	andcs	r0, r1, #138412032	; 0x8400000
 b1c:	01000902 	tsteq	r0, r2, lsl #18
 b20:	00500501 	subseq	r0, r0, r1, lsl #10
 b24:	0a940205 	beq	fe501340 <_ebss+0xde50123c>
 b28:	a6030000 	strge	r0, [r3], -r0
 b2c:	05050102 	streq	r0, [r5, #-258]	; 0xfffffefe
 b30:	03010567 	movweq	r0, #5479	; 0x1567
 b34:	1505ba0b 	strne	fp, [r5, #-2571]	; 0xfffff5f5
 b38:	05207703 	streq	r7, [r0, #-1795]!	; 0xfffff8fd
 b3c:	0d056613 	stceq	6, cr6, [r5, #-76]	; 0xffffffb4
 b40:	2215052f 	andscs	r0, r5, #197132288	; 0xbc00000
 b44:	05661305 	strbeq	r1, [r6, #-773]!	; 0xfffffcfb
 b48:	15052f0d 	strne	r2, [r5, #-3853]	; 0xfffff0f3
 b4c:	58130522 	ldmdapl	r3, {r1, r5, r8, sl}
 b50:	052f0d05 	streq	r0, [pc, #-3333]!	; fffffe53 <_ebss+0xdffffd4f>
 b54:	09022201 	stmdbeq	r2, {r0, r9, sp}
 b58:	05010100 	streq	r0, [r1, #-256]	; 0xffffff00
 b5c:	0205003f 	andeq	r0, r5, #63	; 0x3f
 b60:	00000b00 	andeq	r0, r0, r0, lsl #22
 b64:	0102b403 	tsteq	r2, r3, lsl #8
 b68:	05750505 	ldrbeq	r0, [r5, #-1285]!	; 0xfffffafb
 b6c:	04020009 	streq	r0, [r2], #-9
 b70:	1a052102 	bne	148f80 <_etext+0x147e50>
 b74:	02040200 	andeq	r0, r4, #0, 4
 b78:	00260557 	eoreq	r0, r6, r7, asr r5
 b7c:	3c020402 	cfstrscc	mvf0, [r2], {2}
 b80:	02000505 	andeq	r0, r0, #20971520	; 0x1400000
 b84:	053c0104 	ldreq	r0, [ip, #-260]!	; 0xfffffefc
 b88:	09053f08 	stmdbeq	r5, {r3, r8, r9, sl, fp, ip, sp}
 b8c:	000d053d 	andeq	r0, sp, sp, lsr r5
 b90:	21020402 	tstcs	r2, r2, lsl #8
 b94:	02001d05 	andeq	r1, r0, #320	; 0x140
 b98:	05570204 	ldrbeq	r0, [r7, #-516]	; 0xfffffdfc
 b9c:	04020027 	streq	r0, [r2], #-39	; 0xffffffd9
 ba0:	09053c02 	stmdbeq	r5, {r1, sl, fp, ip, sp}
 ba4:	01040200 	mrseq	r0, R12_usr
 ba8:	4001053c 	andmi	r0, r1, ip, lsr r5
 bac:	01000402 	tsteq	r0, r2, lsl #8
 bb0:	00460501 	subeq	r0, r6, r1, lsl #10
 bb4:	00000205 	andeq	r0, r0, r5, lsl #4
 bb8:	bf030000 	svclt	0x00030000
 bbc:	05050102 	streq	r0, [r5, #-258]	; 0xfffffefe
 bc0:	00090575 	andeq	r0, r9, r5, ror r5
 bc4:	21020402 	tstcs	r2, r2, lsl #8
 bc8:	02001a05 	andeq	r1, r0, #20480	; 0x5000
 bcc:	05570204 	ldrbeq	r0, [r7, #-516]	; 0xfffffdfc
 bd0:	04020026 	streq	r0, [r2], #-38	; 0xffffffda
 bd4:	05053c02 	streq	r3, [r5, #-3074]	; 0xfffff3fe
 bd8:	01040200 	mrseq	r0, R12_usr
 bdc:	3f08053c 	svccc	0x0008053c
 be0:	053d0905 	ldreq	r0, [sp, #-2309]!	; 0xfffff6fb
 be4:	0402000d 	streq	r0, [r2], #-13
 be8:	1d052102 	stfnes	f2, [r5, #-8]
 bec:	02040200 	andeq	r0, r4, #0, 4
 bf0:	00270557 	eoreq	r0, r7, r7, asr r5
 bf4:	3c020402 	cfstrscc	mvf0, [r2], {2}
 bf8:	02000905 	andeq	r0, r0, #81920	; 0x14000
 bfc:	053c0104 	ldreq	r0, [ip, #-260]!	; 0xfffffefc
 c00:	04024101 	streq	r4, [r2], #-257	; 0xfffffeff
 c04:	05010100 	streq	r0, [r1, #-256]	; 0xffffff00
 c08:	02050026 	andeq	r0, r5, #38	; 0x26
 c0c:	00000000 	andeq	r0, r0, r0
 c10:	0102cc03 	tsteq	r2, r3, lsl #24
 c14:	053e0c05 	ldreq	r0, [lr, #-3077]!	; 0xfffff3fb
 c18:	09052e05 	stmdbeq	r5, {r0, r2, r9, sl, fp, sp}
 c1c:	03040200 	movweq	r0, #16896	; 0x4200
 c20:	00190521 	andseq	r0, r9, r1, lsr #10
 c24:	49030402 	stmdbmi	r3, {r1, sl}
 c28:	02000505 	andeq	r0, r0, #20971520	; 0x1400000
 c2c:	053c0104 	ldreq	r0, [ip, #-260]!	; 0xfffffefc
 c30:	05023f01 	streq	r3, [r2, #-3841]	; 0xfffff0ff
 c34:	05010100 	streq	r0, [r1, #-256]	; 0xffffff00
 c38:	0205002a 	andeq	r0, r5, #42	; 0x2a
 c3c:	00000b58 	andeq	r0, r0, r8, asr fp
 c40:	0102d303 	tsteq	r2, r3, lsl #6
 c44:	053f1405 	ldreq	r1, [pc, #-1029]!	; 847 <UARTvprintf+0x38f>
 c48:	15052e12 	strne	r2, [r5, #-3602]	; 0xfffff1ee
 c4c:	2e1d0522 	cfmul64cs	mvdx0, mvdx13, mvdx2
 c50:	052e1205 	streq	r1, [lr, #-517]!	; 0xfffffdfb
 c54:	1d053e15 	stcne	14, cr3, [r5, #-84]	; 0xffffffac
 c58:	2e12052e 	cfmul64cs	mvdx0, mvdx2, mvdx14
 c5c:	053d0c05 	ldreq	r0, [sp, #-3077]!	; 0xfffff3fb
 c60:	0d022101 	stfeqs	f2, [r2, #-4]
 c64:	05010100 	streq	r0, [r1, #-256]	; 0xffffff00
 c68:	0205002a 	andeq	r0, r5, #42	; 0x2a
 c6c:	00000b9c 	muleq	r0, ip, fp
 c70:	0102de03 	tsteq	r2, r3, lsl #28
 c74:	054b1405 	strbeq	r1, [fp, #-1029]	; 0xfffffbfb
 c78:	13052f08 	movwne	r2, #24328	; 0x5f08
 c7c:	2e11053d 	mrccs	5, 0, r0, cr1, cr13, {1}
 c80:	05311305 	ldreq	r1, [r1, #-773]!	; 0xfffffcfb
 c84:	0c055811 	stceq	8, cr5, [r5], {17}
 c88:	21010531 	tstcs	r1, r1, lsr r5
 c8c:	01000b02 	tsteq	r0, r2, lsl #22
 c90:	0000d701 	andeq	sp, r0, r1, lsl #14
 c94:	27000300 	strcs	r0, [r0, -r0, lsl #6]
 c98:	02000000 	andeq	r0, r0, #0
 c9c:	0d0efb01 	vstreq	d15, [lr, #-4]
 ca0:	01010100 	mrseq	r0, (UNDEF: 17)
 ca4:	00000001 	andeq	r0, r0, r1
 ca8:	01000001 	tsteq	r0, r1
 cac:	62737500 	rsbsvs	r7, r3, #0, 10
 cb0:	72665f64 	rsbvc	r5, r6, #100, 30	; 0x190
 cb4:	77656d61 	strbvc	r6, [r5, -r1, ror #26]!
 cb8:	2e6b726f 	cdpcs	2, 6, cr7, cr11, cr15, {3}
 cbc:	00000063 	andeq	r0, r0, r3, rrx
 cc0:	14050000 	strne	r0, [r5], #-0
 cc4:	dc020500 	cfstr32le	mvfx0, [r2], {-0}
 cc8:	1600000b 	strne	r0, [r0], -fp
 ccc:	2f2f0505 	svccs	0x002f0505
 cd0:	052f2f2f 	streq	r2, [pc, #-3887]!	; fffffda9 <_ebss+0xdffffca5>
 cd4:	02022f01 	andeq	r2, r2, #1, 30
 cd8:	05010100 	streq	r0, [r1, #-256]	; 0xffffff00
 cdc:	02050017 	andeq	r0, r5, #23
 ce0:	00000000 	andeq	r0, r0, r0
 ce4:	05010c03 	streq	r0, [r1, #-3075]	; 0xfffff3fd
 ce8:	01052f05 	tsteq	r5, r5, lsl #30
 cec:	0002022f 	andeq	r0, r2, pc, lsr #4
 cf0:	16050101 	strne	r0, [r5], -r1, lsl #2
 cf4:	00020500 	andeq	r0, r2, r0, lsl #10
 cf8:	03000000 	movweq	r0, #0
 cfc:	05050110 	streq	r0, [r5, #-272]	; 0xfffffef0
 d00:	2f01052f 	svccs	0x0001052f
 d04:	01000202 	tsteq	r0, r2, lsl #4
 d08:	001f0501 	andseq	r0, pc, r1, lsl #10
 d0c:	0bf80205 	bleq	ffe01528 <_ebss+0xdfe01424>
 d10:	20030000 	andcs	r0, r3, r0
 d14:	3d1b0501 	cfldr32cc	mvfx0, [fp, #-4]
 d18:	052f1205 	streq	r1, [pc, #-517]!	; b1b <readPacket+0x1b>
 d1c:	13052f14 	movwne	r2, #24340	; 0x5f14
 d20:	3e15053e 	mrccc	5, 0, r0, cr5, cr14, {1}
 d24:	053c1305 	ldreq	r1, [ip, #-773]!	; 0xfffffcfb
 d28:	24232317 	strtcs	r2, [r3], #-791	; 0xfffffce9
 d2c:	0d052424 	cfstrseq	mvf2, [r5, #-144]	; 0xffffff70
 d30:	68160524 	ldmdavs	r6, {r2, r5, r8, sl}
 d34:	053c0705 	ldreq	r0, [ip, #-1797]!	; 0xfffff8fb
 d38:	0f052f09 	svceq	0x00052f09
 d3c:	2e090575 	cfrshl64cs	mvdx9, mvdx5, r0
 d40:	02002605 	andeq	r2, r0, #5242880	; 0x500000
 d44:	05210304 	streq	r0, [r1, #-772]!	; 0xfffffcfc
 d48:	0402000d 	streq	r0, [r2], #-13
 d4c:	1f054a03 	svcne	0x00054a03
 d50:	03040200 	movweq	r0, #16896	; 0x4200
 d54:	00150549 	andseq	r0, r5, r9, asr #10
 d58:	3c010402 	cfstrscc	mvf0, [r1], {2}
 d5c:	02000905 	andeq	r0, r0, #81920	; 0x14000
 d60:	3f2e0104 	svccc	0x002e0104
 d64:	023e0105 	eorseq	r0, lr, #1073741825	; 0x40000001
 d68:	01010008 	tsteq	r1, r8

Disassembly of section .debug_str:

00000000 <.debug_str>:
   0:	676e6f6c 	strbvs	r6, [lr, -ip, ror #30]!
   4:	6e6f6c20 	cdpvs	12, 6, cr6, cr15, cr0, {1}
   8:	6e692067 	cdpvs	0, 6, cr2, cr9, cr7, {3}
   c:	645f0074 	ldrbvs	r0, [pc], #-116	; 14 <g_pfnVectors+0x14>
  10:	00617461 	rsbeq	r7, r1, r1, ror #8
  14:	536c7570 	cmnpl	ip, #112, 10	; 0x1c000000
  18:	6b636174 	blvs	18d85f0 <_etext+0x18d74c0>
  1c:	755f5f00 	ldrbvc	r5, [pc, #-3840]	; fffff124 <_ebss+0xdffff020>
  20:	33746e69 	cmncc	r4, #1680	; 0x690
  24:	00745f32 	rsbseq	r5, r4, r2, lsr pc
  28:	676e6f6c 	strbvs	r6, [lr, -ip, ror #30]!
  2c:	6e6f6c20 	cdpvs	12, 6, cr6, cr15, cr0, {1}
  30:	6e752067 	cdpvs	0, 7, cr2, cr5, cr7, {3}
  34:	6e676973 			; <UNDEFINED> instruction: 0x6e676973
  38:	69206465 	stmdbvs	r0!, {r0, r2, r5, r6, sl, sp, lr}
  3c:	7000746e 	andvc	r7, r0, lr, ror #8
  40:	65446c75 	strbvs	r6, [r4, #-3189]	; 0xfffff38b
  44:	44007473 	strmi	r7, [r0], #-1139	; 0xfffffb8d
  48:	6f575c3a 	svcvs	0x00575c3a
  4c:	70736b72 	rsbsvc	r6, r3, r2, ror fp
  50:	5c656361 	stclpl	3, cr6, [r5], #-388	; 0xfffffe7c
  54:	61766974 	cmnvs	r6, r4, ror r9
  58:	73755c43 	cmnvc	r5, #17152	; 0x4300
  5c:	78655f62 	stmdavc	r5!, {r1, r5, r6, r8, r9, sl, fp, ip, lr}^
  60:	74655f00 	strbtvc	r5, [r5], #-3840	; 0xfffff100
  64:	00747865 	rsbseq	r7, r4, r5, ror #16
  68:	69736e75 	ldmdbvs	r3!, {r0, r2, r4, r5, r6, r9, sl, fp, sp, lr}^
  6c:	64656e67 	strbtvs	r6, [r5], #-3687	; 0xfffff199
  70:	61686320 	cmnvs	r8, r0, lsr #6
  74:	655f0072 	ldrbvs	r0, [pc, #-114]	; a <g_pfnVectors+0xa>
  78:	61746164 	cmnvs	r4, r4, ror #2
  7c:	61747300 	cmnvs	r4, r0, lsl #6
  80:	70757472 	rsbsvc	r7, r5, r2, ror r4
  84:	6363675f 	cmnvs	r3, #24903680	; 0x17c0000
  88:	4900632e 	stmdbmi	r0, {r1, r2, r3, r5, r8, r9, sp, lr}
  8c:	6544746e 	strbvs	r7, [r4, #-1134]	; 0xfffffb92
  90:	6c756166 	ldfvse	f6, [r5], #-408	; 0xfffffe68
  94:	6e614874 	mcrvs	8, 3, r4, cr1, cr4, {3}
  98:	72656c64 	rsbvc	r6, r5, #100, 24	; 0x6400
  9c:	6f687300 	svcvs	0x00687300
  a0:	75207472 	strvc	r7, [r0, #-1138]!	; 0xfffffb8e
  a4:	6769736e 	strbvs	r7, [r9, -lr, ror #6]!
  a8:	2064656e 	rsbcs	r6, r4, lr, ror #10
  ac:	00746e69 	rsbseq	r6, r4, r9, ror #28
  b0:	6c756146 	ldfvse	f6, [r5], #-280	; 0xfffffee8
  b4:	52534974 	subspl	r4, r3, #116, 18	; 0x1d0000
  b8:	705f6700 	subsvc	r6, pc, r0, lsl #14
  bc:	65566e66 	ldrbvs	r6, [r6, #-3686]	; 0xfffff19a
  c0:	726f7463 	rsbvc	r7, pc, #1660944384	; 0x63000000
  c4:	68730073 	ldmdavs	r3!, {r0, r1, r4, r5, r6}^
  c8:	2074726f 	rsbscs	r7, r4, pc, ror #4
  cc:	00746e69 	rsbseq	r6, r4, r9, ror #28
  d0:	20554e47 	subscs	r4, r5, r7, asr #28
  d4:	20393943 	eorscs	r3, r9, r3, asr #18
  d8:	322e3031 	eorcc	r3, lr, #49	; 0x31
  dc:	3220312e 	eorcc	r3, r0, #-2147483637	; 0x8000000b
  e0:	31303230 	teqcc	r0, r0, lsr r2
  e4:	20333031 	eorscs	r3, r3, r1, lsr r0
  e8:	6c657228 	sfmvs	f7, 2, [r5], #-160	; 0xffffff60
  ec:	65736165 	ldrbvs	r6, [r3, #-357]!	; 0xfffffe9b
  f0:	6d2d2029 	stcvs	0, cr2, [sp, #-164]!	; 0xffffff5c
  f4:	6d756874 	ldclvs	8, cr6, [r5, #-464]!	; 0xfffffe30
  f8:	6d2d2062 	stcvs	0, cr2, [sp, #-392]!	; 0xfffffe78
  fc:	3d757063 	ldclcc	0, cr7, [r5, #-396]!	; 0xfffffe74
 100:	74726f63 	ldrbtvc	r6, [r2], #-3939	; 0xfffff09d
 104:	6d2d7865 	stcvs	8, cr7, [sp, #-404]!	; 0xfffffe6c
 108:	6d2d2034 	stcvs	0, cr2, [sp, #-208]!	; 0xffffff30
 10c:	3d757066 	ldclcc	0, cr7, [r5, #-408]!	; 0xfffffe68
 110:	34767066 	ldrbtcc	r7, [r6], #-102	; 0xffffff9a
 114:	2d70732d 	ldclcs	3, cr7, [r0, #-180]!	; 0xffffff4c
 118:	20363164 	eorscs	r3, r6, r4, ror #2
 11c:	6c666d2d 	stclvs	13, cr6, [r6], #-180	; 0xffffff4c
 120:	2d74616f 	ldfcse	f6, [r4, #-444]!	; 0xfffffe44
 124:	3d696261 	sfmcc	f6, 2, [r9, #-388]!	; 0xfffffe7c
 128:	64726168 	ldrbtvs	r6, [r2], #-360	; 0xfffffe98
 12c:	616d2d20 	cmnvs	sp, r0, lsr #26
 130:	3d686372 	stclcc	3, cr6, [r8, #-456]!	; 0xfffffe38
 134:	766d7261 	strbtvc	r7, [sp], -r1, ror #4
 138:	6d2d6537 	cfstr32vs	mvfx6, [sp, #-220]!	; 0xffffff24
 13c:	2070662b 	rsbscs	r6, r0, fp, lsr #12
 140:	2d20672d 	stccs	7, cr6, [r0, #-180]!	; 0xffffff4c
 144:	2d20304f 	stccs	0, cr3, [r0, #-316]!	; 0xfffffec4
 148:	3d647473 	cfstrdcc	mvd7, [r4, #-460]!	; 0xfffffe34
 14c:	20393963 	eorscs	r3, r9, r3, ror #18
 150:	7566662d 	strbvc	r6, [r6, #-1581]!	; 0xfffff9d3
 154:	6974636e 	ldmdbvs	r4!, {r1, r2, r3, r5, r6, r8, r9, sp, lr}^
 158:	732d6e6f 			; <UNDEFINED> instruction: 0x732d6e6f
 15c:	69746365 	ldmdbvs	r4!, {r0, r2, r5, r6, r8, r9, sp, lr}^
 160:	20736e6f 	rsbscs	r6, r3, pc, ror #28
 164:	6164662d 	cmnvs	r4, sp, lsr #12
 168:	732d6174 			; <UNDEFINED> instruction: 0x732d6174
 16c:	69746365 	ldmdbvs	r4!, {r0, r2, r5, r6, r8, r9, sp, lr}^
 170:	00736e6f 	rsbseq	r6, r3, pc, ror #28
 174:	536c7570 	cmnpl	ip, #112, 10	; 0x1c000000
 178:	52006372 	andpl	r6, r0, #-939524095	; 0xc8000001
 17c:	74657365 	strbtvc	r7, [r5], #-869	; 0xfffffc9b
 180:	00525349 	subseq	r5, r2, r9, asr #6
 184:	53696d4e 	cmnpl	r9, #4992	; 0x1380
 188:	69750052 	ldmdbvs	r5!, {r1, r4, r6}^
 18c:	694c3233 	stmdbvs	ip, {r0, r1, r4, r5, r9, ip, sp}^
 190:	6d00656e 	cfstr32vs	mvfx6, [r0, #-440]	; 0xfffffe48
 194:	006e6961 	rsbeq	r6, lr, r1, ror #18
 198:	706d6953 	rsbvc	r6, sp, r3, asr r9
 19c:	6544656c 	strbvs	r6, [r4, #-1388]	; 0xfffffa94
 1a0:	0079616c 	rsbseq	r6, r9, ip, ror #2
 1a4:	72655f5f 	rsbvc	r5, r5, #380	; 0x17c
 1a8:	5f726f72 	svcpl	0x00726f72
 1ac:	616d005f 	qdsubvs	r0, pc, sp	; <UNPREDICTABLE>
 1b0:	632e6e69 			; <UNDEFINED> instruction: 0x632e6e69
 1b4:	6f425f00 	svcvs	0x00425f00
 1b8:	64006c6f 	strvs	r6, [r0], #-3183	; 0xfffff391
 1bc:	79616c65 	stmdbvc	r1!, {r0, r2, r5, r6, sl, fp, sp, lr}^
 1c0:	696e4900 	stmdbvs	lr!, {r8, fp, lr}^
 1c4:	6e6f4374 	mcrvs	3, 3, r4, cr15, cr4, {3}
 1c8:	656c6f73 	strbvs	r6, [ip, #-3955]!	; 0xfffff08d
 1cc:	46637000 	strbtmi	r7, [r3], -r0
 1d0:	6e656c69 	cdpvs	12, 6, cr6, cr5, cr9, {3}
 1d4:	00656d61 	rsbeq	r6, r5, r1, ror #26
 1d8:	54524155 	ldrbpl	r4, [r2], #-341	; 0xfffffeab
 1dc:	746e4930 	strbtvc	r4, [lr], #-2352	; 0xfffff6d0
 1e0:	646e6148 	strbtvs	r6, [lr], #-328	; 0xfffffeb8
 1e4:	0072656c 	rsbseq	r6, r2, ip, ror #10
 1e8:	72416176 	subvc	r6, r1, #-2147483619	; 0x8000001d
 1ec:	63005067 	movwvs	r5, #103	; 0x67
 1f0:	6c6c6946 			; <UNDEFINED> instruction: 0x6c6c6946
 1f4:	33697500 	cmncc	r9, #0, 10
 1f8:	75614232 	strbvc	r4, [r1, #-562]!	; 0xfffffdce
 1fc:	63700064 	cmnvs	r0, #100	; 0x64
 200:	69727453 	ldmdbvs	r2!, {r0, r1, r4, r6, sl, ip, sp, lr}^
 204:	7500676e 	strvc	r6, [r0, #-1902]	; 0xfffff892
 208:	56323369 	ldrtpl	r3, [r2], -r9, ror #6
 20c:	65756c61 	ldrbvs	r6, [r5, #-3169]!	; 0xfffff39f
 210:	64497500 	strbvs	r7, [r9], #-1280	; 0xfffffb00
 214:	41550078 	cmpmi	r5, r8, ror r0
 218:	72775452 	rsbsvc	r5, r7, #1375731712	; 0x52000000
 21c:	00657469 	rsbeq	r7, r5, r9, ror #8
 220:	32336975 	eorscc	r6, r3, #1916928	; 0x1d4000
 224:	6e756f43 	cdpvs	15, 7, cr6, cr5, cr3, {2}
 228:	5f670074 	svcpl	0x00670074
 22c:	32336975 	eorscc	r6, r3, #1916928	; 0x1d4000
 230:	54524155 	ldrbpl	r4, [r2], #-341	; 0xfffffeab
 234:	69726550 	ldmdbvs	r2!, {r4, r6, r8, sl, sp, lr}^
 238:	63006870 	movwvs	r6, #2160	; 0x870
 23c:	65766e6f 	ldrbvs	r6, [r6, #-3695]!	; 0xfffff191
 240:	55007472 	strpl	r7, [r0, #-1138]	; 0xfffffb8e
 244:	53545241 	cmppl	r4, #268435460	; 0x10000004
 248:	6f696474 	svcvs	0x00696474
 24c:	666e6f43 	strbtvs	r6, [lr], -r3, asr #30
 250:	75006769 	strvc	r6, [r0, #-1897]	; 0xfffff897
 254:	50323369 	eorspl	r3, r2, r9, ror #6
 258:	4e74726f 	cdpmi	2, 7, cr7, cr4, cr15, {3}
 25c:	5f006d75 	svcpl	0x00006d75
 260:	5f61765f 	svcpl	0x0061765f
 264:	7473696c 	ldrbtvc	r6, [r3], #-2412	; 0xfffff694
 268:	755f6700 	ldrbvc	r6, [pc, #-1792]	; fffffb70 <_ebss+0xdffffa6c>
 26c:	42323369 	eorsmi	r3, r2, #-1543503871	; 0xa4000001
 270:	00657361 	rsbeq	r7, r5, r1, ror #6
 274:	542f2e2e 	strtpl	r2, [pc], #-3630	; 27c <ResetISR+0x10>
 278:	57617669 	strbpl	r7, [r1, -r9, ror #12]!
 27c:	2f657261 	svccs	0x00657261
 280:	6c697475 	cfstrdvs	mvd7, [r9], #-468	; 0xfffffe2c
 284:	61752f73 	cmnvs	r5, r3, ror pc
 288:	74737472 	ldrbtvc	r7, [r3], #-1138	; 0xfffffb8e
 28c:	2e6f6964 	vnmulcs.f16	s13, s30, s9	; <UNPREDICTABLE>
 290:	41550063 	cmpmi	r5, r3, rrx
 294:	70765452 	rsbsvc	r5, r6, r2, asr r4
 298:	746e6972 	strbtvc	r6, [lr], #-2418	; 0xfffff68e
 29c:	43630066 	cmnmi	r3, #102	; 0x66
 2a0:	00726168 	rsbseq	r6, r2, r8, ror #2
 2a4:	32336975 	eorscc	r6, r3, #1916928	; 0x1d4000
 2a8:	0067654e 	rsbeq	r6, r7, lr, asr #10
 2ac:	54524155 	ldrbpl	r4, [r2], #-341	; 0xfffffeab
 2b0:	6e697270 	mcrvs	2, 3, r7, cr9, cr0, {3}
 2b4:	75006674 	strvc	r6, [r0, #-1652]	; 0xfffff98c
 2b8:	53323369 	teqpl	r2, #-1543503871	; 0xa4000001
 2bc:	6c436372 	mcrrvs	3, 7, r6, r3, cr2
 2c0:	006b636f 	rsbeq	r6, fp, pc, ror #6
 2c4:	6e695f5f 	mcrvs	15, 3, r5, cr9, cr15, {2}
 2c8:	745f3874 	ldrbvc	r3, [pc], #-2164	; 2d0 <zero_loop+0x34>
 2cc:	615f5f00 	cmpvs	pc, r0, lsl #30
 2d0:	69750070 	ldmdbvs	r5!, {r4, r5, r6}^
 2d4:	654c3233 	strbvs	r3, [ip, #-563]	; 0xfffffdcd
 2d8:	5f67006e 	svcpl	0x0067006e
 2dc:	65486370 	strbvs	r6, [r8, #-880]	; 0xfffffc90
 2e0:	63700078 	cmnvs	r0, #120	; 0x78
 2e4:	00727453 	rsbseq	r7, r2, r3, asr r4
 2e8:	73614c62 	cmnvc	r1, #25088	; 0x6200
 2ec:	73615774 	cmnvc	r1, #116, 14	; 0x1d00000
 2f0:	5f005243 	svcpl	0x00005243
 2f4:	746e695f 	strbtvc	r6, [lr], #-2399	; 0xfffff6a1
 2f8:	745f3233 	ldrbvc	r3, [pc], #-563	; 300 <UART0IntHandler>
 2fc:	33697500 	cmncc	r9, #0, 10
 300:	78644932 	stmdavc	r4!, {r1, r4, r5, r8, fp, lr}^
 304:	675f5f00 	ldrbvs	r5, [pc, -r0, lsl #30]
 308:	5f63756e 	svcpl	0x0063756e
 30c:	6c5f6176 	ldfvse	f6, [pc], {118}	; 0x76
 310:	00747369 	rsbseq	r7, r4, r9, ror #6
 314:	54524155 	ldrbpl	r4, [r2], #-341	; 0xfffffeab
 318:	63746567 	cmnvs	r4, #432013312	; 0x19c00000
 31c:	755f6700 	ldrbvc	r6, [pc, #-1792]	; fffffc24 <_ebss+0xdffffb20>
 320:	55323369 	ldrpl	r3, [r2, #-873]!	; 0xfffffc97
 324:	42545241 	subsmi	r5, r4, #268435460	; 0x10000004
 328:	00657361 	rsbeq	r7, r5, r1, ror #6
 32c:	32336975 	eorscc	r6, r3, #1916928	; 0x1d4000
 330:	00736f50 	rsbseq	r6, r3, r0, asr pc
 334:	75426370 	strbvc	r6, [r2, #-880]	; 0xfffffc90
 338:	41550066 	cmpmi	r5, r6, rrx
 33c:	65675452 	strbvs	r5, [r7, #-1106]!	; 0xfffffbae
 340:	61007374 	tstvs	r0, r4, ror r3
 344:	6e696167 	powvsez	f6, f1, f7
 348:	6e6f4300 	cdpvs	3, 6, cr4, cr15, cr0, {0}
 34c:	75676966 	strbvc	r6, [r7, #-2406]!	; 0xfffff69a
 350:	4e496572 	mcrmi	5, 2, r6, cr9, cr2, {3}
 354:	70646e45 	rsbvc	r6, r4, r5, asr #28
 358:	746e696f 	strbtvc	r6, [lr], #-2415	; 0xfffff691
 35c:	42535500 	subsmi	r5, r3, #0, 10
 360:	69766544 	ldmdbvs	r6!, {r2, r6, r8, sl, sp, lr}^
 364:	6e496563 	cdpvs	5, 4, cr6, cr9, cr3, {3}
 368:	6d007469 	cfstrsvs	mvf7, [r0, #-420]	; 0xfffffe5c
 36c:	61507861 	cmpvs	r0, r1, ror #16
 370:	74656b63 	strbtvc	r6, [r5], #-2915	; 0xfffff49d
 374:	657a6953 	ldrbvs	r6, [sl, #-2387]!	; 0xfffff6ad
 378:	646e4500 	strbtvs	r4, [lr], #-1280	; 0xfffffb00
 37c:	6e696f70 	mcrvs	15, 3, r6, cr9, cr0, {3}
 380:	696e4974 	stmdbvs	lr!, {r2, r4, r5, r6, r8, fp, lr}^
 384:	6c616974 			; <UNDEFINED> instruction: 0x6c616974
 388:	00657a69 	rsbeq	r7, r5, r9, ror #20
 38c:	44386975 	ldrtmi	r6, [r8], #-2421	; 0xfffff68b
 390:	79616c65 	stmdbvc	r1!, {r0, r2, r5, r6, sl, fp, sp, lr}^
 394:	63636100 	cmnvs	r3, #0, 2
 398:	53737365 	cmnpl	r3, #-1811939327	; 0x94000001
 39c:	00657a69 	rsbeq	r7, r5, r9, ror #20
 3a0:	73756c66 	cmnvc	r5, #26112	; 0x6600
 3a4:	78725f68 	ldmdavc	r2!, {r3, r5, r6, r8, r9, sl, fp, ip, lr}^
 3a8:	6f666966 	svcvs	0x00666966
 3ac:	61657200 	cmnvs	r5, r0, lsl #4
 3b0:	46785264 	ldrbtmi	r5, [r8], -r4, ror #4
 3b4:	004f4649 	subeq	r4, pc, r9, asr #12
 3b8:	43544e49 	cmpmi	r4, #1168	; 0x490
 3bc:	7261656c 	rsbvc	r6, r1, #108, 10	; 0x1b000000
 3c0:	756c4600 	strbvc	r4, [ip, #-1536]!	; 0xfffffa00
 3c4:	78546873 	ldmdavc	r4, {r0, r1, r4, r5, r6, fp, sp, lr}^
 3c8:	6f666946 	svcvs	0x00666946
 3cc:	646e6500 	strbtvs	r6, [lr], #-1280	; 0xfffffb00
 3d0:	6e696f70 	mcrvs	15, 3, r6, cr9, cr0, {3}
 3d4:	666e4974 			; <UNDEFINED> instruction: 0x666e4974
 3d8:	6f63006f 	svcvs	0x0063006f
 3dc:	6769666e 	strbvs	r6, [r9, -lr, ror #12]!
 3e0:	5f657275 	svcpl	0x00657275
 3e4:	655f6e69 	ldrbvs	r6, [pc, #-3689]	; fffff583 <_ebss+0xdffff47f>
 3e8:	6f70646e 	svcvs	0x0070646e
 3ec:	00746e69 	rsbseq	r6, r4, r9, ror #28
 3f0:	4f464946 	svcmi	0x00464946
 3f4:	416d6152 	cmnmi	sp, r2, asr r1
 3f8:	00726464 	rsbseq	r6, r2, r4, ror #8
 3fc:	754e5045 	strbvc	r5, [lr, #-69]	; 0xffffffbb
 400:	6572006d 	ldrbvs	r0, [r2, #-109]!	; 0xffffff93
 404:	61506461 	cmpvs	r0, r1, ror #8
 408:	74656b63 	strbtvc	r6, [r5], #-2915	; 0xfffff49d
 40c:	69727700 	ldmdbvs	r2!, {r8, r9, sl, ip, sp, lr}^
 410:	78526574 	ldmdavc	r2, {r2, r4, r5, r6, r8, sl, sp, lr}^
 414:	4f464946 	svcmi	0x00464946
 418:	62737500 	rsbsvs	r7, r3, #0, 10
 41c:	6972645f 	ldmdbvs	r2!, {r0, r1, r2, r3, r4, r6, sl, sp, lr}^
 420:	00726576 	rsbseq	r6, r2, r6, ror r5
 424:	42425355 	submi	r5, r2, #1409286145	; 0x54000001
 428:	6f437375 	svcvs	0x00437375
 42c:	63656e6e 	cmnvs	r5, #1760	; 0x6e0
 430:	6c460074 	mcrrvs	0, 7, r0, r6, cr4
 434:	52687375 	rsbpl	r7, r8, #-738197503	; 0xd4000001
 438:	66694678 			; <UNDEFINED> instruction: 0x66694678
 43c:	5355006f 	cmppl	r5, #111	; 0x6f
 440:	76654442 	strbtvc	r4, [r5], -r2, asr #8
 444:	47656369 	strbmi	r6, [r5, -r9, ror #6]!
 448:	6e497465 	cdpvs	4, 4, cr7, cr9, cr5, {3}
 44c:	61745374 	cmnvs	r4, r4, ror r3
 450:	00737574 	rsbseq	r7, r3, r4, ror r5
 454:	78547369 	ldmdavc	r4, {r0, r3, r5, r6, r8, r9, ip, sp, lr}^
 458:	70646e45 	rsbvc	r6, r4, r5, asr #28
 45c:	746e696f 	strbtvc	r6, [lr], #-2415	; 0xfffff691
 460:	61657200 	cmnvs	r5, r0, lsl #4
 464:	61705f64 	cmnvs	r0, r4, ror #30
 468:	74656b63 	strbtvc	r6, [r5], #-2915	; 0xfffff49d
 46c:	6e6f6300 	cdpvs	3, 6, cr6, cr15, cr0, {0}
 470:	75676966 	strbvc	r6, [r7, #-2406]!	; 0xfffff69a
 474:	6f5f6572 	svcvs	0x005f6572
 478:	655f7475 	ldrbvs	r7, [pc, #-1141]	; b <g_pfnVectors+0xb>
 47c:	6f70646e 	svcvs	0x0070646e
 480:	00746e69 	rsbseq	r6, r4, r9, ror #28
 484:	53746572 	cmnpl	r4, #478150656	; 0x1c800000
 488:	00657a69 	rsbeq	r7, r5, r9, ror #20
 48c:	44425355 	strbmi	r5, [r2], #-853	; 0xfffffcab
 490:	65766972 	ldrbvs	r6, [r6, #-2418]!	; 0xfffff68e
 494:	6e690072 	mcrvs	0, 3, r0, cr9, cr2, {3}
 498:	61697469 	cmnvs	r9, r9, ror #8
 49c:	657a696c 	ldrbvs	r6, [sl, #-2412]!	; 0xfffff694
 4a0:	726f635f 	rsbvc	r6, pc, #2080374785	; 0x7c000001
 4a4:	70650065 	rsbvc	r0, r5, r5, rrx
 4a8:	6f666e49 	svcvs	0x00666e49
 4ac:	42535500 	subsmi	r5, r3, #0, 10
 4b0:	496e6950 	stmdbmi	lr!, {r4, r6, r8, fp, sp, lr}^
 4b4:	6974696e 	ldmdbvs	r4!, {r1, r2, r3, r5, r6, r8, fp, sp, lr}^
 4b8:	7a696c61 	bvc	1a5b644 <_etext+0x1a5a514>
 4bc:	53550065 	cmppl	r5, #101	; 0x65
 4c0:	74654742 	strbtvc	r4, [r5], #-1858	; 0xfffff8be
 4c4:	42766352 	rsbsmi	r6, r6, #1207959553	; 0x48000001
 4c8:	73657479 	cmnvc	r5, #2030043136	; 0x79000000
 4cc:	4d504500 	cfldr64mi	mvdx4, [r0, #-0]
 4d0:	78547861 	ldmdavc	r4, {r0, r5, r6, fp, ip, sp, lr}^
 4d4:	49467852 	stmdbmi	r6, {r1, r4, r6, fp, ip, sp, lr}^
 4d8:	61524f46 	cmpvs	r2, r6, asr #30
 4dc:	7a69536d 	bvc	1a55298 <_etext+0x1a54168>
 4e0:	73750065 	cmnvc	r5, #101	; 0x65
 4e4:	645f6462 	ldrbvs	r6, [pc], #-1122	; 4ec <UARTvprintf+0x34>
 4e8:	65766972 	ldrbvs	r6, [r6, #-2418]!	; 0xfffff68e
 4ec:	00632e72 	rsbeq	r2, r3, r2, ror lr
 4f0:	63736964 	cmnvs	r3, #100, 18	; 0x190000
 4f4:	656e6e6f 	strbvs	r6, [lr, #-3695]!	; 0xfffff191
 4f8:	75007463 	strvc	r7, [r0, #-1123]	; 0xfffffb9d
 4fc:	6e693233 	mcrvs	2, 3, r3, cr9, cr3, {1}
 500:	61745374 	cmnvs	r4, r4, ror r3
 504:	00737574 	rsbseq	r7, r3, r4, ror r5
 508:	73756c66 	cmnvc	r5, #26112	; 0x6600
 50c:	78745f68 	ldmdavc	r4!, {r3, r5, r6, r8, r9, sl, fp, ip, lr}^
 510:	6f666966 	svcvs	0x00666966
 514:	42535500 	subsmi	r5, r3, #0, 10
 518:	65746e49 	ldrbvs	r6, [r4, #-3657]!	; 0xfffff1b7
 51c:	70757272 	rsbsvc	r7, r5, r2, ror r2
 520:	696e4974 	stmdbvs	lr!, {r2, r4, r5, r6, r8, fp, lr}^
 524:	6c616974 			; <UNDEFINED> instruction: 0x6c616974
 528:	00657a69 	rsbeq	r7, r5, r9, ror #20
 52c:	666e6f43 	strbtvs	r6, [lr], -r3, asr #30
 530:	72756769 	rsbsvc	r6, r5, #27525120	; 0x1a40000
 534:	54554f65 	ldrbpl	r4, [r5], #-3941	; 0xfffff09b
 538:	70646e45 	rsbvc	r6, r4, r5, asr #28
 53c:	746e696f 	strbtvc	r6, [lr], #-2415	; 0xfffff691
 540:	44736900 	ldrbtmi	r6, [r3], #-2304	; 0xfffff700
 544:	6c62756f 	cfstr64vs	mvdx7, [r2], #-444	; 0xfffffe44
 548:	66754265 	ldrbtvs	r4, [r5], -r5, ror #4
 54c:	69726566 	ldmdbvs	r2!, {r1, r2, r5, r6, r8, sl, sp, lr}^
 550:	7700676e 	strvc	r6, [r0, -lr, ror #14]
 554:	65746972 	ldrbvs	r6, [r4, #-2418]!	; 0xfffff68e
 558:	6b636150 	blvs	18d8aa0 <_etext+0x18d7970>
 55c:	55007465 	strpl	r7, [r0, #-1125]	; 0xfffffb9b
 560:	6e494253 	mcrvs	2, 2, r4, cr9, cr3, {2}
 564:	73655274 	cmnvc	r5, #116, 4	; 0x40000007
 568:	61487465 	cmpvs	r8, r5, ror #8
 56c:	656c646e 	strbvs	r6, [ip, #-1134]!	; 0xfffffb92
 570:	75620072 	strbvc	r0, [r2, #-114]!	; 0xffffff8e
 574:	72656666 	rsbvc	r6, r5, #106954752	; 0x6600000
 578:	69727700 	ldmdbvs	r2!, {r8, r9, sl, ip, sp, lr}^
 57c:	705f6574 	subsvc	r6, pc, r4, ror r5	; <UNPREDICTABLE>
 580:	656b6361 	strbvs	r6, [fp, #-865]!	; 0xfffffc9f
 584:	53550074 	cmppl	r5, #116	; 0x74
 588:	73754242 	cmnvc	r5, #536870916	; 0x20000004
 58c:	63736944 	cmnvs	r3, #68, 18	; 0x110000
 590:	656e6e6f 	strbvs	r6, [lr, #-3695]!	; 0xfffff191
 594:	44007463 	strmi	r7, [r0], #-1123	; 0xfffffb9d
 598:	6e6f6365 	cdpvs	3, 6, cr6, cr15, cr5, {3}
 59c:	75676966 	strbvc	r6, [r7, #-2406]!	; 0xfffff69a
 5a0:	6e456572 	mcrvs	5, 2, r6, cr5, cr2, {3}
 5a4:	696f7064 	stmdbvs	pc!, {r2, r5, r6, ip, sp, lr}^	; <UNPREDICTABLE>
 5a8:	4300746e 	movwmi	r7, #1134	; 0x46e
 5ac:	69666e6f 	stmdbvs	r6!, {r0, r1, r2, r3, r5, r6, r9, sl, fp, sp, lr}^
 5b0:	65727567 	ldrbvs	r7, [r2, #-1383]!	; 0xfffffa99
 5b4:	70646e45 	rsbvc	r6, r4, r5, asr #28
 5b8:	746e696f 	strbtvc	r6, [lr], #-2415	; 0xfffff691
 5bc:	69730030 	ldmdbvs	r3!, {r4, r5}^
 5c0:	4300657a 	movwmi	r6, #1402	; 0x57a
 5c4:	69666e6f 	stmdbvs	r6!, {r0, r1, r2, r3, r5, r6, r9, sl, fp, sp, lr}^
 5c8:	65727567 	ldrbvs	r7, [r2, #-1383]!	; 0xfffffa99
 5cc:	78527854 	ldmdavc	r2, {r2, r4, r6, fp, ip, sp, lr}^
 5d0:	4f464946 	svcmi	0x00464946
 5d4:	657a6953 	ldrbvs	r6, [sl, #-2387]!	; 0xfffff6ad
 5d8:	69727700 	ldmdbvs	r2!, {r8, r9, sl, ip, sp, lr}^
 5dc:	78546574 	ldmdavc	r4, {r2, r4, r5, r6, r8, sl, sp, lr}^
 5e0:	4f464946 	svcmi	0x00464946
 5e4:	33697500 	cmncc	r9, #0, 10
 5e8:	746e4932 	strbtvc	r4, [lr], #-2354	; 0xfffff6ce
 5ec:	74617453 	strbtvc	r7, [r1], #-1107	; 0xfffffbad
 5f0:	55007375 	strpl	r7, [r0, #-885]	; 0xfffffc8b
 5f4:	6e494253 	mcrvs	2, 2, r4, cr9, cr3, {2}
 5f8:	72726574 	rsbsvc	r6, r2, #116, 10	; 0x1d000000
 5fc:	53747075 	cmnpl	r4, #117	; 0x75
 600:	75746174 	ldrbvc	r6, [r4, #-372]!	; 0xfffffe8c
 604:	53550073 	cmppl	r5, #115	; 0x73
 608:	696e4942 	stmdbvs	lr!, {r1, r6, r8, fp, lr}^
 60c:	73750074 	cmnvc	r5, #116	; 0x74
 610:	665f6462 	ldrbvs	r6, [pc], -r2, ror #8
 614:	656d6172 	strbvs	r6, [sp, #-370]!	; 0xfffffe8e
 618:	6b726f77 	blvs	1c9c3fc <_etext+0x1c9b2cc>
 61c:	6500632e 	strvs	r6, [r0, #-814]	; 0xfffffcd2
 620:	657a6953 	ldrbvs	r6, [sl, #-2387]!	; 0xfffff6ad
 624:	42535500 	subsmi	r5, r3, #0, 10
 628:	61736944 	cmnvs	r3, r4, asr #18
 62c:	00656c62 	rsbeq	r6, r5, r2, ror #24
 630:	61727261 	cmnvs	r2, r1, ror #4
 634:	53550079 	cmppl	r5, #121	; 0x79
 638:	616e4542 	cmnvs	lr, r2, asr #10
 63c:	00656c62 	rsbeq	r6, r5, r2, ror #24
 640:	756c6176 	strbvc	r6, [ip, #-374]!	; 0xfffffe8a
 644:	Address 0x00000644 is out of bounds.


Disassembly of section .comment:

00000000 <.comment>:
   0:	3a434347 	bcc	10d0d24 <_etext+0x10cfbf4>
   4:	4e472820 	cdpmi	8, 4, cr2, cr7, cr0, {1}
   8:	72412055 	subvc	r2, r1, #85	; 0x55
   c:	6d45206d 	stclvs	0, cr2, [r5, #-436]	; 0xfffffe4c
  10:	64646562 	strbtvs	r6, [r4], #-1378	; 0xfffffa9e
  14:	54206465 	strtpl	r6, [r0], #-1125	; 0xfffffb9b
  18:	636c6f6f 	cmnvs	ip, #444	; 0x1bc
  1c:	6e696168 	powvsez	f6, f1, #0.0
  20:	2d303120 	ldfcss	f3, [r0, #-128]!	; 0xffffff80
  24:	30323032 	eorscc	r3, r2, r2, lsr r0
  28:	2d34712d 	ldfcss	f7, [r4, #-180]!	; 0xffffff4c
  2c:	6f6a616d 	svcvs	0x006a616d
  30:	31202972 			; <UNDEFINED> instruction: 0x31202972
  34:	2e322e30 	mrccs	14, 1, r2, cr2, cr0, {1}
  38:	30322031 	eorscc	r2, r2, r1, lsr r0
  3c:	31313032 	teqcc	r1, r2, lsr r0
  40:	28203330 	stmdacs	r0!, {r4, r5, r8, r9, ip, sp}
  44:	656c6572 	strbvs	r6, [ip, #-1394]!	; 0xfffffa8e
  48:	29657361 	stmdbcs	r5!, {r0, r5, r6, r8, r9, ip, sp, lr}^
	...

Disassembly of section .ARM.attributes:

00000000 <.ARM.attributes>:
   0:	00003341 	andeq	r3, r0, r1, asr #6
   4:	61656100 	cmnvs	r5, r0, lsl #2
   8:	01006962 	tsteq	r0, r2, ror #18
   c:	00000029 	andeq	r0, r0, r9, lsr #32
  10:	2d453705 	stclcs	7, cr3, [r5, #-20]	; 0xffffffec
  14:	0d06004d 	stceq	0, cr0, [r6, #-308]	; 0xfffffecc
  18:	02094d07 	andeq	r4, r9, #448	; 0x1c0
  1c:	0412060a 	ldreq	r0, [r2], #-1546	; 0xfffff9f6
  20:	01150114 	tsteq	r5, r4, lsl r1
  24:	01180317 	tsteq	r8, r7, lsl r3
  28:	011a0119 	tsteq	sl, r9, lsl r1
  2c:	011c011b 	tsteq	ip, fp, lsl r1
  30:	0122061e 			; <UNDEFINED> instruction: 0x0122061e

Disassembly of section .debug_frame:

00000000 <.debug_frame>:
   0:	0000000c 	andeq	r0, r0, ip
   4:	ffffffff 			; <UNDEFINED> instruction: 0xffffffff
   8:	7c020001 	stcvc	0, cr0, [r2], {1}
   c:	000d0c0e 	andeq	r0, sp, lr, lsl #24
  10:	00000020 	andeq	r0, r0, r0, lsr #32
  14:	00000000 	andeq	r0, r0, r0
  18:	0000026c 	andeq	r0, r0, ip, ror #4
  1c:	00000064 	andeq	r0, r0, r4, rrx
  20:	87080e41 	strhi	r0, [r8, -r1, asr #28]
  24:	41018e02 	tstmi	r1, r2, lsl #28
  28:	0d41100e 	stcleq	0, cr1, [r1, #-56]	; 0xffffffc8
  2c:	080e6407 	stmdaeq	lr, {r0, r1, r2, sl, sp, lr}
  30:	000d0d41 	andeq	r0, sp, r1, asr #26
  34:	00000014 	andeq	r0, r0, r4, lsl r0
  38:	00000000 	andeq	r0, r0, r0
  3c:	000002d8 	ldrdeq	r0, [r0], -r8
  40:	00000006 	andeq	r0, r0, r6
  44:	87040e41 	strhi	r0, [r4, -r1, asr #28]
  48:	070d4101 	streq	r4, [sp, -r1, lsl #2]
  4c:	00000014 	andeq	r0, r0, r4, lsl r0
  50:	00000000 	andeq	r0, r0, r0
  54:	000002de 	ldrdeq	r0, [r0], -lr
  58:	00000006 	andeq	r0, r0, r6
  5c:	87040e41 	strhi	r0, [r4, -r1, asr #28]
  60:	070d4101 	streq	r4, [sp, -r1, lsl #2]
  64:	00000014 	andeq	r0, r0, r4, lsl r0
  68:	00000000 	andeq	r0, r0, r0
  6c:	000002e4 	andeq	r0, r0, r4, ror #5
  70:	00000006 	andeq	r0, r0, r6
  74:	87040e41 	strhi	r0, [r4, -r1, asr #28]
  78:	070d4101 	streq	r4, [sp, -r1, lsl #2]
  7c:	0000000c 	andeq	r0, r0, ip
  80:	ffffffff 			; <UNDEFINED> instruction: 0xffffffff
  84:	7c020001 	stcvc	0, cr0, [r2], {1}
  88:	000d0c0e 	andeq	r0, sp, lr, lsl #24
  8c:	00000024 	andeq	r0, r0, r4, lsr #32
  90:	0000007c 	andeq	r0, r0, ip, ror r0
  94:	000002ea 	andeq	r0, r0, sl, ror #5
  98:	00000016 	andeq	r0, r0, r6, lsl r0
  9c:	87040e41 	strhi	r0, [r4, -r1, asr #28]
  a0:	100e4101 	andne	r4, lr, r1, lsl #2
  a4:	44070d41 	strmi	r0, [r7], #-3393	; 0xfffff2bf
  a8:	0d41040e 	cfstrdeq	mvd0, [r1, #-56]	; 0xffffffc8
  ac:	0ec7420d 	cdpeq	2, 12, cr4, cr7, cr13, {0}
  b0:	00000000 	andeq	r0, r0, r0
  b4:	0000001c 	andeq	r0, r0, ip, lsl r0
  b8:	0000007c 	andeq	r0, r0, ip, ror r0
  bc:	00000300 	andeq	r0, r0, r0, lsl #6
  c0:	0000000e 	andeq	r0, r0, lr
  c4:	87040e41 	strhi	r0, [r4, -r1, asr #28]
  c8:	070d4101 	streq	r4, [sp, -r1, lsl #2]
  cc:	420d0d42 	andmi	r0, sp, #4224	; 0x1080
  d0:	00000ec7 	andeq	r0, r0, r7, asr #29
  d4:	00000018 	andeq	r0, r0, r8, lsl r0
  d8:	0000007c 	andeq	r0, r0, ip, ror r0
  dc:	00000310 	andeq	r0, r0, r0, lsl r3
  e0:	00000050 	andeq	r0, r0, r0, asr r0
  e4:	87080e41 	strhi	r0, [r8, -r1, asr #28]
  e8:	41018e02 	tstmi	r1, r2, lsl #28
  ec:	0000070d 	andeq	r0, r0, sp, lsl #14
  f0:	00000018 	andeq	r0, r0, r8, lsl r0
  f4:	0000007c 	andeq	r0, r0, ip, ror r0
  f8:	00000000 	andeq	r0, r0, r0
  fc:	00000014 	andeq	r0, r0, r4, lsl r0
 100:	87080e41 	strhi	r0, [r8, -r1, asr #28]
 104:	41018e02 	tstmi	r1, r2, lsl #28
 108:	0000070d 	andeq	r0, r0, sp, lsl #14
 10c:	0000001c 	andeq	r0, r0, ip, lsl r0
 110:	0000007c 	andeq	r0, r0, ip, ror r0
 114:	00000360 	andeq	r0, r0, r0, ror #6
 118:	00000038 	andeq	r0, r0, r8, lsr r0
 11c:	87080e41 	strhi	r0, [r8, -r1, asr #28]
 120:	41018e02 	tstmi	r1, r2, lsl #28
 124:	0d41100e 	stcleq	0, cr1, [r1, #-56]	; 0xffffffc8
 128:	00000007 	andeq	r0, r0, r7
 12c:	0000000c 	andeq	r0, r0, ip
 130:	ffffffff 			; <UNDEFINED> instruction: 0xffffffff
 134:	7c020001 	stcvc	0, cr0, [r2], {1}
 138:	000d0c0e 	andeq	r0, sp, lr, lsl #24
 13c:	00000020 	andeq	r0, r0, r0, lsr #32
 140:	0000012c 	andeq	r0, r0, ip, lsr #2
 144:	00000398 	muleq	r0, r8, r3
 148:	00000090 	muleq	r0, r0, r0
 14c:	87080e41 	strhi	r0, [r8, -r1, asr #28]
 150:	41018e02 	tstmi	r1, r2, lsl #28
 154:	0d41180e 	stcleq	8, cr1, [r1, #-56]	; 0xffffffc8
 158:	080e7a07 	stmdaeq	lr, {r0, r1, r2, r9, fp, ip, sp, lr}
 15c:	000d0d41 	andeq	r0, sp, r1, asr #26
 160:	00000020 	andeq	r0, r0, r0, lsr #32
 164:	0000012c 	andeq	r0, r0, ip, lsr #2
 168:	00000428 	andeq	r0, r0, r8, lsr #8
 16c:	00000090 	muleq	r0, r0, r0
 170:	87080e41 	strhi	r0, [r8, -r1, asr #28]
 174:	41018e02 	tstmi	r1, r2, lsl #28
 178:	0d41180e 	stcleq	8, cr1, [r1, #-56]	; 0xffffffc8
 17c:	080e7e07 	stmdaeq	lr, {r0, r1, r2, r9, sl, fp, ip, sp, lr}
 180:	000d0d41 	andeq	r0, sp, r1, asr #26
 184:	00000020 	andeq	r0, r0, r0, lsr #32
 188:	0000012c 	andeq	r0, r0, ip, lsr #2
 18c:	00000000 	andeq	r0, r0, r0
 190:	00000114 	andeq	r0, r0, r4, lsl r1
 194:	87080e41 	strhi	r0, [r8, -r1, asr #28]
 198:	41018e02 	tstmi	r1, r2, lsl #28
 19c:	0d41180e 	stcleq	8, cr1, [r1, #-56]	; 0xffffffc8
 1a0:	0e7a0207 	cdpeq	2, 7, cr0, cr10, cr7, {0}
 1a4:	0d0d4108 	stfeqs	f4, [sp, #-32]	; 0xffffffe0
 1a8:	00000018 	andeq	r0, r0, r8, lsl r0
 1ac:	0000012c 	andeq	r0, r0, ip, lsr #2
 1b0:	00000000 	andeq	r0, r0, r0
 1b4:	0000001c 	andeq	r0, r0, ip, lsl r0
 1b8:	87080e41 	strhi	r0, [r8, -r1, asr #28]
 1bc:	41018e02 	tstmi	r1, r2, lsl #28
 1c0:	0000070d 	andeq	r0, r0, sp, lsl #14
 1c4:	00000024 	andeq	r0, r0, r4, lsr #32
 1c8:	0000012c 	andeq	r0, r0, ip, lsr #2
 1cc:	000004b8 			; <UNDEFINED> instruction: 0x000004b8
 1d0:	00000408 	andeq	r0, r0, r8, lsl #8
 1d4:	87080e41 	strhi	r0, [r8, -r1, asr #28]
 1d8:	41018e02 	tstmi	r1, r2, lsl #28
 1dc:	0d41400e 	stcleq	0, cr4, [r1, #-56]	; 0xffffffc8
 1e0:	01fb0307 	mvnseq	r0, r7, lsl #6
 1e4:	0d41080e 	stcleq	8, cr0, [r1, #-56]	; 0xffffffc8
 1e8:	0000000d 	andeq	r0, r0, sp
 1ec:	00000038 	andeq	r0, r0, r8, lsr r0
 1f0:	0000012c 	andeq	r0, r0, ip, lsr #2
 1f4:	000008c0 	andeq	r0, r0, r0, asr #17
 1f8:	00000024 	andeq	r0, r0, r4, lsr #32
 1fc:	80100e41 	andshi	r0, r0, r1, asr #28
 200:	82038104 	andhi	r8, r3, #4, 2
 204:	41018302 	tstmi	r1, r2, lsl #6
 208:	0687180e 	streq	r1, [r7], lr, lsl #16
 20c:	0e41058e 	cdpeq	5, 4, cr0, cr1, cr14, {4}
 210:	070d4120 	streq	r4, [sp, -r0, lsr #2]
 214:	41180e49 	tstmi	r8, r9, asr #28
 218:	ce420d0d 	cdpgt	13, 4, cr0, cr2, cr13, {0}
 21c:	41100ec7 	tstmi	r0, r7, asr #29
 220:	c0c1c2c3 	sbcgt	ip, r1, r3, asr #5
 224:	0000000e 	andeq	r0, r0, lr
 228:	0000000c 	andeq	r0, r0, ip
 22c:	ffffffff 			; <UNDEFINED> instruction: 0xffffffff
 230:	7c020001 	stcvc	0, cr0, [r2], {1}
 234:	000d0c0e 	andeq	r0, sp, lr, lsl #24
 238:	0000001c 	andeq	r0, r0, ip, lsl r0
 23c:	00000228 	andeq	r0, r0, r8, lsr #4
 240:	000008e4 	andeq	r0, r0, r4, ror #17
 244:	00000090 	muleq	r0, r0, r0
 248:	87040e41 	strhi	r0, [r4, -r1, asr #28]
 24c:	070d4101 	streq	r4, [sp, -r1, lsl #2]
 250:	420d0d72 	andmi	r0, sp, #7296	; 0x1c80
 254:	00000ec7 	andeq	r0, r0, r7, asr #29
 258:	0000001c 	andeq	r0, r0, ip, lsl r0
 25c:	00000228 	andeq	r0, r0, r8, lsr #4
 260:	00000974 	andeq	r0, r0, r4, ror r9
 264:	00000020 	andeq	r0, r0, r0, lsr #32
 268:	87040e41 	strhi	r0, [r4, -r1, asr #28]
 26c:	070d4101 	streq	r4, [sp, -r1, lsl #2]
 270:	420d0d49 	andmi	r0, sp, #4672	; 0x1240
 274:	00000ec7 	andeq	r0, r0, r7, asr #29
 278:	0000001c 	andeq	r0, r0, ip, lsl r0
 27c:	00000228 	andeq	r0, r0, r8, lsr #4
 280:	00000000 	andeq	r0, r0, r0
 284:	00000020 	andeq	r0, r0, r0, lsr #32
 288:	87040e41 	strhi	r0, [r4, -r1, asr #28]
 28c:	070d4101 	streq	r4, [sp, -r1, lsl #2]
 290:	420d0d49 	andmi	r0, sp, #4672	; 0x1240
 294:	00000ec7 	andeq	r0, r0, r7, asr #29
 298:	0000001c 	andeq	r0, r0, ip, lsl r0
 29c:	00000228 	andeq	r0, r0, r8, lsr #4
 2a0:	00000994 	muleq	r0, r4, r9
 2a4:	0000000e 	andeq	r0, r0, lr
 2a8:	87040e41 	strhi	r0, [r4, -r1, asr #28]
 2ac:	070d4101 	streq	r4, [sp, -r1, lsl #2]
 2b0:	420d0d42 	andmi	r0, sp, #4224	; 0x1080
 2b4:	00000ec7 	andeq	r0, r0, r7, asr #29
 2b8:	00000024 	andeq	r0, r0, r4, lsr #32
 2bc:	00000228 	andeq	r0, r0, r8, lsr #4
 2c0:	000009a4 	andeq	r0, r0, r4, lsr #19
 2c4:	00000078 	andeq	r0, r0, r8, ror r0
 2c8:	87040e41 	strhi	r0, [r4, -r1, asr #28]
 2cc:	100e4101 	andne	r4, lr, r1, lsl #2
 2d0:	66070d41 	strvs	r0, [r7], -r1, asr #26
 2d4:	0d41040e 	cfstrdeq	mvd0, [r1, #-56]	; 0xffffffc8
 2d8:	0ec7420d 	cdpeq	2, 12, cr4, cr7, cr13, {0}
 2dc:	00000000 	andeq	r0, r0, r0
 2e0:	00000024 	andeq	r0, r0, r4, lsr #32
 2e4:	00000228 	andeq	r0, r0, r8, lsr #4
 2e8:	00000a1c 	andeq	r0, r0, ip, lsl sl
 2ec:	00000078 	andeq	r0, r0, r8, ror r0
 2f0:	87040e41 	strhi	r0, [r4, -r1, asr #28]
 2f4:	100e4101 	andne	r4, lr, r1, lsl #2
 2f8:	6c070d41 	stcvs	13, cr0, [r7], {65}	; 0x41
 2fc:	0d41040e 	cfstrdeq	mvd0, [r1, #-56]	; 0xffffffc8
 300:	0ec7420d 	cdpeq	2, 12, cr4, cr7, cr13, {0}
 304:	00000000 	andeq	r0, r0, r0
 308:	00000024 	andeq	r0, r0, r4, lsr #32
 30c:	00000228 	andeq	r0, r0, r8, lsr #4
 310:	00000000 	andeq	r0, r0, r0
 314:	00000038 	andeq	r0, r0, r8, lsr r0
 318:	87040e41 	strhi	r0, [r4, -r1, asr #28]
 31c:	100e4101 	andne	r4, lr, r1, lsl #2
 320:	52070d41 	andpl	r0, r7, #4160	; 0x1040
 324:	0d41040e 	cfstrdeq	mvd0, [r1, #-56]	; 0xffffffc8
 328:	0ec7420d 	cdpeq	2, 12, cr4, cr7, cr13, {0}
 32c:	00000000 	andeq	r0, r0, r0
 330:	00000024 	andeq	r0, r0, r4, lsr #32
 334:	00000228 	andeq	r0, r0, r8, lsr #4
 338:	00000000 	andeq	r0, r0, r0
 33c:	00000034 	andeq	r0, r0, r4, lsr r0
 340:	87040e41 	strhi	r0, [r4, -r1, asr #28]
 344:	100e4101 	andne	r4, lr, r1, lsl #2
 348:	51070d41 	tstpl	r7, r1, asr #26
 34c:	0d41040e 	cfstrdeq	mvd0, [r1, #-56]	; 0xffffffc8
 350:	0ec7420d 	cdpeq	2, 12, cr4, cr7, cr13, {0}
 354:	00000000 	andeq	r0, r0, r0
 358:	0000001c 	andeq	r0, r0, ip, lsl r0
 35c:	00000228 	andeq	r0, r0, r8, lsr #4
 360:	00000000 	andeq	r0, r0, r0
 364:	00000034 	andeq	r0, r0, r4, lsr r0
 368:	87040e41 	strhi	r0, [r4, -r1, asr #28]
 36c:	070d4101 	streq	r4, [sp, -r1, lsl #2]
 370:	420d0d50 	andmi	r0, sp, #80, 26	; 0x1400
 374:	00000ec7 	andeq	r0, r0, r7, asr #29
 378:	00000020 	andeq	r0, r0, r0, lsr #32
 37c:	00000228 	andeq	r0, r0, r8, lsr #4
 380:	00000000 	andeq	r0, r0, r0
 384:	00000060 	andeq	r0, r0, r0, rrx
 388:	87080e41 	strhi	r0, [r8, -r1, asr #28]
 38c:	41018e02 	tstmi	r1, r2, lsl #28
 390:	0d41100e 	stcleq	0, cr1, [r1, #-56]	; 0xffffffc8
 394:	080e6707 	stmdaeq	lr, {r0, r1, r2, r8, r9, sl, sp, lr}
 398:	000d0d41 	andeq	r0, sp, r1, asr #26
 39c:	0000002c 	andeq	r0, r0, ip, lsr #32
 3a0:	00000228 	andeq	r0, r0, r8, lsr #4
 3a4:	00000000 	andeq	r0, r0, r0
 3a8:	00000060 	andeq	r0, r0, r0, rrx
 3ac:	41100e41 	tstmi	r0, r1, asr #28
 3b0:	0687180e 	streq	r1, [r7], lr, lsl #16
 3b4:	0e41058e 	cdpeq	5, 4, cr0, cr1, cr14, {4}
 3b8:	070c4128 	streq	r4, [ip, -r8, lsr #2]
 3bc:	180e6520 	stmdane	lr, {r5, r8, sl, sp, lr}
 3c0:	420d0d41 	andmi	r0, sp, #4160	; 0x1040
 3c4:	100ec7ce 	andne	ip, lr, lr, asr #15
 3c8:	00000e41 	andeq	r0, r0, r1, asr #28
 3cc:	0000002c 	andeq	r0, r0, ip, lsr #32
 3d0:	00000228 	andeq	r0, r0, r8, lsr #4
 3d4:	00000000 	andeq	r0, r0, r0
 3d8:	00000064 	andeq	r0, r0, r4, rrx
 3dc:	41100e41 	tstmi	r0, r1, asr #28
 3e0:	0687180e 	streq	r1, [r7], lr, lsl #16
 3e4:	0e41058e 	cdpeq	5, 4, cr0, cr1, cr14, {4}
 3e8:	070c4130 	smladxeq	ip, r0, r1, r4
 3ec:	180e6728 	stmdane	lr, {r3, r5, r8, r9, sl, sp, lr}
 3f0:	420d0d41 	andmi	r0, sp, #4160	; 0x1040
 3f4:	100ec7ce 	andne	ip, lr, lr, asr #15
 3f8:	00000e41 	andeq	r0, r0, r1, asr #28
 3fc:	0000002c 	andeq	r0, r0, ip, lsr #32
 400:	00000228 	andeq	r0, r0, r8, lsr #4
 404:	00000000 	andeq	r0, r0, r0
 408:	00000140 	andeq	r0, r0, r0, asr #2
 40c:	41080e41 	tstmi	r8, r1, asr #28
 410:	0484100e 	streq	r1, [r4], #14
 414:	0e410387 	cdpeq	3, 4, cr0, cr1, cr7, {4}
 418:	070d4130 	smladxeq	sp, r0, r1, r4
 41c:	100e8902 	andne	r8, lr, r2, lsl #18
 420:	410d0d41 	tstmi	sp, r1, asr #26
 424:	080ec4c7 	stmdaeq	lr, {r0, r1, r2, r6, r7, sl, lr, pc}
 428:	00000e41 	andeq	r0, r0, r1, asr #28
 42c:	00000024 	andeq	r0, r0, r4, lsr #32
 430:	00000228 	andeq	r0, r0, r8, lsr #4
 434:	00000000 	andeq	r0, r0, r0
 438:	00000074 	andeq	r0, r0, r4, ror r0
 43c:	87040e41 	strhi	r0, [r4, -r1, asr #28]
 440:	180e4101 	stmdane	lr, {r0, r8, lr}
 444:	70070d41 	andvc	r0, r7, r1, asr #26
 448:	0d41040e 	cfstrdeq	mvd0, [r1, #-56]	; 0xffffffc8
 44c:	0ec7420d 	cdpeq	2, 12, cr4, cr7, cr13, {0}
 450:	00000000 	andeq	r0, r0, r0
 454:	00000024 	andeq	r0, r0, r4, lsr #32
 458:	00000228 	andeq	r0, r0, r8, lsr #4
 45c:	00000a94 	muleq	r0, r4, sl
 460:	0000006c 	andeq	r0, r0, ip, rrx
 464:	87040e41 	strhi	r0, [r4, -r1, asr #28]
 468:	180e4101 	stmdane	lr, {r0, r8, lr}
 46c:	6c070d41 	stcvs	13, cr0, [r7], {65}	; 0x41
 470:	0d41040e 	cfstrdeq	mvd0, [r1, #-56]	; 0xffffffc8
 474:	0ec7420d 	cdpeq	2, 12, cr4, cr7, cr13, {0}
 478:	00000000 	andeq	r0, r0, r0
 47c:	00000020 	andeq	r0, r0, r0, lsr #32
 480:	00000228 	andeq	r0, r0, r8, lsr #4
 484:	00000b00 	andeq	r0, r0, r0, lsl #22
 488:	00000058 	andeq	r0, r0, r8, asr r0
 48c:	87080e41 	strhi	r0, [r8, -r1, asr #28]
 490:	41018e02 	tstmi	r1, r2, lsl #28
 494:	0d41180e 	stcleq	8, cr1, [r1, #-56]	; 0xffffffc8
 498:	080e6707 	stmdaeq	lr, {r0, r1, r2, r8, r9, sl, sp, lr}
 49c:	000d0d41 	andeq	r0, sp, r1, asr #26
 4a0:	00000020 	andeq	r0, r0, r0, lsr #32
 4a4:	00000228 	andeq	r0, r0, r8, lsr #4
 4a8:	00000000 	andeq	r0, r0, r0
 4ac:	00000058 	andeq	r0, r0, r8, asr r0
 4b0:	87080e41 	strhi	r0, [r8, -r1, asr #28]
 4b4:	41018e02 	tstmi	r1, r2, lsl #28
 4b8:	0d41180e 	stcleq	8, cr1, [r1, #-56]	; 0xffffffc8
 4bc:	080e6707 	stmdaeq	lr, {r0, r1, r2, r8, r9, sl, sp, lr}
 4c0:	000d0d41 	andeq	r0, sp, r1, asr #26
 4c4:	00000020 	andeq	r0, r0, r0, lsr #32
 4c8:	00000228 	andeq	r0, r0, r8, lsr #4
 4cc:	00000000 	andeq	r0, r0, r0
 4d0:	0000002a 	andeq	r0, r0, sl, lsr #32
 4d4:	87080e41 	strhi	r0, [r8, -r1, asr #28]
 4d8:	41018e02 	tstmi	r1, r2, lsl #28
 4dc:	0d41100e 	stcleq	0, cr1, [r1, #-56]	; 0xffffffc8
 4e0:	080e5007 	stmdaeq	lr, {r0, r1, r2, ip, lr}
 4e4:	000d0d41 	andeq	r0, sp, r1, asr #26
 4e8:	00000024 	andeq	r0, r0, r4, lsr #32
 4ec:	00000228 	andeq	r0, r0, r8, lsr #4
 4f0:	00000b58 	andeq	r0, r0, r8, asr fp
 4f4:	00000044 	andeq	r0, r0, r4, asr #32
 4f8:	87040e41 	strhi	r0, [r4, -r1, asr #28]
 4fc:	100e4101 	andne	r4, lr, r1, lsl #2
 500:	54070d41 	strpl	r0, [r7], #-3393	; 0xfffff2bf
 504:	0d41040e 	cfstrdeq	mvd0, [r1, #-56]	; 0xffffffc8
 508:	0ec7420d 	cdpeq	2, 12, cr4, cr7, cr13, {0}
 50c:	00000000 	andeq	r0, r0, r0
 510:	00000024 	andeq	r0, r0, r4, lsr #32
 514:	00000228 	andeq	r0, r0, r8, lsr #4
 518:	00000b9c 	muleq	r0, ip, fp
 51c:	00000040 	andeq	r0, r0, r0, asr #32
 520:	87040e41 	strhi	r0, [r4, -r1, asr #28]
 524:	180e4101 	stmdane	lr, {r0, r8, lr}
 528:	54070d41 	strpl	r0, [r7], #-3393	; 0xfffff2bf
 52c:	0d41040e 	cfstrdeq	mvd0, [r1, #-56]	; 0xffffffc8
 530:	0ec7420d 	cdpeq	2, 12, cr4, cr7, cr13, {0}
 534:	00000000 	andeq	r0, r0, r0
 538:	0000000c 	andeq	r0, r0, ip
 53c:	ffffffff 			; <UNDEFINED> instruction: 0xffffffff
 540:	7c020001 	stcvc	0, cr0, [r2], {1}
 544:	000d0c0e 	andeq	r0, sp, lr, lsl #24
 548:	00000018 	andeq	r0, r0, r8, lsl r0
 54c:	00000538 	andeq	r0, r0, r8, lsr r5
 550:	00000bdc 	ldrdeq	r0, [r0], -ip
 554:	0000001c 	andeq	r0, r0, ip, lsl r0
 558:	87080e41 	strhi	r0, [r8, -r1, asr #28]
 55c:	41018e02 	tstmi	r1, r2, lsl #28
 560:	0000070d 	andeq	r0, r0, sp, lsl #14
 564:	00000018 	andeq	r0, r0, r8, lsl r0
 568:	00000538 	andeq	r0, r0, r8, lsr r5
 56c:	00000000 	andeq	r0, r0, r0
 570:	0000000c 	andeq	r0, r0, ip
 574:	87080e41 	strhi	r0, [r8, -r1, asr #28]
 578:	41018e02 	tstmi	r1, r2, lsl #28
 57c:	0000070d 	andeq	r0, r0, sp, lsl #14
 580:	00000018 	andeq	r0, r0, r8, lsl r0
 584:	00000538 	andeq	r0, r0, r8, lsr r5
 588:	00000000 	andeq	r0, r0, r0
 58c:	0000000c 	andeq	r0, r0, ip
 590:	87080e41 	strhi	r0, [r8, -r1, asr #28]
 594:	41018e02 	tstmi	r1, r2, lsl #28
 598:	0000070d 	andeq	r0, r0, sp, lsl #14
 59c:	00000020 	andeq	r0, r0, r0, lsr #32
 5a0:	00000538 	andeq	r0, r0, r8, lsr r5
 5a4:	00000bf8 	strdeq	r0, [r0], -r8
 5a8:	0000008c 	andeq	r0, r0, ip, lsl #1
 5ac:	87080e41 	strhi	r0, [r8, -r1, asr #28]
 5b0:	41018e02 	tstmi	r1, r2, lsl #28
 5b4:	0d41580e 	stcleq	8, cr5, [r1, #-56]	; 0xffffffc8
 5b8:	080e7d07 	stmdaeq	lr, {r0, r1, r2, r8, sl, fp, ip, sp, lr}
 5bc:	000d0d41 	andeq	r0, sp, r1, asr #26
