
main.axf:     file format elf32-littlearm


Disassembly of section .text:

00000000 <g_pfnVectors>:
       0:	20000100 	andcs	r0, r0, r0, lsl #2
       4:	0000026d 	andeq	r0, r0, sp, ror #4
       8:	000002d9 	ldrdeq	r0, [r0], -r9
       c:	000002df 	ldrdeq	r0, [r0], -pc	; <UNPREDICTABLE>
      10:	000002e5 	andeq	r0, r0, r5, ror #5
      14:	000002e5 	andeq	r0, r0, r5, ror #5
      18:	000002e5 	andeq	r0, r0, r5, ror #5
	...
      2c:	000002e5 	andeq	r0, r0, r5, ror #5
      30:	000002e5 	andeq	r0, r0, r5, ror #5
      34:	00000000 	andeq	r0, r0, r0
      38:	000002e5 	andeq	r0, r0, r5, ror #5
      3c:	000002e5 	andeq	r0, r0, r5, ror #5
      40:	000002e5 	andeq	r0, r0, r5, ror #5
      44:	000002e5 	andeq	r0, r0, r5, ror #5
      48:	000002e5 	andeq	r0, r0, r5, ror #5
      4c:	000002e5 	andeq	r0, r0, r5, ror #5
      50:	000002e5 	andeq	r0, r0, r5, ror #5
      54:	00000301 	andeq	r0, r0, r1, lsl #6
      58:	000002e5 	andeq	r0, r0, r5, ror #5
      5c:	000002e5 	andeq	r0, r0, r5, ror #5
      60:	000002e5 	andeq	r0, r0, r5, ror #5
      64:	000002e5 	andeq	r0, r0, r5, ror #5
      68:	000002e5 	andeq	r0, r0, r5, ror #5
      6c:	000002e5 	andeq	r0, r0, r5, ror #5
      70:	000002e5 	andeq	r0, r0, r5, ror #5
      74:	000002e5 	andeq	r0, r0, r5, ror #5
      78:	000002e5 	andeq	r0, r0, r5, ror #5
      7c:	000002e5 	andeq	r0, r0, r5, ror #5
      80:	000002e5 	andeq	r0, r0, r5, ror #5
      84:	000002e5 	andeq	r0, r0, r5, ror #5
      88:	000002e5 	andeq	r0, r0, r5, ror #5
      8c:	000002e5 	andeq	r0, r0, r5, ror #5
      90:	000002e5 	andeq	r0, r0, r5, ror #5
      94:	000002e5 	andeq	r0, r0, r5, ror #5
      98:	000002e5 	andeq	r0, r0, r5, ror #5
      9c:	000002e5 	andeq	r0, r0, r5, ror #5
      a0:	000002e5 	andeq	r0, r0, r5, ror #5
      a4:	000002e5 	andeq	r0, r0, r5, ror #5
      a8:	000002e5 	andeq	r0, r0, r5, ror #5
      ac:	000002e5 	andeq	r0, r0, r5, ror #5
      b0:	000002e5 	andeq	r0, r0, r5, ror #5
      b4:	000002e5 	andeq	r0, r0, r5, ror #5
      b8:	000002e5 	andeq	r0, r0, r5, ror #5
      bc:	000002e5 	andeq	r0, r0, r5, ror #5
      c0:	000002e5 	andeq	r0, r0, r5, ror #5
      c4:	000002e5 	andeq	r0, r0, r5, ror #5
      c8:	000002e5 	andeq	r0, r0, r5, ror #5
      cc:	000002e5 	andeq	r0, r0, r5, ror #5
      d0:	000002e5 	andeq	r0, r0, r5, ror #5
      d4:	000002e5 	andeq	r0, r0, r5, ror #5
      d8:	000002e5 	andeq	r0, r0, r5, ror #5
      dc:	000002e5 	andeq	r0, r0, r5, ror #5
      e0:	000002e5 	andeq	r0, r0, r5, ror #5
      e4:	000002e5 	andeq	r0, r0, r5, ror #5
      e8:	000002e5 	andeq	r0, r0, r5, ror #5
      ec:	000002e5 	andeq	r0, r0, r5, ror #5
      f0:	00000bf9 	strdeq	r0, [r0], -r9
      f4:	000002e5 	andeq	r0, r0, r5, ror #5
      f8:	000002e5 	andeq	r0, r0, r5, ror #5
      fc:	000002e5 	andeq	r0, r0, r5, ror #5
     100:	000002e5 	andeq	r0, r0, r5, ror #5
     104:	000002e5 	andeq	r0, r0, r5, ror #5
     108:	000002e5 	andeq	r0, r0, r5, ror #5
     10c:	000002e5 	andeq	r0, r0, r5, ror #5
     110:	000002e5 	andeq	r0, r0, r5, ror #5
     114:	000002e5 	andeq	r0, r0, r5, ror #5
     118:	000002e5 	andeq	r0, r0, r5, ror #5
     11c:	000002e5 	andeq	r0, r0, r5, ror #5
     120:	000002e5 	andeq	r0, r0, r5, ror #5
     124:	000002e5 	andeq	r0, r0, r5, ror #5
     128:	000002e5 	andeq	r0, r0, r5, ror #5
     12c:	000002e5 	andeq	r0, r0, r5, ror #5
     130:	000002e5 	andeq	r0, r0, r5, ror #5
     134:	000002e5 	andeq	r0, r0, r5, ror #5
     138:	000002e5 	andeq	r0, r0, r5, ror #5
     13c:	000002e5 	andeq	r0, r0, r5, ror #5
	...
     150:	000002e5 	andeq	r0, r0, r5, ror #5
     154:	000002e5 	andeq	r0, r0, r5, ror #5
     158:	000002e5 	andeq	r0, r0, r5, ror #5
     15c:	000002e5 	andeq	r0, r0, r5, ror #5
	...
     1b0:	000002e5 	andeq	r0, r0, r5, ror #5
     1b4:	000002e5 	andeq	r0, r0, r5, ror #5
     1b8:	000002e5 	andeq	r0, r0, r5, ror #5
     1bc:	000002e5 	andeq	r0, r0, r5, ror #5
     1c0:	000002e5 	andeq	r0, r0, r5, ror #5
     1c4:	000002e5 	andeq	r0, r0, r5, ror #5
     1c8:	000002e5 	andeq	r0, r0, r5, ror #5
     1cc:	000002e5 	andeq	r0, r0, r5, ror #5
     1d0:	000002e5 	andeq	r0, r0, r5, ror #5
     1d4:	000002e5 	andeq	r0, r0, r5, ror #5
     1d8:	000002e5 	andeq	r0, r0, r5, ror #5
     1dc:	000002e5 	andeq	r0, r0, r5, ror #5
     1e0:	000002e5 	andeq	r0, r0, r5, ror #5
     1e4:	000002e5 	andeq	r0, r0, r5, ror #5
     1e8:	000002e5 	andeq	r0, r0, r5, ror #5
     1ec:	000002e5 	andeq	r0, r0, r5, ror #5
     1f0:	000002e5 	andeq	r0, r0, r5, ror #5
     1f4:	000002e5 	andeq	r0, r0, r5, ror #5
     1f8:	000002e5 	andeq	r0, r0, r5, ror #5
     1fc:	000002e5 	andeq	r0, r0, r5, ror #5
     200:	000002e5 	andeq	r0, r0, r5, ror #5
     204:	000002e5 	andeq	r0, r0, r5, ror #5
     208:	000002e5 	andeq	r0, r0, r5, ror #5
     20c:	00000000 	andeq	r0, r0, r0
     210:	000002e5 	andeq	r0, r0, r5, ror #5
     214:	000002e5 	andeq	r0, r0, r5, ror #5
     218:	000002e5 	andeq	r0, r0, r5, ror #5
     21c:	000002e5 	andeq	r0, r0, r5, ror #5
     220:	000002e5 	andeq	r0, r0, r5, ror #5
     224:	000002e5 	andeq	r0, r0, r5, ror #5
     228:	000002e5 	andeq	r0, r0, r5, ror #5
     22c:	000002e5 	andeq	r0, r0, r5, ror #5
     230:	000002e5 	andeq	r0, r0, r5, ror #5
     234:	000002e5 	andeq	r0, r0, r5, ror #5
     238:	000002e5 	andeq	r0, r0, r5, ror #5
     23c:	000002e5 	andeq	r0, r0, r5, ror #5
     240:	000002e5 	andeq	r0, r0, r5, ror #5
     244:	000002e5 	andeq	r0, r0, r5, ror #5
     248:	000002e5 	andeq	r0, r0, r5, ror #5
     24c:	000002e5 	andeq	r0, r0, r5, ror #5
     250:	000002e5 	andeq	r0, r0, r5, ror #5
     254:	000002e5 	andeq	r0, r0, r5, ror #5
     258:	000002e5 	andeq	r0, r0, r5, ror #5
     25c:	000002e5 	andeq	r0, r0, r5, ror #5
     260:	000002e5 	andeq	r0, r0, r5, ror #5
     264:	000002e5 	andeq	r0, r0, r5, ror #5
     268:	000002e5 	andeq	r0, r0, r5, ror #5

0000026c <ResetISR>:
     26c:	b580      	push	{r7, lr}
     26e:	b082      	sub	sp, #8
     270:	af00      	add	r7, sp, #0
     272:	4b13      	ldr	r3, [pc, #76]	; (2c0 <zero_loop+0x24>)
     274:	607b      	str	r3, [r7, #4]
     276:	4b13      	ldr	r3, [pc, #76]	; (2c4 <zero_loop+0x28>)
     278:	603b      	str	r3, [r7, #0]
     27a:	e007      	b.n	28c <ResetISR+0x20>
     27c:	687a      	ldr	r2, [r7, #4]
     27e:	1d13      	adds	r3, r2, #4
     280:	607b      	str	r3, [r7, #4]
     282:	683b      	ldr	r3, [r7, #0]
     284:	1d19      	adds	r1, r3, #4
     286:	6039      	str	r1, [r7, #0]
     288:	6812      	ldr	r2, [r2, #0]
     28a:	601a      	str	r2, [r3, #0]
     28c:	683b      	ldr	r3, [r7, #0]
     28e:	4a0e      	ldr	r2, [pc, #56]	; (2c8 <zero_loop+0x2c>)
     290:	4293      	cmp	r3, r2
     292:	d3f3      	bcc.n	27c <ResetISR+0x10>
     294:	480e      	ldr	r0, [pc, #56]	; (2d0 <zero_loop+0x34>)
     296:	490f      	ldr	r1, [pc, #60]	; (2d4 <zero_loop+0x38>)
     298:	f04f 0200 	mov.w	r2, #0

0000029c <zero_loop>:
     29c:	4288      	cmp	r0, r1
     29e:	bfb8      	it	lt
     2a0:	f840 2b04 	strlt.w	r2, [r0], #4
     2a4:	dbfa      	blt.n	29c <zero_loop>
     2a6:	4b09      	ldr	r3, [pc, #36]	; (2cc <zero_loop+0x30>)
     2a8:	681b      	ldr	r3, [r3, #0]
     2aa:	4a08      	ldr	r2, [pc, #32]	; (2cc <zero_loop+0x30>)
     2ac:	f443 0370 	orr.w	r3, r3, #15728640	; 0xf00000
     2b0:	6013      	str	r3, [r2, #0]
     2b2:	f000 f855 	bl	360 <main>
     2b6:	bf00      	nop
     2b8:	3708      	adds	r7, #8
     2ba:	46bd      	mov	sp, r7
     2bc:	bd80      	pop	{r7, pc}
     2be:	bf00      	nop
     2c0:	00001130 	andeq	r1, r0, r0, lsr r1
     2c4:	20000000 	andcs	r0, r0, r0
     2c8:	20000000 	andcs	r0, r0, r0
     2cc:	e000ed88 	and	lr, r0, r8, lsl #27
     2d0:	20000000 	andcs	r0, r0, r0
     2d4:	20000104 	andcs	r0, r0, r4, lsl #2

000002d8 <NmiSR>:
     2d8:	b480      	push	{r7}
     2da:	af00      	add	r7, sp, #0
     2dc:	e7fe      	b.n	2dc <NmiSR+0x4>

000002de <FaultISR>:
     2de:	b480      	push	{r7}
     2e0:	af00      	add	r7, sp, #0
     2e2:	e7fe      	b.n	2e2 <FaultISR+0x4>

000002e4 <IntDefaultHandler>:
     2e4:	b480      	push	{r7}
     2e6:	af00      	add	r7, sp, #0
     2e8:	e7fe      	b.n	2e8 <IntDefaultHandler+0x4>

000002ea <__error__>:
     2ea:	b480      	push	{r7}
     2ec:	b083      	sub	sp, #12
     2ee:	af00      	add	r7, sp, #0
     2f0:	6078      	str	r0, [r7, #4]
     2f2:	6039      	str	r1, [r7, #0]
     2f4:	bf00      	nop
     2f6:	370c      	adds	r7, #12
     2f8:	46bd      	mov	sp, r7
     2fa:	f85d 7b04 	ldr.w	r7, [sp], #4
     2fe:	4770      	bx	lr

00000300 <UART0IntHandler>:
     300:	b480      	push	{r7}
     302:	af00      	add	r7, sp, #0
     304:	bf00      	nop
     306:	46bd      	mov	sp, r7
     308:	f85d 7b04 	ldr.w	r7, [sp], #4
     30c:	4770      	bx	lr
	...

00000310 <InitConsole>:
     310:	b580      	push	{r7, lr}
     312:	af00      	add	r7, sp, #0
     314:	480e      	ldr	r0, [pc, #56]	; (350 <InitConsole+0x40>)
     316:	f000 fdaf 	bl	e78 <SysCtlPeripheralEnable>
     31a:	2001      	movs	r0, #1
     31c:	f000 fd78 	bl	e10 <GPIOPinConfigure>
     320:	f240 4001 	movw	r0, #1025	; 0x401
     324:	f000 fd74 	bl	e10 <GPIOPinConfigure>
     328:	480a      	ldr	r0, [pc, #40]	; (354 <InitConsole+0x44>)
     32a:	f000 fda5 	bl	e78 <SysCtlPeripheralEnable>
     32e:	2100      	movs	r1, #0
     330:	4809      	ldr	r0, [pc, #36]	; (358 <InitConsole+0x48>)
     332:	f000 fe74 	bl	101e <UARTClockSourceSet>
     336:	2103      	movs	r1, #3
     338:	f04f 2040 	mov.w	r0, #1073758208	; 0x40004000
     33c:	f000 fd66 	bl	e0c <GPIOPinTypeUART>
     340:	4a06      	ldr	r2, [pc, #24]	; (35c <InitConsole+0x4c>)
     342:	f44f 31e1 	mov.w	r1, #115200	; 0x1c200
     346:	2000      	movs	r0, #0
     348:	f000 f826 	bl	398 <UARTStdioConfig>
     34c:	bf00      	nop
     34e:	bd80      	pop	{r7, pc}
     350:	f0000800 			; <UNDEFINED> instruction: 0xf0000800
     354:	f0001800 			; <UNDEFINED> instruction: 0xf0001800
     358:	4000c000 	andmi	ip, r0, r0
     35c:	02faf080 	rscseq	pc, sl, #128	; 0x80

00000360 <main>:
     360:	b580      	push	{r7, lr}
     362:	b082      	sub	sp, #8
     364:	af00      	add	r7, sp, #0
     366:	2300      	movs	r3, #0
     368:	607b      	str	r3, [r7, #4]
     36a:	2300      	movs	r3, #0
     36c:	603b      	str	r3, [r7, #0]
     36e:	4807      	ldr	r0, [pc, #28]	; (38c <main+0x2c>)
     370:	f000 fd96 	bl	ea0 <SysCtlClockSet>
     374:	f7ff ffcc 	bl	310 <InitConsole>
     378:	4805      	ldr	r0, [pc, #20]	; (390 <main+0x30>)
     37a:	f000 faa1 	bl	8c0 <UARTprintf>
     37e:	f000 fc2d 	bl	bdc <USBInit>
     382:	4804      	ldr	r0, [pc, #16]	; (394 <main+0x34>)
     384:	f000 fa9c 	bl	8c0 <UARTprintf>
     388:	e7fe      	b.n	388 <main+0x28>
     38a:	bf00      	nop
     38c:	01c00540 	biceq	r0, r0, r0, asr #10
     390:	00001024 	andeq	r1, r0, r4, lsr #32
     394:	0000102c 	andeq	r1, r0, ip, lsr #32

00000398 <UARTStdioConfig>:
     398:	b580      	push	{r7, lr}
     39a:	b084      	sub	sp, #16
     39c:	af00      	add	r7, sp, #0
     39e:	60f8      	str	r0, [r7, #12]
     3a0:	60b9      	str	r1, [r7, #8]
     3a2:	607a      	str	r2, [r7, #4]
     3a4:	68fb      	ldr	r3, [r7, #12]
     3a6:	2b00      	cmp	r3, #0
     3a8:	d00a      	beq.n	3c0 <UARTStdioConfig+0x28>
     3aa:	68fb      	ldr	r3, [r7, #12]
     3ac:	2b01      	cmp	r3, #1
     3ae:	d007      	beq.n	3c0 <UARTStdioConfig+0x28>
     3b0:	68fb      	ldr	r3, [r7, #12]
     3b2:	2b02      	cmp	r3, #2
     3b4:	d004      	beq.n	3c0 <UARTStdioConfig+0x28>
     3b6:	f240 1153 	movw	r1, #339	; 0x153
     3ba:	4817      	ldr	r0, [pc, #92]	; (418 <UARTStdioConfig+0x80>)
     3bc:	f7ff ff95 	bl	2ea <__error__>
     3c0:	4a16      	ldr	r2, [pc, #88]	; (41c <UARTStdioConfig+0x84>)
     3c2:	68fb      	ldr	r3, [r7, #12]
     3c4:	f852 3023 	ldr.w	r3, [r2, r3, lsl #2]
     3c8:	4618      	mov	r0, r3
     3ca:	f000 fd43 	bl	e54 <SysCtlPeripheralPresent>
     3ce:	4603      	mov	r3, r0
     3d0:	f083 0301 	eor.w	r3, r3, #1
     3d4:	b2db      	uxtb	r3, r3
     3d6:	2b00      	cmp	r3, #0
     3d8:	d119      	bne.n	40e <UARTStdioConfig+0x76>
     3da:	4a11      	ldr	r2, [pc, #68]	; (420 <UARTStdioConfig+0x88>)
     3dc:	68fb      	ldr	r3, [r7, #12]
     3de:	f852 3023 	ldr.w	r3, [r2, r3, lsl #2]
     3e2:	4a10      	ldr	r2, [pc, #64]	; (424 <UARTStdioConfig+0x8c>)
     3e4:	6013      	str	r3, [r2, #0]
     3e6:	4a0d      	ldr	r2, [pc, #52]	; (41c <UARTStdioConfig+0x84>)
     3e8:	68fb      	ldr	r3, [r7, #12]
     3ea:	f852 3023 	ldr.w	r3, [r2, r3, lsl #2]
     3ee:	4618      	mov	r0, r3
     3f0:	f000 fd42 	bl	e78 <SysCtlPeripheralEnable>
     3f4:	4b0b      	ldr	r3, [pc, #44]	; (424 <UARTStdioConfig+0x8c>)
     3f6:	6818      	ldr	r0, [r3, #0]
     3f8:	2360      	movs	r3, #96	; 0x60
     3fa:	68ba      	ldr	r2, [r7, #8]
     3fc:	6879      	ldr	r1, [r7, #4]
     3fe:	f000 fde6 	bl	fce <UARTConfigSetExpClk>
     402:	4b08      	ldr	r3, [pc, #32]	; (424 <UARTStdioConfig+0x8c>)
     404:	681b      	ldr	r3, [r3, #0]
     406:	4618      	mov	r0, r3
     408:	f000 fdc8 	bl	f9c <UARTEnable>
     40c:	e000      	b.n	410 <UARTStdioConfig+0x78>
     40e:	bf00      	nop
     410:	3710      	adds	r7, #16
     412:	46bd      	mov	sp, r7
     414:	bd80      	pop	{r7, pc}
     416:	bf00      	nop
     418:	00001048 	andeq	r1, r0, r8, asr #32
     41c:	00001088 	andeq	r1, r0, r8, lsl #1
     420:	0000107c 	andeq	r1, r0, ip, ror r0
     424:	20000100 	andcs	r0, r0, r0, lsl #2

00000428 <UARTwrite>:
     428:	b580      	push	{r7, lr}
     42a:	b084      	sub	sp, #16
     42c:	af00      	add	r7, sp, #0
     42e:	6078      	str	r0, [r7, #4]
     430:	6039      	str	r1, [r7, #0]
     432:	4b1f      	ldr	r3, [pc, #124]	; (4b0 <UARTwrite+0x88>)
     434:	681b      	ldr	r3, [r3, #0]
     436:	2b00      	cmp	r3, #0
     438:	d104      	bne.n	444 <UARTwrite+0x1c>
     43a:	f240 2101 	movw	r1, #513	; 0x201
     43e:	481d      	ldr	r0, [pc, #116]	; (4b4 <UARTwrite+0x8c>)
     440:	f7ff ff53 	bl	2ea <__error__>
     444:	687b      	ldr	r3, [r7, #4]
     446:	2b00      	cmp	r3, #0
     448:	d104      	bne.n	454 <UARTwrite+0x2c>
     44a:	f240 2102 	movw	r1, #514	; 0x202
     44e:	4819      	ldr	r0, [pc, #100]	; (4b4 <UARTwrite+0x8c>)
     450:	f7ff ff4b 	bl	2ea <__error__>
     454:	2300      	movs	r3, #0
     456:	60fb      	str	r3, [r7, #12]
     458:	e01e      	b.n	498 <UARTwrite+0x70>
     45a:	687a      	ldr	r2, [r7, #4]
     45c:	68fb      	ldr	r3, [r7, #12]
     45e:	4413      	add	r3, r2
     460:	781b      	ldrb	r3, [r3, #0]
     462:	2b0a      	cmp	r3, #10
     464:	d106      	bne.n	474 <UARTwrite+0x4c>
     466:	4b12      	ldr	r3, [pc, #72]	; (4b0 <UARTwrite+0x88>)
     468:	681b      	ldr	r3, [r3, #0]
     46a:	210d      	movs	r1, #13
     46c:	4618      	mov	r0, r3
     46e:	f000 fdd1 	bl	1014 <UARTCharPut>
     472:	e005      	b.n	480 <UARTwrite+0x58>
     474:	687a      	ldr	r2, [r7, #4]
     476:	68fb      	ldr	r3, [r7, #12]
     478:	4413      	add	r3, r2
     47a:	781b      	ldrb	r3, [r3, #0]
     47c:	2b00      	cmp	r3, #0
     47e:	d010      	beq.n	4a2 <UARTwrite+0x7a>
     480:	4b0b      	ldr	r3, [pc, #44]	; (4b0 <UARTwrite+0x88>)
     482:	6818      	ldr	r0, [r3, #0]
     484:	687a      	ldr	r2, [r7, #4]
     486:	68fb      	ldr	r3, [r7, #12]
     488:	4413      	add	r3, r2
     48a:	781b      	ldrb	r3, [r3, #0]
     48c:	4619      	mov	r1, r3
     48e:	f000 fdc1 	bl	1014 <UARTCharPut>
     492:	68fb      	ldr	r3, [r7, #12]
     494:	3301      	adds	r3, #1
     496:	60fb      	str	r3, [r7, #12]
     498:	68fa      	ldr	r2, [r7, #12]
     49a:	683b      	ldr	r3, [r7, #0]
     49c:	429a      	cmp	r2, r3
     49e:	d3dc      	bcc.n	45a <UARTwrite+0x32>
     4a0:	e000      	b.n	4a4 <UARTwrite+0x7c>
     4a2:	bf00      	nop
     4a4:	68fb      	ldr	r3, [r7, #12]
     4a6:	4618      	mov	r0, r3
     4a8:	3710      	adds	r7, #16
     4aa:	46bd      	mov	sp, r7
     4ac:	bd80      	pop	{r7, pc}
     4ae:	bf00      	nop
     4b0:	20000100 	andcs	r0, r0, r0, lsl #2
     4b4:	00001048 	andeq	r1, r0, r8, asr #32

000004b8 <UARTvprintf>:
     4b8:	b580      	push	{r7, lr}
     4ba:	b08e      	sub	sp, #56	; 0x38
     4bc:	af00      	add	r7, sp, #0
     4be:	6078      	str	r0, [r7, #4]
     4c0:	6039      	str	r1, [r7, #0]
     4c2:	687b      	ldr	r3, [r7, #4]
     4c4:	2b00      	cmp	r3, #0
     4c6:	f040 81ed 	bne.w	8a4 <UARTvprintf+0x3ec>
     4ca:	f44f 715b 	mov.w	r1, #876	; 0x36c
     4ce:	48ae      	ldr	r0, [pc, #696]	; (788 <UARTvprintf+0x2d0>)
     4d0:	f7ff ff0b 	bl	2ea <__error__>
     4d4:	e1e6      	b.n	8a4 <UARTvprintf+0x3ec>
     4d6:	2300      	movs	r3, #0
     4d8:	637b      	str	r3, [r7, #52]	; 0x34
     4da:	e002      	b.n	4e2 <UARTvprintf+0x2a>
     4dc:	6b7b      	ldr	r3, [r7, #52]	; 0x34
     4de:	3301      	adds	r3, #1
     4e0:	637b      	str	r3, [r7, #52]	; 0x34
     4e2:	687a      	ldr	r2, [r7, #4]
     4e4:	6b7b      	ldr	r3, [r7, #52]	; 0x34
     4e6:	4413      	add	r3, r2
     4e8:	781b      	ldrb	r3, [r3, #0]
     4ea:	2b25      	cmp	r3, #37	; 0x25
     4ec:	d005      	beq.n	4fa <UARTvprintf+0x42>
     4ee:	687a      	ldr	r2, [r7, #4]
     4f0:	6b7b      	ldr	r3, [r7, #52]	; 0x34
     4f2:	4413      	add	r3, r2
     4f4:	781b      	ldrb	r3, [r3, #0]
     4f6:	2b00      	cmp	r3, #0
     4f8:	d1f0      	bne.n	4dc <UARTvprintf+0x24>
     4fa:	6b79      	ldr	r1, [r7, #52]	; 0x34
     4fc:	6878      	ldr	r0, [r7, #4]
     4fe:	f7ff ff93 	bl	428 <UARTwrite>
     502:	687a      	ldr	r2, [r7, #4]
     504:	6b7b      	ldr	r3, [r7, #52]	; 0x34
     506:	4413      	add	r3, r2
     508:	607b      	str	r3, [r7, #4]
     50a:	687b      	ldr	r3, [r7, #4]
     50c:	781b      	ldrb	r3, [r3, #0]
     50e:	2b25      	cmp	r3, #37	; 0x25
     510:	f040 81c7 	bne.w	8a2 <UARTvprintf+0x3ea>
     514:	687b      	ldr	r3, [r7, #4]
     516:	3301      	adds	r3, #1
     518:	607b      	str	r3, [r7, #4]
     51a:	2300      	movs	r3, #0
     51c:	62fb      	str	r3, [r7, #44]	; 0x2c
     51e:	2320      	movs	r3, #32
     520:	f887 3023 	strb.w	r3, [r7, #35]	; 0x23
     524:	687b      	ldr	r3, [r7, #4]
     526:	1c5a      	adds	r2, r3, #1
     528:	607a      	str	r2, [r7, #4]
     52a:	781b      	ldrb	r3, [r3, #0]
     52c:	3b25      	subs	r3, #37	; 0x25
     52e:	2b53      	cmp	r3, #83	; 0x53
     530:	f200 81b2 	bhi.w	898 <UARTvprintf+0x3e0>
     534:	a201      	add	r2, pc, #4	; (adr r2, 53c <UARTvprintf+0x84>)
     536:	f852 f023 	ldr.w	pc, [r2, r3, lsl #2]
     53a:	bf00      	nop
     53c:	0000088b 	andeq	r0, r0, fp, lsl #17
     540:	00000899 	muleq	r0, r9, r8
     544:	00000899 	muleq	r0, r9, r8
     548:	00000899 	muleq	r0, r9, r8
     54c:	00000899 	muleq	r0, r9, r8
     550:	00000899 	muleq	r0, r9, r8
     554:	00000899 	muleq	r0, r9, r8
     558:	00000899 	muleq	r0, r9, r8
     55c:	00000899 	muleq	r0, r9, r8
     560:	00000899 	muleq	r0, r9, r8
     564:	00000899 	muleq	r0, r9, r8
     568:	0000068d 	andeq	r0, r0, sp, lsl #13
     56c:	0000068d 	andeq	r0, r0, sp, lsl #13
     570:	0000068d 	andeq	r0, r0, sp, lsl #13
     574:	0000068d 	andeq	r0, r0, sp, lsl #13
     578:	0000068d 	andeq	r0, r0, sp, lsl #13
     57c:	0000068d 	andeq	r0, r0, sp, lsl #13
     580:	0000068d 	andeq	r0, r0, sp, lsl #13
     584:	0000068d 	andeq	r0, r0, sp, lsl #13
     588:	0000068d 	andeq	r0, r0, sp, lsl #13
     58c:	0000068d 	andeq	r0, r0, sp, lsl #13
     590:	00000899 	muleq	r0, r9, r8
     594:	00000899 	muleq	r0, r9, r8
     598:	00000899 	muleq	r0, r9, r8
     59c:	00000899 	muleq	r0, r9, r8
     5a0:	00000899 	muleq	r0, r9, r8
     5a4:	00000899 	muleq	r0, r9, r8
     5a8:	00000899 	muleq	r0, r9, r8
     5ac:	00000899 	muleq	r0, r9, r8
     5b0:	00000899 	muleq	r0, r9, r8
     5b4:	00000899 	muleq	r0, r9, r8
     5b8:	00000899 	muleq	r0, r9, r8
     5bc:	00000899 	muleq	r0, r9, r8
     5c0:	00000899 	muleq	r0, r9, r8
     5c4:	00000899 	muleq	r0, r9, r8
     5c8:	00000899 	muleq	r0, r9, r8
     5cc:	00000899 	muleq	r0, r9, r8
     5d0:	00000899 	muleq	r0, r9, r8
     5d4:	00000899 	muleq	r0, r9, r8
     5d8:	00000899 	muleq	r0, r9, r8
     5dc:	00000899 	muleq	r0, r9, r8
     5e0:	00000899 	muleq	r0, r9, r8
     5e4:	00000899 	muleq	r0, r9, r8
     5e8:	00000899 	muleq	r0, r9, r8
     5ec:	00000899 	muleq	r0, r9, r8
     5f0:	00000899 	muleq	r0, r9, r8
     5f4:	00000899 	muleq	r0, r9, r8
     5f8:	00000899 	muleq	r0, r9, r8
     5fc:	00000899 	muleq	r0, r9, r8
     600:	00000899 	muleq	r0, r9, r8
     604:	00000899 	muleq	r0, r9, r8
     608:	0000076d 	andeq	r0, r0, sp, ror #14
     60c:	00000899 	muleq	r0, r9, r8
     610:	00000899 	muleq	r0, r9, r8
     614:	00000899 	muleq	r0, r9, r8
     618:	00000899 	muleq	r0, r9, r8
     61c:	00000899 	muleq	r0, r9, r8
     620:	00000899 	muleq	r0, r9, r8
     624:	00000899 	muleq	r0, r9, r8
     628:	00000899 	muleq	r0, r9, r8
     62c:	00000899 	muleq	r0, r9, r8
     630:	00000899 	muleq	r0, r9, r8
     634:	000006c1 	andeq	r0, r0, r1, asr #13
     638:	000006d9 	ldrdeq	r0, [r0], -r9
     63c:	00000899 	muleq	r0, r9, r8
     640:	00000899 	muleq	r0, r9, r8
     644:	00000899 	muleq	r0, r9, r8
     648:	00000899 	muleq	r0, r9, r8
     64c:	000006d9 	ldrdeq	r0, [r0], -r9
     650:	00000899 	muleq	r0, r9, r8
     654:	00000899 	muleq	r0, r9, r8
     658:	00000899 	muleq	r0, r9, r8
     65c:	00000899 	muleq	r0, r9, r8
     660:	00000899 	muleq	r0, r9, r8
     664:	00000899 	muleq	r0, r9, r8
     668:	0000076d 	andeq	r0, r0, sp, ror #14
     66c:	00000899 	muleq	r0, r9, r8
     670:	00000899 	muleq	r0, r9, r8
     674:	00000703 	andeq	r0, r0, r3, lsl #14
     678:	00000899 	muleq	r0, r9, r8
     67c:	00000755 	andeq	r0, r0, r5, asr r7
     680:	00000899 	muleq	r0, r9, r8
     684:	00000899 	muleq	r0, r9, r8
     688:	0000076d 	andeq	r0, r0, sp, ror #14
     68c:	687b      	ldr	r3, [r7, #4]
     68e:	3b01      	subs	r3, #1
     690:	781b      	ldrb	r3, [r3, #0]
     692:	2b30      	cmp	r3, #48	; 0x30
     694:	d105      	bne.n	6a2 <UARTvprintf+0x1ea>
     696:	6afb      	ldr	r3, [r7, #44]	; 0x2c
     698:	2b00      	cmp	r3, #0
     69a:	d102      	bne.n	6a2 <UARTvprintf+0x1ea>
     69c:	2330      	movs	r3, #48	; 0x30
     69e:	f887 3023 	strb.w	r3, [r7, #35]	; 0x23
     6a2:	6afa      	ldr	r2, [r7, #44]	; 0x2c
     6a4:	4613      	mov	r3, r2
     6a6:	009b      	lsls	r3, r3, #2
     6a8:	4413      	add	r3, r2
     6aa:	005b      	lsls	r3, r3, #1
     6ac:	62fb      	str	r3, [r7, #44]	; 0x2c
     6ae:	687b      	ldr	r3, [r7, #4]
     6b0:	3b01      	subs	r3, #1
     6b2:	781b      	ldrb	r3, [r3, #0]
     6b4:	461a      	mov	r2, r3
     6b6:	6afb      	ldr	r3, [r7, #44]	; 0x2c
     6b8:	4413      	add	r3, r2
     6ba:	3b30      	subs	r3, #48	; 0x30
     6bc:	62fb      	str	r3, [r7, #44]	; 0x2c
     6be:	e731      	b.n	524 <UARTvprintf+0x6c>
     6c0:	683b      	ldr	r3, [r7, #0]
     6c2:	1d1a      	adds	r2, r3, #4
     6c4:	603a      	str	r2, [r7, #0]
     6c6:	681b      	ldr	r3, [r3, #0]
     6c8:	61bb      	str	r3, [r7, #24]
     6ca:	f107 0318 	add.w	r3, r7, #24
     6ce:	2101      	movs	r1, #1
     6d0:	4618      	mov	r0, r3
     6d2:	f7ff fea9 	bl	428 <UARTwrite>
     6d6:	e0e5      	b.n	8a4 <UARTvprintf+0x3ec>
     6d8:	683b      	ldr	r3, [r7, #0]
     6da:	1d1a      	adds	r2, r3, #4
     6dc:	603a      	str	r2, [r7, #0]
     6de:	681b      	ldr	r3, [r3, #0]
     6e0:	61bb      	str	r3, [r7, #24]
     6e2:	2300      	movs	r3, #0
     6e4:	633b      	str	r3, [r7, #48]	; 0x30
     6e6:	69bb      	ldr	r3, [r7, #24]
     6e8:	2b00      	cmp	r3, #0
     6ea:	da05      	bge.n	6f8 <UARTvprintf+0x240>
     6ec:	69bb      	ldr	r3, [r7, #24]
     6ee:	425b      	negs	r3, r3
     6f0:	61bb      	str	r3, [r7, #24]
     6f2:	2301      	movs	r3, #1
     6f4:	627b      	str	r3, [r7, #36]	; 0x24
     6f6:	e001      	b.n	6fc <UARTvprintf+0x244>
     6f8:	2300      	movs	r3, #0
     6fa:	627b      	str	r3, [r7, #36]	; 0x24
     6fc:	230a      	movs	r3, #10
     6fe:	62bb      	str	r3, [r7, #40]	; 0x28
     700:	e03f      	b.n	782 <UARTvprintf+0x2ca>
     702:	683b      	ldr	r3, [r7, #0]
     704:	1d1a      	adds	r2, r3, #4
     706:	603a      	str	r2, [r7, #0]
     708:	681b      	ldr	r3, [r3, #0]
     70a:	61fb      	str	r3, [r7, #28]
     70c:	2300      	movs	r3, #0
     70e:	637b      	str	r3, [r7, #52]	; 0x34
     710:	e002      	b.n	718 <UARTvprintf+0x260>
     712:	6b7b      	ldr	r3, [r7, #52]	; 0x34
     714:	3301      	adds	r3, #1
     716:	637b      	str	r3, [r7, #52]	; 0x34
     718:	69fa      	ldr	r2, [r7, #28]
     71a:	6b7b      	ldr	r3, [r7, #52]	; 0x34
     71c:	4413      	add	r3, r2
     71e:	781b      	ldrb	r3, [r3, #0]
     720:	2b00      	cmp	r3, #0
     722:	d1f6      	bne.n	712 <UARTvprintf+0x25a>
     724:	6b79      	ldr	r1, [r7, #52]	; 0x34
     726:	69f8      	ldr	r0, [r7, #28]
     728:	f7ff fe7e 	bl	428 <UARTwrite>
     72c:	6afa      	ldr	r2, [r7, #44]	; 0x2c
     72e:	6b7b      	ldr	r3, [r7, #52]	; 0x34
     730:	429a      	cmp	r2, r3
     732:	f240 80b7 	bls.w	8a4 <UARTvprintf+0x3ec>
     736:	6afa      	ldr	r2, [r7, #44]	; 0x2c
     738:	6b7b      	ldr	r3, [r7, #52]	; 0x34
     73a:	1ad3      	subs	r3, r2, r3
     73c:	62fb      	str	r3, [r7, #44]	; 0x2c
     73e:	e003      	b.n	748 <UARTvprintf+0x290>
     740:	2101      	movs	r1, #1
     742:	4812      	ldr	r0, [pc, #72]	; (78c <UARTvprintf+0x2d4>)
     744:	f7ff fe70 	bl	428 <UARTwrite>
     748:	6afb      	ldr	r3, [r7, #44]	; 0x2c
     74a:	1e5a      	subs	r2, r3, #1
     74c:	62fa      	str	r2, [r7, #44]	; 0x2c
     74e:	2b00      	cmp	r3, #0
     750:	d1f6      	bne.n	740 <UARTvprintf+0x288>
     752:	e0a7      	b.n	8a4 <UARTvprintf+0x3ec>
     754:	683b      	ldr	r3, [r7, #0]
     756:	1d1a      	adds	r2, r3, #4
     758:	603a      	str	r2, [r7, #0]
     75a:	681b      	ldr	r3, [r3, #0]
     75c:	61bb      	str	r3, [r7, #24]
     75e:	2300      	movs	r3, #0
     760:	633b      	str	r3, [r7, #48]	; 0x30
     762:	230a      	movs	r3, #10
     764:	62bb      	str	r3, [r7, #40]	; 0x28
     766:	2300      	movs	r3, #0
     768:	627b      	str	r3, [r7, #36]	; 0x24
     76a:	e00a      	b.n	782 <UARTvprintf+0x2ca>
     76c:	683b      	ldr	r3, [r7, #0]
     76e:	1d1a      	adds	r2, r3, #4
     770:	603a      	str	r2, [r7, #0]
     772:	681b      	ldr	r3, [r3, #0]
     774:	61bb      	str	r3, [r7, #24]
     776:	2300      	movs	r3, #0
     778:	633b      	str	r3, [r7, #48]	; 0x30
     77a:	2310      	movs	r3, #16
     77c:	62bb      	str	r3, [r7, #40]	; 0x28
     77e:	2300      	movs	r3, #0
     780:	627b      	str	r3, [r7, #36]	; 0x24
     782:	2301      	movs	r3, #1
     784:	637b      	str	r3, [r7, #52]	; 0x34
     786:	e00b      	b.n	7a0 <UARTvprintf+0x2e8>
     788:	00001048 	andeq	r1, r0, r8, asr #32
     78c:	00001070 	andeq	r1, r0, r0, ror r0
     790:	6b7b      	ldr	r3, [r7, #52]	; 0x34
     792:	6aba      	ldr	r2, [r7, #40]	; 0x28
     794:	fb02 f303 	mul.w	r3, r2, r3
     798:	637b      	str	r3, [r7, #52]	; 0x34
     79a:	6afb      	ldr	r3, [r7, #44]	; 0x2c
     79c:	3b01      	subs	r3, #1
     79e:	62fb      	str	r3, [r7, #44]	; 0x2c
     7a0:	6b7b      	ldr	r3, [r7, #52]	; 0x34
     7a2:	6aba      	ldr	r2, [r7, #40]	; 0x28
     7a4:	fb03 f202 	mul.w	r2, r3, r2
     7a8:	69bb      	ldr	r3, [r7, #24]
     7aa:	429a      	cmp	r2, r3
     7ac:	d809      	bhi.n	7c2 <UARTvprintf+0x30a>
     7ae:	6b7b      	ldr	r3, [r7, #52]	; 0x34
     7b0:	6aba      	ldr	r2, [r7, #40]	; 0x28
     7b2:	fb03 f202 	mul.w	r2, r3, r2
     7b6:	6abb      	ldr	r3, [r7, #40]	; 0x28
     7b8:	fbb2 f3f3 	udiv	r3, r2, r3
     7bc:	6b7a      	ldr	r2, [r7, #52]	; 0x34
     7be:	429a      	cmp	r2, r3
     7c0:	d0e6      	beq.n	790 <UARTvprintf+0x2d8>
     7c2:	6a7b      	ldr	r3, [r7, #36]	; 0x24
     7c4:	2b00      	cmp	r3, #0
     7c6:	d002      	beq.n	7ce <UARTvprintf+0x316>
     7c8:	6afb      	ldr	r3, [r7, #44]	; 0x2c
     7ca:	3b01      	subs	r3, #1
     7cc:	62fb      	str	r3, [r7, #44]	; 0x2c
     7ce:	6a7b      	ldr	r3, [r7, #36]	; 0x24
     7d0:	2b00      	cmp	r3, #0
     7d2:	d00e      	beq.n	7f2 <UARTvprintf+0x33a>
     7d4:	f897 3023 	ldrb.w	r3, [r7, #35]	; 0x23
     7d8:	2b30      	cmp	r3, #48	; 0x30
     7da:	d10a      	bne.n	7f2 <UARTvprintf+0x33a>
     7dc:	6b3b      	ldr	r3, [r7, #48]	; 0x30
     7de:	1c5a      	adds	r2, r3, #1
     7e0:	633a      	str	r2, [r7, #48]	; 0x30
     7e2:	f107 0238 	add.w	r2, r7, #56	; 0x38
     7e6:	4413      	add	r3, r2
     7e8:	222d      	movs	r2, #45	; 0x2d
     7ea:	f803 2c30 	strb.w	r2, [r3, #-48]
     7ee:	2300      	movs	r3, #0
     7f0:	627b      	str	r3, [r7, #36]	; 0x24
     7f2:	6afb      	ldr	r3, [r7, #44]	; 0x2c
     7f4:	2b01      	cmp	r3, #1
     7f6:	d916      	bls.n	826 <UARTvprintf+0x36e>
     7f8:	6afb      	ldr	r3, [r7, #44]	; 0x2c
     7fa:	2b0f      	cmp	r3, #15
     7fc:	d813      	bhi.n	826 <UARTvprintf+0x36e>
     7fe:	6afb      	ldr	r3, [r7, #44]	; 0x2c
     800:	3b01      	subs	r3, #1
     802:	62fb      	str	r3, [r7, #44]	; 0x2c
     804:	e00c      	b.n	820 <UARTvprintf+0x368>
     806:	6b3b      	ldr	r3, [r7, #48]	; 0x30
     808:	1c5a      	adds	r2, r3, #1
     80a:	633a      	str	r2, [r7, #48]	; 0x30
     80c:	f107 0238 	add.w	r2, r7, #56	; 0x38
     810:	4413      	add	r3, r2
     812:	f897 2023 	ldrb.w	r2, [r7, #35]	; 0x23
     816:	f803 2c30 	strb.w	r2, [r3, #-48]
     81a:	6afb      	ldr	r3, [r7, #44]	; 0x2c
     81c:	3b01      	subs	r3, #1
     81e:	62fb      	str	r3, [r7, #44]	; 0x2c
     820:	6afb      	ldr	r3, [r7, #44]	; 0x2c
     822:	2b00      	cmp	r3, #0
     824:	d1ef      	bne.n	806 <UARTvprintf+0x34e>
     826:	6a7b      	ldr	r3, [r7, #36]	; 0x24
     828:	2b00      	cmp	r3, #0
     82a:	d024      	beq.n	876 <UARTvprintf+0x3be>
     82c:	6b3b      	ldr	r3, [r7, #48]	; 0x30
     82e:	1c5a      	adds	r2, r3, #1
     830:	633a      	str	r2, [r7, #48]	; 0x30
     832:	f107 0238 	add.w	r2, r7, #56	; 0x38
     836:	4413      	add	r3, r2
     838:	222d      	movs	r2, #45	; 0x2d
     83a:	f803 2c30 	strb.w	r2, [r3, #-48]
     83e:	e01a      	b.n	876 <UARTvprintf+0x3be>
     840:	481d      	ldr	r0, [pc, #116]	; (8b8 <UARTvprintf+0x400>)
     842:	69ba      	ldr	r2, [r7, #24]
     844:	6b7b      	ldr	r3, [r7, #52]	; 0x34
     846:	fbb2 f3f3 	udiv	r3, r2, r3
     84a:	6aba      	ldr	r2, [r7, #40]	; 0x28
     84c:	fbb3 f2f2 	udiv	r2, r3, r2
     850:	6ab9      	ldr	r1, [r7, #40]	; 0x28
     852:	fb01 f202 	mul.w	r2, r1, r2
     856:	1a9b      	subs	r3, r3, r2
     858:	18c2      	adds	r2, r0, r3
     85a:	6b3b      	ldr	r3, [r7, #48]	; 0x30
     85c:	1c59      	adds	r1, r3, #1
     85e:	6339      	str	r1, [r7, #48]	; 0x30
     860:	7812      	ldrb	r2, [r2, #0]
     862:	f107 0138 	add.w	r1, r7, #56	; 0x38
     866:	440b      	add	r3, r1
     868:	f803 2c30 	strb.w	r2, [r3, #-48]
     86c:	6b7a      	ldr	r2, [r7, #52]	; 0x34
     86e:	6abb      	ldr	r3, [r7, #40]	; 0x28
     870:	fbb2 f3f3 	udiv	r3, r2, r3
     874:	637b      	str	r3, [r7, #52]	; 0x34
     876:	6b7b      	ldr	r3, [r7, #52]	; 0x34
     878:	2b00      	cmp	r3, #0
     87a:	d1e1      	bne.n	840 <UARTvprintf+0x388>
     87c:	f107 0308 	add.w	r3, r7, #8
     880:	6b39      	ldr	r1, [r7, #48]	; 0x30
     882:	4618      	mov	r0, r3
     884:	f7ff fdd0 	bl	428 <UARTwrite>
     888:	e00c      	b.n	8a4 <UARTvprintf+0x3ec>
     88a:	687b      	ldr	r3, [r7, #4]
     88c:	3b01      	subs	r3, #1
     88e:	2101      	movs	r1, #1
     890:	4618      	mov	r0, r3
     892:	f7ff fdc9 	bl	428 <UARTwrite>
     896:	e005      	b.n	8a4 <UARTvprintf+0x3ec>
     898:	2105      	movs	r1, #5
     89a:	4808      	ldr	r0, [pc, #32]	; (8bc <UARTvprintf+0x404>)
     89c:	f7ff fdc4 	bl	428 <UARTwrite>
     8a0:	e000      	b.n	8a4 <UARTvprintf+0x3ec>
     8a2:	bf00      	nop
     8a4:	687b      	ldr	r3, [r7, #4]
     8a6:	781b      	ldrb	r3, [r3, #0]
     8a8:	2b00      	cmp	r3, #0
     8aa:	f47f ae14 	bne.w	4d6 <UARTvprintf+0x1e>
     8ae:	bf00      	nop
     8b0:	bf00      	nop
     8b2:	3738      	adds	r7, #56	; 0x38
     8b4:	46bd      	mov	sp, r7
     8b6:	bd80      	pop	{r7, pc}
     8b8:	00001034 	andeq	r1, r0, r4, lsr r0
     8bc:	00001074 	andeq	r1, r0, r4, ror r0

000008c0 <UARTprintf>:
     8c0:	b40f      	push	{r0, r1, r2, r3}
     8c2:	b580      	push	{r7, lr}
     8c4:	b082      	sub	sp, #8
     8c6:	af00      	add	r7, sp, #0
     8c8:	f107 0314 	add.w	r3, r7, #20
     8cc:	607b      	str	r3, [r7, #4]
     8ce:	6879      	ldr	r1, [r7, #4]
     8d0:	6938      	ldr	r0, [r7, #16]
     8d2:	f7ff fdf1 	bl	4b8 <UARTvprintf>
     8d6:	bf00      	nop
     8d8:	3708      	adds	r7, #8
     8da:	46bd      	mov	sp, r7
     8dc:	e8bd 4080 	ldmia.w	sp!, {r7, lr}
     8e0:	b004      	add	sp, #16
     8e2:	4770      	bx	lr

000008e4 <USBPinInitialize>:
     8e4:	b480      	push	{r7}
     8e6:	af00      	add	r7, sp, #0
     8e8:	4b1a      	ldr	r3, [pc, #104]	; (954 <USBPinInitialize+0x70>)
     8ea:	681b      	ldr	r3, [r3, #0]
     8ec:	4a19      	ldr	r2, [pc, #100]	; (954 <USBPinInitialize+0x70>)
     8ee:	f043 0308 	orr.w	r3, r3, #8
     8f2:	6013      	str	r3, [r2, #0]
     8f4:	4b18      	ldr	r3, [pc, #96]	; (958 <USBPinInitialize+0x74>)
     8f6:	681b      	ldr	r3, [r3, #0]
     8f8:	4a17      	ldr	r2, [pc, #92]	; (958 <USBPinInitialize+0x74>)
     8fa:	f023 0330 	bic.w	r3, r3, #48	; 0x30
     8fe:	6013      	str	r3, [r2, #0]
     900:	4b16      	ldr	r3, [pc, #88]	; (95c <USBPinInitialize+0x78>)
     902:	681b      	ldr	r3, [r3, #0]
     904:	4a15      	ldr	r2, [pc, #84]	; (95c <USBPinInitialize+0x78>)
     906:	f043 0330 	orr.w	r3, r3, #48	; 0x30
     90a:	6013      	str	r3, [r2, #0]
     90c:	4b14      	ldr	r3, [pc, #80]	; (960 <USBPinInitialize+0x7c>)
     90e:	681b      	ldr	r3, [r3, #0]
     910:	4a13      	ldr	r2, [pc, #76]	; (960 <USBPinInitialize+0x7c>)
     912:	f423 037f 	bic.w	r3, r3, #16711680	; 0xff0000
     916:	6013      	str	r3, [r2, #0]
     918:	4b12      	ldr	r3, [pc, #72]	; (964 <USBPinInitialize+0x80>)
     91a:	681b      	ldr	r3, [r3, #0]
     91c:	4a11      	ldr	r2, [pc, #68]	; (964 <USBPinInitialize+0x80>)
     91e:	f043 0330 	orr.w	r3, r3, #48	; 0x30
     922:	6013      	str	r3, [r2, #0]
     924:	4b10      	ldr	r3, [pc, #64]	; (968 <USBPinInitialize+0x84>)
     926:	681b      	ldr	r3, [r3, #0]
     928:	4a0f      	ldr	r2, [pc, #60]	; (968 <USBPinInitialize+0x84>)
     92a:	f023 0330 	bic.w	r3, r3, #48	; 0x30
     92e:	6013      	str	r3, [r2, #0]
     930:	4b0e      	ldr	r3, [pc, #56]	; (96c <USBPinInitialize+0x88>)
     932:	681b      	ldr	r3, [r3, #0]
     934:	4a0d      	ldr	r2, [pc, #52]	; (96c <USBPinInitialize+0x88>)
     936:	f023 0330 	bic.w	r3, r3, #48	; 0x30
     93a:	6013      	str	r3, [r2, #0]
     93c:	4b0c      	ldr	r3, [pc, #48]	; (970 <USBPinInitialize+0x8c>)
     93e:	681b      	ldr	r3, [r3, #0]
     940:	4a0b      	ldr	r2, [pc, #44]	; (970 <USBPinInitialize+0x8c>)
     942:	f043 0330 	orr.w	r3, r3, #48	; 0x30
     946:	6013      	str	r3, [r2, #0]
     948:	bf00      	nop
     94a:	46bd      	mov	sp, r7
     94c:	f85d 7b04 	ldr.w	r7, [sp], #4
     950:	4770      	bx	lr
     952:	bf00      	nop
     954:	400fe608 	andmi	lr, pc, r8, lsl #12
     958:	40007400 	andmi	r7, r0, r0, lsl #8
     95c:	40007420 	andmi	r7, r0, r0, lsr #8
     960:	4000752c 	andmi	r7, r0, ip, lsr #10
     964:	40007500 	andmi	r7, r0, r0, lsl #10
     968:	40007504 	andmi	r7, r0, r4, lsl #10
     96c:	4000750c 	andmi	r7, r0, ip, lsl #10
     970:	40007528 	andmi	r7, r0, r8, lsr #10

00000974 <USBBusConnect>:
     974:	b480      	push	{r7}
     976:	af00      	add	r7, sp, #0
     978:	4b05      	ldr	r3, [pc, #20]	; (990 <USBBusConnect+0x1c>)
     97a:	781b      	ldrb	r3, [r3, #0]
     97c:	4a04      	ldr	r2, [pc, #16]	; (990 <USBBusConnect+0x1c>)
     97e:	f043 0340 	orr.w	r3, r3, #64	; 0x40
     982:	b2db      	uxtb	r3, r3
     984:	7013      	strb	r3, [r2, #0]
     986:	bf00      	nop
     988:	46bd      	mov	sp, r7
     98a:	f85d 7b04 	ldr.w	r7, [sp], #4
     98e:	4770      	bx	lr
     990:	40050001 	andmi	r0, r5, r1

00000994 <EndpointInitialize>:
     994:	b480      	push	{r7}
     996:	af00      	add	r7, sp, #0
     998:	bf00      	nop
     99a:	46bd      	mov	sp, r7
     99c:	f85d 7b04 	ldr.w	r7, [sp], #4
     9a0:	4770      	bx	lr
	...

000009a4 <USBInterruptInitialize>:
     9a4:	b480      	push	{r7}
     9a6:	b083      	sub	sp, #12
     9a8:	af00      	add	r7, sp, #0
     9aa:	4b15      	ldr	r3, [pc, #84]	; (a00 <USBInterruptInitialize+0x5c>)
     9ac:	781b      	ldrb	r3, [r3, #0]
     9ae:	4a14      	ldr	r2, [pc, #80]	; (a00 <USBInterruptInitialize+0x5c>)
     9b0:	f043 032f 	orr.w	r3, r3, #47	; 0x2f
     9b4:	b2db      	uxtb	r3, r3
     9b6:	7013      	strb	r3, [r2, #0]
     9b8:	4b12      	ldr	r3, [pc, #72]	; (a04 <USBInterruptInitialize+0x60>)
     9ba:	881b      	ldrh	r3, [r3, #0]
     9bc:	4a11      	ldr	r2, [pc, #68]	; (a04 <USBInterruptInitialize+0x60>)
     9be:	f043 0302 	orr.w	r3, r3, #2
     9c2:	b29b      	uxth	r3, r3
     9c4:	8013      	strh	r3, [r2, #0]
     9c6:	4b10      	ldr	r3, [pc, #64]	; (a08 <USBInterruptInitialize+0x64>)
     9c8:	881b      	ldrh	r3, [r3, #0]
     9ca:	4a0f      	ldr	r2, [pc, #60]	; (a08 <USBInterruptInitialize+0x64>)
     9cc:	f043 0302 	orr.w	r3, r3, #2
     9d0:	b29b      	uxth	r3, r3
     9d2:	8013      	strh	r3, [r2, #0]
     9d4:	4b0d      	ldr	r3, [pc, #52]	; (a0c <USBInterruptInitialize+0x68>)
     9d6:	781b      	ldrb	r3, [r3, #0]
     9d8:	607b      	str	r3, [r7, #4]
     9da:	4b0d      	ldr	r3, [pc, #52]	; (a10 <USBInterruptInitialize+0x6c>)
     9dc:	881b      	ldrh	r3, [r3, #0]
     9de:	607b      	str	r3, [r7, #4]
     9e0:	4b0c      	ldr	r3, [pc, #48]	; (a14 <USBInterruptInitialize+0x70>)
     9e2:	881b      	ldrh	r3, [r3, #0]
     9e4:	607b      	str	r3, [r7, #4]
     9e6:	4b0c      	ldr	r3, [pc, #48]	; (a18 <USBInterruptInitialize+0x74>)
     9e8:	681b      	ldr	r3, [r3, #0]
     9ea:	4a0b      	ldr	r2, [pc, #44]	; (a18 <USBInterruptInitialize+0x74>)
     9ec:	f443 5380 	orr.w	r3, r3, #4096	; 0x1000
     9f0:	6013      	str	r3, [r2, #0]
     9f2:	bf00      	nop
     9f4:	370c      	adds	r7, #12
     9f6:	46bd      	mov	sp, r7
     9f8:	f85d 7b04 	ldr.w	r7, [sp], #4
     9fc:	4770      	bx	lr
     9fe:	bf00      	nop
     a00:	4005000b 	andmi	r0, r5, fp
     a04:	40050008 	andmi	r0, r5, r8
     a08:	40050006 	andmi	r0, r5, r6
     a0c:	4005000a 	andmi	r0, r5, sl
     a10:	40050002 	andmi	r0, r5, r2
     a14:	40050004 	andmi	r0, r5, r4
     a18:	e000e104 	and	lr, r0, r4, lsl #2

00000a1c <USBDeviceInit>:
     a1c:	b480      	push	{r7}
     a1e:	b083      	sub	sp, #12
     a20:	af00      	add	r7, sp, #0
     a22:	4b18      	ldr	r3, [pc, #96]	; (a84 <USBDeviceInit+0x68>)
     a24:	681b      	ldr	r3, [r3, #0]
     a26:	4a17      	ldr	r2, [pc, #92]	; (a84 <USBDeviceInit+0x68>)
     a28:	f423 4380 	bic.w	r3, r3, #16384	; 0x4000
     a2c:	6013      	str	r3, [r2, #0]
     a2e:	4b16      	ldr	r3, [pc, #88]	; (a88 <USBDeviceInit+0x6c>)
     a30:	681b      	ldr	r3, [r3, #0]
     a32:	4a15      	ldr	r2, [pc, #84]	; (a88 <USBDeviceInit+0x6c>)
     a34:	f043 0301 	orr.w	r3, r3, #1
     a38:	6013      	str	r3, [r2, #0]
     a3a:	4b14      	ldr	r3, [pc, #80]	; (a8c <USBDeviceInit+0x70>)
     a3c:	681b      	ldr	r3, [r3, #0]
     a3e:	4a13      	ldr	r2, [pc, #76]	; (a8c <USBDeviceInit+0x70>)
     a40:	f443 3380 	orr.w	r3, r3, #65536	; 0x10000
     a44:	6013      	str	r3, [r2, #0]
     a46:	2300      	movs	r3, #0
     a48:	71fb      	strb	r3, [r7, #7]
     a4a:	e004      	b.n	a56 <USBDeviceInit+0x3a>
     a4c:	79fb      	ldrb	r3, [r7, #7]
     a4e:	b2db      	uxtb	r3, r3
     a50:	3301      	adds	r3, #1
     a52:	b2db      	uxtb	r3, r3
     a54:	71fb      	strb	r3, [r7, #7]
     a56:	79fb      	ldrb	r3, [r7, #7]
     a58:	b2db      	uxtb	r3, r3
     a5a:	2b0f      	cmp	r3, #15
     a5c:	d9f6      	bls.n	a4c <USBDeviceInit+0x30>
     a5e:	4b0b      	ldr	r3, [pc, #44]	; (a8c <USBDeviceInit+0x70>)
     a60:	681b      	ldr	r3, [r3, #0]
     a62:	4a0a      	ldr	r2, [pc, #40]	; (a8c <USBDeviceInit+0x70>)
     a64:	f423 3380 	bic.w	r3, r3, #65536	; 0x10000
     a68:	6013      	str	r3, [r2, #0]
     a6a:	4b09      	ldr	r3, [pc, #36]	; (a90 <USBDeviceInit+0x74>)
     a6c:	681b      	ldr	r3, [r3, #0]
     a6e:	4a08      	ldr	r2, [pc, #32]	; (a90 <USBDeviceInit+0x74>)
     a70:	f043 0303 	orr.w	r3, r3, #3
     a74:	6013      	str	r3, [r2, #0]
     a76:	bf00      	nop
     a78:	370c      	adds	r7, #12
     a7a:	46bd      	mov	sp, r7
     a7c:	f85d 7b04 	ldr.w	r7, [sp], #4
     a80:	4770      	bx	lr
     a82:	bf00      	nop
     a84:	400fe070 	andmi	lr, pc, r0, ror r0	; <UNPREDICTABLE>
     a88:	400fe628 	andmi	lr, pc, r8, lsr #12
     a8c:	400fe048 	andmi	lr, pc, r8, asr #32
     a90:	4005041c 	andmi	r0, r5, ip, lsl r4

00000a94 <readRxFIFO>:
     a94:	b480      	push	{r7}
     a96:	b085      	sub	sp, #20
     a98:	af00      	add	r7, sp, #0
     a9a:	60f8      	str	r0, [r7, #12]
     a9c:	60b9      	str	r1, [r7, #8]
     a9e:	607a      	str	r2, [r7, #4]
     aa0:	687b      	ldr	r3, [r7, #4]
     aa2:	2b20      	cmp	r3, #32
     aa4:	d01b      	beq.n	ade <readRxFIFO+0x4a>
     aa6:	687b      	ldr	r3, [r7, #4]
     aa8:	2b20      	cmp	r3, #32
     aaa:	d820      	bhi.n	aee <readRxFIFO+0x5a>
     aac:	687b      	ldr	r3, [r7, #4]
     aae:	2b08      	cmp	r3, #8
     ab0:	d003      	beq.n	aba <readRxFIFO+0x26>
     ab2:	687b      	ldr	r3, [r7, #4]
     ab4:	2b10      	cmp	r3, #16
     ab6:	d009      	beq.n	acc <readRxFIFO+0x38>
     ab8:	e019      	b.n	aee <readRxFIFO+0x5a>
     aba:	68fa      	ldr	r2, [r7, #12]
     abc:	4b0f      	ldr	r3, [pc, #60]	; (afc <readRxFIFO+0x68>)
     abe:	4413      	add	r3, r2
     ac0:	009b      	lsls	r3, r3, #2
     ac2:	781b      	ldrb	r3, [r3, #0]
     ac4:	461a      	mov	r2, r3
     ac6:	68bb      	ldr	r3, [r7, #8]
     ac8:	601a      	str	r2, [r3, #0]
     aca:	e010      	b.n	aee <readRxFIFO+0x5a>
     acc:	68fa      	ldr	r2, [r7, #12]
     ace:	4b0b      	ldr	r3, [pc, #44]	; (afc <readRxFIFO+0x68>)
     ad0:	4413      	add	r3, r2
     ad2:	009b      	lsls	r3, r3, #2
     ad4:	881b      	ldrh	r3, [r3, #0]
     ad6:	461a      	mov	r2, r3
     ad8:	68bb      	ldr	r3, [r7, #8]
     ada:	601a      	str	r2, [r3, #0]
     adc:	e007      	b.n	aee <readRxFIFO+0x5a>
     ade:	68fa      	ldr	r2, [r7, #12]
     ae0:	4b06      	ldr	r3, [pc, #24]	; (afc <readRxFIFO+0x68>)
     ae2:	4413      	add	r3, r2
     ae4:	009b      	lsls	r3, r3, #2
     ae6:	681a      	ldr	r2, [r3, #0]
     ae8:	68bb      	ldr	r3, [r7, #8]
     aea:	601a      	str	r2, [r3, #0]
     aec:	bf00      	nop
     aee:	bf00      	nop
     af0:	3714      	adds	r7, #20
     af2:	46bd      	mov	sp, r7
     af4:	f85d 7b04 	ldr.w	r7, [sp], #4
     af8:	4770      	bx	lr
     afa:	bf00      	nop
     afc:	10014008 	andne	r4, r1, r8

00000b00 <readPacket>:
     b00:	b580      	push	{r7, lr}
     b02:	b084      	sub	sp, #16
     b04:	af00      	add	r7, sp, #0
     b06:	60f8      	str	r0, [r7, #12]
     b08:	60b9      	str	r1, [r7, #8]
     b0a:	4613      	mov	r3, r2
     b0c:	80fb      	strh	r3, [r7, #6]
     b0e:	e00a      	b.n	b26 <readPacket+0x26>
     b10:	2220      	movs	r2, #32
     b12:	68b9      	ldr	r1, [r7, #8]
     b14:	68f8      	ldr	r0, [r7, #12]
     b16:	f7ff ffbd 	bl	a94 <readRxFIFO>
     b1a:	88fb      	ldrh	r3, [r7, #6]
     b1c:	3b04      	subs	r3, #4
     b1e:	80fb      	strh	r3, [r7, #6]
     b20:	68bb      	ldr	r3, [r7, #8]
     b22:	3304      	adds	r3, #4
     b24:	60bb      	str	r3, [r7, #8]
     b26:	88fb      	ldrh	r3, [r7, #6]
     b28:	2b03      	cmp	r3, #3
     b2a:	d8f1      	bhi.n	b10 <readPacket+0x10>
     b2c:	88fb      	ldrh	r3, [r7, #6]
     b2e:	2b00      	cmp	r3, #0
     b30:	d00e      	beq.n	b50 <readPacket+0x50>
     b32:	e00a      	b.n	b4a <readPacket+0x4a>
     b34:	2208      	movs	r2, #8
     b36:	68b9      	ldr	r1, [r7, #8]
     b38:	68f8      	ldr	r0, [r7, #12]
     b3a:	f7ff ffab 	bl	a94 <readRxFIFO>
     b3e:	88fb      	ldrh	r3, [r7, #6]
     b40:	3b01      	subs	r3, #1
     b42:	80fb      	strh	r3, [r7, #6]
     b44:	68bb      	ldr	r3, [r7, #8]
     b46:	3301      	adds	r3, #1
     b48:	60bb      	str	r3, [r7, #8]
     b4a:	88fb      	ldrh	r3, [r7, #6]
     b4c:	2b00      	cmp	r3, #0
     b4e:	d1f1      	bne.n	b34 <readPacket+0x34>
     b50:	bf00      	nop
     b52:	3710      	adds	r7, #16
     b54:	46bd      	mov	sp, r7
     b56:	bd80      	pop	{r7, pc}

00000b58 <USBDeviceGetIntStatus>:
     b58:	b480      	push	{r7}
     b5a:	b083      	sub	sp, #12
     b5c:	af00      	add	r7, sp, #0
     b5e:	4b0c      	ldr	r3, [pc, #48]	; (b90 <USBDeviceGetIntStatus+0x38>)
     b60:	781b      	ldrb	r3, [r3, #0]
     b62:	607b      	str	r3, [r7, #4]
     b64:	4b0b      	ldr	r3, [pc, #44]	; (b94 <USBDeviceGetIntStatus+0x3c>)
     b66:	881b      	ldrh	r3, [r3, #0]
     b68:	021b      	lsls	r3, r3, #8
     b6a:	461a      	mov	r2, r3
     b6c:	687b      	ldr	r3, [r7, #4]
     b6e:	4313      	orrs	r3, r2
     b70:	607b      	str	r3, [r7, #4]
     b72:	4b09      	ldr	r3, [pc, #36]	; (b98 <USBDeviceGetIntStatus+0x40>)
     b74:	881b      	ldrh	r3, [r3, #0]
     b76:	041b      	lsls	r3, r3, #16
     b78:	461a      	mov	r2, r3
     b7a:	687b      	ldr	r3, [r7, #4]
     b7c:	4313      	orrs	r3, r2
     b7e:	607b      	str	r3, [r7, #4]
     b80:	687b      	ldr	r3, [r7, #4]
     b82:	4618      	mov	r0, r3
     b84:	370c      	adds	r7, #12
     b86:	46bd      	mov	sp, r7
     b88:	f85d 7b04 	ldr.w	r7, [sp], #4
     b8c:	4770      	bx	lr
     b8e:	bf00      	nop
     b90:	4005000a 	andmi	r0, r5, sl
     b94:	40050002 	andmi	r0, r5, r2
     b98:	40050004 	andmi	r0, r5, r4

00000b9c <USBGetRcvBytes>:
     b9c:	b480      	push	{r7}
     b9e:	b085      	sub	sp, #20
     ba0:	af00      	add	r7, sp, #0
     ba2:	6078      	str	r0, [r7, #4]
     ba4:	2300      	movs	r3, #0
     ba6:	81fb      	strh	r3, [r7, #14]
     ba8:	687b      	ldr	r3, [r7, #4]
     baa:	2b00      	cmp	r3, #0
     bac:	d103      	bne.n	bb6 <USBGetRcvBytes+0x1a>
     bae:	4b09      	ldr	r3, [pc, #36]	; (bd4 <USBGetRcvBytes+0x38>)
     bb0:	781b      	ldrb	r3, [r3, #0]
     bb2:	81fb      	strh	r3, [r7, #14]
     bb4:	e006      	b.n	bc4 <USBGetRcvBytes+0x28>
     bb6:	687b      	ldr	r3, [r7, #4]
     bb8:	3b01      	subs	r3, #1
     bba:	011a      	lsls	r2, r3, #4
     bbc:	4b06      	ldr	r3, [pc, #24]	; (bd8 <USBGetRcvBytes+0x3c>)
     bbe:	4413      	add	r3, r2
     bc0:	881b      	ldrh	r3, [r3, #0]
     bc2:	81fb      	strh	r3, [r7, #14]
     bc4:	89fb      	ldrh	r3, [r7, #14]
     bc6:	4618      	mov	r0, r3
     bc8:	3714      	adds	r7, #20
     bca:	46bd      	mov	sp, r7
     bcc:	f85d 7b04 	ldr.w	r7, [sp], #4
     bd0:	4770      	bx	lr
     bd2:	bf00      	nop
     bd4:	40050108 	andmi	r0, r5, r8, lsl #2
     bd8:	40050118 	andmi	r0, r5, r8, lsl r1

00000bdc <USBInit>:
     bdc:	b580      	push	{r7, lr}
     bde:	af00      	add	r7, sp, #0
     be0:	f7ff fe80 	bl	8e4 <USBPinInitialize>
     be4:	f7ff ff1a 	bl	a1c <USBDeviceInit>
     be8:	f7ff fedc 	bl	9a4 <USBInterruptInitialize>
     bec:	f7ff fed2 	bl	994 <EndpointInitialize>
     bf0:	f7ff fec0 	bl	974 <USBBusConnect>
     bf4:	bf00      	nop
     bf6:	bd80      	pop	{r7, pc}

00000bf8 <USBInterruptStatus>:
     bf8:	b580      	push	{r7, lr}
     bfa:	b094      	sub	sp, #80	; 0x50
     bfc:	af00      	add	r7, sp, #0
     bfe:	2300      	movs	r3, #0
     c00:	647b      	str	r3, [r7, #68]	; 0x44
     c02:	2300      	movs	r3, #0
     c04:	64fb      	str	r3, [r7, #76]	; 0x4c
     c06:	2300      	movs	r3, #0
     c08:	f8a7 304a 	strh.w	r3, [r7, #74]	; 0x4a
     c0c:	2300      	movs	r3, #0
     c0e:	f887 3049 	strb.w	r3, [r7, #73]	; 0x49
     c12:	f7ff ffa1 	bl	b58 <USBDeviceGetIntStatus>
     c16:	4603      	mov	r3, r0
     c18:	647b      	str	r3, [r7, #68]	; 0x44
     c1a:	6c7b      	ldr	r3, [r7, #68]	; 0x44
     c1c:	6c7b      	ldr	r3, [r7, #68]	; 0x44
     c1e:	6c7b      	ldr	r3, [r7, #68]	; 0x44
     c20:	6c7b      	ldr	r3, [r7, #68]	; 0x44
     c22:	6c7b      	ldr	r3, [r7, #68]	; 0x44
     c24:	2000      	movs	r0, #0
     c26:	f7ff ffb9 	bl	b9c <USBGetRcvBytes>
     c2a:	4603      	mov	r3, r0
     c2c:	f8a7 304a 	strh.w	r3, [r7, #74]	; 0x4a
     c30:	6c7b      	ldr	r3, [r7, #68]	; 0x44
     c32:	f403 7380 	and.w	r3, r3, #256	; 0x100
     c36:	2b00      	cmp	r3, #0
     c38:	d01c      	beq.n	c74 <USBInterruptStatus+0x7c>
     c3a:	f8b7 204a 	ldrh.w	r2, [r7, #74]	; 0x4a
     c3e:	1d3b      	adds	r3, r7, #4
     c40:	4619      	mov	r1, r3
     c42:	2000      	movs	r0, #0
     c44:	f7ff ff5c 	bl	b00 <readPacket>
     c48:	2300      	movs	r3, #0
     c4a:	64fb      	str	r3, [r7, #76]	; 0x4c
     c4c:	e00a      	b.n	c64 <USBInterruptStatus+0x6c>
     c4e:	1d3a      	adds	r2, r7, #4
     c50:	6cfb      	ldr	r3, [r7, #76]	; 0x4c
     c52:	4413      	add	r3, r2
     c54:	781b      	ldrb	r3, [r3, #0]
     c56:	4619      	mov	r1, r3
     c58:	4808      	ldr	r0, [pc, #32]	; (c7c <USBInterruptStatus+0x84>)
     c5a:	f7ff fe31 	bl	8c0 <UARTprintf>
     c5e:	6cfb      	ldr	r3, [r7, #76]	; 0x4c
     c60:	3301      	adds	r3, #1
     c62:	64fb      	str	r3, [r7, #76]	; 0x4c
     c64:	f8b7 304a 	ldrh.w	r3, [r7, #74]	; 0x4a
     c68:	6cfa      	ldr	r2, [r7, #76]	; 0x4c
     c6a:	429a      	cmp	r2, r3
     c6c:	d3ef      	bcc.n	c4e <USBInterruptStatus+0x56>
     c6e:	4804      	ldr	r0, [pc, #16]	; (c80 <USBInterruptStatus+0x88>)
     c70:	f7ff fe26 	bl	8c0 <UARTprintf>
     c74:	bf00      	nop
     c76:	3750      	adds	r7, #80	; 0x50
     c78:	46bd      	mov	sp, r7
     c7a:	bd80      	pop	{r7, pc}
     c7c:	00001094 	muleq	r0, r4, r0
     c80:	0000109c 	muleq	r0, ip, r0

00000c84 <GPIODirModeSet>:
     c84:	f8d0 3400 	ldr.w	r3, [r0, #1024]	; 0x400
     c88:	f012 0f01 	tst.w	r2, #1
     c8c:	bf14      	ite	ne
     c8e:	430b      	orrne	r3, r1
     c90:	438b      	biceq	r3, r1
     c92:	f8c0 3400 	str.w	r3, [r0, #1024]	; 0x400
     c96:	f8d0 3420 	ldr.w	r3, [r0, #1056]	; 0x420
     c9a:	0792      	lsls	r2, r2, #30
     c9c:	bf4c      	ite	mi
     c9e:	4319      	orrmi	r1, r3
     ca0:	ea23 0101 	bicpl.w	r1, r3, r1
     ca4:	f8c0 1420 	str.w	r1, [r0, #1056]	; 0x420
     ca8:	4770      	bx	lr
	...

00000cac <GPIOPadConfigSet>:
     cac:	b5f0      	push	{r4, r5, r6, r7, lr}
     cae:	4c4e      	ldr	r4, [pc, #312]	; (de8 <GPIOPadConfigSet+0x13c>)
     cb0:	6825      	ldr	r5, [r4, #0]
     cb2:	4c4e      	ldr	r4, [pc, #312]	; (dec <GPIOPadConfigSet+0x140>)
     cb4:	402c      	ands	r4, r5
     cb6:	4d4e      	ldr	r5, [pc, #312]	; (df0 <GPIOPadConfigSet+0x144>)
     cb8:	42ac      	cmp	r4, r5
     cba:	d106      	bne.n	cca <GPIOPadConfigSet+0x1e>
     cbc:	07d5      	lsls	r5, r2, #31
     cbe:	d421      	bmi.n	d04 <GPIOPadConfigSet+0x58>
     cc0:	f8d0 4500 	ldr.w	r4, [r0, #1280]	; 0x500
     cc4:	ea24 0401 	bic.w	r4, r4, r1
     cc8:	e01f      	b.n	d0a <GPIOPadConfigSet+0x5e>
     cca:	f3c2 1741 	ubfx	r7, r2, #5, #2
     cce:	2500      	movs	r5, #0
     cd0:	f04f 0c03 	mov.w	ip, #3
     cd4:	fa41 f405 	asr.w	r4, r1, r5
     cd8:	07e4      	lsls	r4, r4, #31
     cda:	d50f      	bpl.n	cfc <GPIOPadConfigSet+0x50>
     cdc:	f8d0 6fc4 	ldr.w	r6, [r0, #4036]	; 0xfc4
     ce0:	006c      	lsls	r4, r5, #1
     ce2:	fa0c fe04 	lsl.w	lr, ip, r4
     ce6:	ea26 060e 	bic.w	r6, r6, lr
     cea:	f8c0 6fc4 	str.w	r6, [r0, #4036]	; 0xfc4
     cee:	f8d0 6fc4 	ldr.w	r6, [r0, #4036]	; 0xfc4
     cf2:	fa07 f404 	lsl.w	r4, r7, r4
     cf6:	4334      	orrs	r4, r6
     cf8:	f8c0 4fc4 	str.w	r4, [r0, #4036]	; 0xfc4
     cfc:	3501      	adds	r5, #1
     cfe:	2d08      	cmp	r5, #8
     d00:	d1e8      	bne.n	cd4 <GPIOPadConfigSet+0x28>
     d02:	e7db      	b.n	cbc <GPIOPadConfigSet+0x10>
     d04:	f8d0 4500 	ldr.w	r4, [r0, #1280]	; 0x500
     d08:	430c      	orrs	r4, r1
     d0a:	f8c0 4500 	str.w	r4, [r0, #1280]	; 0x500
     d0e:	f8d0 4504 	ldr.w	r4, [r0, #1284]	; 0x504
     d12:	0797      	lsls	r7, r2, #30
     d14:	bf4c      	ite	mi
     d16:	430c      	orrmi	r4, r1
     d18:	438c      	bicpl	r4, r1
     d1a:	f8c0 4504 	str.w	r4, [r0, #1284]	; 0x504
     d1e:	f8d0 4508 	ldr.w	r4, [r0, #1288]	; 0x508
     d22:	0756      	lsls	r6, r2, #29
     d24:	bf4c      	ite	mi
     d26:	430c      	orrmi	r4, r1
     d28:	438c      	bicpl	r4, r1
     d2a:	f8c0 4508 	str.w	r4, [r0, #1288]	; 0x508
     d2e:	f8d0 4518 	ldr.w	r4, [r0, #1304]	; 0x518
     d32:	0715      	lsls	r5, r2, #28
     d34:	bf4c      	ite	mi
     d36:	430c      	orrmi	r4, r1
     d38:	438c      	bicpl	r4, r1
     d3a:	f8c0 4518 	str.w	r4, [r0, #1304]	; 0x518
     d3e:	4c2a      	ldr	r4, [pc, #168]	; (de8 <GPIOPadConfigSet+0x13c>)
     d40:	6825      	ldr	r5, [r4, #0]
     d42:	4c2a      	ldr	r4, [pc, #168]	; (dec <GPIOPadConfigSet+0x140>)
     d44:	402c      	ands	r4, r5
     d46:	4d2a      	ldr	r5, [pc, #168]	; (df0 <GPIOPadConfigSet+0x144>)
     d48:	42ac      	cmp	r4, r5
     d4a:	d008      	beq.n	d5e <GPIOPadConfigSet+0xb2>
     d4c:	f012 0f10 	tst.w	r2, #16
     d50:	f8d0 253c 	ldr.w	r2, [r0, #1340]	; 0x53c
     d54:	bf14      	ite	ne
     d56:	430a      	orrne	r2, r1
     d58:	438a      	biceq	r2, r1
     d5a:	f8c0 253c 	str.w	r2, [r0, #1340]	; 0x53c
     d5e:	f8d0 250c 	ldr.w	r2, [r0, #1292]	; 0x50c
     d62:	07dc      	lsls	r4, r3, #31
     d64:	bf4c      	ite	mi
     d66:	430a      	orrmi	r2, r1
     d68:	438a      	bicpl	r2, r1
     d6a:	f8c0 250c 	str.w	r2, [r0, #1292]	; 0x50c
     d6e:	f8d0 2510 	ldr.w	r2, [r0, #1296]	; 0x510
     d72:	079f      	lsls	r7, r3, #30
     d74:	bf4c      	ite	mi
     d76:	430a      	orrmi	r2, r1
     d78:	438a      	bicpl	r2, r1
     d7a:	f8c0 2510 	str.w	r2, [r0, #1296]	; 0x510
     d7e:	f8d0 2514 	ldr.w	r2, [r0, #1300]	; 0x514
     d82:	075e      	lsls	r6, r3, #29
     d84:	bf4c      	ite	mi
     d86:	430a      	orrmi	r2, r1
     d88:	438a      	bicpl	r2, r1
     d8a:	f8c0 2514 	str.w	r2, [r0, #1300]	; 0x514
     d8e:	f8d0 251c 	ldr.w	r2, [r0, #1308]	; 0x51c
     d92:	071d      	lsls	r5, r3, #28
     d94:	bf4c      	ite	mi
     d96:	430a      	orrmi	r2, r1
     d98:	438a      	bicpl	r2, r1
     d9a:	f8c0 251c 	str.w	r2, [r0, #1308]	; 0x51c
     d9e:	4a12      	ldr	r2, [pc, #72]	; (de8 <GPIOPadConfigSet+0x13c>)
     da0:	6814      	ldr	r4, [r2, #0]
     da2:	4a12      	ldr	r2, [pc, #72]	; (dec <GPIOPadConfigSet+0x140>)
     da4:	4022      	ands	r2, r4
     da6:	4c12      	ldr	r4, [pc, #72]	; (df0 <GPIOPadConfigSet+0x144>)
     da8:	42a2      	cmp	r2, r4
     daa:	d010      	beq.n	dce <GPIOPadConfigSet+0x122>
     dac:	f8d0 2544 	ldr.w	r2, [r0, #1348]	; 0x544
     db0:	059c      	lsls	r4, r3, #22
     db2:	bf4c      	ite	mi
     db4:	430a      	orrmi	r2, r1
     db6:	438a      	bicpl	r2, r1
     db8:	f8c0 2544 	str.w	r2, [r0, #1348]	; 0x544
     dbc:	f8d0 2540 	ldr.w	r2, [r0, #1344]	; 0x540
     dc0:	f413 7f40 	tst.w	r3, #768	; 0x300
     dc4:	bf14      	ite	ne
     dc6:	430a      	orrne	r2, r1
     dc8:	438a      	biceq	r2, r1
     dca:	f8c0 2540 	str.w	r2, [r0, #1344]	; 0x540
     dce:	b92b      	cbnz	r3, ddc <GPIOPadConfigSet+0x130>
     dd0:	f8d0 3528 	ldr.w	r3, [r0, #1320]	; 0x528
     dd4:	4319      	orrs	r1, r3
     dd6:	f8c0 1528 	str.w	r1, [r0, #1320]	; 0x528
     dda:	bdf0      	pop	{r4, r5, r6, r7, pc}
     ddc:	f8d0 3528 	ldr.w	r3, [r0, #1320]	; 0x528
     de0:	ea23 0101 	bic.w	r1, r3, r1
     de4:	e7f7      	b.n	dd6 <GPIOPadConfigSet+0x12a>
     de6:	bf00      	nop
     de8:	400fe000 	andmi	lr, pc, r0
     dec:	70ff0000 	rscsvc	r0, pc, r0
     df0:	10050000 	andne	r0, r5, r0

00000df4 <GPIOPinTypeComparatorOutput>:
     df4:	b510      	push	{r4, lr}
     df6:	2202      	movs	r2, #2
     df8:	460c      	mov	r4, r1
     dfa:	f7ff ff43 	bl	c84 <GPIODirModeSet>
     dfe:	4621      	mov	r1, r4
     e00:	2308      	movs	r3, #8
     e02:	e8bd 4010 	ldmia.w	sp!, {r4, lr}
     e06:	2201      	movs	r2, #1
     e08:	f7ff bf50 	b.w	cac <GPIOPadConfigSet>

00000e0c <GPIOPinTypeUART>:
     e0c:	f7ff bff2 	b.w	df4 <GPIOPinTypeComparatorOutput>

00000e10 <GPIOPinConfigure>:
     e10:	4b0e      	ldr	r3, [pc, #56]	; (e4c <GPIOPinConfigure+0x3c>)
     e12:	f3c0 4107 	ubfx	r1, r0, #16, #8
     e16:	b510      	push	{r4, lr}
     e18:	2201      	movs	r2, #1
     e1a:	6edc      	ldr	r4, [r3, #108]	; 0x6c
     e1c:	408a      	lsls	r2, r1
     e1e:	004b      	lsls	r3, r1, #1
     e20:	4222      	tst	r2, r4
     e22:	bf18      	it	ne
     e24:	3301      	addne	r3, #1
     e26:	4a0a      	ldr	r2, [pc, #40]	; (e50 <GPIOPinConfigure+0x40>)
     e28:	f852 2023 	ldr.w	r2, [r2, r3, lsl #2]
     e2c:	f3c0 2407 	ubfx	r4, r0, #8, #8
     e30:	f8d2 352c 	ldr.w	r3, [r2, #1324]	; 0x52c
     e34:	210f      	movs	r1, #15
     e36:	40a1      	lsls	r1, r4
     e38:	f000 000f 	and.w	r0, r0, #15
     e3c:	ea23 0301 	bic.w	r3, r3, r1
     e40:	40a0      	lsls	r0, r4
     e42:	4318      	orrs	r0, r3
     e44:	f8c2 052c 	str.w	r0, [r2, #1324]	; 0x52c
     e48:	bd10      	pop	{r4, pc}
     e4a:	bf00      	nop
     e4c:	400fe000 	andmi	lr, pc, r0
     e50:	000010a0 	andeq	r1, r0, r0, lsr #1

00000e54 <SysCtlPeripheralPresent>:
     e54:	4b07      	ldr	r3, [pc, #28]	; (e74 <SysCtlPeripheralPresent+0x20>)
     e56:	f3c0 2207 	ubfx	r2, r0, #8, #8
     e5a:	0080      	lsls	r0, r0, #2
     e5c:	4413      	add	r3, r2
     e5e:	f400 707f 	and.w	r0, r0, #1020	; 0x3fc
     e62:	ea40 1043 	orr.w	r0, r0, r3, lsl #5
     e66:	f040 4084 	orr.w	r0, r0, #1107296256	; 0x42000000
     e6a:	6800      	ldr	r0, [r0, #0]
     e6c:	3800      	subs	r0, #0
     e6e:	bf18      	it	ne
     e70:	2001      	movne	r0, #1
     e72:	4770      	bx	lr
     e74:	400fe300 	andmi	lr, pc, r0, lsl #6

00000e78 <SysCtlPeripheralEnable>:
     e78:	4b06      	ldr	r3, [pc, #24]	; (e94 <SysCtlPeripheralEnable+0x1c>)
     e7a:	f3c0 2207 	ubfx	r2, r0, #8, #8
     e7e:	0080      	lsls	r0, r0, #2
     e80:	4413      	add	r3, r2
     e82:	f400 707f 	and.w	r0, r0, #1020	; 0x3fc
     e86:	ea40 1043 	orr.w	r0, r0, r3, lsl #5
     e8a:	f040 4084 	orr.w	r0, r0, #1107296256	; 0x42000000
     e8e:	2301      	movs	r3, #1
     e90:	6003      	str	r3, [r0, #0]
     e92:	4770      	bx	lr
     e94:	400fe600 	andmi	lr, pc, r0, lsl #12

00000e98 <SysCtlDelay>:
     e98:	3801      	subs	r0, #1
     e9a:	f47f affd 	bne.w	e98 <SysCtlDelay>
     e9e:	4770      	bx	lr

00000ea0 <SysCtlClockSet>:
     ea0:	493a      	ldr	r1, [pc, #232]	; (f8c <SysCtlClockSet+0xec>)
     ea2:	b430      	push	{r4, r5}
     ea4:	6e0c      	ldr	r4, [r1, #96]	; 0x60
     ea6:	6f0b      	ldr	r3, [r1, #112]	; 0x70
     ea8:	f424 0280 	bic.w	r2, r4, #4194304	; 0x400000
     eac:	f443 6500 	orr.w	r5, r3, #2048	; 0x800
     eb0:	f442 6200 	orr.w	r2, r2, #2048	; 0x800
     eb4:	660a      	str	r2, [r1, #96]	; 0x60
     eb6:	670d      	str	r5, [r1, #112]	; 0x70
     eb8:	07e5      	lsls	r5, r4, #31
     eba:	d50d      	bpl.n	ed8 <SysCtlClockSet+0x38>
     ebc:	07c4      	lsls	r4, r0, #31
     ebe:	d40b      	bmi.n	ed8 <SysCtlClockSet+0x38>
     ec0:	f060 0401 	orn	r4, r0, #1
     ec4:	4022      	ands	r2, r4
     ec6:	f44f 7480 	mov.w	r4, #256	; 0x100
     eca:	658c      	str	r4, [r1, #88]	; 0x58
     ecc:	660a      	str	r2, [r1, #96]	; 0x60
     ece:	f44f 2400 	mov.w	r4, #524288	; 0x80000
     ed2:	6d0d      	ldr	r5, [r1, #80]	; 0x50
     ed4:	05ed      	lsls	r5, r5, #23
     ed6:	d555      	bpl.n	f84 <SysCtlClockSet+0xe4>
     ed8:	f422 61fe 	bic.w	r1, r2, #2032	; 0x7f0
     edc:	f400 62fe 	and.w	r2, r0, #2032	; 0x7f0
     ee0:	430a      	orrs	r2, r1
     ee2:	492b      	ldr	r1, [pc, #172]	; (f90 <SysCtlClockSet+0xf0>)
     ee4:	f023 4300 	bic.w	r3, r3, #2147483648	; 0x80000000
     ee8:	4001      	ands	r1, r0
     eea:	f023 0370 	bic.w	r3, r3, #112	; 0x70
     eee:	430b      	orrs	r3, r1
     ef0:	00c1      	lsls	r1, r0, #3
     ef2:	f001 0140 	and.w	r1, r1, #64	; 0x40
     ef6:	430b      	orrs	r3, r1
     ef8:	4924      	ldr	r1, [pc, #144]	; (f8c <SysCtlClockSet+0xec>)
     efa:	f443 6400 	orr.w	r4, r3, #2048	; 0x800
     efe:	660a      	str	r2, [r1, #96]	; 0x60
     f00:	f423 5300 	bic.w	r3, r3, #8192	; 0x2000
     f04:	670c      	str	r4, [r1, #112]	; 0x70
     f06:	f422 5200 	bic.w	r2, r2, #8192	; 0x2000
     f0a:	f400 5400 	and.w	r4, r0, #8192	; 0x2000
     f0e:	4322      	orrs	r2, r4
     f10:	4323      	orrs	r3, r4
     f12:	2440      	movs	r4, #64	; 0x40
     f14:	658c      	str	r4, [r1, #88]	; 0x58
     f16:	f453 6400 	orrs.w	r4, r3, #2048	; 0x800
     f1a:	bf55      	itete	pl
     f1c:	660a      	strpl	r2, [r1, #96]	; 0x60
     f1e:	670c      	strmi	r4, [r1, #112]	; 0x70
     f20:	670c      	strpl	r4, [r1, #112]	; 0x70
     f22:	660a      	strmi	r2, [r1, #96]	; 0x60
     f24:	491b      	ldr	r1, [pc, #108]	; (f94 <SysCtlClockSet+0xf4>)
     f26:	f022 62f8 	bic.w	r2, r2, #130023424	; 0x7c00000
     f2a:	4001      	ands	r1, r0
     f2c:	f022 0201 	bic.w	r2, r2, #1
     f30:	f023 53fc 	bic.w	r3, r3, #528482304	; 0x1f800000
     f34:	430a      	orrs	r2, r1
     f36:	f443 6300 	orr.w	r3, r3, #2048	; 0x800
     f3a:	f000 51fc 	and.w	r1, r0, #528482304	; 0x1f800000
     f3e:	430b      	orrs	r3, r1
     f40:	0041      	lsls	r1, r0, #1
     f42:	bf41      	itttt	mi
     f44:	4914      	ldrmi	r1, [pc, #80]	; (f98 <SysCtlClockSet+0xf8>)
     f46:	f423 0380 	bicmi.w	r3, r3, #4194304	; 0x400000
     f4a:	4001      	andmi	r1, r0
     f4c:	f442 0280 	orrmi.w	r2, r2, #4194304	; 0x400000
     f50:	bf4c      	ite	mi
     f52:	430b      	orrmi	r3, r1
     f54:	f023 4380 	bicpl.w	r3, r3, #1073741824	; 0x40000000
     f58:	0505      	lsls	r5, r0, #20
     f5a:	d40c      	bmi.n	f76 <SysCtlClockSet+0xd6>
     f5c:	480b      	ldr	r0, [pc, #44]	; (f8c <SysCtlClockSet+0xec>)
     f5e:	f44f 4100 	mov.w	r1, #32768	; 0x8000
     f62:	f8d0 4168 	ldr.w	r4, [r0, #360]	; 0x168
     f66:	07e4      	lsls	r4, r4, #31
     f68:	d401      	bmi.n	f6e <SysCtlClockSet+0xce>
     f6a:	3901      	subs	r1, #1
     f6c:	d1f9      	bne.n	f62 <SysCtlClockSet+0xc2>
     f6e:	f422 6200 	bic.w	r2, r2, #2048	; 0x800
     f72:	f423 6300 	bic.w	r3, r3, #2048	; 0x800
     f76:	4905      	ldr	r1, [pc, #20]	; (f8c <SysCtlClockSet+0xec>)
     f78:	bc30      	pop	{r4, r5}
     f7a:	660a      	str	r2, [r1, #96]	; 0x60
     f7c:	2010      	movs	r0, #16
     f7e:	670b      	str	r3, [r1, #112]	; 0x70
     f80:	f7ff bf8a 	b.w	e98 <SysCtlDelay>
     f84:	3c01      	subs	r4, #1
     f86:	d1a4      	bne.n	ed2 <SysCtlClockSet+0x32>
     f88:	bc30      	pop	{r4, r5}
     f8a:	4770      	bx	lr
     f8c:	400fe000 	andmi	lr, pc, r0
     f90:	80000030 	andhi	r0, r0, r0, lsr r0
     f94:	07c00001 	strbeq	r0, [r0, r1]
     f98:	40400000 	submi	r0, r0, r0

00000f9c <UARTEnable>:
     f9c:	6ac3      	ldr	r3, [r0, #44]	; 0x2c
     f9e:	f043 0310 	orr.w	r3, r3, #16
     fa2:	62c3      	str	r3, [r0, #44]	; 0x2c
     fa4:	6b03      	ldr	r3, [r0, #48]	; 0x30
     fa6:	f443 7340 	orr.w	r3, r3, #768	; 0x300
     faa:	f043 0301 	orr.w	r3, r3, #1
     fae:	6303      	str	r3, [r0, #48]	; 0x30
     fb0:	4770      	bx	lr

00000fb2 <UARTDisable>:
     fb2:	6983      	ldr	r3, [r0, #24]
     fb4:	071b      	lsls	r3, r3, #28
     fb6:	d4fc      	bmi.n	fb2 <UARTDisable>
     fb8:	6ac3      	ldr	r3, [r0, #44]	; 0x2c
     fba:	f023 0310 	bic.w	r3, r3, #16
     fbe:	62c3      	str	r3, [r0, #44]	; 0x2c
     fc0:	6b03      	ldr	r3, [r0, #48]	; 0x30
     fc2:	f423 7340 	bic.w	r3, r3, #768	; 0x300
     fc6:	f023 0301 	bic.w	r3, r3, #1
     fca:	6303      	str	r3, [r0, #48]	; 0x30
     fcc:	4770      	bx	lr

00000fce <UARTConfigSetExpClk>:
     fce:	b570      	push	{r4, r5, r6, lr}
     fd0:	461e      	mov	r6, r3
     fd2:	f7ff ffee 	bl	fb2 <UARTDisable>
     fd6:	6b03      	ldr	r3, [r0, #48]	; 0x30
     fd8:	ebb1 1f02 	cmp.w	r1, r2, lsl #4
     fdc:	bf34      	ite	cc
     fde:	f043 0320 	orrcc.w	r3, r3, #32
     fe2:	f023 0320 	biccs.w	r3, r3, #32
     fe6:	ea4f 04c1 	mov.w	r4, r1, lsl #3
     fea:	bf38      	it	cc
     fec:	0852      	lsrcc	r2, r2, #1
     fee:	fbb4 f1f2 	udiv	r1, r4, r2
     ff2:	f101 0101 	add.w	r1, r1, #1
     ff6:	bf34      	ite	cc
     ff8:	6303      	strcc	r3, [r0, #48]	; 0x30
     ffa:	6303      	strcs	r3, [r0, #48]	; 0x30
     ffc:	09cb      	lsrs	r3, r1, #7
     ffe:	6243      	str	r3, [r0, #36]	; 0x24
    1000:	f3c1 0145 	ubfx	r1, r1, #1, #6
    1004:	2300      	movs	r3, #0
    1006:	6281      	str	r1, [r0, #40]	; 0x28
    1008:	62c6      	str	r6, [r0, #44]	; 0x2c
    100a:	e8bd 4070 	ldmia.w	sp!, {r4, r5, r6, lr}
    100e:	6183      	str	r3, [r0, #24]
    1010:	f7ff bfc4 	b.w	f9c <UARTEnable>

00001014 <UARTCharPut>:
    1014:	6983      	ldr	r3, [r0, #24]
    1016:	069b      	lsls	r3, r3, #26
    1018:	d4fc      	bmi.n	1014 <UARTCharPut>
    101a:	6001      	str	r1, [r0, #0]
    101c:	4770      	bx	lr

0000101e <UARTClockSourceSet>:
    101e:	f8c0 1fc8 	str.w	r1, [r0, #4040]	; 0xfc8
    1022:	4770      	bx	lr
    1024:	74736554 	ldrbtvc	r6, [r3], #-1364	; 0xfffffaac
    1028:	000a3120 	andeq	r3, sl, r0, lsr #2
    102c:	74736554 	ldrbtvc	r6, [r3], #-1364	; 0xfffffaac
    1030:	000a3220 	andeq	r3, sl, r0, lsr #4
    1034:	33323130 	teqcc	r2, #48, 2
    1038:	37363534 			; <UNDEFINED> instruction: 0x37363534
    103c:	62613938 	rsbvs	r3, r1, #56, 18	; 0xe0000
    1040:	66656463 	strbtvs	r6, [r5], -r3, ror #8
    1044:	00000000 	andeq	r0, r0, r0
    1048:	542f2e2e 	strtpl	r2, [pc], #-3630	; 1050 <UARTClockSourceSet+0x32>
    104c:	57617669 	strbpl	r7, [r1, -r9, ror #12]!
    1050:	2f657261 	svccs	0x00657261
    1054:	6c697475 	cfstrdvs	mvd7, [r9], #-468	; 0xfffffe2c
    1058:	61752f73 	cmnvs	r5, r3, ror pc
    105c:	74737472 	ldrbtvc	r7, [r3], #-1138	; 0xfffffb8e
    1060:	2e6f6964 	vnmulcs.f16	s13, s30, s9	; <UNPREDICTABLE>
    1064:	00000063 	andeq	r0, r0, r3, rrx
    1068:	00082008 	andeq	r2, r8, r8
    106c:	00000a0d 	andeq	r0, r0, sp, lsl #20
    1070:	00000020 	andeq	r0, r0, r0, lsr #32
    1074:	4f525245 	svcmi	0x00525245
    1078:	00000052 	andeq	r0, r0, r2, asr r0

0000107c <g_ui32UARTBase>:
    107c:	4000c000 	andmi	ip, r0, r0
    1080:	4000d000 	andmi	sp, r0, r0
    1084:	4000e000 	andmi	lr, r0, r0

00001088 <g_ui32UARTPeriph>:
    1088:	f0001800 			; <UNDEFINED> instruction: 0xf0001800
    108c:	f0001801 			; <UNDEFINED> instruction: 0xf0001801
    1090:	f0001802 			; <UNDEFINED> instruction: 0xf0001802
    1094:	78323025 	ldmdavc	r2!, {r0, r2, r5, ip, sp}
    1098:	00000020 	andeq	r0, r0, r0, lsr #32
    109c:	0000000a 	andeq	r0, r0, sl

000010a0 <g_pui32GPIOBaseAddrs>:
    10a0:	40004000 	andmi	r4, r0, r0
    10a4:	40058000 	andmi	r8, r5, r0
    10a8:	40005000 	andmi	r5, r0, r0
    10ac:	40059000 	andmi	r9, r5, r0
    10b0:	40006000 	andmi	r6, r0, r0
    10b4:	4005a000 	andmi	sl, r5, r0
    10b8:	40007000 	andmi	r7, r0, r0
    10bc:	4005b000 	andmi	fp, r5, r0
    10c0:	40024000 	andmi	r4, r2, r0
    10c4:	4005c000 	andmi	ip, r5, r0
    10c8:	40025000 	andmi	r5, r2, r0
    10cc:	4005d000 	andmi	sp, r5, r0
    10d0:	40026000 	andmi	r6, r2, r0
    10d4:	4005e000 	andmi	lr, r5, r0
    10d8:	40027000 	andmi	r7, r2, r0
    10dc:	4005f000 	andmi	pc, r5, r0
    10e0:	4003d000 	andmi	sp, r3, r0
    10e4:	40060000 	andmi	r0, r6, r0
    10e8:	40061000 	andmi	r1, r6, r0
    10ec:	40061000 	andmi	r1, r6, r0
    10f0:	40062000 	andmi	r2, r6, r0
    10f4:	40062000 	andmi	r2, r6, r0
    10f8:	40063000 	andmi	r3, r6, r0
    10fc:	40063000 	andmi	r3, r6, r0
    1100:	40064000 	andmi	r4, r6, r0
    1104:	40064000 	andmi	r4, r6, r0
    1108:	40065000 	andmi	r5, r6, r0
    110c:	40065000 	andmi	r5, r6, r0
    1110:	40066000 	andmi	r6, r6, r0
    1114:	40066000 	andmi	r6, r6, r0
    1118:	40067000 	andmi	r7, r6, r0
    111c:	40067000 	andmi	r7, r6, r0
    1120:	40068000 	andmi	r8, r6, r0
    1124:	40068000 	andmi	r8, r6, r0
    1128:	40069000 	andmi	r9, r6, r0
    112c:	40069000 	andmi	r9, r6, r0
