
Build/main.axf:     file format elf32-littlearm


Disassembly of section .text:

00000000 <g_pfnVectors>:
       0:	20000118 	andcs	r0, r0, r8, lsl r1
       4:	00000339 	andeq	r0, r0, r9, lsr r3
       8:	000003a5 	andeq	r0, r0, r5, lsr #7
       c:	000003ad 	andeq	r0, r0, sp, lsr #7
      10:	000003d1 	ldrdeq	r0, [r0], -r1
      14:	000003d1 	ldrdeq	r0, [r0], -r1
      18:	000003d1 	ldrdeq	r0, [r0], -r1
	...
      2c:	000003d1 	ldrdeq	r0, [r0], -r1
      30:	000003d1 	ldrdeq	r0, [r0], -r1
      34:	00000000 	andeq	r0, r0, r0
      38:	000003d1 	ldrdeq	r0, [r0], -r1
      3c:	000003d1 	ldrdeq	r0, [r0], -r1
      40:	000003d1 	ldrdeq	r0, [r0], -r1
      44:	000003d1 	ldrdeq	r0, [r0], -r1
      48:	000003d1 	ldrdeq	r0, [r0], -r1
      4c:	000003d1 	ldrdeq	r0, [r0], -r1
      50:	000003d1 	ldrdeq	r0, [r0], -r1
      54:	0000026d 	andeq	r0, r0, sp, ror #4
      58:	000003d1 	ldrdeq	r0, [r0], -r1
      5c:	000003d1 	ldrdeq	r0, [r0], -r1
      60:	000003d1 	ldrdeq	r0, [r0], -r1
      64:	000003d1 	ldrdeq	r0, [r0], -r1
      68:	000003d1 	ldrdeq	r0, [r0], -r1
      6c:	000003d1 	ldrdeq	r0, [r0], -r1
      70:	000003d1 	ldrdeq	r0, [r0], -r1
      74:	000003d1 	ldrdeq	r0, [r0], -r1
      78:	000003d1 	ldrdeq	r0, [r0], -r1
      7c:	000003d1 	ldrdeq	r0, [r0], -r1
      80:	000003d1 	ldrdeq	r0, [r0], -r1
      84:	000003d1 	ldrdeq	r0, [r0], -r1
      88:	000003d1 	ldrdeq	r0, [r0], -r1
      8c:	000003d1 	ldrdeq	r0, [r0], -r1
      90:	000003d1 	ldrdeq	r0, [r0], -r1
      94:	000003d1 	ldrdeq	r0, [r0], -r1
      98:	000003d1 	ldrdeq	r0, [r0], -r1
      9c:	000003d1 	ldrdeq	r0, [r0], -r1
      a0:	000003d1 	ldrdeq	r0, [r0], -r1
      a4:	000003d1 	ldrdeq	r0, [r0], -r1
      a8:	000003d1 	ldrdeq	r0, [r0], -r1
      ac:	000003d1 	ldrdeq	r0, [r0], -r1
      b0:	000003d1 	ldrdeq	r0, [r0], -r1
      b4:	000003d1 	ldrdeq	r0, [r0], -r1
      b8:	000003d1 	ldrdeq	r0, [r0], -r1
      bc:	000003d1 	ldrdeq	r0, [r0], -r1
      c0:	000003d1 	ldrdeq	r0, [r0], -r1
      c4:	000003d1 	ldrdeq	r0, [r0], -r1
      c8:	000003d1 	ldrdeq	r0, [r0], -r1
      cc:	000003d1 	ldrdeq	r0, [r0], -r1
      d0:	000003d1 	ldrdeq	r0, [r0], -r1
      d4:	000003d1 	ldrdeq	r0, [r0], -r1
      d8:	000003d1 	ldrdeq	r0, [r0], -r1
      dc:	000003d1 	ldrdeq	r0, [r0], -r1
      e0:	000003d1 	ldrdeq	r0, [r0], -r1
      e4:	000003d1 	ldrdeq	r0, [r0], -r1
      e8:	000003d1 	ldrdeq	r0, [r0], -r1
      ec:	000003d1 	ldrdeq	r0, [r0], -r1
      f0:	0000198d 	andeq	r1, r0, sp, lsl #19
      f4:	000003d1 	ldrdeq	r0, [r0], -r1
      f8:	000003d1 	ldrdeq	r0, [r0], -r1
      fc:	000003d1 	ldrdeq	r0, [r0], -r1
     100:	000003d1 	ldrdeq	r0, [r0], -r1
     104:	000003d1 	ldrdeq	r0, [r0], -r1
     108:	000003d1 	ldrdeq	r0, [r0], -r1
     10c:	000003d1 	ldrdeq	r0, [r0], -r1
     110:	000003d1 	ldrdeq	r0, [r0], -r1
     114:	000003d1 	ldrdeq	r0, [r0], -r1
     118:	000003d1 	ldrdeq	r0, [r0], -r1
     11c:	000003d1 	ldrdeq	r0, [r0], -r1
     120:	000003d1 	ldrdeq	r0, [r0], -r1
     124:	000003d1 	ldrdeq	r0, [r0], -r1
     128:	000003d1 	ldrdeq	r0, [r0], -r1
     12c:	000003d1 	ldrdeq	r0, [r0], -r1
     130:	000003d1 	ldrdeq	r0, [r0], -r1
     134:	000003d1 	ldrdeq	r0, [r0], -r1
     138:	000003d1 	ldrdeq	r0, [r0], -r1
     13c:	000003d1 	ldrdeq	r0, [r0], -r1
	...
     150:	000003d1 	ldrdeq	r0, [r0], -r1
     154:	000003d1 	ldrdeq	r0, [r0], -r1
     158:	000003d1 	ldrdeq	r0, [r0], -r1
     15c:	000003d1 	ldrdeq	r0, [r0], -r1
	...
     1b0:	000003d1 	ldrdeq	r0, [r0], -r1
     1b4:	000003d1 	ldrdeq	r0, [r0], -r1
     1b8:	000003d1 	ldrdeq	r0, [r0], -r1
     1bc:	000003d1 	ldrdeq	r0, [r0], -r1
     1c0:	000003d1 	ldrdeq	r0, [r0], -r1
     1c4:	000003d1 	ldrdeq	r0, [r0], -r1
     1c8:	000003d1 	ldrdeq	r0, [r0], -r1
     1cc:	000003d1 	ldrdeq	r0, [r0], -r1
     1d0:	000003d1 	ldrdeq	r0, [r0], -r1
     1d4:	000003d1 	ldrdeq	r0, [r0], -r1
     1d8:	000003d1 	ldrdeq	r0, [r0], -r1
     1dc:	000003d1 	ldrdeq	r0, [r0], -r1
     1e0:	000003d1 	ldrdeq	r0, [r0], -r1
     1e4:	000003d1 	ldrdeq	r0, [r0], -r1
     1e8:	000003d1 	ldrdeq	r0, [r0], -r1
     1ec:	000003d1 	ldrdeq	r0, [r0], -r1
     1f0:	000003d1 	ldrdeq	r0, [r0], -r1
     1f4:	000003d1 	ldrdeq	r0, [r0], -r1
     1f8:	000003d1 	ldrdeq	r0, [r0], -r1
     1fc:	000003d1 	ldrdeq	r0, [r0], -r1
     200:	000003d1 	ldrdeq	r0, [r0], -r1
     204:	000003d1 	ldrdeq	r0, [r0], -r1
     208:	000003d1 	ldrdeq	r0, [r0], -r1
     20c:	00000000 	andeq	r0, r0, r0
     210:	000003d1 	ldrdeq	r0, [r0], -r1
     214:	000003d1 	ldrdeq	r0, [r0], -r1
     218:	000003d1 	ldrdeq	r0, [r0], -r1
     21c:	000003d1 	ldrdeq	r0, [r0], -r1
     220:	000003d1 	ldrdeq	r0, [r0], -r1
     224:	000003d1 	ldrdeq	r0, [r0], -r1
     228:	000003d1 	ldrdeq	r0, [r0], -r1
     22c:	000003d1 	ldrdeq	r0, [r0], -r1
     230:	000003d1 	ldrdeq	r0, [r0], -r1
     234:	000003d1 	ldrdeq	r0, [r0], -r1
     238:	000003d1 	ldrdeq	r0, [r0], -r1
     23c:	000003d1 	ldrdeq	r0, [r0], -r1
     240:	000003d1 	ldrdeq	r0, [r0], -r1
     244:	000003d1 	ldrdeq	r0, [r0], -r1
     248:	000003d1 	ldrdeq	r0, [r0], -r1
     24c:	000003d1 	ldrdeq	r0, [r0], -r1
     250:	000003d1 	ldrdeq	r0, [r0], -r1
     254:	000003d1 	ldrdeq	r0, [r0], -r1
     258:	000003d1 	ldrdeq	r0, [r0], -r1
     25c:	000003d1 	ldrdeq	r0, [r0], -r1
     260:	000003d1 	ldrdeq	r0, [r0], -r1
     264:	000003d1 	ldrdeq	r0, [r0], -r1
     268:	000003d1 	ldrdeq	r0, [r0], -r1

0000026c <UART0IntHandler>:
     26c:	b480      	push	{r7}
     26e:	af00      	add	r7, sp, #0
     270:	bf00      	nop
     272:	46bd      	mov	sp, r7
     274:	f85d 7b04 	ldr.w	r7, [sp], #4
     278:	4770      	bx	lr
	...

0000027c <InitConsole>:
     27c:	b580      	push	{r7, lr}
     27e:	af00      	add	r7, sp, #0
     280:	480e      	ldr	r0, [pc, #56]	; (2bc <InitConsole+0x40>)
     282:	f000 fc51 	bl	b28 <SysCtlPeripheralEnable>
     286:	2001      	movs	r0, #1
     288:	f000 fc12 	bl	ab0 <GPIOPinConfigure>
     28c:	f240 4001 	movw	r0, #1025	; 0x401
     290:	f000 fc0e 	bl	ab0 <GPIOPinConfigure>
     294:	480a      	ldr	r0, [pc, #40]	; (2c0 <InitConsole+0x44>)
     296:	f000 fc47 	bl	b28 <SysCtlPeripheralEnable>
     29a:	2100      	movs	r1, #0
     29c:	4809      	ldr	r0, [pc, #36]	; (2c4 <InitConsole+0x48>)
     29e:	f000 fdcd 	bl	e3c <UARTClockSourceSet>
     2a2:	2103      	movs	r1, #3
     2a4:	f04f 2040 	mov.w	r0, #1073758208	; 0x40004000
     2a8:	f000 fc00 	bl	aac <GPIOPinTypeUART>
     2ac:	4a06      	ldr	r2, [pc, #24]	; (2c8 <InitConsole+0x4c>)
     2ae:	f44f 31e1 	mov.w	r1, #115200	; 0x1c200
     2b2:	2000      	movs	r0, #0
     2b4:	f000 f890 	bl	3d8 <UARTStdioConfig>
     2b8:	bf00      	nop
     2ba:	bd80      	pop	{r7, pc}
     2bc:	f0000800 			; <UNDEFINED> instruction: 0xf0000800
     2c0:	f0001800 			; <UNDEFINED> instruction: 0xf0001800
     2c4:	4000c000 	andmi	ip, r0, r0
     2c8:	02faf080 	rscseq	pc, sl, #128	; 0x80

000002cc <main>:
     2cc:	b580      	push	{r7, lr}
     2ce:	b082      	sub	sp, #8
     2d0:	af00      	add	r7, sp, #0
     2d2:	2300      	movs	r3, #0
     2d4:	607b      	str	r3, [r7, #4]
     2d6:	4813      	ldr	r0, [pc, #76]	; (324 <main+0x58>)
     2d8:	f000 fc3a 	bl	b50 <SysCtlClockSet>
     2dc:	f7ff ffce 	bl	27c <InitConsole>
     2e0:	f000 fcb4 	bl	c4c <SysCtlClockGet>
     2e4:	4603      	mov	r3, r0
     2e6:	4618      	mov	r0, r3
     2e8:	f000 fd62 	bl	db0 <SysTickPeriodSet>
     2ec:	f000 fc02 	bl	af4 <IntMasterEnable>
     2f0:	f000 fd57 	bl	da2 <SysTickIntEnable>
     2f4:	f000 fd4e 	bl	d94 <SysTickEnable>
     2f8:	480b      	ldr	r0, [pc, #44]	; (328 <main+0x5c>)
     2fa:	f001 f98d 	bl	1618 <USBDInit>
     2fe:	480b      	ldr	r0, [pc, #44]	; (32c <main+0x60>)
     300:	f000 fafe 	bl	900 <UARTprintf>
     304:	4b0a      	ldr	r3, [pc, #40]	; (330 <main+0x64>)
     306:	681b      	ldr	r3, [r3, #0]
     308:	687a      	ldr	r2, [r7, #4]
     30a:	429a      	cmp	r2, r3
     30c:	d0fa      	beq.n	304 <main+0x38>
     30e:	4b08      	ldr	r3, [pc, #32]	; (330 <main+0x64>)
     310:	681b      	ldr	r3, [r3, #0]
     312:	4619      	mov	r1, r3
     314:	4807      	ldr	r0, [pc, #28]	; (334 <main+0x68>)
     316:	f000 faf3 	bl	900 <UARTprintf>
     31a:	4b05      	ldr	r3, [pc, #20]	; (330 <main+0x64>)
     31c:	681b      	ldr	r3, [r3, #0]
     31e:	607b      	str	r3, [r7, #4]
     320:	e7f0      	b.n	304 <main+0x38>
     322:	bf00      	nop
     324:	c1000550 	tstgt	r0, r0, asr r5
     328:	20000004 	andcs	r0, r0, r4
     32c:	00001af8 	strdeq	r1, [r0], -r8
     330:	20000000 	andcs	r0, r0, r0
     334:	00001b00 	andeq	r1, r0, r0, lsl #22

00000338 <ResetISR>:
     338:	b580      	push	{r7, lr}
     33a:	b082      	sub	sp, #8
     33c:	af00      	add	r7, sp, #0
     33e:	4b13      	ldr	r3, [pc, #76]	; (38c <zero_loop+0x24>)
     340:	607b      	str	r3, [r7, #4]
     342:	4b13      	ldr	r3, [pc, #76]	; (390 <zero_loop+0x28>)
     344:	603b      	str	r3, [r7, #0]
     346:	e007      	b.n	358 <ResetISR+0x20>
     348:	687a      	ldr	r2, [r7, #4]
     34a:	1d13      	adds	r3, r2, #4
     34c:	607b      	str	r3, [r7, #4]
     34e:	683b      	ldr	r3, [r7, #0]
     350:	1d19      	adds	r1, r3, #4
     352:	6039      	str	r1, [r7, #0]
     354:	6812      	ldr	r2, [r2, #0]
     356:	601a      	str	r2, [r3, #0]
     358:	683b      	ldr	r3, [r7, #0]
     35a:	4a0e      	ldr	r2, [pc, #56]	; (394 <zero_loop+0x2c>)
     35c:	4293      	cmp	r3, r2
     35e:	d3f3      	bcc.n	348 <ResetISR+0x10>
     360:	480e      	ldr	r0, [pc, #56]	; (39c <zero_loop+0x34>)
     362:	490f      	ldr	r1, [pc, #60]	; (3a0 <zero_loop+0x38>)
     364:	f04f 0200 	mov.w	r2, #0

00000368 <zero_loop>:
     368:	4288      	cmp	r0, r1
     36a:	bfb8      	it	lt
     36c:	f840 2b04 	strlt.w	r2, [r0], #4
     370:	dbfa      	blt.n	368 <zero_loop>
     372:	4b09      	ldr	r3, [pc, #36]	; (398 <zero_loop+0x30>)
     374:	681b      	ldr	r3, [r3, #0]
     376:	4a08      	ldr	r2, [pc, #32]	; (398 <zero_loop+0x30>)
     378:	f443 0370 	orr.w	r3, r3, #15728640	; 0xf00000
     37c:	6013      	str	r3, [r2, #0]
     37e:	f7ff ffa5 	bl	2cc <main>
     382:	bf00      	nop
     384:	3708      	adds	r7, #8
     386:	46bd      	mov	sp, r7
     388:	bd80      	pop	{r7, pc}
     38a:	bf00      	nop
     38c:	00001f4f 	andeq	r1, r0, pc, asr #30
     390:	20000000 	andcs	r0, r0, r0
     394:	20000000 	andcs	r0, r0, r0
     398:	e000ed88 	and	lr, r0, r8, lsl #27
     39c:	20000000 	andcs	r0, r0, r0
     3a0:	20000120 	andcs	r0, r0, r0, lsr #2

000003a4 <NmiSR>:
     3a4:	b480      	push	{r7}
     3a6:	af00      	add	r7, sp, #0
     3a8:	e7fe      	b.n	3a8 <NmiSR+0x4>
	...

000003ac <FaultISR>:
     3ac:	b580      	push	{r7, lr}
     3ae:	af00      	add	r7, sp, #0
     3b0:	4b04      	ldr	r3, [pc, #16]	; (3c4 <FaultISR+0x18>)
     3b2:	681b      	ldr	r3, [r3, #0]
     3b4:	4a04      	ldr	r2, [pc, #16]	; (3c8 <FaultISR+0x1c>)
     3b6:	6812      	ldr	r2, [r2, #0]
     3b8:	4619      	mov	r1, r3
     3ba:	4804      	ldr	r0, [pc, #16]	; (3cc <FaultISR+0x20>)
     3bc:	f000 faa0 	bl	900 <UARTprintf>
     3c0:	e7fe      	b.n	3c0 <FaultISR+0x14>
     3c2:	bf00      	nop
     3c4:	e000ed28 	and	lr, r0, r8, lsr #26
     3c8:	e000ed38 	and	lr, r0, r8, lsr sp
     3cc:	00001b1c 	andeq	r1, r0, ip, lsl fp

000003d0 <IntDefaultHandler>:
     3d0:	b480      	push	{r7}
     3d2:	af00      	add	r7, sp, #0
     3d4:	e7fe      	b.n	3d4 <IntDefaultHandler+0x4>
	...

000003d8 <UARTStdioConfig>:
     3d8:	b580      	push	{r7, lr}
     3da:	b084      	sub	sp, #16
     3dc:	af00      	add	r7, sp, #0
     3de:	60f8      	str	r0, [r7, #12]
     3e0:	60b9      	str	r1, [r7, #8]
     3e2:	607a      	str	r2, [r7, #4]
     3e4:	68fb      	ldr	r3, [r7, #12]
     3e6:	2b00      	cmp	r3, #0
     3e8:	d00a      	beq.n	400 <UARTStdioConfig+0x28>
     3ea:	68fb      	ldr	r3, [r7, #12]
     3ec:	2b01      	cmp	r3, #1
     3ee:	d007      	beq.n	400 <UARTStdioConfig+0x28>
     3f0:	68fb      	ldr	r3, [r7, #12]
     3f2:	2b02      	cmp	r3, #2
     3f4:	d004      	beq.n	400 <UARTStdioConfig+0x28>
     3f6:	f240 1153 	movw	r1, #339	; 0x153
     3fa:	4817      	ldr	r0, [pc, #92]	; (458 <UARTStdioConfig+0x80>)
     3fc:	f001 fb6c 	bl	1ad8 <__error__>
     400:	4a16      	ldr	r2, [pc, #88]	; (45c <UARTStdioConfig+0x84>)
     402:	68fb      	ldr	r3, [r7, #12]
     404:	f852 3023 	ldr.w	r3, [r2, r3, lsl #2]
     408:	4618      	mov	r0, r3
     40a:	f000 fb7b 	bl	b04 <SysCtlPeripheralPresent>
     40e:	4603      	mov	r3, r0
     410:	f083 0301 	eor.w	r3, r3, #1
     414:	b2db      	uxtb	r3, r3
     416:	2b00      	cmp	r3, #0
     418:	d119      	bne.n	44e <UARTStdioConfig+0x76>
     41a:	4a11      	ldr	r2, [pc, #68]	; (460 <UARTStdioConfig+0x88>)
     41c:	68fb      	ldr	r3, [r7, #12]
     41e:	f852 3023 	ldr.w	r3, [r2, r3, lsl #2]
     422:	4a10      	ldr	r2, [pc, #64]	; (464 <UARTStdioConfig+0x8c>)
     424:	6013      	str	r3, [r2, #0]
     426:	4a0d      	ldr	r2, [pc, #52]	; (45c <UARTStdioConfig+0x84>)
     428:	68fb      	ldr	r3, [r7, #12]
     42a:	f852 3023 	ldr.w	r3, [r2, r3, lsl #2]
     42e:	4618      	mov	r0, r3
     430:	f000 fb7a 	bl	b28 <SysCtlPeripheralEnable>
     434:	4b0b      	ldr	r3, [pc, #44]	; (464 <UARTStdioConfig+0x8c>)
     436:	6818      	ldr	r0, [r3, #0]
     438:	2360      	movs	r3, #96	; 0x60
     43a:	68ba      	ldr	r2, [r7, #8]
     43c:	6879      	ldr	r1, [r7, #4]
     43e:	f000 fcd5 	bl	dec <UARTConfigSetExpClk>
     442:	4b08      	ldr	r3, [pc, #32]	; (464 <UARTStdioConfig+0x8c>)
     444:	681b      	ldr	r3, [r3, #0]
     446:	4618      	mov	r0, r3
     448:	f000 fcb7 	bl	dba <UARTEnable>
     44c:	e000      	b.n	450 <UARTStdioConfig+0x78>
     44e:	bf00      	nop
     450:	3710      	adds	r7, #16
     452:	46bd      	mov	sp, r7
     454:	bd80      	pop	{r7, pc}
     456:	bf00      	nop
     458:	00001b54 	andeq	r1, r0, r4, asr fp
     45c:	00001b98 	muleq	r0, r8, fp
     460:	00001b8c 	andeq	r1, r0, ip, lsl #23
     464:	20000118 	andcs	r0, r0, r8, lsl r1

00000468 <UARTwrite>:
     468:	b580      	push	{r7, lr}
     46a:	b084      	sub	sp, #16
     46c:	af00      	add	r7, sp, #0
     46e:	6078      	str	r0, [r7, #4]
     470:	6039      	str	r1, [r7, #0]
     472:	4b1f      	ldr	r3, [pc, #124]	; (4f0 <UARTwrite+0x88>)
     474:	681b      	ldr	r3, [r3, #0]
     476:	2b00      	cmp	r3, #0
     478:	d104      	bne.n	484 <UARTwrite+0x1c>
     47a:	f240 2101 	movw	r1, #513	; 0x201
     47e:	481d      	ldr	r0, [pc, #116]	; (4f4 <UARTwrite+0x8c>)
     480:	f001 fb2a 	bl	1ad8 <__error__>
     484:	687b      	ldr	r3, [r7, #4]
     486:	2b00      	cmp	r3, #0
     488:	d104      	bne.n	494 <UARTwrite+0x2c>
     48a:	f240 2102 	movw	r1, #514	; 0x202
     48e:	4819      	ldr	r0, [pc, #100]	; (4f4 <UARTwrite+0x8c>)
     490:	f001 fb22 	bl	1ad8 <__error__>
     494:	2300      	movs	r3, #0
     496:	60fb      	str	r3, [r7, #12]
     498:	e01e      	b.n	4d8 <UARTwrite+0x70>
     49a:	687a      	ldr	r2, [r7, #4]
     49c:	68fb      	ldr	r3, [r7, #12]
     49e:	4413      	add	r3, r2
     4a0:	781b      	ldrb	r3, [r3, #0]
     4a2:	2b0a      	cmp	r3, #10
     4a4:	d106      	bne.n	4b4 <UARTwrite+0x4c>
     4a6:	4b12      	ldr	r3, [pc, #72]	; (4f0 <UARTwrite+0x88>)
     4a8:	681b      	ldr	r3, [r3, #0]
     4aa:	210d      	movs	r1, #13
     4ac:	4618      	mov	r0, r3
     4ae:	f000 fcc0 	bl	e32 <UARTCharPut>
     4b2:	e005      	b.n	4c0 <UARTwrite+0x58>
     4b4:	687a      	ldr	r2, [r7, #4]
     4b6:	68fb      	ldr	r3, [r7, #12]
     4b8:	4413      	add	r3, r2
     4ba:	781b      	ldrb	r3, [r3, #0]
     4bc:	2b00      	cmp	r3, #0
     4be:	d010      	beq.n	4e2 <UARTwrite+0x7a>
     4c0:	4b0b      	ldr	r3, [pc, #44]	; (4f0 <UARTwrite+0x88>)
     4c2:	6818      	ldr	r0, [r3, #0]
     4c4:	687a      	ldr	r2, [r7, #4]
     4c6:	68fb      	ldr	r3, [r7, #12]
     4c8:	4413      	add	r3, r2
     4ca:	781b      	ldrb	r3, [r3, #0]
     4cc:	4619      	mov	r1, r3
     4ce:	f000 fcb0 	bl	e32 <UARTCharPut>
     4d2:	68fb      	ldr	r3, [r7, #12]
     4d4:	3301      	adds	r3, #1
     4d6:	60fb      	str	r3, [r7, #12]
     4d8:	68fa      	ldr	r2, [r7, #12]
     4da:	683b      	ldr	r3, [r7, #0]
     4dc:	429a      	cmp	r2, r3
     4de:	d3dc      	bcc.n	49a <UARTwrite+0x32>
     4e0:	e000      	b.n	4e4 <UARTwrite+0x7c>
     4e2:	bf00      	nop
     4e4:	68fb      	ldr	r3, [r7, #12]
     4e6:	4618      	mov	r0, r3
     4e8:	3710      	adds	r7, #16
     4ea:	46bd      	mov	sp, r7
     4ec:	bd80      	pop	{r7, pc}
     4ee:	bf00      	nop
     4f0:	20000118 	andcs	r0, r0, r8, lsl r1
     4f4:	00001b54 	andeq	r1, r0, r4, asr fp

000004f8 <UARTvprintf>:
     4f8:	b580      	push	{r7, lr}
     4fa:	b08e      	sub	sp, #56	; 0x38
     4fc:	af00      	add	r7, sp, #0
     4fe:	6078      	str	r0, [r7, #4]
     500:	6039      	str	r1, [r7, #0]
     502:	687b      	ldr	r3, [r7, #4]
     504:	2b00      	cmp	r3, #0
     506:	f040 81ed 	bne.w	8e4 <UARTvprintf+0x3ec>
     50a:	f44f 715b 	mov.w	r1, #876	; 0x36c
     50e:	48ae      	ldr	r0, [pc, #696]	; (7c8 <UARTvprintf+0x2d0>)
     510:	f001 fae2 	bl	1ad8 <__error__>
     514:	e1e6      	b.n	8e4 <UARTvprintf+0x3ec>
     516:	2300      	movs	r3, #0
     518:	637b      	str	r3, [r7, #52]	; 0x34
     51a:	e002      	b.n	522 <UARTvprintf+0x2a>
     51c:	6b7b      	ldr	r3, [r7, #52]	; 0x34
     51e:	3301      	adds	r3, #1
     520:	637b      	str	r3, [r7, #52]	; 0x34
     522:	687a      	ldr	r2, [r7, #4]
     524:	6b7b      	ldr	r3, [r7, #52]	; 0x34
     526:	4413      	add	r3, r2
     528:	781b      	ldrb	r3, [r3, #0]
     52a:	2b25      	cmp	r3, #37	; 0x25
     52c:	d005      	beq.n	53a <UARTvprintf+0x42>
     52e:	687a      	ldr	r2, [r7, #4]
     530:	6b7b      	ldr	r3, [r7, #52]	; 0x34
     532:	4413      	add	r3, r2
     534:	781b      	ldrb	r3, [r3, #0]
     536:	2b00      	cmp	r3, #0
     538:	d1f0      	bne.n	51c <UARTvprintf+0x24>
     53a:	6b79      	ldr	r1, [r7, #52]	; 0x34
     53c:	6878      	ldr	r0, [r7, #4]
     53e:	f7ff ff93 	bl	468 <UARTwrite>
     542:	687a      	ldr	r2, [r7, #4]
     544:	6b7b      	ldr	r3, [r7, #52]	; 0x34
     546:	4413      	add	r3, r2
     548:	607b      	str	r3, [r7, #4]
     54a:	687b      	ldr	r3, [r7, #4]
     54c:	781b      	ldrb	r3, [r3, #0]
     54e:	2b25      	cmp	r3, #37	; 0x25
     550:	f040 81c7 	bne.w	8e2 <UARTvprintf+0x3ea>
     554:	687b      	ldr	r3, [r7, #4]
     556:	3301      	adds	r3, #1
     558:	607b      	str	r3, [r7, #4]
     55a:	2300      	movs	r3, #0
     55c:	62fb      	str	r3, [r7, #44]	; 0x2c
     55e:	2320      	movs	r3, #32
     560:	f887 3023 	strb.w	r3, [r7, #35]	; 0x23
     564:	687b      	ldr	r3, [r7, #4]
     566:	1c5a      	adds	r2, r3, #1
     568:	607a      	str	r2, [r7, #4]
     56a:	781b      	ldrb	r3, [r3, #0]
     56c:	3b25      	subs	r3, #37	; 0x25
     56e:	2b53      	cmp	r3, #83	; 0x53
     570:	f200 81b2 	bhi.w	8d8 <UARTvprintf+0x3e0>
     574:	a201      	add	r2, pc, #4	; (adr r2, 57c <UARTvprintf+0x84>)
     576:	f852 f023 	ldr.w	pc, [r2, r3, lsl #2]
     57a:	bf00      	nop
     57c:	000008cb 	andeq	r0, r0, fp, asr #17
     580:	000008d9 	ldrdeq	r0, [r0], -r9
     584:	000008d9 	ldrdeq	r0, [r0], -r9
     588:	000008d9 	ldrdeq	r0, [r0], -r9
     58c:	000008d9 	ldrdeq	r0, [r0], -r9
     590:	000008d9 	ldrdeq	r0, [r0], -r9
     594:	000008d9 	ldrdeq	r0, [r0], -r9
     598:	000008d9 	ldrdeq	r0, [r0], -r9
     59c:	000008d9 	ldrdeq	r0, [r0], -r9
     5a0:	000008d9 	ldrdeq	r0, [r0], -r9
     5a4:	000008d9 	ldrdeq	r0, [r0], -r9
     5a8:	000006cd 	andeq	r0, r0, sp, asr #13
     5ac:	000006cd 	andeq	r0, r0, sp, asr #13
     5b0:	000006cd 	andeq	r0, r0, sp, asr #13
     5b4:	000006cd 	andeq	r0, r0, sp, asr #13
     5b8:	000006cd 	andeq	r0, r0, sp, asr #13
     5bc:	000006cd 	andeq	r0, r0, sp, asr #13
     5c0:	000006cd 	andeq	r0, r0, sp, asr #13
     5c4:	000006cd 	andeq	r0, r0, sp, asr #13
     5c8:	000006cd 	andeq	r0, r0, sp, asr #13
     5cc:	000006cd 	andeq	r0, r0, sp, asr #13
     5d0:	000008d9 	ldrdeq	r0, [r0], -r9
     5d4:	000008d9 	ldrdeq	r0, [r0], -r9
     5d8:	000008d9 	ldrdeq	r0, [r0], -r9
     5dc:	000008d9 	ldrdeq	r0, [r0], -r9
     5e0:	000008d9 	ldrdeq	r0, [r0], -r9
     5e4:	000008d9 	ldrdeq	r0, [r0], -r9
     5e8:	000008d9 	ldrdeq	r0, [r0], -r9
     5ec:	000008d9 	ldrdeq	r0, [r0], -r9
     5f0:	000008d9 	ldrdeq	r0, [r0], -r9
     5f4:	000008d9 	ldrdeq	r0, [r0], -r9
     5f8:	000008d9 	ldrdeq	r0, [r0], -r9
     5fc:	000008d9 	ldrdeq	r0, [r0], -r9
     600:	000008d9 	ldrdeq	r0, [r0], -r9
     604:	000008d9 	ldrdeq	r0, [r0], -r9
     608:	000008d9 	ldrdeq	r0, [r0], -r9
     60c:	000008d9 	ldrdeq	r0, [r0], -r9
     610:	000008d9 	ldrdeq	r0, [r0], -r9
     614:	000008d9 	ldrdeq	r0, [r0], -r9
     618:	000008d9 	ldrdeq	r0, [r0], -r9
     61c:	000008d9 	ldrdeq	r0, [r0], -r9
     620:	000008d9 	ldrdeq	r0, [r0], -r9
     624:	000008d9 	ldrdeq	r0, [r0], -r9
     628:	000008d9 	ldrdeq	r0, [r0], -r9
     62c:	000008d9 	ldrdeq	r0, [r0], -r9
     630:	000008d9 	ldrdeq	r0, [r0], -r9
     634:	000008d9 	ldrdeq	r0, [r0], -r9
     638:	000008d9 	ldrdeq	r0, [r0], -r9
     63c:	000008d9 	ldrdeq	r0, [r0], -r9
     640:	000008d9 	ldrdeq	r0, [r0], -r9
     644:	000008d9 	ldrdeq	r0, [r0], -r9
     648:	000007ad 	andeq	r0, r0, sp, lsr #15
     64c:	000008d9 	ldrdeq	r0, [r0], -r9
     650:	000008d9 	ldrdeq	r0, [r0], -r9
     654:	000008d9 	ldrdeq	r0, [r0], -r9
     658:	000008d9 	ldrdeq	r0, [r0], -r9
     65c:	000008d9 	ldrdeq	r0, [r0], -r9
     660:	000008d9 	ldrdeq	r0, [r0], -r9
     664:	000008d9 	ldrdeq	r0, [r0], -r9
     668:	000008d9 	ldrdeq	r0, [r0], -r9
     66c:	000008d9 	ldrdeq	r0, [r0], -r9
     670:	000008d9 	ldrdeq	r0, [r0], -r9
     674:	00000701 	andeq	r0, r0, r1, lsl #14
     678:	00000719 	andeq	r0, r0, r9, lsl r7
     67c:	000008d9 	ldrdeq	r0, [r0], -r9
     680:	000008d9 	ldrdeq	r0, [r0], -r9
     684:	000008d9 	ldrdeq	r0, [r0], -r9
     688:	000008d9 	ldrdeq	r0, [r0], -r9
     68c:	00000719 	andeq	r0, r0, r9, lsl r7
     690:	000008d9 	ldrdeq	r0, [r0], -r9
     694:	000008d9 	ldrdeq	r0, [r0], -r9
     698:	000008d9 	ldrdeq	r0, [r0], -r9
     69c:	000008d9 	ldrdeq	r0, [r0], -r9
     6a0:	000008d9 	ldrdeq	r0, [r0], -r9
     6a4:	000008d9 	ldrdeq	r0, [r0], -r9
     6a8:	000007ad 	andeq	r0, r0, sp, lsr #15
     6ac:	000008d9 	ldrdeq	r0, [r0], -r9
     6b0:	000008d9 	ldrdeq	r0, [r0], -r9
     6b4:	00000743 	andeq	r0, r0, r3, asr #14
     6b8:	000008d9 	ldrdeq	r0, [r0], -r9
     6bc:	00000795 	muleq	r0, r5, r7
     6c0:	000008d9 	ldrdeq	r0, [r0], -r9
     6c4:	000008d9 	ldrdeq	r0, [r0], -r9
     6c8:	000007ad 	andeq	r0, r0, sp, lsr #15
     6cc:	687b      	ldr	r3, [r7, #4]
     6ce:	3b01      	subs	r3, #1
     6d0:	781b      	ldrb	r3, [r3, #0]
     6d2:	2b30      	cmp	r3, #48	; 0x30
     6d4:	d105      	bne.n	6e2 <UARTvprintf+0x1ea>
     6d6:	6afb      	ldr	r3, [r7, #44]	; 0x2c
     6d8:	2b00      	cmp	r3, #0
     6da:	d102      	bne.n	6e2 <UARTvprintf+0x1ea>
     6dc:	2330      	movs	r3, #48	; 0x30
     6de:	f887 3023 	strb.w	r3, [r7, #35]	; 0x23
     6e2:	6afa      	ldr	r2, [r7, #44]	; 0x2c
     6e4:	4613      	mov	r3, r2
     6e6:	009b      	lsls	r3, r3, #2
     6e8:	4413      	add	r3, r2
     6ea:	005b      	lsls	r3, r3, #1
     6ec:	62fb      	str	r3, [r7, #44]	; 0x2c
     6ee:	687b      	ldr	r3, [r7, #4]
     6f0:	3b01      	subs	r3, #1
     6f2:	781b      	ldrb	r3, [r3, #0]
     6f4:	461a      	mov	r2, r3
     6f6:	6afb      	ldr	r3, [r7, #44]	; 0x2c
     6f8:	4413      	add	r3, r2
     6fa:	3b30      	subs	r3, #48	; 0x30
     6fc:	62fb      	str	r3, [r7, #44]	; 0x2c
     6fe:	e731      	b.n	564 <UARTvprintf+0x6c>
     700:	683b      	ldr	r3, [r7, #0]
     702:	1d1a      	adds	r2, r3, #4
     704:	603a      	str	r2, [r7, #0]
     706:	681b      	ldr	r3, [r3, #0]
     708:	61bb      	str	r3, [r7, #24]
     70a:	f107 0318 	add.w	r3, r7, #24
     70e:	2101      	movs	r1, #1
     710:	4618      	mov	r0, r3
     712:	f7ff fea9 	bl	468 <UARTwrite>
     716:	e0e5      	b.n	8e4 <UARTvprintf+0x3ec>
     718:	683b      	ldr	r3, [r7, #0]
     71a:	1d1a      	adds	r2, r3, #4
     71c:	603a      	str	r2, [r7, #0]
     71e:	681b      	ldr	r3, [r3, #0]
     720:	61bb      	str	r3, [r7, #24]
     722:	2300      	movs	r3, #0
     724:	633b      	str	r3, [r7, #48]	; 0x30
     726:	69bb      	ldr	r3, [r7, #24]
     728:	2b00      	cmp	r3, #0
     72a:	da05      	bge.n	738 <UARTvprintf+0x240>
     72c:	69bb      	ldr	r3, [r7, #24]
     72e:	425b      	negs	r3, r3
     730:	61bb      	str	r3, [r7, #24]
     732:	2301      	movs	r3, #1
     734:	627b      	str	r3, [r7, #36]	; 0x24
     736:	e001      	b.n	73c <UARTvprintf+0x244>
     738:	2300      	movs	r3, #0
     73a:	627b      	str	r3, [r7, #36]	; 0x24
     73c:	230a      	movs	r3, #10
     73e:	62bb      	str	r3, [r7, #40]	; 0x28
     740:	e03f      	b.n	7c2 <UARTvprintf+0x2ca>
     742:	683b      	ldr	r3, [r7, #0]
     744:	1d1a      	adds	r2, r3, #4
     746:	603a      	str	r2, [r7, #0]
     748:	681b      	ldr	r3, [r3, #0]
     74a:	61fb      	str	r3, [r7, #28]
     74c:	2300      	movs	r3, #0
     74e:	637b      	str	r3, [r7, #52]	; 0x34
     750:	e002      	b.n	758 <UARTvprintf+0x260>
     752:	6b7b      	ldr	r3, [r7, #52]	; 0x34
     754:	3301      	adds	r3, #1
     756:	637b      	str	r3, [r7, #52]	; 0x34
     758:	69fa      	ldr	r2, [r7, #28]
     75a:	6b7b      	ldr	r3, [r7, #52]	; 0x34
     75c:	4413      	add	r3, r2
     75e:	781b      	ldrb	r3, [r3, #0]
     760:	2b00      	cmp	r3, #0
     762:	d1f6      	bne.n	752 <UARTvprintf+0x25a>
     764:	6b79      	ldr	r1, [r7, #52]	; 0x34
     766:	69f8      	ldr	r0, [r7, #28]
     768:	f7ff fe7e 	bl	468 <UARTwrite>
     76c:	6afa      	ldr	r2, [r7, #44]	; 0x2c
     76e:	6b7b      	ldr	r3, [r7, #52]	; 0x34
     770:	429a      	cmp	r2, r3
     772:	f240 80b7 	bls.w	8e4 <UARTvprintf+0x3ec>
     776:	6afa      	ldr	r2, [r7, #44]	; 0x2c
     778:	6b7b      	ldr	r3, [r7, #52]	; 0x34
     77a:	1ad3      	subs	r3, r2, r3
     77c:	62fb      	str	r3, [r7, #44]	; 0x2c
     77e:	e003      	b.n	788 <UARTvprintf+0x290>
     780:	2101      	movs	r1, #1
     782:	4812      	ldr	r0, [pc, #72]	; (7cc <UARTvprintf+0x2d4>)
     784:	f7ff fe70 	bl	468 <UARTwrite>
     788:	6afb      	ldr	r3, [r7, #44]	; 0x2c
     78a:	1e5a      	subs	r2, r3, #1
     78c:	62fa      	str	r2, [r7, #44]	; 0x2c
     78e:	2b00      	cmp	r3, #0
     790:	d1f6      	bne.n	780 <UARTvprintf+0x288>
     792:	e0a7      	b.n	8e4 <UARTvprintf+0x3ec>
     794:	683b      	ldr	r3, [r7, #0]
     796:	1d1a      	adds	r2, r3, #4
     798:	603a      	str	r2, [r7, #0]
     79a:	681b      	ldr	r3, [r3, #0]
     79c:	61bb      	str	r3, [r7, #24]
     79e:	2300      	movs	r3, #0
     7a0:	633b      	str	r3, [r7, #48]	; 0x30
     7a2:	230a      	movs	r3, #10
     7a4:	62bb      	str	r3, [r7, #40]	; 0x28
     7a6:	2300      	movs	r3, #0
     7a8:	627b      	str	r3, [r7, #36]	; 0x24
     7aa:	e00a      	b.n	7c2 <UARTvprintf+0x2ca>
     7ac:	683b      	ldr	r3, [r7, #0]
     7ae:	1d1a      	adds	r2, r3, #4
     7b0:	603a      	str	r2, [r7, #0]
     7b2:	681b      	ldr	r3, [r3, #0]
     7b4:	61bb      	str	r3, [r7, #24]
     7b6:	2300      	movs	r3, #0
     7b8:	633b      	str	r3, [r7, #48]	; 0x30
     7ba:	2310      	movs	r3, #16
     7bc:	62bb      	str	r3, [r7, #40]	; 0x28
     7be:	2300      	movs	r3, #0
     7c0:	627b      	str	r3, [r7, #36]	; 0x24
     7c2:	2301      	movs	r3, #1
     7c4:	637b      	str	r3, [r7, #52]	; 0x34
     7c6:	e00b      	b.n	7e0 <UARTvprintf+0x2e8>
     7c8:	00001b54 	andeq	r1, r0, r4, asr fp
     7cc:	00001b80 	andeq	r1, r0, r0, lsl #23
     7d0:	6b7b      	ldr	r3, [r7, #52]	; 0x34
     7d2:	6aba      	ldr	r2, [r7, #40]	; 0x28
     7d4:	fb02 f303 	mul.w	r3, r2, r3
     7d8:	637b      	str	r3, [r7, #52]	; 0x34
     7da:	6afb      	ldr	r3, [r7, #44]	; 0x2c
     7dc:	3b01      	subs	r3, #1
     7de:	62fb      	str	r3, [r7, #44]	; 0x2c
     7e0:	6b7b      	ldr	r3, [r7, #52]	; 0x34
     7e2:	6aba      	ldr	r2, [r7, #40]	; 0x28
     7e4:	fb03 f202 	mul.w	r2, r3, r2
     7e8:	69bb      	ldr	r3, [r7, #24]
     7ea:	429a      	cmp	r2, r3
     7ec:	d809      	bhi.n	802 <UARTvprintf+0x30a>
     7ee:	6b7b      	ldr	r3, [r7, #52]	; 0x34
     7f0:	6aba      	ldr	r2, [r7, #40]	; 0x28
     7f2:	fb03 f202 	mul.w	r2, r3, r2
     7f6:	6abb      	ldr	r3, [r7, #40]	; 0x28
     7f8:	fbb2 f3f3 	udiv	r3, r2, r3
     7fc:	6b7a      	ldr	r2, [r7, #52]	; 0x34
     7fe:	429a      	cmp	r2, r3
     800:	d0e6      	beq.n	7d0 <UARTvprintf+0x2d8>
     802:	6a7b      	ldr	r3, [r7, #36]	; 0x24
     804:	2b00      	cmp	r3, #0
     806:	d002      	beq.n	80e <UARTvprintf+0x316>
     808:	6afb      	ldr	r3, [r7, #44]	; 0x2c
     80a:	3b01      	subs	r3, #1
     80c:	62fb      	str	r3, [r7, #44]	; 0x2c
     80e:	6a7b      	ldr	r3, [r7, #36]	; 0x24
     810:	2b00      	cmp	r3, #0
     812:	d00e      	beq.n	832 <UARTvprintf+0x33a>
     814:	f897 3023 	ldrb.w	r3, [r7, #35]	; 0x23
     818:	2b30      	cmp	r3, #48	; 0x30
     81a:	d10a      	bne.n	832 <UARTvprintf+0x33a>
     81c:	6b3b      	ldr	r3, [r7, #48]	; 0x30
     81e:	1c5a      	adds	r2, r3, #1
     820:	633a      	str	r2, [r7, #48]	; 0x30
     822:	f107 0238 	add.w	r2, r7, #56	; 0x38
     826:	4413      	add	r3, r2
     828:	222d      	movs	r2, #45	; 0x2d
     82a:	f803 2c30 	strb.w	r2, [r3, #-48]
     82e:	2300      	movs	r3, #0
     830:	627b      	str	r3, [r7, #36]	; 0x24
     832:	6afb      	ldr	r3, [r7, #44]	; 0x2c
     834:	2b01      	cmp	r3, #1
     836:	d916      	bls.n	866 <UARTvprintf+0x36e>
     838:	6afb      	ldr	r3, [r7, #44]	; 0x2c
     83a:	2b0f      	cmp	r3, #15
     83c:	d813      	bhi.n	866 <UARTvprintf+0x36e>
     83e:	6afb      	ldr	r3, [r7, #44]	; 0x2c
     840:	3b01      	subs	r3, #1
     842:	62fb      	str	r3, [r7, #44]	; 0x2c
     844:	e00c      	b.n	860 <UARTvprintf+0x368>
     846:	6b3b      	ldr	r3, [r7, #48]	; 0x30
     848:	1c5a      	adds	r2, r3, #1
     84a:	633a      	str	r2, [r7, #48]	; 0x30
     84c:	f107 0238 	add.w	r2, r7, #56	; 0x38
     850:	4413      	add	r3, r2
     852:	f897 2023 	ldrb.w	r2, [r7, #35]	; 0x23
     856:	f803 2c30 	strb.w	r2, [r3, #-48]
     85a:	6afb      	ldr	r3, [r7, #44]	; 0x2c
     85c:	3b01      	subs	r3, #1
     85e:	62fb      	str	r3, [r7, #44]	; 0x2c
     860:	6afb      	ldr	r3, [r7, #44]	; 0x2c
     862:	2b00      	cmp	r3, #0
     864:	d1ef      	bne.n	846 <UARTvprintf+0x34e>
     866:	6a7b      	ldr	r3, [r7, #36]	; 0x24
     868:	2b00      	cmp	r3, #0
     86a:	d024      	beq.n	8b6 <UARTvprintf+0x3be>
     86c:	6b3b      	ldr	r3, [r7, #48]	; 0x30
     86e:	1c5a      	adds	r2, r3, #1
     870:	633a      	str	r2, [r7, #48]	; 0x30
     872:	f107 0238 	add.w	r2, r7, #56	; 0x38
     876:	4413      	add	r3, r2
     878:	222d      	movs	r2, #45	; 0x2d
     87a:	f803 2c30 	strb.w	r2, [r3, #-48]
     87e:	e01a      	b.n	8b6 <UARTvprintf+0x3be>
     880:	481d      	ldr	r0, [pc, #116]	; (8f8 <UARTvprintf+0x400>)
     882:	69ba      	ldr	r2, [r7, #24]
     884:	6b7b      	ldr	r3, [r7, #52]	; 0x34
     886:	fbb2 f3f3 	udiv	r3, r2, r3
     88a:	6aba      	ldr	r2, [r7, #40]	; 0x28
     88c:	fbb3 f2f2 	udiv	r2, r3, r2
     890:	6ab9      	ldr	r1, [r7, #40]	; 0x28
     892:	fb01 f202 	mul.w	r2, r1, r2
     896:	1a9b      	subs	r3, r3, r2
     898:	18c2      	adds	r2, r0, r3
     89a:	6b3b      	ldr	r3, [r7, #48]	; 0x30
     89c:	1c59      	adds	r1, r3, #1
     89e:	6339      	str	r1, [r7, #48]	; 0x30
     8a0:	7812      	ldrb	r2, [r2, #0]
     8a2:	f107 0138 	add.w	r1, r7, #56	; 0x38
     8a6:	440b      	add	r3, r1
     8a8:	f803 2c30 	strb.w	r2, [r3, #-48]
     8ac:	6b7a      	ldr	r2, [r7, #52]	; 0x34
     8ae:	6abb      	ldr	r3, [r7, #40]	; 0x28
     8b0:	fbb2 f3f3 	udiv	r3, r2, r3
     8b4:	637b      	str	r3, [r7, #52]	; 0x34
     8b6:	6b7b      	ldr	r3, [r7, #52]	; 0x34
     8b8:	2b00      	cmp	r3, #0
     8ba:	d1e1      	bne.n	880 <UARTvprintf+0x388>
     8bc:	f107 0308 	add.w	r3, r7, #8
     8c0:	6b39      	ldr	r1, [r7, #48]	; 0x30
     8c2:	4618      	mov	r0, r3
     8c4:	f7ff fdd0 	bl	468 <UARTwrite>
     8c8:	e00c      	b.n	8e4 <UARTvprintf+0x3ec>
     8ca:	687b      	ldr	r3, [r7, #4]
     8cc:	3b01      	subs	r3, #1
     8ce:	2101      	movs	r1, #1
     8d0:	4618      	mov	r0, r3
     8d2:	f7ff fdc9 	bl	468 <UARTwrite>
     8d6:	e005      	b.n	8e4 <UARTvprintf+0x3ec>
     8d8:	2105      	movs	r1, #5
     8da:	4808      	ldr	r0, [pc, #32]	; (8fc <UARTvprintf+0x404>)
     8dc:	f7ff fdc4 	bl	468 <UARTwrite>
     8e0:	e000      	b.n	8e4 <UARTvprintf+0x3ec>
     8e2:	bf00      	nop
     8e4:	687b      	ldr	r3, [r7, #4]
     8e6:	781b      	ldrb	r3, [r3, #0]
     8e8:	2b00      	cmp	r3, #0
     8ea:	f47f ae14 	bne.w	516 <UARTvprintf+0x1e>
     8ee:	bf00      	nop
     8f0:	bf00      	nop
     8f2:	3738      	adds	r7, #56	; 0x38
     8f4:	46bd      	mov	sp, r7
     8f6:	bd80      	pop	{r7, pc}
     8f8:	00001b40 	andeq	r1, r0, r0, asr #22
     8fc:	00001b84 	andeq	r1, r0, r4, lsl #23

00000900 <UARTprintf>:
     900:	b40f      	push	{r0, r1, r2, r3}
     902:	b580      	push	{r7, lr}
     904:	b082      	sub	sp, #8
     906:	af00      	add	r7, sp, #0
     908:	f107 0314 	add.w	r3, r7, #20
     90c:	607b      	str	r3, [r7, #4]
     90e:	6879      	ldr	r1, [r7, #4]
     910:	6938      	ldr	r0, [r7, #16]
     912:	f7ff fdf1 	bl	4f8 <UARTvprintf>
     916:	bf00      	nop
     918:	3708      	adds	r7, #8
     91a:	46bd      	mov	sp, r7
     91c:	e8bd 4080 	ldmia.w	sp!, {r7, lr}
     920:	b004      	add	sp, #16
     922:	4770      	bx	lr

00000924 <GPIODirModeSet>:
     924:	f8d0 3400 	ldr.w	r3, [r0, #1024]	; 0x400
     928:	f012 0f01 	tst.w	r2, #1
     92c:	bf14      	ite	ne
     92e:	430b      	orrne	r3, r1
     930:	438b      	biceq	r3, r1
     932:	f8c0 3400 	str.w	r3, [r0, #1024]	; 0x400
     936:	f8d0 3420 	ldr.w	r3, [r0, #1056]	; 0x420
     93a:	0792      	lsls	r2, r2, #30
     93c:	bf4c      	ite	mi
     93e:	4319      	orrmi	r1, r3
     940:	ea23 0101 	bicpl.w	r1, r3, r1
     944:	f8c0 1420 	str.w	r1, [r0, #1056]	; 0x420
     948:	4770      	bx	lr
	...

0000094c <GPIOPadConfigSet>:
     94c:	b5f0      	push	{r4, r5, r6, r7, lr}
     94e:	4c4e      	ldr	r4, [pc, #312]	; (a88 <GPIOPadConfigSet+0x13c>)
     950:	6825      	ldr	r5, [r4, #0]
     952:	4c4e      	ldr	r4, [pc, #312]	; (a8c <GPIOPadConfigSet+0x140>)
     954:	402c      	ands	r4, r5
     956:	4d4e      	ldr	r5, [pc, #312]	; (a90 <GPIOPadConfigSet+0x144>)
     958:	42ac      	cmp	r4, r5
     95a:	d106      	bne.n	96a <GPIOPadConfigSet+0x1e>
     95c:	07d5      	lsls	r5, r2, #31
     95e:	d421      	bmi.n	9a4 <GPIOPadConfigSet+0x58>
     960:	f8d0 4500 	ldr.w	r4, [r0, #1280]	; 0x500
     964:	ea24 0401 	bic.w	r4, r4, r1
     968:	e01f      	b.n	9aa <GPIOPadConfigSet+0x5e>
     96a:	f3c2 1741 	ubfx	r7, r2, #5, #2
     96e:	2500      	movs	r5, #0
     970:	f04f 0c03 	mov.w	ip, #3
     974:	fa41 f405 	asr.w	r4, r1, r5
     978:	07e4      	lsls	r4, r4, #31
     97a:	d50f      	bpl.n	99c <GPIOPadConfigSet+0x50>
     97c:	f8d0 6fc4 	ldr.w	r6, [r0, #4036]	; 0xfc4
     980:	006c      	lsls	r4, r5, #1
     982:	fa0c fe04 	lsl.w	lr, ip, r4
     986:	ea26 060e 	bic.w	r6, r6, lr
     98a:	f8c0 6fc4 	str.w	r6, [r0, #4036]	; 0xfc4
     98e:	f8d0 6fc4 	ldr.w	r6, [r0, #4036]	; 0xfc4
     992:	fa07 f404 	lsl.w	r4, r7, r4
     996:	4334      	orrs	r4, r6
     998:	f8c0 4fc4 	str.w	r4, [r0, #4036]	; 0xfc4
     99c:	3501      	adds	r5, #1
     99e:	2d08      	cmp	r5, #8
     9a0:	d1e8      	bne.n	974 <GPIOPadConfigSet+0x28>
     9a2:	e7db      	b.n	95c <GPIOPadConfigSet+0x10>
     9a4:	f8d0 4500 	ldr.w	r4, [r0, #1280]	; 0x500
     9a8:	430c      	orrs	r4, r1
     9aa:	f8c0 4500 	str.w	r4, [r0, #1280]	; 0x500
     9ae:	f8d0 4504 	ldr.w	r4, [r0, #1284]	; 0x504
     9b2:	0797      	lsls	r7, r2, #30
     9b4:	bf4c      	ite	mi
     9b6:	430c      	orrmi	r4, r1
     9b8:	438c      	bicpl	r4, r1
     9ba:	f8c0 4504 	str.w	r4, [r0, #1284]	; 0x504
     9be:	f8d0 4508 	ldr.w	r4, [r0, #1288]	; 0x508
     9c2:	0756      	lsls	r6, r2, #29
     9c4:	bf4c      	ite	mi
     9c6:	430c      	orrmi	r4, r1
     9c8:	438c      	bicpl	r4, r1
     9ca:	f8c0 4508 	str.w	r4, [r0, #1288]	; 0x508
     9ce:	f8d0 4518 	ldr.w	r4, [r0, #1304]	; 0x518
     9d2:	0715      	lsls	r5, r2, #28
     9d4:	bf4c      	ite	mi
     9d6:	430c      	orrmi	r4, r1
     9d8:	438c      	bicpl	r4, r1
     9da:	f8c0 4518 	str.w	r4, [r0, #1304]	; 0x518
     9de:	4c2a      	ldr	r4, [pc, #168]	; (a88 <GPIOPadConfigSet+0x13c>)
     9e0:	6825      	ldr	r5, [r4, #0]
     9e2:	4c2a      	ldr	r4, [pc, #168]	; (a8c <GPIOPadConfigSet+0x140>)
     9e4:	402c      	ands	r4, r5
     9e6:	4d2a      	ldr	r5, [pc, #168]	; (a90 <GPIOPadConfigSet+0x144>)
     9e8:	42ac      	cmp	r4, r5
     9ea:	d008      	beq.n	9fe <GPIOPadConfigSet+0xb2>
     9ec:	f012 0f10 	tst.w	r2, #16
     9f0:	f8d0 253c 	ldr.w	r2, [r0, #1340]	; 0x53c
     9f4:	bf14      	ite	ne
     9f6:	430a      	orrne	r2, r1
     9f8:	438a      	biceq	r2, r1
     9fa:	f8c0 253c 	str.w	r2, [r0, #1340]	; 0x53c
     9fe:	f8d0 250c 	ldr.w	r2, [r0, #1292]	; 0x50c
     a02:	07dc      	lsls	r4, r3, #31
     a04:	bf4c      	ite	mi
     a06:	430a      	orrmi	r2, r1
     a08:	438a      	bicpl	r2, r1
     a0a:	f8c0 250c 	str.w	r2, [r0, #1292]	; 0x50c
     a0e:	f8d0 2510 	ldr.w	r2, [r0, #1296]	; 0x510
     a12:	079f      	lsls	r7, r3, #30
     a14:	bf4c      	ite	mi
     a16:	430a      	orrmi	r2, r1
     a18:	438a      	bicpl	r2, r1
     a1a:	f8c0 2510 	str.w	r2, [r0, #1296]	; 0x510
     a1e:	f8d0 2514 	ldr.w	r2, [r0, #1300]	; 0x514
     a22:	075e      	lsls	r6, r3, #29
     a24:	bf4c      	ite	mi
     a26:	430a      	orrmi	r2, r1
     a28:	438a      	bicpl	r2, r1
     a2a:	f8c0 2514 	str.w	r2, [r0, #1300]	; 0x514
     a2e:	f8d0 251c 	ldr.w	r2, [r0, #1308]	; 0x51c
     a32:	071d      	lsls	r5, r3, #28
     a34:	bf4c      	ite	mi
     a36:	430a      	orrmi	r2, r1
     a38:	438a      	bicpl	r2, r1
     a3a:	f8c0 251c 	str.w	r2, [r0, #1308]	; 0x51c
     a3e:	4a12      	ldr	r2, [pc, #72]	; (a88 <GPIOPadConfigSet+0x13c>)
     a40:	6814      	ldr	r4, [r2, #0]
     a42:	4a12      	ldr	r2, [pc, #72]	; (a8c <GPIOPadConfigSet+0x140>)
     a44:	4022      	ands	r2, r4
     a46:	4c12      	ldr	r4, [pc, #72]	; (a90 <GPIOPadConfigSet+0x144>)
     a48:	42a2      	cmp	r2, r4
     a4a:	d010      	beq.n	a6e <GPIOPadConfigSet+0x122>
     a4c:	f8d0 2544 	ldr.w	r2, [r0, #1348]	; 0x544
     a50:	059c      	lsls	r4, r3, #22
     a52:	bf4c      	ite	mi
     a54:	430a      	orrmi	r2, r1
     a56:	438a      	bicpl	r2, r1
     a58:	f8c0 2544 	str.w	r2, [r0, #1348]	; 0x544
     a5c:	f8d0 2540 	ldr.w	r2, [r0, #1344]	; 0x540
     a60:	f413 7f40 	tst.w	r3, #768	; 0x300
     a64:	bf14      	ite	ne
     a66:	430a      	orrne	r2, r1
     a68:	438a      	biceq	r2, r1
     a6a:	f8c0 2540 	str.w	r2, [r0, #1344]	; 0x540
     a6e:	b92b      	cbnz	r3, a7c <GPIOPadConfigSet+0x130>
     a70:	f8d0 3528 	ldr.w	r3, [r0, #1320]	; 0x528
     a74:	4319      	orrs	r1, r3
     a76:	f8c0 1528 	str.w	r1, [r0, #1320]	; 0x528
     a7a:	bdf0      	pop	{r4, r5, r6, r7, pc}
     a7c:	f8d0 3528 	ldr.w	r3, [r0, #1320]	; 0x528
     a80:	ea23 0101 	bic.w	r1, r3, r1
     a84:	e7f7      	b.n	a76 <GPIOPadConfigSet+0x12a>
     a86:	bf00      	nop
     a88:	400fe000 	andmi	lr, pc, r0
     a8c:	70ff0000 	rscsvc	r0, pc, r0
     a90:	10050000 	andne	r0, r5, r0

00000a94 <GPIOPinTypeComparatorOutput>:
     a94:	b510      	push	{r4, lr}
     a96:	2202      	movs	r2, #2
     a98:	460c      	mov	r4, r1
     a9a:	f7ff ff43 	bl	924 <GPIODirModeSet>
     a9e:	4621      	mov	r1, r4
     aa0:	2308      	movs	r3, #8
     aa2:	e8bd 4010 	ldmia.w	sp!, {r4, lr}
     aa6:	2201      	movs	r2, #1
     aa8:	f7ff bf50 	b.w	94c <GPIOPadConfigSet>

00000aac <GPIOPinTypeUART>:
     aac:	f7ff bff2 	b.w	a94 <GPIOPinTypeComparatorOutput>

00000ab0 <GPIOPinConfigure>:
     ab0:	4b0e      	ldr	r3, [pc, #56]	; (aec <GPIOPinConfigure+0x3c>)
     ab2:	f3c0 4107 	ubfx	r1, r0, #16, #8
     ab6:	b510      	push	{r4, lr}
     ab8:	2201      	movs	r2, #1
     aba:	6edc      	ldr	r4, [r3, #108]	; 0x6c
     abc:	408a      	lsls	r2, r1
     abe:	004b      	lsls	r3, r1, #1
     ac0:	4222      	tst	r2, r4
     ac2:	bf18      	it	ne
     ac4:	3301      	addne	r3, #1
     ac6:	4a0a      	ldr	r2, [pc, #40]	; (af0 <GPIOPinConfigure+0x40>)
     ac8:	f852 2023 	ldr.w	r2, [r2, r3, lsl #2]
     acc:	f3c0 2407 	ubfx	r4, r0, #8, #8
     ad0:	f8d2 352c 	ldr.w	r3, [r2, #1324]	; 0x52c
     ad4:	210f      	movs	r1, #15
     ad6:	40a1      	lsls	r1, r4
     ad8:	f000 000f 	and.w	r0, r0, #15
     adc:	ea23 0301 	bic.w	r3, r3, r1
     ae0:	40a0      	lsls	r0, r4
     ae2:	4318      	orrs	r0, r3
     ae4:	f8c2 052c 	str.w	r0, [r2, #1324]	; 0x52c
     ae8:	bd10      	pop	{r4, pc}
     aea:	bf00      	nop
     aec:	400fe000 	andmi	lr, pc, r0
     af0:	00001ba4 	andeq	r1, r0, r4, lsr #23

00000af4 <IntMasterEnable>:
     af4:	b508      	push	{r3, lr}
     af6:	f000 f9a4 	bl	e42 <CPUcpsie>
     afa:	3800      	subs	r0, #0
     afc:	bf18      	it	ne
     afe:	2001      	movne	r0, #1
     b00:	bd08      	pop	{r3, pc}
	...

00000b04 <SysCtlPeripheralPresent>:
     b04:	4b07      	ldr	r3, [pc, #28]	; (b24 <SysCtlPeripheralPresent+0x20>)
     b06:	f3c0 2207 	ubfx	r2, r0, #8, #8
     b0a:	0080      	lsls	r0, r0, #2
     b0c:	4413      	add	r3, r2
     b0e:	f400 707f 	and.w	r0, r0, #1020	; 0x3fc
     b12:	ea40 1043 	orr.w	r0, r0, r3, lsl #5
     b16:	f040 4084 	orr.w	r0, r0, #1107296256	; 0x42000000
     b1a:	6800      	ldr	r0, [r0, #0]
     b1c:	3800      	subs	r0, #0
     b1e:	bf18      	it	ne
     b20:	2001      	movne	r0, #1
     b22:	4770      	bx	lr
     b24:	400fe300 	andmi	lr, pc, r0, lsl #6

00000b28 <SysCtlPeripheralEnable>:
     b28:	4b06      	ldr	r3, [pc, #24]	; (b44 <SysCtlPeripheralEnable+0x1c>)
     b2a:	f3c0 2207 	ubfx	r2, r0, #8, #8
     b2e:	0080      	lsls	r0, r0, #2
     b30:	4413      	add	r3, r2
     b32:	f400 707f 	and.w	r0, r0, #1020	; 0x3fc
     b36:	ea40 1043 	orr.w	r0, r0, r3, lsl #5
     b3a:	f040 4084 	orr.w	r0, r0, #1107296256	; 0x42000000
     b3e:	2301      	movs	r3, #1
     b40:	6003      	str	r3, [r0, #0]
     b42:	4770      	bx	lr
     b44:	400fe600 	andmi	lr, pc, r0, lsl #12

00000b48 <SysCtlDelay>:
     b48:	3801      	subs	r0, #1
     b4a:	f47f affd 	bne.w	b48 <SysCtlDelay>
     b4e:	4770      	bx	lr

00000b50 <SysCtlClockSet>:
     b50:	493a      	ldr	r1, [pc, #232]	; (c3c <SysCtlClockSet+0xec>)
     b52:	b430      	push	{r4, r5}
     b54:	6e0c      	ldr	r4, [r1, #96]	; 0x60
     b56:	6f0b      	ldr	r3, [r1, #112]	; 0x70
     b58:	f424 0280 	bic.w	r2, r4, #4194304	; 0x400000
     b5c:	f443 6500 	orr.w	r5, r3, #2048	; 0x800
     b60:	f442 6200 	orr.w	r2, r2, #2048	; 0x800
     b64:	660a      	str	r2, [r1, #96]	; 0x60
     b66:	670d      	str	r5, [r1, #112]	; 0x70
     b68:	07e5      	lsls	r5, r4, #31
     b6a:	d50d      	bpl.n	b88 <SysCtlClockSet+0x38>
     b6c:	07c4      	lsls	r4, r0, #31
     b6e:	d40b      	bmi.n	b88 <SysCtlClockSet+0x38>
     b70:	f060 0401 	orn	r4, r0, #1
     b74:	4022      	ands	r2, r4
     b76:	f44f 7480 	mov.w	r4, #256	; 0x100
     b7a:	658c      	str	r4, [r1, #88]	; 0x58
     b7c:	660a      	str	r2, [r1, #96]	; 0x60
     b7e:	f44f 2400 	mov.w	r4, #524288	; 0x80000
     b82:	6d0d      	ldr	r5, [r1, #80]	; 0x50
     b84:	05ed      	lsls	r5, r5, #23
     b86:	d555      	bpl.n	c34 <SysCtlClockSet+0xe4>
     b88:	f422 61fe 	bic.w	r1, r2, #2032	; 0x7f0
     b8c:	f400 62fe 	and.w	r2, r0, #2032	; 0x7f0
     b90:	430a      	orrs	r2, r1
     b92:	492b      	ldr	r1, [pc, #172]	; (c40 <SysCtlClockSet+0xf0>)
     b94:	f023 4300 	bic.w	r3, r3, #2147483648	; 0x80000000
     b98:	4001      	ands	r1, r0
     b9a:	f023 0370 	bic.w	r3, r3, #112	; 0x70
     b9e:	430b      	orrs	r3, r1
     ba0:	00c1      	lsls	r1, r0, #3
     ba2:	f001 0140 	and.w	r1, r1, #64	; 0x40
     ba6:	430b      	orrs	r3, r1
     ba8:	4924      	ldr	r1, [pc, #144]	; (c3c <SysCtlClockSet+0xec>)
     baa:	f443 6400 	orr.w	r4, r3, #2048	; 0x800
     bae:	660a      	str	r2, [r1, #96]	; 0x60
     bb0:	f423 5300 	bic.w	r3, r3, #8192	; 0x2000
     bb4:	670c      	str	r4, [r1, #112]	; 0x70
     bb6:	f422 5200 	bic.w	r2, r2, #8192	; 0x2000
     bba:	f400 5400 	and.w	r4, r0, #8192	; 0x2000
     bbe:	4322      	orrs	r2, r4
     bc0:	4323      	orrs	r3, r4
     bc2:	2440      	movs	r4, #64	; 0x40
     bc4:	658c      	str	r4, [r1, #88]	; 0x58
     bc6:	f453 6400 	orrs.w	r4, r3, #2048	; 0x800
     bca:	bf55      	itete	pl
     bcc:	660a      	strpl	r2, [r1, #96]	; 0x60
     bce:	670c      	strmi	r4, [r1, #112]	; 0x70
     bd0:	670c      	strpl	r4, [r1, #112]	; 0x70
     bd2:	660a      	strmi	r2, [r1, #96]	; 0x60
     bd4:	491b      	ldr	r1, [pc, #108]	; (c44 <SysCtlClockSet+0xf4>)
     bd6:	f022 62f8 	bic.w	r2, r2, #130023424	; 0x7c00000
     bda:	4001      	ands	r1, r0
     bdc:	f022 0201 	bic.w	r2, r2, #1
     be0:	f023 53fc 	bic.w	r3, r3, #528482304	; 0x1f800000
     be4:	430a      	orrs	r2, r1
     be6:	f443 6300 	orr.w	r3, r3, #2048	; 0x800
     bea:	f000 51fc 	and.w	r1, r0, #528482304	; 0x1f800000
     bee:	430b      	orrs	r3, r1
     bf0:	0041      	lsls	r1, r0, #1
     bf2:	bf41      	itttt	mi
     bf4:	4914      	ldrmi	r1, [pc, #80]	; (c48 <SysCtlClockSet+0xf8>)
     bf6:	f423 0380 	bicmi.w	r3, r3, #4194304	; 0x400000
     bfa:	4001      	andmi	r1, r0
     bfc:	f442 0280 	orrmi.w	r2, r2, #4194304	; 0x400000
     c00:	bf4c      	ite	mi
     c02:	430b      	orrmi	r3, r1
     c04:	f023 4380 	bicpl.w	r3, r3, #1073741824	; 0x40000000
     c08:	0505      	lsls	r5, r0, #20
     c0a:	d40c      	bmi.n	c26 <SysCtlClockSet+0xd6>
     c0c:	480b      	ldr	r0, [pc, #44]	; (c3c <SysCtlClockSet+0xec>)
     c0e:	f44f 4100 	mov.w	r1, #32768	; 0x8000
     c12:	f8d0 4168 	ldr.w	r4, [r0, #360]	; 0x168
     c16:	07e4      	lsls	r4, r4, #31
     c18:	d401      	bmi.n	c1e <SysCtlClockSet+0xce>
     c1a:	3901      	subs	r1, #1
     c1c:	d1f9      	bne.n	c12 <SysCtlClockSet+0xc2>
     c1e:	f422 6200 	bic.w	r2, r2, #2048	; 0x800
     c22:	f423 6300 	bic.w	r3, r3, #2048	; 0x800
     c26:	4905      	ldr	r1, [pc, #20]	; (c3c <SysCtlClockSet+0xec>)
     c28:	bc30      	pop	{r4, r5}
     c2a:	660a      	str	r2, [r1, #96]	; 0x60
     c2c:	2010      	movs	r0, #16
     c2e:	670b      	str	r3, [r1, #112]	; 0x70
     c30:	f7ff bf8a 	b.w	b48 <SysCtlDelay>
     c34:	3c01      	subs	r4, #1
     c36:	d1a4      	bne.n	b82 <SysCtlClockSet+0x32>
     c38:	bc30      	pop	{r4, r5}
     c3a:	4770      	bx	lr
     c3c:	400fe000 	andmi	lr, pc, r0
     c40:	80000030 	andhi	r0, r0, r0, lsr r0
     c44:	07c00001 	strbeq	r0, [r0, r1]
     c48:	40400000 	submi	r0, r0, r0

00000c4c <SysCtlClockGet>:
     c4c:	4b48      	ldr	r3, [pc, #288]	; (d70 <SysCtlClockGet+0x124>)
     c4e:	6e19      	ldr	r1, [r3, #96]	; 0x60
     c50:	6f1b      	ldr	r3, [r3, #112]	; 0x70
     c52:	2b00      	cmp	r3, #0
     c54:	b570      	push	{r4, r5, r6, lr}
     c56:	da12      	bge.n	c7e <SysCtlClockGet+0x32>
     c58:	f003 0270 	and.w	r2, r3, #112	; 0x70
     c5c:	2a20      	cmp	r2, #32
     c5e:	f000 8082 	beq.w	d66 <SysCtlClockGet+0x11a>
     c62:	d805      	bhi.n	c70 <SysCtlClockGet+0x24>
     c64:	2a00      	cmp	r2, #0
     c66:	d057      	beq.n	d18 <SysCtlClockGet+0xcc>
     c68:	2a10      	cmp	r2, #16
     c6a:	d05f      	beq.n	d2c <SysCtlClockGet+0xe0>
     c6c:	2000      	movs	r0, #0
     c6e:	bd70      	pop	{r4, r5, r6, pc}
     c70:	2a30      	cmp	r2, #48	; 0x30
     c72:	d07a      	beq.n	d6a <SysCtlClockGet+0x11e>
     c74:	2a70      	cmp	r2, #112	; 0x70
     c76:	d1f9      	bne.n	c6c <SysCtlClockGet+0x20>
     c78:	f44f 4000 	mov.w	r0, #32768	; 0x8000
     c7c:	e053      	b.n	d26 <SysCtlClockGet+0xda>
     c7e:	f001 0230 	and.w	r2, r1, #48	; 0x30
     c82:	2a20      	cmp	r2, #32
     c84:	d06d      	beq.n	d62 <SysCtlClockGet+0x116>
     c86:	d842      	bhi.n	d0e <SysCtlClockGet+0xc2>
     c88:	2a00      	cmp	r2, #0
     c8a:	d045      	beq.n	d18 <SysCtlClockGet+0xcc>
     c8c:	2a10      	cmp	r2, #16
     c8e:	d1ed      	bne.n	c6c <SysCtlClockGet+0x20>
     c90:	4838      	ldr	r0, [pc, #224]	; (d74 <SysCtlClockGet+0x128>)
     c92:	f411 6f00 	tst.w	r1, #2048	; 0x800
     c96:	d152      	bne.n	d3e <SysCtlClockGet+0xf2>
     c98:	4d35      	ldr	r5, [pc, #212]	; (d70 <SysCtlClockGet+0x124>)
     c9a:	f8d5 4160 	ldr.w	r4, [r5, #352]	; 0x160
     c9e:	f8d5 2164 	ldr.w	r2, [r5, #356]	; 0x164
     ca2:	f3c2 2604 	ubfx	r6, r2, #8, #5
     ca6:	f002 021f 	and.w	r2, r2, #31
     caa:	3201      	adds	r2, #1
     cac:	fb06 2202 	mla	r2, r6, r2, r2
     cb0:	0052      	lsls	r2, r2, #1
     cb2:	fbb0 f0f2 	udiv	r0, r0, r2
     cb6:	f3c4 0209 	ubfx	r2, r4, #0, #10
     cba:	f3c4 2489 	ubfx	r4, r4, #10, #10
     cbe:	4344      	muls	r4, r0
     cc0:	0aa4      	lsrs	r4, r4, #10
     cc2:	fb00 4002 	mla	r0, r0, r2, r4
     cc6:	692a      	ldr	r2, [r5, #16]
     cc8:	f402 4270 	and.w	r2, r2, #61440	; 0xf000
     ccc:	f5b2 4f80 	cmp.w	r2, #16384	; 0x4000
     cd0:	f441 0180 	orr.w	r1, r1, #4194304	; 0x400000
     cd4:	d036      	beq.n	d44 <SysCtlClockGet+0xf8>
     cd6:	d82b      	bhi.n	d30 <SysCtlClockGet+0xe4>
     cd8:	f5b2 5f00 	cmp.w	r2, #8192	; 0x2000
     cdc:	d034      	beq.n	d48 <SysCtlClockGet+0xfc>
     cde:	f5b2 5f40 	cmp.w	r2, #12288	; 0x3000
     ce2:	4a25      	ldr	r2, [pc, #148]	; (d78 <SysCtlClockGet+0x12c>)
     ce4:	bf18      	it	ne
     ce6:	f04f 32ff 	movne.w	r2, #4294967295
     cea:	024d      	lsls	r5, r1, #9
     cec:	d50b      	bpl.n	d06 <SysCtlClockGet+0xba>
     cee:	2b00      	cmp	r3, #0
     cf0:	da31      	bge.n	d56 <SysCtlClockGet+0x10a>
     cf2:	005c      	lsls	r4, r3, #1
     cf4:	d52c      	bpl.n	d50 <SysCtlClockGet+0x104>
     cf6:	0519      	lsls	r1, r3, #20
     cf8:	d42a      	bmi.n	d50 <SysCtlClockGet+0x104>
     cfa:	0040      	lsls	r0, r0, #1
     cfc:	f3c3 5386 	ubfx	r3, r3, #22, #7
     d00:	3301      	adds	r3, #1
     d02:	fbb0 f0f3 	udiv	r0, r0, r3
     d06:	4290      	cmp	r0, r2
     d08:	bf28      	it	cs
     d0a:	4610      	movcs	r0, r2
     d0c:	e7af      	b.n	c6e <SysCtlClockGet+0x22>
     d0e:	2a30      	cmp	r2, #48	; 0x30
     d10:	d1ac      	bne.n	c6c <SysCtlClockGet+0x20>
     d12:	f247 5030 	movw	r0, #30000	; 0x7530
     d16:	e7bc      	b.n	c92 <SysCtlClockGet+0x46>
     d18:	4a18      	ldr	r2, [pc, #96]	; (d7c <SysCtlClockGet+0x130>)
     d1a:	f3c1 1084 	ubfx	r0, r1, #6, #5
     d1e:	2b00      	cmp	r3, #0
     d20:	f852 0020 	ldr.w	r0, [r2, r0, lsl #2]
     d24:	dab5      	bge.n	c92 <SysCtlClockGet+0x46>
     d26:	f413 6f00 	tst.w	r3, #2048	; 0x800
     d2a:	e7b4      	b.n	c96 <SysCtlClockGet+0x4a>
     d2c:	4811      	ldr	r0, [pc, #68]	; (d74 <SysCtlClockGet+0x128>)
     d2e:	e7fa      	b.n	d26 <SysCtlClockGet+0xda>
     d30:	f5b2 4fe0 	cmp.w	r2, #28672	; 0x7000
     d34:	d00a      	beq.n	d4c <SysCtlClockGet+0x100>
     d36:	f5b2 4f10 	cmp.w	r2, #36864	; 0x9000
     d3a:	4a11      	ldr	r2, [pc, #68]	; (d80 <SysCtlClockGet+0x134>)
     d3c:	e7d2      	b.n	ce4 <SysCtlClockGet+0x98>
     d3e:	f04f 32ff 	mov.w	r2, #4294967295
     d42:	e7d2      	b.n	cea <SysCtlClockGet+0x9e>
     d44:	4a0f      	ldr	r2, [pc, #60]	; (d84 <SysCtlClockGet+0x138>)
     d46:	e7d0      	b.n	cea <SysCtlClockGet+0x9e>
     d48:	4a0f      	ldr	r2, [pc, #60]	; (d88 <SysCtlClockGet+0x13c>)
     d4a:	e7ce      	b.n	cea <SysCtlClockGet+0x9e>
     d4c:	4a0f      	ldr	r2, [pc, #60]	; (d8c <SysCtlClockGet+0x140>)
     d4e:	e7cc      	b.n	cea <SysCtlClockGet+0x9e>
     d50:	f3c3 53c5 	ubfx	r3, r3, #23, #6
     d54:	e7d4      	b.n	d00 <SysCtlClockGet+0xb4>
     d56:	f3c1 51c3 	ubfx	r1, r1, #23, #4
     d5a:	3101      	adds	r1, #1
     d5c:	fbb0 f0f1 	udiv	r0, r0, r1
     d60:	e7d1      	b.n	d06 <SysCtlClockGet+0xba>
     d62:	480b      	ldr	r0, [pc, #44]	; (d90 <SysCtlClockGet+0x144>)
     d64:	e795      	b.n	c92 <SysCtlClockGet+0x46>
     d66:	480a      	ldr	r0, [pc, #40]	; (d90 <SysCtlClockGet+0x144>)
     d68:	e7dd      	b.n	d26 <SysCtlClockGet+0xda>
     d6a:	f247 5030 	movw	r0, #30000	; 0x7530
     d6e:	e7da      	b.n	d26 <SysCtlClockGet+0xda>
     d70:	400fe000 	andmi	lr, pc, r0
     d74:	00f42400 	rscseq	r2, r4, r0, lsl #8
     d78:	02faf080 	rscseq	pc, sl, #128	; 0x80
     d7c:	00001c34 	andeq	r1, r0, r4, lsr ip
     d80:	01312d00 	teqeq	r1, r0, lsl #26
     d84:	02625a00 	rsbeq	r5, r2, #0, 20
     d88:	04c4b400 	strbeq	fp, [r4], #1024	; 0x400
     d8c:	017d7840 	cmneq	sp, r0, asr #16
     d90:	003d0900 	eorseq	r0, sp, r0, lsl #18

00000d94 <SysTickEnable>:
     d94:	f04f 22e0 	mov.w	r2, #3758153728	; 0xe000e000
     d98:	6913      	ldr	r3, [r2, #16]
     d9a:	f043 0305 	orr.w	r3, r3, #5
     d9e:	6113      	str	r3, [r2, #16]
     da0:	4770      	bx	lr

00000da2 <SysTickIntEnable>:
     da2:	f04f 22e0 	mov.w	r2, #3758153728	; 0xe000e000
     da6:	6913      	ldr	r3, [r2, #16]
     da8:	f043 0302 	orr.w	r3, r3, #2
     dac:	6113      	str	r3, [r2, #16]
     dae:	4770      	bx	lr

00000db0 <SysTickPeriodSet>:
     db0:	f04f 23e0 	mov.w	r3, #3758153728	; 0xe000e000
     db4:	3801      	subs	r0, #1
     db6:	6158      	str	r0, [r3, #20]
     db8:	4770      	bx	lr

00000dba <UARTEnable>:
     dba:	6ac3      	ldr	r3, [r0, #44]	; 0x2c
     dbc:	f043 0310 	orr.w	r3, r3, #16
     dc0:	62c3      	str	r3, [r0, #44]	; 0x2c
     dc2:	6b03      	ldr	r3, [r0, #48]	; 0x30
     dc4:	f443 7340 	orr.w	r3, r3, #768	; 0x300
     dc8:	f043 0301 	orr.w	r3, r3, #1
     dcc:	6303      	str	r3, [r0, #48]	; 0x30
     dce:	4770      	bx	lr

00000dd0 <UARTDisable>:
     dd0:	6983      	ldr	r3, [r0, #24]
     dd2:	071b      	lsls	r3, r3, #28
     dd4:	d4fc      	bmi.n	dd0 <UARTDisable>
     dd6:	6ac3      	ldr	r3, [r0, #44]	; 0x2c
     dd8:	f023 0310 	bic.w	r3, r3, #16
     ddc:	62c3      	str	r3, [r0, #44]	; 0x2c
     dde:	6b03      	ldr	r3, [r0, #48]	; 0x30
     de0:	f423 7340 	bic.w	r3, r3, #768	; 0x300
     de4:	f023 0301 	bic.w	r3, r3, #1
     de8:	6303      	str	r3, [r0, #48]	; 0x30
     dea:	4770      	bx	lr

00000dec <UARTConfigSetExpClk>:
     dec:	b570      	push	{r4, r5, r6, lr}
     dee:	461e      	mov	r6, r3
     df0:	f7ff ffee 	bl	dd0 <UARTDisable>
     df4:	6b03      	ldr	r3, [r0, #48]	; 0x30
     df6:	ebb1 1f02 	cmp.w	r1, r2, lsl #4
     dfa:	bf34      	ite	cc
     dfc:	f043 0320 	orrcc.w	r3, r3, #32
     e00:	f023 0320 	biccs.w	r3, r3, #32
     e04:	ea4f 04c1 	mov.w	r4, r1, lsl #3
     e08:	bf38      	it	cc
     e0a:	0852      	lsrcc	r2, r2, #1
     e0c:	fbb4 f1f2 	udiv	r1, r4, r2
     e10:	f101 0101 	add.w	r1, r1, #1
     e14:	bf34      	ite	cc
     e16:	6303      	strcc	r3, [r0, #48]	; 0x30
     e18:	6303      	strcs	r3, [r0, #48]	; 0x30
     e1a:	09cb      	lsrs	r3, r1, #7
     e1c:	6243      	str	r3, [r0, #36]	; 0x24
     e1e:	f3c1 0145 	ubfx	r1, r1, #1, #6
     e22:	2300      	movs	r3, #0
     e24:	6281      	str	r1, [r0, #40]	; 0x28
     e26:	62c6      	str	r6, [r0, #44]	; 0x2c
     e28:	e8bd 4070 	ldmia.w	sp!, {r4, r5, r6, lr}
     e2c:	6183      	str	r3, [r0, #24]
     e2e:	f7ff bfc4 	b.w	dba <UARTEnable>

00000e32 <UARTCharPut>:
     e32:	6983      	ldr	r3, [r0, #24]
     e34:	069b      	lsls	r3, r3, #26
     e36:	d4fc      	bmi.n	e32 <UARTCharPut>
     e38:	6001      	str	r1, [r0, #0]
     e3a:	4770      	bx	lr

00000e3c <UARTClockSourceSet>:
     e3c:	f8c0 1fc8 	str.w	r1, [r0, #4040]	; 0xfc8
     e40:	4770      	bx	lr

00000e42 <CPUcpsie>:
     e42:	f3ef 8010 	mrs	r0, PRIMASK
     e46:	b662      	cpsie	i
     e48:	4770      	bx	lr
	...

00000e4c <USBPinInitialize>:
     e4c:	b480      	push	{r7}
     e4e:	b083      	sub	sp, #12
     e50:	af00      	add	r7, sp, #0
     e52:	4b21      	ldr	r3, [pc, #132]	; (ed8 <USBPinInitialize+0x8c>)
     e54:	681b      	ldr	r3, [r3, #0]
     e56:	4a20      	ldr	r2, [pc, #128]	; (ed8 <USBPinInitialize+0x8c>)
     e58:	f043 0308 	orr.w	r3, r3, #8
     e5c:	6013      	str	r3, [r2, #0]
     e5e:	2300      	movs	r3, #0
     e60:	71fb      	strb	r3, [r7, #7]
     e62:	e004      	b.n	e6e <USBPinInitialize+0x22>
     e64:	79fb      	ldrb	r3, [r7, #7]
     e66:	b2db      	uxtb	r3, r3
     e68:	3301      	adds	r3, #1
     e6a:	b2db      	uxtb	r3, r3
     e6c:	71fb      	strb	r3, [r7, #7]
     e6e:	79fb      	ldrb	r3, [r7, #7]
     e70:	b2db      	uxtb	r3, r3
     e72:	2b0f      	cmp	r3, #15
     e74:	d9f6      	bls.n	e64 <USBPinInitialize+0x18>
     e76:	4b19      	ldr	r3, [pc, #100]	; (edc <USBPinInitialize+0x90>)
     e78:	681b      	ldr	r3, [r3, #0]
     e7a:	4a18      	ldr	r2, [pc, #96]	; (edc <USBPinInitialize+0x90>)
     e7c:	f023 0330 	bic.w	r3, r3, #48	; 0x30
     e80:	6013      	str	r3, [r2, #0]
     e82:	4b17      	ldr	r3, [pc, #92]	; (ee0 <USBPinInitialize+0x94>)
     e84:	681b      	ldr	r3, [r3, #0]
     e86:	4a16      	ldr	r2, [pc, #88]	; (ee0 <USBPinInitialize+0x94>)
     e88:	f043 0330 	orr.w	r3, r3, #48	; 0x30
     e8c:	6013      	str	r3, [r2, #0]
     e8e:	4b15      	ldr	r3, [pc, #84]	; (ee4 <USBPinInitialize+0x98>)
     e90:	681b      	ldr	r3, [r3, #0]
     e92:	4a14      	ldr	r2, [pc, #80]	; (ee4 <USBPinInitialize+0x98>)
     e94:	f423 037f 	bic.w	r3, r3, #16711680	; 0xff0000
     e98:	6013      	str	r3, [r2, #0]
     e9a:	4b13      	ldr	r3, [pc, #76]	; (ee8 <USBPinInitialize+0x9c>)
     e9c:	681b      	ldr	r3, [r3, #0]
     e9e:	4a12      	ldr	r2, [pc, #72]	; (ee8 <USBPinInitialize+0x9c>)
     ea0:	f043 0330 	orr.w	r3, r3, #48	; 0x30
     ea4:	6013      	str	r3, [r2, #0]
     ea6:	4b11      	ldr	r3, [pc, #68]	; (eec <USBPinInitialize+0xa0>)
     ea8:	681b      	ldr	r3, [r3, #0]
     eaa:	4a10      	ldr	r2, [pc, #64]	; (eec <USBPinInitialize+0xa0>)
     eac:	f023 0330 	bic.w	r3, r3, #48	; 0x30
     eb0:	6013      	str	r3, [r2, #0]
     eb2:	4b0f      	ldr	r3, [pc, #60]	; (ef0 <USBPinInitialize+0xa4>)
     eb4:	681b      	ldr	r3, [r3, #0]
     eb6:	4a0e      	ldr	r2, [pc, #56]	; (ef0 <USBPinInitialize+0xa4>)
     eb8:	f023 0330 	bic.w	r3, r3, #48	; 0x30
     ebc:	6013      	str	r3, [r2, #0]
     ebe:	4b0d      	ldr	r3, [pc, #52]	; (ef4 <USBPinInitialize+0xa8>)
     ec0:	681b      	ldr	r3, [r3, #0]
     ec2:	4a0c      	ldr	r2, [pc, #48]	; (ef4 <USBPinInitialize+0xa8>)
     ec4:	f043 0330 	orr.w	r3, r3, #48	; 0x30
     ec8:	6013      	str	r3, [r2, #0]
     eca:	bf00      	nop
     ecc:	370c      	adds	r7, #12
     ece:	46bd      	mov	sp, r7
     ed0:	f85d 7b04 	ldr.w	r7, [sp], #4
     ed4:	4770      	bx	lr
     ed6:	bf00      	nop
     ed8:	400fe608 	andmi	lr, pc, r8, lsl #12
     edc:	40007400 	andmi	r7, r0, r0, lsl #8
     ee0:	40007420 	andmi	r7, r0, r0, lsr #8
     ee4:	4000752c 	andmi	r7, r0, ip, lsr #10
     ee8:	40007500 	andmi	r7, r0, r0, lsl #10
     eec:	40007504 	andmi	r7, r0, r4, lsl #10
     ef0:	40007508 	andmi	r7, r0, r8, lsl #10
     ef4:	40007528 	andmi	r7, r0, r8, lsr #10

00000ef8 <USBBusConnect>:
     ef8:	b480      	push	{r7}
     efa:	af00      	add	r7, sp, #0
     efc:	4b05      	ldr	r3, [pc, #20]	; (f14 <USBBusConnect+0x1c>)
     efe:	781b      	ldrb	r3, [r3, #0]
     f00:	4a04      	ldr	r2, [pc, #16]	; (f14 <USBBusConnect+0x1c>)
     f02:	f043 0340 	orr.w	r3, r3, #64	; 0x40
     f06:	b2db      	uxtb	r3, r3
     f08:	7013      	strb	r3, [r2, #0]
     f0a:	bf00      	nop
     f0c:	46bd      	mov	sp, r7
     f0e:	f85d 7b04 	ldr.w	r7, [sp], #4
     f12:	4770      	bx	lr
     f14:	40050001 	andmi	r0, r5, r1

00000f18 <USBBusDisconnect>:
     f18:	b480      	push	{r7}
     f1a:	af00      	add	r7, sp, #0
     f1c:	4b05      	ldr	r3, [pc, #20]	; (f34 <USBBusDisconnect+0x1c>)
     f1e:	781b      	ldrb	r3, [r3, #0]
     f20:	4a04      	ldr	r2, [pc, #16]	; (f34 <USBBusDisconnect+0x1c>)
     f22:	f023 0340 	bic.w	r3, r3, #64	; 0x40
     f26:	b2db      	uxtb	r3, r3
     f28:	7013      	strb	r3, [r2, #0]
     f2a:	bf00      	nop
     f2c:	46bd      	mov	sp, r7
     f2e:	f85d 7b04 	ldr.w	r7, [sp], #4
     f32:	4770      	bx	lr
     f34:	40050001 	andmi	r0, r5, r1

00000f38 <USBSetDeviceAdress>:
     f38:	b480      	push	{r7}
     f3a:	b083      	sub	sp, #12
     f3c:	af00      	add	r7, sp, #0
     f3e:	4603      	mov	r3, r0
     f40:	71fb      	strb	r3, [r7, #7]
     f42:	4a04      	ldr	r2, [pc, #16]	; (f54 <USBSetDeviceAdress+0x1c>)
     f44:	79fb      	ldrb	r3, [r7, #7]
     f46:	7013      	strb	r3, [r2, #0]
     f48:	bf00      	nop
     f4a:	370c      	adds	r7, #12
     f4c:	46bd      	mov	sp, r7
     f4e:	f85d 7b04 	ldr.w	r7, [sp], #4
     f52:	4770      	bx	lr
     f54:	40050000 	andmi	r0, r5, r0

00000f58 <USBInterruptInitialize>:
     f58:	b480      	push	{r7}
     f5a:	af00      	add	r7, sp, #0
     f5c:	4b0f      	ldr	r3, [pc, #60]	; (f9c <USBInterruptInitialize+0x44>)
     f5e:	781b      	ldrb	r3, [r3, #0]
     f60:	4a0e      	ldr	r2, [pc, #56]	; (f9c <USBInterruptInitialize+0x44>)
     f62:	f043 032f 	orr.w	r3, r3, #47	; 0x2f
     f66:	b2db      	uxtb	r3, r3
     f68:	7013      	strb	r3, [r2, #0]
     f6a:	4b0d      	ldr	r3, [pc, #52]	; (fa0 <USBInterruptInitialize+0x48>)
     f6c:	881b      	ldrh	r3, [r3, #0]
     f6e:	4a0c      	ldr	r2, [pc, #48]	; (fa0 <USBInterruptInitialize+0x48>)
     f70:	f043 0302 	orr.w	r3, r3, #2
     f74:	b29b      	uxth	r3, r3
     f76:	8013      	strh	r3, [r2, #0]
     f78:	4b0a      	ldr	r3, [pc, #40]	; (fa4 <USBInterruptInitialize+0x4c>)
     f7a:	881b      	ldrh	r3, [r3, #0]
     f7c:	4a09      	ldr	r2, [pc, #36]	; (fa4 <USBInterruptInitialize+0x4c>)
     f7e:	f043 0302 	orr.w	r3, r3, #2
     f82:	b29b      	uxth	r3, r3
     f84:	8013      	strh	r3, [r2, #0]
     f86:	4b08      	ldr	r3, [pc, #32]	; (fa8 <USBInterruptInitialize+0x50>)
     f88:	681b      	ldr	r3, [r3, #0]
     f8a:	4a07      	ldr	r2, [pc, #28]	; (fa8 <USBInterruptInitialize+0x50>)
     f8c:	f443 5380 	orr.w	r3, r3, #4096	; 0x1000
     f90:	6013      	str	r3, [r2, #0]
     f92:	bf00      	nop
     f94:	46bd      	mov	sp, r7
     f96:	f85d 7b04 	ldr.w	r7, [sp], #4
     f9a:	4770      	bx	lr
     f9c:	4005000b 	andmi	r0, r5, fp
     fa0:	40050008 	andmi	r0, r5, r8
     fa4:	40050006 	andmi	r0, r5, r6
     fa8:	e000e104 	and	lr, r0, r4, lsl #2

00000fac <USBDeviceInit>:
     fac:	b480      	push	{r7}
     fae:	b083      	sub	sp, #12
     fb0:	af00      	add	r7, sp, #0
     fb2:	4b1e      	ldr	r3, [pc, #120]	; (102c <USBDeviceInit+0x80>)
     fb4:	681b      	ldr	r3, [r3, #0]
     fb6:	4a1d      	ldr	r2, [pc, #116]	; (102c <USBDeviceInit+0x80>)
     fb8:	f423 4380 	bic.w	r3, r3, #16384	; 0x4000
     fbc:	6013      	str	r3, [r2, #0]
     fbe:	4b1c      	ldr	r3, [pc, #112]	; (1030 <USBDeviceInit+0x84>)
     fc0:	681b      	ldr	r3, [r3, #0]
     fc2:	4a1b      	ldr	r2, [pc, #108]	; (1030 <USBDeviceInit+0x84>)
     fc4:	f043 0301 	orr.w	r3, r3, #1
     fc8:	6013      	str	r3, [r2, #0]
     fca:	4b1a      	ldr	r3, [pc, #104]	; (1034 <USBDeviceInit+0x88>)
     fcc:	681b      	ldr	r3, [r3, #0]
     fce:	4a19      	ldr	r2, [pc, #100]	; (1034 <USBDeviceInit+0x88>)
     fd0:	f443 3380 	orr.w	r3, r3, #65536	; 0x10000
     fd4:	6013      	str	r3, [r2, #0]
     fd6:	2300      	movs	r3, #0
     fd8:	71fb      	strb	r3, [r7, #7]
     fda:	e004      	b.n	fe6 <USBDeviceInit+0x3a>
     fdc:	79fb      	ldrb	r3, [r7, #7]
     fde:	b2db      	uxtb	r3, r3
     fe0:	3301      	adds	r3, #1
     fe2:	b2db      	uxtb	r3, r3
     fe4:	71fb      	strb	r3, [r7, #7]
     fe6:	79fb      	ldrb	r3, [r7, #7]
     fe8:	b2db      	uxtb	r3, r3
     fea:	2b0f      	cmp	r3, #15
     fec:	d9f6      	bls.n	fdc <USBDeviceInit+0x30>
     fee:	4b11      	ldr	r3, [pc, #68]	; (1034 <USBDeviceInit+0x88>)
     ff0:	681b      	ldr	r3, [r3, #0]
     ff2:	4a10      	ldr	r2, [pc, #64]	; (1034 <USBDeviceInit+0x88>)
     ff4:	f423 3380 	bic.w	r3, r3, #65536	; 0x10000
     ff8:	6013      	str	r3, [r2, #0]
     ffa:	2300      	movs	r3, #0
     ffc:	71fb      	strb	r3, [r7, #7]
     ffe:	e004      	b.n	100a <USBDeviceInit+0x5e>
    1000:	79fb      	ldrb	r3, [r7, #7]
    1002:	b2db      	uxtb	r3, r3
    1004:	3301      	adds	r3, #1
    1006:	b2db      	uxtb	r3, r3
    1008:	71fb      	strb	r3, [r7, #7]
    100a:	79fb      	ldrb	r3, [r7, #7]
    100c:	b2db      	uxtb	r3, r3
    100e:	2b0f      	cmp	r3, #15
    1010:	d9f6      	bls.n	1000 <USBDeviceInit+0x54>
    1012:	4b09      	ldr	r3, [pc, #36]	; (1038 <USBDeviceInit+0x8c>)
    1014:	681b      	ldr	r3, [r3, #0]
    1016:	4a08      	ldr	r2, [pc, #32]	; (1038 <USBDeviceInit+0x8c>)
    1018:	f043 0303 	orr.w	r3, r3, #3
    101c:	6013      	str	r3, [r2, #0]
    101e:	bf00      	nop
    1020:	370c      	adds	r7, #12
    1022:	46bd      	mov	sp, r7
    1024:	f85d 7b04 	ldr.w	r7, [sp], #4
    1028:	4770      	bx	lr
    102a:	bf00      	nop
    102c:	400fe070 	andmi	lr, pc, r0, ror r0	; <UNPREDICTABLE>
    1030:	400fe628 	andmi	lr, pc, r8, lsr #12
    1034:	400fe048 	andmi	lr, pc, r8, asr #32
    1038:	4005041c 	andmi	r0, r5, ip, lsl r4

0000103c <FlushRxFifo>:
    103c:	b480      	push	{r7}
    103e:	b083      	sub	sp, #12
    1040:	af00      	add	r7, sp, #0
    1042:	6078      	str	r0, [r7, #4]
    1044:	687b      	ldr	r3, [r7, #4]
    1046:	3b01      	subs	r3, #1
    1048:	011a      	lsls	r2, r3, #4
    104a:	4b09      	ldr	r3, [pc, #36]	; (1070 <FlushRxFifo+0x34>)
    104c:	4413      	add	r3, r2
    104e:	781a      	ldrb	r2, [r3, #0]
    1050:	687b      	ldr	r3, [r7, #4]
    1052:	3b01      	subs	r3, #1
    1054:	0119      	lsls	r1, r3, #4
    1056:	4b06      	ldr	r3, [pc, #24]	; (1070 <FlushRxFifo+0x34>)
    1058:	440b      	add	r3, r1
    105a:	f022 0210 	bic.w	r2, r2, #16
    105e:	b2d2      	uxtb	r2, r2
    1060:	701a      	strb	r2, [r3, #0]
    1062:	bf00      	nop
    1064:	370c      	adds	r7, #12
    1066:	46bd      	mov	sp, r7
    1068:	f85d 7b04 	ldr.w	r7, [sp], #4
    106c:	4770      	bx	lr
    106e:	bf00      	nop
    1070:	40050116 	andmi	r0, r5, r6, lsl r1

00001074 <FlushTxFifo>:
    1074:	b480      	push	{r7}
    1076:	b083      	sub	sp, #12
    1078:	af00      	add	r7, sp, #0
    107a:	6078      	str	r0, [r7, #4]
    107c:	687b      	ldr	r3, [r7, #4]
    107e:	f023 0309 	bic.w	r3, r3, #9
    1082:	011a      	lsls	r2, r3, #4
    1084:	4b07      	ldr	r3, [pc, #28]	; (10a4 <FlushTxFifo+0x30>)
    1086:	4413      	add	r3, r2
    1088:	4619      	mov	r1, r3
    108a:	687b      	ldr	r3, [r7, #4]
    108c:	3b01      	subs	r3, #1
    108e:	011a      	lsls	r2, r3, #4
    1090:	4b04      	ldr	r3, [pc, #16]	; (10a4 <FlushTxFifo+0x30>)
    1092:	4413      	add	r3, r2
    1094:	780a      	ldrb	r2, [r1, #0]
    1096:	701a      	strb	r2, [r3, #0]
    1098:	bf00      	nop
    109a:	370c      	adds	r7, #12
    109c:	46bd      	mov	sp, r7
    109e:	f85d 7b04 	ldr.w	r7, [sp], #4
    10a2:	4770      	bx	lr
    10a4:	40050112 	andmi	r0, r5, r2, lsl r1

000010a8 <ConfigureEndpoint0>:
    10a8:	b480      	push	{r7}
    10aa:	af00      	add	r7, sp, #0
    10ac:	4b05      	ldr	r3, [pc, #20]	; (10c4 <ConfigureEndpoint0+0x1c>)
    10ae:	881b      	ldrh	r3, [r3, #0]
    10b0:	4a04      	ldr	r2, [pc, #16]	; (10c4 <ConfigureEndpoint0+0x1c>)
    10b2:	f043 0301 	orr.w	r3, r3, #1
    10b6:	b29b      	uxth	r3, r3
    10b8:	8013      	strh	r3, [r2, #0]
    10ba:	bf00      	nop
    10bc:	46bd      	mov	sp, r7
    10be:	f85d 7b04 	ldr.w	r7, [sp], #4
    10c2:	4770      	bx	lr
    10c4:	40050006 	andmi	r0, r5, r6

000010c8 <ConfigureINEndpoint>:
    10c8:	b084      	sub	sp, #16
    10ca:	b580      	push	{r7, lr}
    10cc:	b084      	sub	sp, #16
    10ce:	af02      	add	r7, sp, #8
    10d0:	6078      	str	r0, [r7, #4]
    10d2:	f107 0014 	add.w	r0, r7, #20
    10d6:	e880 000e 	stmia.w	r0, {r1, r2, r3}
    10da:	687b      	ldr	r3, [r7, #4]
    10dc:	2b00      	cmp	r3, #0
    10de:	d0fc      	beq.n	10da <ConfigureINEndpoint+0x12>
    10e0:	466a      	mov	r2, sp
    10e2:	f107 031c 	add.w	r3, r7, #28
    10e6:	e893 0003 	ldmia.w	r3, {r0, r1}
    10ea:	e882 0003 	stmia.w	r2, {r0, r1}
    10ee:	f107 0314 	add.w	r3, r7, #20
    10f2:	cb0c      	ldmia	r3, {r2, r3}
    10f4:	2101      	movs	r1, #1
    10f6:	6878      	ldr	r0, [r7, #4]
    10f8:	f000 f846 	bl	1188 <ConfigureTxRxFIFOSize>
    10fc:	4b09      	ldr	r3, [pc, #36]	; (1124 <ConfigureINEndpoint+0x5c>)
    10fe:	881b      	ldrh	r3, [r3, #0]
    1100:	b21a      	sxth	r2, r3
    1102:	2101      	movs	r1, #1
    1104:	687b      	ldr	r3, [r7, #4]
    1106:	fa01 f303 	lsl.w	r3, r1, r3
    110a:	b21b      	sxth	r3, r3
    110c:	4313      	orrs	r3, r2
    110e:	b21a      	sxth	r2, r3
    1110:	4b04      	ldr	r3, [pc, #16]	; (1124 <ConfigureINEndpoint+0x5c>)
    1112:	b292      	uxth	r2, r2
    1114:	801a      	strh	r2, [r3, #0]
    1116:	bf00      	nop
    1118:	3708      	adds	r7, #8
    111a:	46bd      	mov	sp, r7
    111c:	e8bd 4080 	ldmia.w	sp!, {r7, lr}
    1120:	b004      	add	sp, #16
    1122:	4770      	bx	lr
    1124:	40050006 	andmi	r0, r5, r6

00001128 <ConfigureOUTEndpoint>:
    1128:	b084      	sub	sp, #16
    112a:	b580      	push	{r7, lr}
    112c:	b084      	sub	sp, #16
    112e:	af02      	add	r7, sp, #8
    1130:	6078      	str	r0, [r7, #4]
    1132:	f107 0014 	add.w	r0, r7, #20
    1136:	e880 000e 	stmia.w	r0, {r1, r2, r3}
    113a:	687b      	ldr	r3, [r7, #4]
    113c:	2b00      	cmp	r3, #0
    113e:	d0fc      	beq.n	113a <ConfigureOUTEndpoint+0x12>
    1140:	466a      	mov	r2, sp
    1142:	f107 031c 	add.w	r3, r7, #28
    1146:	e893 0003 	ldmia.w	r3, {r0, r1}
    114a:	e882 0003 	stmia.w	r2, {r0, r1}
    114e:	f107 0314 	add.w	r3, r7, #20
    1152:	cb0c      	ldmia	r3, {r2, r3}
    1154:	2100      	movs	r1, #0
    1156:	6878      	ldr	r0, [r7, #4]
    1158:	f000 f816 	bl	1188 <ConfigureTxRxFIFOSize>
    115c:	4b09      	ldr	r3, [pc, #36]	; (1184 <ConfigureOUTEndpoint+0x5c>)
    115e:	881b      	ldrh	r3, [r3, #0]
    1160:	b21a      	sxth	r2, r3
    1162:	2101      	movs	r1, #1
    1164:	687b      	ldr	r3, [r7, #4]
    1166:	fa01 f303 	lsl.w	r3, r1, r3
    116a:	b21b      	sxth	r3, r3
    116c:	4313      	orrs	r3, r2
    116e:	b21a      	sxth	r2, r3
    1170:	4b04      	ldr	r3, [pc, #16]	; (1184 <ConfigureOUTEndpoint+0x5c>)
    1172:	b292      	uxth	r2, r2
    1174:	801a      	strh	r2, [r3, #0]
    1176:	bf00      	nop
    1178:	3708      	adds	r7, #8
    117a:	46bd      	mov	sp, r7
    117c:	e8bd 4080 	ldmia.w	sp!, {r7, lr}
    1180:	b004      	add	sp, #16
    1182:	4770      	bx	lr
    1184:	40050008 	andmi	r0, r5, r8

00001188 <ConfigureTxRxFIFOSize>:
    1188:	b082      	sub	sp, #8
    118a:	b490      	push	{r4, r7}
    118c:	b088      	sub	sp, #32
    118e:	af00      	add	r7, sp, #0
    1190:	6078      	str	r0, [r7, #4]
    1192:	f107 0028 	add.w	r0, r7, #40	; 0x28
    1196:	e880 000c 	stmia.w	r0, {r2, r3}
    119a:	460b      	mov	r3, r1
    119c:	70fb      	strb	r3, [r7, #3]
    119e:	f107 040c 	add.w	r4, r7, #12
    11a2:	f107 0328 	add.w	r3, r7, #40	; 0x28
    11a6:	cb0f      	ldmia	r3, {r0, r1, r2, r3}
    11a8:	e884 000f 	stmia.w	r4, {r0, r1, r2, r3}
    11ac:	2300      	movs	r3, #0
    11ae:	61fb      	str	r3, [r7, #28]
    11b0:	bf00      	nop
    11b2:	697b      	ldr	r3, [r7, #20]
    11b4:	f003 0307 	and.w	r3, r3, #7
    11b8:	2b00      	cmp	r3, #0
    11ba:	d1fa      	bne.n	11b2 <ConfigureTxRxFIFOSize+0x2a>
    11bc:	687b      	ldr	r3, [r7, #4]
    11be:	2b00      	cmp	r3, #0
    11c0:	d0fc      	beq.n	11bc <ConfigureTxRxFIFOSize+0x34>
    11c2:	4b3a      	ldr	r3, [pc, #232]	; (12ac <ConfigureTxRxFIFOSize+0x124>)
    11c4:	687a      	ldr	r2, [r7, #4]
    11c6:	b2d2      	uxtb	r2, r2
    11c8:	701a      	strb	r2, [r3, #0]
    11ca:	78fb      	ldrb	r3, [r7, #3]
    11cc:	2b00      	cmp	r3, #0
    11ce:	d00d      	beq.n	11ec <ConfigureTxRxFIFOSize+0x64>
    11d0:	69ba      	ldr	r2, [r7, #24]
    11d2:	4b37      	ldr	r3, [pc, #220]	; (12b0 <ConfigureTxRxFIFOSize+0x128>)
    11d4:	b2d2      	uxtb	r2, r2
    11d6:	701a      	strb	r2, [r3, #0]
    11d8:	697b      	ldr	r3, [r7, #20]
    11da:	2b00      	cmp	r3, #0
    11dc:	da00      	bge.n	11e0 <ConfigureTxRxFIFOSize+0x58>
    11de:	3307      	adds	r3, #7
    11e0:	10db      	asrs	r3, r3, #3
    11e2:	461a      	mov	r2, r3
    11e4:	4b33      	ldr	r3, [pc, #204]	; (12b4 <ConfigureTxRxFIFOSize+0x12c>)
    11e6:	b292      	uxth	r2, r2
    11e8:	801a      	strh	r2, [r3, #0]
    11ea:	e00c      	b.n	1206 <ConfigureTxRxFIFOSize+0x7e>
    11ec:	69ba      	ldr	r2, [r7, #24]
    11ee:	4b32      	ldr	r3, [pc, #200]	; (12b8 <ConfigureTxRxFIFOSize+0x130>)
    11f0:	b2d2      	uxtb	r2, r2
    11f2:	701a      	strb	r2, [r3, #0]
    11f4:	697b      	ldr	r3, [r7, #20]
    11f6:	2b00      	cmp	r3, #0
    11f8:	da00      	bge.n	11fc <ConfigureTxRxFIFOSize+0x74>
    11fa:	3307      	adds	r3, #7
    11fc:	10db      	asrs	r3, r3, #3
    11fe:	461a      	mov	r2, r3
    1200:	4b2e      	ldr	r3, [pc, #184]	; (12bc <ConfigureTxRxFIFOSize+0x134>)
    1202:	b292      	uxth	r2, r2
    1204:	801a      	strh	r2, [r3, #0]
    1206:	69bb      	ldr	r3, [r7, #24]
    1208:	2b08      	cmp	r3, #8
    120a:	d834      	bhi.n	1276 <ConfigureTxRxFIFOSize+0xee>
    120c:	a201      	add	r2, pc, #4	; (adr r2, 1214 <ConfigureTxRxFIFOSize+0x8c>)
    120e:	f852 f023 	ldr.w	pc, [r2, r3, lsl #2]
    1212:	bf00      	nop
    1214:	00001239 	andeq	r1, r0, r9, lsr r2
    1218:	0000123f 	andeq	r1, r0, pc, lsr r2
    121c:	00001245 	andeq	r1, r0, r5, asr #4
    1220:	0000124b 	andeq	r1, r0, fp, asr #4
    1224:	00001251 	andeq	r1, r0, r1, asr r2
    1228:	00001257 	andeq	r1, r0, r7, asr r2
    122c:	0000125f 	andeq	r1, r0, pc, asr r2
    1230:	00001267 	andeq	r1, r0, r7, ror #4
    1234:	0000126f 	andeq	r1, r0, pc, ror #4
    1238:	2308      	movs	r3, #8
    123a:	61fb      	str	r3, [r7, #28]
    123c:	e01c      	b.n	1278 <ConfigureTxRxFIFOSize+0xf0>
    123e:	2310      	movs	r3, #16
    1240:	61fb      	str	r3, [r7, #28]
    1242:	e019      	b.n	1278 <ConfigureTxRxFIFOSize+0xf0>
    1244:	2320      	movs	r3, #32
    1246:	61fb      	str	r3, [r7, #28]
    1248:	e016      	b.n	1278 <ConfigureTxRxFIFOSize+0xf0>
    124a:	2340      	movs	r3, #64	; 0x40
    124c:	61fb      	str	r3, [r7, #28]
    124e:	e013      	b.n	1278 <ConfigureTxRxFIFOSize+0xf0>
    1250:	2380      	movs	r3, #128	; 0x80
    1252:	61fb      	str	r3, [r7, #28]
    1254:	e010      	b.n	1278 <ConfigureTxRxFIFOSize+0xf0>
    1256:	f44f 7380 	mov.w	r3, #256	; 0x100
    125a:	61fb      	str	r3, [r7, #28]
    125c:	e00c      	b.n	1278 <ConfigureTxRxFIFOSize+0xf0>
    125e:	f44f 7300 	mov.w	r3, #512	; 0x200
    1262:	61fb      	str	r3, [r7, #28]
    1264:	e008      	b.n	1278 <ConfigureTxRxFIFOSize+0xf0>
    1266:	f44f 6380 	mov.w	r3, #1024	; 0x400
    126a:	61fb      	str	r3, [r7, #28]
    126c:	e004      	b.n	1278 <ConfigureTxRxFIFOSize+0xf0>
    126e:	f44f 6300 	mov.w	r3, #2048	; 0x800
    1272:	61fb      	str	r3, [r7, #28]
    1274:	e000      	b.n	1278 <ConfigureTxRxFIFOSize+0xf0>
    1276:	e7fe      	b.n	1276 <ConfigureTxRxFIFOSize+0xee>
    1278:	78fb      	ldrb	r3, [r7, #3]
    127a:	2b00      	cmp	r3, #0
    127c:	d007      	beq.n	128e <ConfigureTxRxFIFOSize+0x106>
    127e:	687a      	ldr	r2, [r7, #4]
    1280:	4b0f      	ldr	r3, [pc, #60]	; (12c0 <ConfigureTxRxFIFOSize+0x138>)
    1282:	4413      	add	r3, r2
    1284:	011b      	lsls	r3, r3, #4
    1286:	69fa      	ldr	r2, [r7, #28]
    1288:	b292      	uxth	r2, r2
    128a:	801a      	strh	r2, [r3, #0]
    128c:	e007      	b.n	129e <ConfigureTxRxFIFOSize+0x116>
    128e:	687b      	ldr	r3, [r7, #4]
    1290:	3b01      	subs	r3, #1
    1292:	011a      	lsls	r2, r3, #4
    1294:	4b0b      	ldr	r3, [pc, #44]	; (12c4 <ConfigureTxRxFIFOSize+0x13c>)
    1296:	4413      	add	r3, r2
    1298:	69fa      	ldr	r2, [r7, #28]
    129a:	b292      	uxth	r2, r2
    129c:	801a      	strh	r2, [r3, #0]
    129e:	bf00      	nop
    12a0:	3720      	adds	r7, #32
    12a2:	46bd      	mov	sp, r7
    12a4:	bc90      	pop	{r4, r7}
    12a6:	b002      	add	sp, #8
    12a8:	4770      	bx	lr
    12aa:	bf00      	nop
    12ac:	4005000e 	andmi	r0, r5, lr
    12b0:	40050062 	andmi	r0, r5, r2, rrx
    12b4:	40050064 	andmi	r0, r5, r4, rrx
    12b8:	40050063 	andmi	r0, r5, r3, rrx
    12bc:	40050066 	andmi	r0, r5, r6, rrx
    12c0:	04005010 	streq	r5, [r0], #-16
    12c4:	40050114 	andmi	r0, r5, r4, lsl r1

000012c8 <writeTxFIFO>:
    12c8:	b480      	push	{r7}
    12ca:	b085      	sub	sp, #20
    12cc:	af00      	add	r7, sp, #0
    12ce:	60f8      	str	r0, [r7, #12]
    12d0:	60b9      	str	r1, [r7, #8]
    12d2:	607a      	str	r2, [r7, #4]
    12d4:	68bb      	ldr	r3, [r7, #8]
    12d6:	2b00      	cmp	r3, #0
    12d8:	d0fc      	beq.n	12d4 <writeTxFIFO+0xc>
    12da:	687b      	ldr	r3, [r7, #4]
    12dc:	2b20      	cmp	r3, #32
    12de:	d01b      	beq.n	1318 <writeTxFIFO+0x50>
    12e0:	687b      	ldr	r3, [r7, #4]
    12e2:	2b20      	cmp	r3, #32
    12e4:	d821      	bhi.n	132a <writeTxFIFO+0x62>
    12e6:	687b      	ldr	r3, [r7, #4]
    12e8:	2b08      	cmp	r3, #8
    12ea:	d003      	beq.n	12f4 <writeTxFIFO+0x2c>
    12ec:	687b      	ldr	r3, [r7, #4]
    12ee:	2b10      	cmp	r3, #16
    12f0:	d009      	beq.n	1306 <writeTxFIFO+0x3e>
    12f2:	e01a      	b.n	132a <writeTxFIFO+0x62>
    12f4:	68bb      	ldr	r3, [r7, #8]
    12f6:	6819      	ldr	r1, [r3, #0]
    12f8:	68fa      	ldr	r2, [r7, #12]
    12fa:	4b0f      	ldr	r3, [pc, #60]	; (1338 <writeTxFIFO+0x70>)
    12fc:	4413      	add	r3, r2
    12fe:	009b      	lsls	r3, r3, #2
    1300:	b2ca      	uxtb	r2, r1
    1302:	701a      	strb	r2, [r3, #0]
    1304:	e011      	b.n	132a <writeTxFIFO+0x62>
    1306:	68bb      	ldr	r3, [r7, #8]
    1308:	6819      	ldr	r1, [r3, #0]
    130a:	68fa      	ldr	r2, [r7, #12]
    130c:	4b0a      	ldr	r3, [pc, #40]	; (1338 <writeTxFIFO+0x70>)
    130e:	4413      	add	r3, r2
    1310:	009b      	lsls	r3, r3, #2
    1312:	b28a      	uxth	r2, r1
    1314:	801a      	strh	r2, [r3, #0]
    1316:	e008      	b.n	132a <writeTxFIFO+0x62>
    1318:	68fa      	ldr	r2, [r7, #12]
    131a:	4b07      	ldr	r3, [pc, #28]	; (1338 <writeTxFIFO+0x70>)
    131c:	4413      	add	r3, r2
    131e:	009b      	lsls	r3, r3, #2
    1320:	461a      	mov	r2, r3
    1322:	68bb      	ldr	r3, [r7, #8]
    1324:	681b      	ldr	r3, [r3, #0]
    1326:	6013      	str	r3, [r2, #0]
    1328:	bf00      	nop
    132a:	bf00      	nop
    132c:	3714      	adds	r7, #20
    132e:	46bd      	mov	sp, r7
    1330:	f85d 7b04 	ldr.w	r7, [sp], #4
    1334:	4770      	bx	lr
    1336:	bf00      	nop
    1338:	10014008 	andne	r4, r1, r8

0000133c <readRxFIFO>:
    133c:	b480      	push	{r7}
    133e:	b085      	sub	sp, #20
    1340:	af00      	add	r7, sp, #0
    1342:	60f8      	str	r0, [r7, #12]
    1344:	60b9      	str	r1, [r7, #8]
    1346:	607a      	str	r2, [r7, #4]
    1348:	687b      	ldr	r3, [r7, #4]
    134a:	2b20      	cmp	r3, #32
    134c:	d01b      	beq.n	1386 <readRxFIFO+0x4a>
    134e:	687b      	ldr	r3, [r7, #4]
    1350:	2b20      	cmp	r3, #32
    1352:	d820      	bhi.n	1396 <readRxFIFO+0x5a>
    1354:	687b      	ldr	r3, [r7, #4]
    1356:	2b08      	cmp	r3, #8
    1358:	d003      	beq.n	1362 <readRxFIFO+0x26>
    135a:	687b      	ldr	r3, [r7, #4]
    135c:	2b10      	cmp	r3, #16
    135e:	d009      	beq.n	1374 <readRxFIFO+0x38>
    1360:	e019      	b.n	1396 <readRxFIFO+0x5a>
    1362:	68fa      	ldr	r2, [r7, #12]
    1364:	4b0f      	ldr	r3, [pc, #60]	; (13a4 <readRxFIFO+0x68>)
    1366:	4413      	add	r3, r2
    1368:	009b      	lsls	r3, r3, #2
    136a:	781b      	ldrb	r3, [r3, #0]
    136c:	461a      	mov	r2, r3
    136e:	68bb      	ldr	r3, [r7, #8]
    1370:	601a      	str	r2, [r3, #0]
    1372:	e010      	b.n	1396 <readRxFIFO+0x5a>
    1374:	68fa      	ldr	r2, [r7, #12]
    1376:	4b0b      	ldr	r3, [pc, #44]	; (13a4 <readRxFIFO+0x68>)
    1378:	4413      	add	r3, r2
    137a:	009b      	lsls	r3, r3, #2
    137c:	881b      	ldrh	r3, [r3, #0]
    137e:	461a      	mov	r2, r3
    1380:	68bb      	ldr	r3, [r7, #8]
    1382:	601a      	str	r2, [r3, #0]
    1384:	e007      	b.n	1396 <readRxFIFO+0x5a>
    1386:	68fa      	ldr	r2, [r7, #12]
    1388:	4b06      	ldr	r3, [pc, #24]	; (13a4 <readRxFIFO+0x68>)
    138a:	4413      	add	r3, r2
    138c:	009b      	lsls	r3, r3, #2
    138e:	681a      	ldr	r2, [r3, #0]
    1390:	68bb      	ldr	r3, [r7, #8]
    1392:	601a      	str	r2, [r3, #0]
    1394:	bf00      	nop
    1396:	bf00      	nop
    1398:	3714      	adds	r7, #20
    139a:	46bd      	mov	sp, r7
    139c:	f85d 7b04 	ldr.w	r7, [sp], #4
    13a0:	4770      	bx	lr
    13a2:	bf00      	nop
    13a4:	10014008 	andne	r4, r1, r8

000013a8 <readPacket>:
    13a8:	b580      	push	{r7, lr}
    13aa:	b084      	sub	sp, #16
    13ac:	af00      	add	r7, sp, #0
    13ae:	60f8      	str	r0, [r7, #12]
    13b0:	60b9      	str	r1, [r7, #8]
    13b2:	4613      	mov	r3, r2
    13b4:	80fb      	strh	r3, [r7, #6]
    13b6:	e00b      	b.n	13d0 <readPacket+0x28>
    13b8:	68fb      	ldr	r3, [r7, #12]
    13ba:	2220      	movs	r2, #32
    13bc:	68b9      	ldr	r1, [r7, #8]
    13be:	4618      	mov	r0, r3
    13c0:	f7ff ffbc 	bl	133c <readRxFIFO>
    13c4:	88fb      	ldrh	r3, [r7, #6]
    13c6:	3b04      	subs	r3, #4
    13c8:	80fb      	strh	r3, [r7, #6]
    13ca:	68bb      	ldr	r3, [r7, #8]
    13cc:	3304      	adds	r3, #4
    13ce:	60bb      	str	r3, [r7, #8]
    13d0:	88fb      	ldrh	r3, [r7, #6]
    13d2:	2b03      	cmp	r3, #3
    13d4:	d8f0      	bhi.n	13b8 <readPacket+0x10>
    13d6:	88fb      	ldrh	r3, [r7, #6]
    13d8:	2b00      	cmp	r3, #0
    13da:	d00f      	beq.n	13fc <readPacket+0x54>
    13dc:	e00b      	b.n	13f6 <readPacket+0x4e>
    13de:	68fb      	ldr	r3, [r7, #12]
    13e0:	2208      	movs	r2, #8
    13e2:	68b9      	ldr	r1, [r7, #8]
    13e4:	4618      	mov	r0, r3
    13e6:	f7ff ffa9 	bl	133c <readRxFIFO>
    13ea:	88fb      	ldrh	r3, [r7, #6]
    13ec:	3b01      	subs	r3, #1
    13ee:	80fb      	strh	r3, [r7, #6]
    13f0:	68bb      	ldr	r3, [r7, #8]
    13f2:	3301      	adds	r3, #1
    13f4:	60bb      	str	r3, [r7, #8]
    13f6:	88fb      	ldrh	r3, [r7, #6]
    13f8:	2b00      	cmp	r3, #0
    13fa:	d1f0      	bne.n	13de <readPacket+0x36>
    13fc:	bf00      	nop
    13fe:	3710      	adds	r7, #16
    1400:	46bd      	mov	sp, r7
    1402:	bd80      	pop	{r7, pc}

00001404 <writePacket>:
    1404:	b580      	push	{r7, lr}
    1406:	b084      	sub	sp, #16
    1408:	af00      	add	r7, sp, #0
    140a:	60f8      	str	r0, [r7, #12]
    140c:	60b9      	str	r1, [r7, #8]
    140e:	4613      	mov	r3, r2
    1410:	80fb      	strh	r3, [r7, #6]
    1412:	e00b      	b.n	142c <writePacket+0x28>
    1414:	68fb      	ldr	r3, [r7, #12]
    1416:	2220      	movs	r2, #32
    1418:	68b9      	ldr	r1, [r7, #8]
    141a:	4618      	mov	r0, r3
    141c:	f7ff ff54 	bl	12c8 <writeTxFIFO>
    1420:	88fb      	ldrh	r3, [r7, #6]
    1422:	3b04      	subs	r3, #4
    1424:	80fb      	strh	r3, [r7, #6]
    1426:	68bb      	ldr	r3, [r7, #8]
    1428:	3304      	adds	r3, #4
    142a:	60bb      	str	r3, [r7, #8]
    142c:	88fb      	ldrh	r3, [r7, #6]
    142e:	2b03      	cmp	r3, #3
    1430:	d8f0      	bhi.n	1414 <writePacket+0x10>
    1432:	88fb      	ldrh	r3, [r7, #6]
    1434:	2b00      	cmp	r3, #0
    1436:	d00f      	beq.n	1458 <writePacket+0x54>
    1438:	e00b      	b.n	1452 <writePacket+0x4e>
    143a:	68fb      	ldr	r3, [r7, #12]
    143c:	2208      	movs	r2, #8
    143e:	68b9      	ldr	r1, [r7, #8]
    1440:	4618      	mov	r0, r3
    1442:	f7ff ff41 	bl	12c8 <writeTxFIFO>
    1446:	88fb      	ldrh	r3, [r7, #6]
    1448:	3b01      	subs	r3, #1
    144a:	80fb      	strh	r3, [r7, #6]
    144c:	68bb      	ldr	r3, [r7, #8]
    144e:	3301      	adds	r3, #1
    1450:	60bb      	str	r3, [r7, #8]
    1452:	88fb      	ldrh	r3, [r7, #6]
    1454:	2b00      	cmp	r3, #0
    1456:	d1f0      	bne.n	143a <writePacket+0x36>
    1458:	bf00      	nop
    145a:	3710      	adds	r7, #16
    145c:	46bd      	mov	sp, r7
    145e:	bd80      	pop	{r7, pc}

00001460 <USBDeviceGetIntStatus>:
    1460:	b480      	push	{r7}
    1462:	b083      	sub	sp, #12
    1464:	af00      	add	r7, sp, #0
    1466:	6078      	str	r0, [r7, #4]
    1468:	4b0d      	ldr	r3, [pc, #52]	; (14a0 <USBDeviceGetIntStatus+0x40>)
    146a:	781b      	ldrb	r3, [r3, #0]
    146c:	461a      	mov	r2, r3
    146e:	687b      	ldr	r3, [r7, #4]
    1470:	601a      	str	r2, [r3, #0]
    1472:	687b      	ldr	r3, [r7, #4]
    1474:	681b      	ldr	r3, [r3, #0]
    1476:	4a0b      	ldr	r2, [pc, #44]	; (14a4 <USBDeviceGetIntStatus+0x44>)
    1478:	8812      	ldrh	r2, [r2, #0]
    147a:	0212      	lsls	r2, r2, #8
    147c:	431a      	orrs	r2, r3
    147e:	687b      	ldr	r3, [r7, #4]
    1480:	601a      	str	r2, [r3, #0]
    1482:	687b      	ldr	r3, [r7, #4]
    1484:	681b      	ldr	r3, [r3, #0]
    1486:	4a08      	ldr	r2, [pc, #32]	; (14a8 <USBDeviceGetIntStatus+0x48>)
    1488:	8812      	ldrh	r2, [r2, #0]
    148a:	0412      	lsls	r2, r2, #16
    148c:	431a      	orrs	r2, r3
    148e:	687b      	ldr	r3, [r7, #4]
    1490:	601a      	str	r2, [r3, #0]
    1492:	bf00      	nop
    1494:	370c      	adds	r7, #12
    1496:	46bd      	mov	sp, r7
    1498:	f85d 7b04 	ldr.w	r7, [sp], #4
    149c:	4770      	bx	lr
    149e:	bf00      	nop
    14a0:	4005000a 	andmi	r0, r5, sl
    14a4:	40050002 	andmi	r0, r5, r2
    14a8:	40050004 	andmi	r0, r5, r4

000014ac <USBGetRcvBytes>:
    14ac:	b480      	push	{r7}
    14ae:	b083      	sub	sp, #12
    14b0:	af00      	add	r7, sp, #0
    14b2:	6078      	str	r0, [r7, #4]
    14b4:	6039      	str	r1, [r7, #0]
    14b6:	687b      	ldr	r3, [r7, #4]
    14b8:	2b00      	cmp	r3, #0
    14ba:	d105      	bne.n	14c8 <USBGetRcvBytes+0x1c>
    14bc:	4b09      	ldr	r3, [pc, #36]	; (14e4 <USBGetRcvBytes+0x38>)
    14be:	781b      	ldrb	r3, [r3, #0]
    14c0:	b29a      	uxth	r2, r3
    14c2:	683b      	ldr	r3, [r7, #0]
    14c4:	801a      	strh	r2, [r3, #0]
    14c6:	e007      	b.n	14d8 <USBGetRcvBytes+0x2c>
    14c8:	687b      	ldr	r3, [r7, #4]
    14ca:	3b01      	subs	r3, #1
    14cc:	011a      	lsls	r2, r3, #4
    14ce:	4b06      	ldr	r3, [pc, #24]	; (14e8 <USBGetRcvBytes+0x3c>)
    14d0:	4413      	add	r3, r2
    14d2:	881a      	ldrh	r2, [r3, #0]
    14d4:	683b      	ldr	r3, [r7, #0]
    14d6:	801a      	strh	r2, [r3, #0]
    14d8:	bf00      	nop
    14da:	370c      	adds	r7, #12
    14dc:	46bd      	mov	sp, r7
    14de:	f85d 7b04 	ldr.w	r7, [sp], #4
    14e2:	4770      	bx	lr
    14e4:	40050108 	andmi	r0, r5, r8, lsl #2
    14e8:	40050118 	andmi	r0, r5, r8, lsl r1

000014ec <USBGetEndpointStatus>:
    14ec:	b480      	push	{r7}
    14ee:	b083      	sub	sp, #12
    14f0:	af00      	add	r7, sp, #0
    14f2:	6078      	str	r0, [r7, #4]
    14f4:	6039      	str	r1, [r7, #0]
    14f6:	687b      	ldr	r3, [r7, #4]
    14f8:	2b00      	cmp	r3, #0
    14fa:	d109      	bne.n	1510 <USBGetEndpointStatus+0x24>
    14fc:	4b18      	ldr	r3, [pc, #96]	; (1560 <USBGetEndpointStatus+0x74>)
    14fe:	781b      	ldrb	r3, [r3, #0]
    1500:	021b      	lsls	r3, r3, #8
    1502:	4a18      	ldr	r2, [pc, #96]	; (1564 <USBGetEndpointStatus+0x78>)
    1504:	7812      	ldrb	r2, [r2, #0]
    1506:	4313      	orrs	r3, r2
    1508:	461a      	mov	r2, r3
    150a:	683b      	ldr	r3, [r7, #0]
    150c:	601a      	str	r2, [r3, #0]
    150e:	e020      	b.n	1552 <USBGetEndpointStatus+0x66>
    1510:	687b      	ldr	r3, [r7, #4]
    1512:	3b01      	subs	r3, #1
    1514:	011a      	lsls	r2, r3, #4
    1516:	4b14      	ldr	r3, [pc, #80]	; (1568 <USBGetEndpointStatus+0x7c>)
    1518:	4413      	add	r3, r2
    151a:	781b      	ldrb	r3, [r3, #0]
    151c:	061a      	lsls	r2, r3, #24
    151e:	687b      	ldr	r3, [r7, #4]
    1520:	3b01      	subs	r3, #1
    1522:	0119      	lsls	r1, r3, #4
    1524:	4b11      	ldr	r3, [pc, #68]	; (156c <USBGetEndpointStatus+0x80>)
    1526:	440b      	add	r3, r1
    1528:	781b      	ldrb	r3, [r3, #0]
    152a:	041b      	lsls	r3, r3, #16
    152c:	431a      	orrs	r2, r3
    152e:	687b      	ldr	r3, [r7, #4]
    1530:	3b01      	subs	r3, #1
    1532:	0119      	lsls	r1, r3, #4
    1534:	4b0e      	ldr	r3, [pc, #56]	; (1570 <USBGetEndpointStatus+0x84>)
    1536:	440b      	add	r3, r1
    1538:	781b      	ldrb	r3, [r3, #0]
    153a:	021b      	lsls	r3, r3, #8
    153c:	431a      	orrs	r2, r3
    153e:	687b      	ldr	r3, [r7, #4]
    1540:	3b01      	subs	r3, #1
    1542:	0119      	lsls	r1, r3, #4
    1544:	4b0b      	ldr	r3, [pc, #44]	; (1574 <USBGetEndpointStatus+0x88>)
    1546:	440b      	add	r3, r1
    1548:	781b      	ldrb	r3, [r3, #0]
    154a:	4313      	orrs	r3, r2
    154c:	461a      	mov	r2, r3
    154e:	683b      	ldr	r3, [r7, #0]
    1550:	601a      	str	r2, [r3, #0]
    1552:	bf00      	nop
    1554:	370c      	adds	r7, #12
    1556:	46bd      	mov	sp, r7
    1558:	f85d 7b04 	ldr.w	r7, [sp], #4
    155c:	4770      	bx	lr
    155e:	bf00      	nop
    1560:	40050103 	andmi	r0, r5, r3, lsl #2
    1564:	40050102 	andmi	r0, r5, r2, lsl #2
    1568:	40050113 	andmi	r0, r5, r3, lsl r1
    156c:	40050112 	andmi	r0, r5, r2, lsl r1
    1570:	40050117 	andmi	r0, r5, r7, lsl r1
    1574:	40050116 	andmi	r0, r5, r6, lsl r1

00001578 <USBCoreInitialize>:
    1578:	b580      	push	{r7, lr}
    157a:	af00      	add	r7, sp, #0
    157c:	f7ff fd16 	bl	fac <USBDeviceInit>
    1580:	f7ff fcea 	bl	f58 <USBInterruptInitialize>
    1584:	f7ff fd90 	bl	10a8 <ConfigureEndpoint0>
    1588:	bf00      	nop
    158a:	bd80      	pop	{r7, pc}

0000158c <USBDIntHandler>:
    158c:	b580      	push	{r7, lr}
    158e:	b082      	sub	sp, #8
    1590:	af00      	add	r7, sp, #0
    1592:	6078      	str	r0, [r7, #4]
    1594:	687b      	ldr	r3, [r7, #4]
    1596:	f003 0304 	and.w	r3, r3, #4
    159a:	2b00      	cmp	r3, #0
    159c:	d002      	beq.n	15a4 <USBDIntHandler+0x18>
    159e:	4b1d      	ldr	r3, [pc, #116]	; (1614 <USBDIntHandler+0x88>)
    15a0:	681b      	ldr	r3, [r3, #0]
    15a2:	4798      	blx	r3
    15a4:	687b      	ldr	r3, [r7, #4]
    15a6:	f403 7380 	and.w	r3, r3, #256	; 0x100
    15aa:	2b00      	cmp	r3, #0
    15ac:	d004      	beq.n	15b8 <USBDIntHandler+0x2c>
    15ae:	4b19      	ldr	r3, [pc, #100]	; (1614 <USBDIntHandler+0x88>)
    15b0:	699b      	ldr	r3, [r3, #24]
    15b2:	6879      	ldr	r1, [r7, #4]
    15b4:	2000      	movs	r0, #0
    15b6:	4798      	blx	r3
    15b8:	687b      	ldr	r3, [r7, #4]
    15ba:	0a1a      	lsrs	r2, r3, #8
    15bc:	687b      	ldr	r3, [r7, #4]
    15be:	0c1b      	lsrs	r3, r3, #16
    15c0:	4313      	orrs	r3, r2
    15c2:	f003 0302 	and.w	r3, r3, #2
    15c6:	2b00      	cmp	r3, #0
    15c8:	d004      	beq.n	15d4 <USBDIntHandler+0x48>
    15ca:	4b12      	ldr	r3, [pc, #72]	; (1614 <USBDIntHandler+0x88>)
    15cc:	699b      	ldr	r3, [r3, #24]
    15ce:	6879      	ldr	r1, [r7, #4]
    15d0:	2001      	movs	r0, #1
    15d2:	4798      	blx	r3
    15d4:	687b      	ldr	r3, [r7, #4]
    15d6:	0a1a      	lsrs	r2, r3, #8
    15d8:	687b      	ldr	r3, [r7, #4]
    15da:	0c1b      	lsrs	r3, r3, #16
    15dc:	4313      	orrs	r3, r2
    15de:	f003 0304 	and.w	r3, r3, #4
    15e2:	2b00      	cmp	r3, #0
    15e4:	d004      	beq.n	15f0 <USBDIntHandler+0x64>
    15e6:	4b0b      	ldr	r3, [pc, #44]	; (1614 <USBDIntHandler+0x88>)
    15e8:	699b      	ldr	r3, [r3, #24]
    15ea:	6879      	ldr	r1, [r7, #4]
    15ec:	2002      	movs	r0, #2
    15ee:	4798      	blx	r3
    15f0:	687b      	ldr	r3, [r7, #4]
    15f2:	0a1a      	lsrs	r2, r3, #8
    15f4:	687b      	ldr	r3, [r7, #4]
    15f6:	0c1b      	lsrs	r3, r3, #16
    15f8:	4313      	orrs	r3, r2
    15fa:	f003 0308 	and.w	r3, r3, #8
    15fe:	2b00      	cmp	r3, #0
    1600:	d004      	beq.n	160c <USBDIntHandler+0x80>
    1602:	4b04      	ldr	r3, [pc, #16]	; (1614 <USBDIntHandler+0x88>)
    1604:	699b      	ldr	r3, [r3, #24]
    1606:	6879      	ldr	r1, [r7, #4]
    1608:	2003      	movs	r0, #3
    160a:	4798      	blx	r3
    160c:	bf00      	nop
    160e:	3708      	adds	r7, #8
    1610:	46bd      	mov	sp, r7
    1612:	bd80      	pop	{r7, pc}
    1614:	00001cf0 	strdeq	r1, [r0], -r0

00001618 <USBDInit>:
    1618:	b580      	push	{r7, lr}
    161a:	b082      	sub	sp, #8
    161c:	af00      	add	r7, sp, #0
    161e:	6078      	str	r0, [r7, #4]
    1620:	4b07      	ldr	r3, [pc, #28]	; (1640 <USBDInit+0x28>)
    1622:	685b      	ldr	r3, [r3, #4]
    1624:	4798      	blx	r3
    1626:	4b06      	ldr	r3, [pc, #24]	; (1640 <USBDInit+0x28>)
    1628:	681b      	ldr	r3, [r3, #0]
    162a:	4798      	blx	r3
    162c:	4a05      	ldr	r2, [pc, #20]	; (1644 <USBDInit+0x2c>)
    162e:	687b      	ldr	r3, [r7, #4]
    1630:	6013      	str	r3, [r2, #0]
    1632:	4b03      	ldr	r3, [pc, #12]	; (1640 <USBDInit+0x28>)
    1634:	689b      	ldr	r3, [r3, #8]
    1636:	4798      	blx	r3
    1638:	bf00      	nop
    163a:	3708      	adds	r7, #8
    163c:	46bd      	mov	sp, r7
    163e:	bd80      	pop	{r7, pc}
    1640:	00001ca0 	andeq	r1, r0, r0, lsr #25
    1644:	2000011c 	andcs	r0, r0, ip, lsl r1

00001648 <usb_reset_received_handler>:
    1648:	b580      	push	{r7, lr}
    164a:	af00      	add	r7, sp, #0
    164c:	4b0c      	ldr	r3, [pc, #48]	; (1680 <usb_reset_received_handler+0x38>)
    164e:	681b      	ldr	r3, [r3, #0]
    1650:	2200      	movs	r2, #0
    1652:	611a      	str	r2, [r3, #16]
    1654:	4b0a      	ldr	r3, [pc, #40]	; (1680 <usb_reset_received_handler+0x38>)
    1656:	681b      	ldr	r3, [r3, #0]
    1658:	2200      	movs	r2, #0
    165a:	609a      	str	r2, [r3, #8]
    165c:	4b08      	ldr	r3, [pc, #32]	; (1680 <usb_reset_received_handler+0x38>)
    165e:	681b      	ldr	r3, [r3, #0]
    1660:	2200      	movs	r2, #0
    1662:	709a      	strb	r2, [r3, #2]
    1664:	4b06      	ldr	r3, [pc, #24]	; (1680 <usb_reset_received_handler+0x38>)
    1666:	681b      	ldr	r3, [r3, #0]
    1668:	2200      	movs	r2, #0
    166a:	701a      	strb	r2, [r3, #0]
    166c:	4b04      	ldr	r3, [pc, #16]	; (1680 <usb_reset_received_handler+0x38>)
    166e:	681b      	ldr	r3, [r3, #0]
    1670:	2200      	movs	r2, #0
    1672:	705a      	strb	r2, [r3, #1]
    1674:	4b03      	ldr	r3, [pc, #12]	; (1684 <usb_reset_received_handler+0x3c>)
    1676:	6adb      	ldr	r3, [r3, #44]	; 0x2c
    1678:	2000      	movs	r0, #0
    167a:	4798      	blx	r3
    167c:	bf00      	nop
    167e:	bd80      	pop	{r7, pc}
    1680:	2000011c 	andcs	r0, r0, ip, lsl r1
    1684:	00001ca0 	andeq	r1, r0, r0, lsr #25

00001688 <process_standard_device_request>:
    1688:	b580      	push	{r7, lr}
    168a:	b082      	sub	sp, #8
    168c:	af00      	add	r7, sp, #0
    168e:	4b19      	ldr	r3, [pc, #100]	; (16f4 <process_standard_device_request+0x6c>)
    1690:	681b      	ldr	r3, [r3, #0]
    1692:	685b      	ldr	r3, [r3, #4]
    1694:	607b      	str	r3, [r7, #4]
    1696:	687b      	ldr	r3, [r7, #4]
    1698:	785b      	ldrb	r3, [r3, #1]
    169a:	2b06      	cmp	r3, #6
    169c:	d121      	bne.n	16e2 <process_standard_device_request+0x5a>
    169e:	4816      	ldr	r0, [pc, #88]	; (16f8 <process_standard_device_request+0x70>)
    16a0:	f000 f9d6 	bl	1a50 <log_info>
    16a4:	687b      	ldr	r3, [r7, #4]
    16a6:	885b      	ldrh	r3, [r3, #2]
    16a8:	0a1b      	lsrs	r3, r3, #8
    16aa:	b29b      	uxth	r3, r3
    16ac:	70fb      	strb	r3, [r7, #3]
    16ae:	687b      	ldr	r3, [r7, #4]
    16b0:	88db      	ldrh	r3, [r3, #6]
    16b2:	803b      	strh	r3, [r7, #0]
    16b4:	78fb      	ldrb	r3, [r7, #3]
    16b6:	2b01      	cmp	r3, #1
    16b8:	d117      	bne.n	16ea <process_standard_device_request+0x62>
    16ba:	4810      	ldr	r0, [pc, #64]	; (16fc <process_standard_device_request+0x74>)
    16bc:	f000 f9c8 	bl	1a50 <log_info>
    16c0:	4b0c      	ldr	r3, [pc, #48]	; (16f4 <process_standard_device_request+0x6c>)
    16c2:	681b      	ldr	r3, [r3, #0]
    16c4:	4a0e      	ldr	r2, [pc, #56]	; (1700 <process_standard_device_request+0x78>)
    16c6:	60da      	str	r2, [r3, #12]
    16c8:	4b0a      	ldr	r3, [pc, #40]	; (16f4 <process_standard_device_request+0x6c>)
    16ca:	681b      	ldr	r3, [r3, #0]
    16cc:	883a      	ldrh	r2, [r7, #0]
    16ce:	611a      	str	r2, [r3, #16]
    16d0:	480c      	ldr	r0, [pc, #48]	; (1704 <process_standard_device_request+0x7c>)
    16d2:	f000 f9bd 	bl	1a50 <log_info>
    16d6:	4b07      	ldr	r3, [pc, #28]	; (16f4 <process_standard_device_request+0x6c>)
    16d8:	681b      	ldr	r3, [r3, #0]
    16da:	2202      	movs	r2, #2
    16dc:	705a      	strb	r2, [r3, #1]
    16de:	bf00      	nop
    16e0:	e003      	b.n	16ea <process_standard_device_request+0x62>
    16e2:	4809      	ldr	r0, [pc, #36]	; (1708 <process_standard_device_request+0x80>)
    16e4:	f000 f9b4 	bl	1a50 <log_info>
    16e8:	e000      	b.n	16ec <process_standard_device_request+0x64>
    16ea:	bf00      	nop
    16ec:	bf00      	nop
    16ee:	3708      	adds	r7, #8
    16f0:	46bd      	mov	sp, r7
    16f2:	bd80      	pop	{r7, pc}
    16f4:	2000011c 	andcs	r0, r0, ip, lsl r1
    16f8:	00001d0c 	andeq	r1, r0, ip, lsl #26
    16fc:	00001d38 	andeq	r1, r0, r8, lsr sp
    1700:	00001cdc 	ldrdeq	r1, [r0], -ip
    1704:	00001d54 	andeq	r1, r0, r4, asr sp
    1708:	00001d78 	andeq	r1, r0, r8, ror sp

0000170c <process_request>:
    170c:	b580      	push	{r7, lr}
    170e:	b082      	sub	sp, #8
    1710:	af00      	add	r7, sp, #0
    1712:	4b09      	ldr	r3, [pc, #36]	; (1738 <process_request+0x2c>)
    1714:	681b      	ldr	r3, [r3, #0]
    1716:	685b      	ldr	r3, [r3, #4]
    1718:	607b      	str	r3, [r7, #4]
    171a:	687b      	ldr	r3, [r7, #4]
    171c:	781b      	ldrb	r3, [r3, #0]
    171e:	f003 0363 	and.w	r3, r3, #99	; 0x63
    1722:	2b00      	cmp	r3, #0
    1724:	d102      	bne.n	172c <process_request+0x20>
    1726:	f7ff ffaf 	bl	1688 <process_standard_device_request>
    172a:	e000      	b.n	172e <process_request+0x22>
    172c:	bf00      	nop
    172e:	bf00      	nop
    1730:	3708      	adds	r7, #8
    1732:	46bd      	mov	sp, r7
    1734:	bd80      	pop	{r7, pc}
    1736:	bf00      	nop
    1738:	2000011c 	andcs	r0, r0, ip, lsl r1

0000173c <process_control_transfer_stage>:
    173c:	b580      	push	{r7, lr}
    173e:	b082      	sub	sp, #8
    1740:	af00      	add	r7, sp, #0
    1742:	4b32      	ldr	r3, [pc, #200]	; (180c <process_control_transfer_stage+0xd0>)
    1744:	681b      	ldr	r3, [r3, #0]
    1746:	785b      	ldrb	r3, [r3, #1]
    1748:	2b05      	cmp	r3, #5
    174a:	d858      	bhi.n	17fe <process_control_transfer_stage+0xc2>
    174c:	a201      	add	r2, pc, #4	; (adr r2, 1754 <process_control_transfer_stage+0x18>)
    174e:	f852 f023 	ldr.w	pc, [r2, r3, lsl #2]
    1752:	bf00      	nop
    1754:	000017ff 	strdeq	r1, [r0], -pc	; <UNPREDICTABLE>
    1758:	000017ff 	strdeq	r1, [r0], -pc	; <UNPREDICTABLE>
    175c:	0000176d 	andeq	r1, r0, sp, ror #14
    1760:	000017ff 	strdeq	r1, [r0], -pc	; <UNPREDICTABLE>
    1764:	000017ff 	strdeq	r1, [r0], -pc	; <UNPREDICTABLE>
    1768:	000017f7 	strdeq	r1, [r0], -r7
    176c:	4828      	ldr	r0, [pc, #160]	; (1810 <process_control_transfer_stage+0xd4>)
    176e:	f000 f96f 	bl	1a50 <log_info>
    1772:	2340      	movs	r3, #64	; 0x40
    1774:	461a      	mov	r2, r3
    1776:	4b25      	ldr	r3, [pc, #148]	; (180c <process_control_transfer_stage+0xd0>)
    1778:	681b      	ldr	r3, [r3, #0]
    177a:	691b      	ldr	r3, [r3, #16]
    177c:	4293      	cmp	r3, r2
    177e:	bf28      	it	cs
    1780:	4613      	movcs	r3, r2
    1782:	71fb      	strb	r3, [r7, #7]
    1784:	4b23      	ldr	r3, [pc, #140]	; (1814 <process_control_transfer_stage+0xd8>)
    1786:	6a1b      	ldr	r3, [r3, #32]
    1788:	4a20      	ldr	r2, [pc, #128]	; (180c <process_control_transfer_stage+0xd0>)
    178a:	6812      	ldr	r2, [r2, #0]
    178c:	68d1      	ldr	r1, [r2, #12]
    178e:	79fa      	ldrb	r2, [r7, #7]
    1790:	b292      	uxth	r2, r2
    1792:	2000      	movs	r0, #0
    1794:	4798      	blx	r3
    1796:	4b1d      	ldr	r3, [pc, #116]	; (180c <process_control_transfer_stage+0xd0>)
    1798:	681b      	ldr	r3, [r3, #0]
    179a:	6919      	ldr	r1, [r3, #16]
    179c:	79fa      	ldrb	r2, [r7, #7]
    179e:	4b1b      	ldr	r3, [pc, #108]	; (180c <process_control_transfer_stage+0xd0>)
    17a0:	681b      	ldr	r3, [r3, #0]
    17a2:	1a8a      	subs	r2, r1, r2
    17a4:	611a      	str	r2, [r3, #16]
    17a6:	4b19      	ldr	r3, [pc, #100]	; (180c <process_control_transfer_stage+0xd0>)
    17a8:	681b      	ldr	r3, [r3, #0]
    17aa:	68d9      	ldr	r1, [r3, #12]
    17ac:	79fa      	ldrb	r2, [r7, #7]
    17ae:	4b17      	ldr	r3, [pc, #92]	; (180c <process_control_transfer_stage+0xd0>)
    17b0:	681b      	ldr	r3, [r3, #0]
    17b2:	440a      	add	r2, r1
    17b4:	60da      	str	r2, [r3, #12]
    17b6:	4818      	ldr	r0, [pc, #96]	; (1818 <process_control_transfer_stage+0xdc>)
    17b8:	f000 f94a 	bl	1a50 <log_info>
    17bc:	4b13      	ldr	r3, [pc, #76]	; (180c <process_control_transfer_stage+0xd0>)
    17be:	681b      	ldr	r3, [r3, #0]
    17c0:	2203      	movs	r2, #3
    17c2:	705a      	strb	r2, [r3, #1]
    17c4:	4b11      	ldr	r3, [pc, #68]	; (180c <process_control_transfer_stage+0xd0>)
    17c6:	681b      	ldr	r3, [r3, #0]
    17c8:	691b      	ldr	r3, [r3, #16]
    17ca:	2b00      	cmp	r3, #0
    17cc:	d119      	bne.n	1802 <process_control_transfer_stage+0xc6>
    17ce:	2240      	movs	r2, #64	; 0x40
    17d0:	79fb      	ldrb	r3, [r7, #7]
    17d2:	4293      	cmp	r3, r2
    17d4:	d107      	bne.n	17e6 <process_control_transfer_stage+0xaa>
    17d6:	4811      	ldr	r0, [pc, #68]	; (181c <process_control_transfer_stage+0xe0>)
    17d8:	f000 f93a 	bl	1a50 <log_info>
    17dc:	4b0b      	ldr	r3, [pc, #44]	; (180c <process_control_transfer_stage+0xd0>)
    17de:	681b      	ldr	r3, [r3, #0]
    17e0:	2204      	movs	r2, #4
    17e2:	705a      	strb	r2, [r3, #1]
    17e4:	e00d      	b.n	1802 <process_control_transfer_stage+0xc6>
    17e6:	480e      	ldr	r0, [pc, #56]	; (1820 <process_control_transfer_stage+0xe4>)
    17e8:	f000 f932 	bl	1a50 <log_info>
    17ec:	4b07      	ldr	r3, [pc, #28]	; (180c <process_control_transfer_stage+0xd0>)
    17ee:	681b      	ldr	r3, [r3, #0]
    17f0:	2205      	movs	r2, #5
    17f2:	705a      	strb	r2, [r3, #1]
    17f4:	e005      	b.n	1802 <process_control_transfer_stage+0xc6>
    17f6:	4b05      	ldr	r3, [pc, #20]	; (180c <process_control_transfer_stage+0xd0>)
    17f8:	681b      	ldr	r3, [r3, #0]
    17fa:	2200      	movs	r2, #0
    17fc:	705a      	strb	r2, [r3, #1]
    17fe:	bf00      	nop
    1800:	e000      	b.n	1804 <process_control_transfer_stage+0xc8>
    1802:	bf00      	nop
    1804:	bf00      	nop
    1806:	3708      	adds	r7, #8
    1808:	46bd      	mov	sp, r7
    180a:	bd80      	pop	{r7, pc}
    180c:	2000011c 	andcs	r0, r0, ip, lsl r1
    1810:	00001d8c 	andeq	r1, r0, ip, lsl #27
    1814:	00001ca0 	andeq	r1, r0, r0, lsr #25
    1818:	00001da8 	andeq	r1, r0, r8, lsr #27
    181c:	00001dd4 	ldrdeq	r1, [r0], -r4
    1820:	00001e00 	andeq	r1, r0, r0, lsl #28

00001824 <in_transfer_completed_handler>:
    1824:	b580      	push	{r7, lr}
    1826:	b082      	sub	sp, #8
    1828:	af00      	add	r7, sp, #0
    182a:	6078      	str	r0, [r7, #4]
    182c:	4b11      	ldr	r3, [pc, #68]	; (1874 <in_transfer_completed_handler+0x50>)
    182e:	681b      	ldr	r3, [r3, #0]
    1830:	691b      	ldr	r3, [r3, #16]
    1832:	2b00      	cmp	r3, #0
    1834:	d007      	beq.n	1846 <in_transfer_completed_handler+0x22>
    1836:	4810      	ldr	r0, [pc, #64]	; (1878 <in_transfer_completed_handler+0x54>)
    1838:	f000 f90a 	bl	1a50 <log_info>
    183c:	4b0d      	ldr	r3, [pc, #52]	; (1874 <in_transfer_completed_handler+0x50>)
    183e:	681b      	ldr	r3, [r3, #0]
    1840:	2202      	movs	r2, #2
    1842:	705a      	strb	r2, [r3, #1]
    1844:	e011      	b.n	186a <in_transfer_completed_handler+0x46>
    1846:	4b0b      	ldr	r3, [pc, #44]	; (1874 <in_transfer_completed_handler+0x50>)
    1848:	681b      	ldr	r3, [r3, #0]
    184a:	785b      	ldrb	r3, [r3, #1]
    184c:	2b04      	cmp	r3, #4
    184e:	d10c      	bne.n	186a <in_transfer_completed_handler+0x46>
    1850:	4b0a      	ldr	r3, [pc, #40]	; (187c <in_transfer_completed_handler+0x58>)
    1852:	6a1b      	ldr	r3, [r3, #32]
    1854:	2200      	movs	r2, #0
    1856:	2100      	movs	r1, #0
    1858:	2000      	movs	r0, #0
    185a:	4798      	blx	r3
    185c:	4808      	ldr	r0, [pc, #32]	; (1880 <in_transfer_completed_handler+0x5c>)
    185e:	f000 f8f7 	bl	1a50 <log_info>
    1862:	4b04      	ldr	r3, [pc, #16]	; (1874 <in_transfer_completed_handler+0x50>)
    1864:	681b      	ldr	r3, [r3, #0]
    1866:	2205      	movs	r2, #5
    1868:	705a      	strb	r2, [r3, #1]
    186a:	bf00      	nop
    186c:	3708      	adds	r7, #8
    186e:	46bd      	mov	sp, r7
    1870:	bd80      	pop	{r7, pc}
    1872:	bf00      	nop
    1874:	2000011c 	andcs	r0, r0, ip, lsl r1
    1878:	00001e28 	andeq	r1, r0, r8, lsr #28
    187c:	00001ca0 	andeq	r1, r0, r0, lsr #25
    1880:	00001e00 	andeq	r1, r0, r0, lsl #28

00001884 <setup_data_received_handler>:
    1884:	b580      	push	{r7, lr}
    1886:	b082      	sub	sp, #8
    1888:	af00      	add	r7, sp, #0
    188a:	6078      	str	r0, [r7, #4]
    188c:	460b      	mov	r3, r1
    188e:	807b      	strh	r3, [r7, #2]
    1890:	4b0f      	ldr	r3, [pc, #60]	; (18d0 <setup_data_received_handler+0x4c>)
    1892:	681b      	ldr	r3, [r3, #0]
    1894:	2b00      	cmp	r3, #0
    1896:	d017      	beq.n	18c8 <setup_data_received_handler+0x44>
    1898:	4b0e      	ldr	r3, [pc, #56]	; (18d4 <setup_data_received_handler+0x50>)
    189a:	6a9b      	ldr	r3, [r3, #40]	; 0x28
    189c:	4a0c      	ldr	r2, [pc, #48]	; (18d0 <setup_data_received_handler+0x4c>)
    189e:	6812      	ldr	r2, [r2, #0]
    18a0:	6851      	ldr	r1, [r2, #4]
    18a2:	887a      	ldrh	r2, [r7, #2]
    18a4:	6878      	ldr	r0, [r7, #4]
    18a6:	4798      	blx	r3
    18a8:	4b09      	ldr	r3, [pc, #36]	; (18d0 <setup_data_received_handler+0x4c>)
    18aa:	681b      	ldr	r3, [r3, #0]
    18ac:	685b      	ldr	r3, [r3, #4]
    18ae:	887a      	ldrh	r2, [r7, #2]
    18b0:	4619      	mov	r1, r3
    18b2:	4809      	ldr	r0, [pc, #36]	; (18d8 <setup_data_received_handler+0x54>)
    18b4:	f000 f880 	bl	19b8 <log_debug_array>
    18b8:	f7ff ff28 	bl	170c <process_request>
    18bc:	f7ff ff3e 	bl	173c <process_control_transfer_stage>
    18c0:	2000      	movs	r0, #0
    18c2:	f7ff ffaf 	bl	1824 <in_transfer_completed_handler>
    18c6:	e000      	b.n	18ca <setup_data_received_handler+0x46>
    18c8:	e7fe      	b.n	18c8 <setup_data_received_handler+0x44>
    18ca:	3708      	adds	r7, #8
    18cc:	46bd      	mov	sp, r7
    18ce:	bd80      	pop	{r7, pc}
    18d0:	2000011c 	andcs	r0, r0, ip, lsl r1
    18d4:	00001ca0 	andeq	r1, r0, r0, lsr #25
    18d8:	00001e4c 	andeq	r1, r0, ip, asr #28

000018dc <USBDEndpointHandler>:
    18dc:	b580      	push	{r7, lr}
    18de:	b086      	sub	sp, #24
    18e0:	af00      	add	r7, sp, #0
    18e2:	6078      	str	r0, [r7, #4]
    18e4:	6039      	str	r1, [r7, #0]
    18e6:	2300      	movs	r3, #0
    18e8:	613b      	str	r3, [r7, #16]
    18ea:	2300      	movs	r3, #0
    18ec:	75fb      	strb	r3, [r7, #23]
    18ee:	2300      	movs	r3, #0
    18f0:	81fb      	strh	r3, [r7, #14]
    18f2:	4b20      	ldr	r3, [pc, #128]	; (1974 <USBDEndpointHandler+0x98>)
    18f4:	6a5b      	ldr	r3, [r3, #36]	; 0x24
    18f6:	687a      	ldr	r2, [r7, #4]
    18f8:	f107 0110 	add.w	r1, r7, #16
    18fc:	4610      	mov	r0, r2
    18fe:	4798      	blx	r3
    1900:	4b1c      	ldr	r3, [pc, #112]	; (1974 <USBDEndpointHandler+0x98>)
    1902:	6b1b      	ldr	r3, [r3, #48]	; 0x30
    1904:	f107 020e 	add.w	r2, r7, #14
    1908:	4611      	mov	r1, r2
    190a:	6878      	ldr	r0, [r7, #4]
    190c:	4798      	blx	r3
    190e:	693a      	ldr	r2, [r7, #16]
    1910:	89fb      	ldrh	r3, [r7, #14]
    1912:	6879      	ldr	r1, [r7, #4]
    1914:	4818      	ldr	r0, [pc, #96]	; (1978 <USBDEndpointHandler+0x9c>)
    1916:	f000 f89b 	bl	1a50 <log_info>
    191a:	687b      	ldr	r3, [r7, #4]
    191c:	2b00      	cmp	r3, #0
    191e:	d10a      	bne.n	1936 <USBDEndpointHandler+0x5a>
    1920:	693b      	ldr	r3, [r7, #16]
    1922:	f003 0301 	and.w	r3, r3, #1
    1926:	2b00      	cmp	r3, #0
    1928:	d01f      	beq.n	196a <USBDEndpointHandler+0x8e>
    192a:	4a14      	ldr	r2, [pc, #80]	; (197c <USBDEndpointHandler+0xa0>)
    192c:	89fb      	ldrh	r3, [r7, #14]
    192e:	4619      	mov	r1, r3
    1930:	6878      	ldr	r0, [r7, #4]
    1932:	4790      	blx	r2
    1934:	e019      	b.n	196a <USBDEndpointHandler+0x8e>
    1936:	683b      	ldr	r3, [r7, #0]
    1938:	0a1b      	lsrs	r3, r3, #8
    193a:	b2db      	uxtb	r3, r3
    193c:	2b00      	cmp	r3, #0
    193e:	d005      	beq.n	194c <USBDEndpointHandler+0x70>
    1940:	22bf      	movs	r2, #191	; 0xbf
    1942:	490f      	ldr	r1, [pc, #60]	; (1980 <USBDEndpointHandler+0xa4>)
    1944:	480f      	ldr	r0, [pc, #60]	; (1984 <USBDEndpointHandler+0xa8>)
    1946:	f000 f8a5 	bl	1a94 <log_error>
    194a:	e00f      	b.n	196c <USBDEndpointHandler+0x90>
    194c:	683b      	ldr	r3, [r7, #0]
    194e:	0c1b      	lsrs	r3, r3, #16
    1950:	b2db      	uxtb	r3, r3
    1952:	2b00      	cmp	r3, #0
    1954:	d005      	beq.n	1962 <USBDEndpointHandler+0x86>
    1956:	22c2      	movs	r2, #194	; 0xc2
    1958:	4909      	ldr	r1, [pc, #36]	; (1980 <USBDEndpointHandler+0xa4>)
    195a:	480a      	ldr	r0, [pc, #40]	; (1984 <USBDEndpointHandler+0xa8>)
    195c:	f000 f89a 	bl	1a94 <log_error>
    1960:	e004      	b.n	196c <USBDEndpointHandler+0x90>
    1962:	4809      	ldr	r0, [pc, #36]	; (1988 <USBDEndpointHandler+0xac>)
    1964:	f000 f896 	bl	1a94 <log_error>
    1968:	e000      	b.n	196c <USBDEndpointHandler+0x90>
    196a:	bf00      	nop
    196c:	bf00      	nop
    196e:	3718      	adds	r7, #24
    1970:	46bd      	mov	sp, r7
    1972:	bd80      	pop	{r7, pc}
    1974:	00001ca0 	andeq	r1, r0, r0, lsr #25
    1978:	00001e5c 	andeq	r1, r0, ip, asr lr
    197c:	00001885 	andeq	r1, r0, r5, lsl #17
    1980:	00001eb8 			; <UNDEFINED> instruction: 0x00001eb8
    1984:	00001e98 	muleq	r0, r8, lr
    1988:	00001ea8 	andeq	r1, r0, r8, lsr #29

0000198c <USBInterruptStatus>:
    198c:	b580      	push	{r7, lr}
    198e:	b082      	sub	sp, #8
    1990:	af00      	add	r7, sp, #0
    1992:	2300      	movs	r3, #0
    1994:	607b      	str	r3, [r7, #4]
    1996:	4b07      	ldr	r3, [pc, #28]	; (19b4 <USBInterruptStatus+0x28>)
    1998:	6b9b      	ldr	r3, [r3, #56]	; 0x38
    199a:	1d3a      	adds	r2, r7, #4
    199c:	4610      	mov	r0, r2
    199e:	4798      	blx	r3
    19a0:	4b04      	ldr	r3, [pc, #16]	; (19b4 <USBInterruptStatus+0x28>)
    19a2:	6b5b      	ldr	r3, [r3, #52]	; 0x34
    19a4:	687a      	ldr	r2, [r7, #4]
    19a6:	4610      	mov	r0, r2
    19a8:	4798      	blx	r3
    19aa:	bf00      	nop
    19ac:	3708      	adds	r7, #8
    19ae:	46bd      	mov	sp, r7
    19b0:	bd80      	pop	{r7, pc}
    19b2:	bf00      	nop
    19b4:	00001ca0 	andeq	r1, r0, r0, lsr #25

000019b8 <log_debug_array>:
    19b8:	b580      	push	{r7, lr}
    19ba:	b086      	sub	sp, #24
    19bc:	af00      	add	r7, sp, #0
    19be:	60f8      	str	r0, [r7, #12]
    19c0:	60b9      	str	r1, [r7, #8]
    19c2:	4613      	mov	r3, r2
    19c4:	80fb      	strh	r3, [r7, #6]
    19c6:	2300      	movs	r3, #0
    19c8:	617b      	str	r3, [r7, #20]
    19ca:	68f8      	ldr	r0, [r7, #12]
    19cc:	f7fe ff98 	bl	900 <UARTprintf>
    19d0:	2300      	movs	r3, #0
    19d2:	617b      	str	r3, [r7, #20]
    19d4:	e00a      	b.n	19ec <log_debug_array+0x34>
    19d6:	68ba      	ldr	r2, [r7, #8]
    19d8:	697b      	ldr	r3, [r7, #20]
    19da:	4413      	add	r3, r2
    19dc:	781b      	ldrb	r3, [r3, #0]
    19de:	4619      	mov	r1, r3
    19e0:	4808      	ldr	r0, [pc, #32]	; (1a04 <log_debug_array+0x4c>)
    19e2:	f7fe ff8d 	bl	900 <UARTprintf>
    19e6:	697b      	ldr	r3, [r7, #20]
    19e8:	3301      	adds	r3, #1
    19ea:	617b      	str	r3, [r7, #20]
    19ec:	88fb      	ldrh	r3, [r7, #6]
    19ee:	697a      	ldr	r2, [r7, #20]
    19f0:	429a      	cmp	r2, r3
    19f2:	d3f0      	bcc.n	19d6 <log_debug_array+0x1e>
    19f4:	4804      	ldr	r0, [pc, #16]	; (1a08 <log_debug_array+0x50>)
    19f6:	f7fe ff83 	bl	900 <UARTprintf>
    19fa:	bf00      	nop
    19fc:	3718      	adds	r7, #24
    19fe:	46bd      	mov	sp, r7
    1a00:	bd80      	pop	{r7, pc}
    1a02:	bf00      	nop
    1a04:	00001ecc 	andeq	r1, r0, ip, asr #29
    1a08:	00001ed4 	ldrdeq	r1, [r0], -r4

00001a0c <_get_log_level_string>:
    1a0c:	b480      	push	{r7}
    1a0e:	b083      	sub	sp, #12
    1a10:	af00      	add	r7, sp, #0
    1a12:	4603      	mov	r3, r0
    1a14:	71fb      	strb	r3, [r7, #7]
    1a16:	79fb      	ldrb	r3, [r7, #7]
    1a18:	2b02      	cmp	r3, #2
    1a1a:	d00a      	beq.n	1a32 <_get_log_level_string+0x26>
    1a1c:	2b02      	cmp	r3, #2
    1a1e:	dc0a      	bgt.n	1a36 <_get_log_level_string+0x2a>
    1a20:	2b00      	cmp	r3, #0
    1a22:	d002      	beq.n	1a2a <_get_log_level_string+0x1e>
    1a24:	2b01      	cmp	r3, #1
    1a26:	d002      	beq.n	1a2e <_get_log_level_string+0x22>
    1a28:	e005      	b.n	1a36 <_get_log_level_string+0x2a>
    1a2a:	4b06      	ldr	r3, [pc, #24]	; (1a44 <_get_log_level_string+0x38>)
    1a2c:	e003      	b.n	1a36 <_get_log_level_string+0x2a>
    1a2e:	4b06      	ldr	r3, [pc, #24]	; (1a48 <_get_log_level_string+0x3c>)
    1a30:	e001      	b.n	1a36 <_get_log_level_string+0x2a>
    1a32:	4b06      	ldr	r3, [pc, #24]	; (1a4c <_get_log_level_string+0x40>)
    1a34:	e7ff      	b.n	1a36 <_get_log_level_string+0x2a>
    1a36:	4618      	mov	r0, r3
    1a38:	370c      	adds	r7, #12
    1a3a:	46bd      	mov	sp, r7
    1a3c:	f85d 7b04 	ldr.w	r7, [sp], #4
    1a40:	4770      	bx	lr
    1a42:	bf00      	nop
    1a44:	00001ed8 	ldrdeq	r1, [r0], -r8
    1a48:	00001ee0 	andeq	r1, r0, r0, ror #29
    1a4c:	00001ee8 	andeq	r1, r0, r8, ror #29

00001a50 <log_info>:
    1a50:	b40f      	push	{r0, r1, r2, r3}
    1a52:	b580      	push	{r7, lr}
    1a54:	b082      	sub	sp, #8
    1a56:	af00      	add	r7, sp, #0
    1a58:	f107 0314 	add.w	r3, r7, #20
    1a5c:	607b      	str	r3, [r7, #4]
    1a5e:	2001      	movs	r0, #1
    1a60:	f7ff ffd4 	bl	1a0c <_get_log_level_string>
    1a64:	4603      	mov	r3, r0
    1a66:	4619      	mov	r1, r3
    1a68:	4808      	ldr	r0, [pc, #32]	; (1a8c <log_info+0x3c>)
    1a6a:	f7fe ff49 	bl	900 <UARTprintf>
    1a6e:	6879      	ldr	r1, [r7, #4]
    1a70:	6938      	ldr	r0, [r7, #16]
    1a72:	f7fe fd41 	bl	4f8 <UARTvprintf>
    1a76:	4806      	ldr	r0, [pc, #24]	; (1a90 <log_info+0x40>)
    1a78:	f7fe ff42 	bl	900 <UARTprintf>
    1a7c:	bf00      	nop
    1a7e:	3708      	adds	r7, #8
    1a80:	46bd      	mov	sp, r7
    1a82:	e8bd 4080 	ldmia.w	sp!, {r7, lr}
    1a86:	b004      	add	sp, #16
    1a88:	4770      	bx	lr
    1a8a:	bf00      	nop
    1a8c:	00001ef0 	strdeq	r1, [r0], -r0
    1a90:	00001ed4 	ldrdeq	r1, [r0], -r4

00001a94 <log_error>:
    1a94:	b40f      	push	{r0, r1, r2, r3}
    1a96:	b580      	push	{r7, lr}
    1a98:	b082      	sub	sp, #8
    1a9a:	af00      	add	r7, sp, #0
    1a9c:	f107 0314 	add.w	r3, r7, #20
    1aa0:	607b      	str	r3, [r7, #4]
    1aa2:	2000      	movs	r0, #0
    1aa4:	f7ff ffb2 	bl	1a0c <_get_log_level_string>
    1aa8:	4603      	mov	r3, r0
    1aaa:	4619      	mov	r1, r3
    1aac:	4808      	ldr	r0, [pc, #32]	; (1ad0 <log_error+0x3c>)
    1aae:	f7fe ff27 	bl	900 <UARTprintf>
    1ab2:	6879      	ldr	r1, [r7, #4]
    1ab4:	6938      	ldr	r0, [r7, #16]
    1ab6:	f7fe fd1f 	bl	4f8 <UARTvprintf>
    1aba:	4806      	ldr	r0, [pc, #24]	; (1ad4 <log_error+0x40>)
    1abc:	f7fe ff20 	bl	900 <UARTprintf>
    1ac0:	bf00      	nop
    1ac2:	3708      	adds	r7, #8
    1ac4:	46bd      	mov	sp, r7
    1ac6:	e8bd 4080 	ldmia.w	sp!, {r7, lr}
    1aca:	b004      	add	sp, #16
    1acc:	4770      	bx	lr
    1ace:	bf00      	nop
    1ad0:	00001ef0 	strdeq	r1, [r0], -r0
    1ad4:	00001ed4 	ldrdeq	r1, [r0], -r4

00001ad8 <__error__>:
    1ad8:	b580      	push	{r7, lr}
    1ada:	b082      	sub	sp, #8
    1adc:	af00      	add	r7, sp, #0
    1ade:	6078      	str	r0, [r7, #4]
    1ae0:	6039      	str	r1, [r7, #0]
    1ae2:	683a      	ldr	r2, [r7, #0]
    1ae4:	6879      	ldr	r1, [r7, #4]
    1ae6:	4803      	ldr	r0, [pc, #12]	; (1af4 <__error__+0x1c>)
    1ae8:	f7fe ff0a 	bl	900 <UARTprintf>
    1aec:	bf00      	nop
    1aee:	3708      	adds	r7, #8
    1af0:	46bd      	mov	sp, r7
    1af2:	bd80      	pop	{r7, pc}
    1af4:	00001ef8 	strdeq	r1, [r0], -r8
    1af8:	74736554 	ldrbtvc	r6, [r3], #-1364	; 0xfffffaac
    1afc:	000a3220 	andeq	r3, sl, r0, lsr #4
    1b00:	626d754e 	rsbvs	r7, sp, #327155712	; 0x13800000
    1b04:	6f207265 	svcvs	0x00207265
    1b08:	6e692066 	cdpvs	0, 6, cr2, cr9, cr6, {3}
    1b0c:	72726574 	rsbsvc	r6, r2, #116, 10	; 0x1d000000
    1b10:	73747075 	cmnvc	r4, #117	; 0x75
    1b14:	6425203a 	strtvs	r2, [r5], #-58	; 0xffffffc6
    1b18:	0000000d 	andeq	r0, r0, sp
    1b1c:	4349564e 	movtmi	r5, #38478	; 0x964e
    1b20:	5541465f 	strbpl	r4, [r1, #-1631]	; 0xfffff9a1
    1b24:	535f544c 	cmppl	pc, #76, 8	; 0x4c000000
    1b28:	3d544154 	ldfcce	f4, [r4, #-336]	; 0xfffffeb0
    1b2c:	202c7825 	eorcs	r7, ip, r5, lsr #16
    1b30:	4c554146 	ldfmie	f4, [r5], {70}	; 0x46
    1b34:	44444154 	strbmi	r4, [r4], #-340	; 0xfffffeac
    1b38:	78253d52 	stmdavc	r5!, {r1, r4, r6, r8, sl, fp, ip, sp}
    1b3c:	0000000a 	andeq	r0, r0, sl
    1b40:	33323130 	teqcc	r2, #48, 2
    1b44:	37363534 			; <UNDEFINED> instruction: 0x37363534
    1b48:	62613938 	rsbvs	r3, r1, #56, 18	; 0xe0000
    1b4c:	66656463 	strbtvs	r6, [r5], -r3, ror #8
    1b50:	00000000 	andeq	r0, r0, r0
    1b54:	2e2f2e2e 	cdpcs	14, 2, cr2, cr15, cr14, {1}
    1b58:	69542f2e 	ldmdbvs	r4, {r1, r2, r3, r5, r8, r9, sl, fp, sp}^
    1b5c:	61576176 	cmpvs	r7, r6, ror r1
    1b60:	752f6572 	strvc	r6, [pc, #-1394]!	; 15f6 <USBDIntHandler+0x6a>
    1b64:	736c6974 	cmnvc	ip, #116, 18	; 0x1d0000
    1b68:	7261752f 	rsbvc	r7, r1, #197132288	; 0xbc00000
    1b6c:	64747374 	ldrbtvs	r7, [r4], #-884	; 0xfffffc8c
    1b70:	632e6f69 			; <UNDEFINED> instruction: 0x632e6f69
    1b74:	00000000 	andeq	r0, r0, r0
    1b78:	00082008 	andeq	r2, r8, r8
    1b7c:	00000a0d 	andeq	r0, r0, sp, lsl #20
    1b80:	00000020 	andeq	r0, r0, r0, lsr #32
    1b84:	4f525245 	svcmi	0x00525245
    1b88:	00000052 	andeq	r0, r0, r2, asr r0

00001b8c <g_ui32UARTBase>:
    1b8c:	4000c000 	andmi	ip, r0, r0
    1b90:	4000d000 	andmi	sp, r0, r0
    1b94:	4000e000 	andmi	lr, r0, r0

00001b98 <g_ui32UARTPeriph>:
    1b98:	f0001800 			; <UNDEFINED> instruction: 0xf0001800
    1b9c:	f0001801 			; <UNDEFINED> instruction: 0xf0001801
    1ba0:	f0001802 			; <UNDEFINED> instruction: 0xf0001802

00001ba4 <g_pui32GPIOBaseAddrs>:
    1ba4:	40004000 	andmi	r4, r0, r0
    1ba8:	40058000 	andmi	r8, r5, r0
    1bac:	40005000 	andmi	r5, r0, r0
    1bb0:	40059000 	andmi	r9, r5, r0
    1bb4:	40006000 	andmi	r6, r0, r0
    1bb8:	4005a000 	andmi	sl, r5, r0
    1bbc:	40007000 	andmi	r7, r0, r0
    1bc0:	4005b000 	andmi	fp, r5, r0
    1bc4:	40024000 	andmi	r4, r2, r0
    1bc8:	4005c000 	andmi	ip, r5, r0
    1bcc:	40025000 	andmi	r5, r2, r0
    1bd0:	4005d000 	andmi	sp, r5, r0
    1bd4:	40026000 	andmi	r6, r2, r0
    1bd8:	4005e000 	andmi	lr, r5, r0
    1bdc:	40027000 	andmi	r7, r2, r0
    1be0:	4005f000 	andmi	pc, r5, r0
    1be4:	4003d000 	andmi	sp, r3, r0
    1be8:	40060000 	andmi	r0, r6, r0
    1bec:	40061000 	andmi	r1, r6, r0
    1bf0:	40061000 	andmi	r1, r6, r0
    1bf4:	40062000 	andmi	r2, r6, r0
    1bf8:	40062000 	andmi	r2, r6, r0
    1bfc:	40063000 	andmi	r3, r6, r0
    1c00:	40063000 	andmi	r3, r6, r0
    1c04:	40064000 	andmi	r4, r6, r0
    1c08:	40064000 	andmi	r4, r6, r0
    1c0c:	40065000 	andmi	r5, r6, r0
    1c10:	40065000 	andmi	r5, r6, r0
    1c14:	40066000 	andmi	r6, r6, r0
    1c18:	40066000 	andmi	r6, r6, r0
    1c1c:	40067000 	andmi	r7, r6, r0
    1c20:	40067000 	andmi	r7, r6, r0
    1c24:	40068000 	andmi	r8, r6, r0
    1c28:	40068000 	andmi	r8, r6, r0
    1c2c:	40069000 	andmi	r9, r6, r0
    1c30:	40069000 	andmi	r9, r6, r0

00001c34 <g_pui32Xtals>:
    1c34:	000f4240 	andeq	r4, pc, r0, asr #4
    1c38:	001c2000 	andseq	r2, ip, r0
    1c3c:	001e8480 	andseq	r8, lr, r0, lsl #9
    1c40:	00258000 	eoreq	r8, r5, r0
    1c44:	00369e99 	mlaseq	r6, r9, lr, r9
    1c48:	00384000 	eorseq	r4, r8, r0
    1c4c:	003d0900 	eorseq	r0, sp, r0, lsl #18
    1c50:	003e8000 	eorseq	r8, lr, r0
    1c54:	004b0000 	subeq	r0, fp, r0
    1c58:	004c4b40 	subeq	r4, ip, r0, asr #22
    1c5c:	004e2000 	subeq	r2, lr, r0
    1c60:	005b8d80 	subseq	r8, fp, r0, lsl #27
    1c64:	005dc000 	subseq	ip, sp, r0
    1c68:	00708000 	rsbseq	r8, r0, r0
    1c6c:	007a1200 	rsbseq	r1, sl, r0, lsl #4
    1c70:	007d0000 	rsbseq	r0, sp, r0
    1c74:	00989680 	addseq	r9, r8, r0, lsl #13
    1c78:	00b71b00 	adcseq	r1, r7, r0, lsl #22
    1c7c:	00bb8000 	adcseq	r8, fp, r0
    1c80:	00cee8c0 	sbceq	lr, lr, r0, asr #17
    1c84:	00da7a64 	sbcseq	r7, sl, r4, ror #20
    1c88:	00f42400 	rscseq	r2, r4, r0, lsl #8
    1c8c:	00fa0000 	rscseq	r0, sl, r0
    1c90:	0112a880 	tsteq	r2, r0, lsl #17
    1c94:	01312d00 	teqeq	r1, r0, lsl #26
    1c98:	016e3600 	cmneq	lr, r0, lsl #12
    1c9c:	017d7840 	cmneq	sp, r0, asr #16

00001ca0 <usb_driver>:
    1ca0:	00001579 	andeq	r1, r0, r9, ror r5
    1ca4:	00000e4d 	andeq	r0, r0, sp, asr #28
    1ca8:	00000ef9 	strdeq	r0, [r0], -r9
    1cac:	00000f19 	andeq	r0, r0, r9, lsl pc
    1cb0:	0000103d 	andeq	r1, r0, sp, lsr r0
    1cb4:	00001075 	andeq	r1, r0, r5, ror r0
    1cb8:	000010c9 	andeq	r1, r0, r9, asr #1
    1cbc:	00001129 	andeq	r1, r0, r9, lsr #2
    1cc0:	00001405 	andeq	r1, r0, r5, lsl #8
    1cc4:	000014ed 	andeq	r1, r0, sp, ror #9
    1cc8:	000013a9 	andeq	r1, r0, r9, lsr #7
    1ccc:	00000f39 	andeq	r0, r0, r9, lsr pc
    1cd0:	000014ad 	andeq	r1, r0, sp, lsr #9
    1cd4:	0000158d 	andeq	r1, r0, sp, lsl #11
    1cd8:	00001461 	andeq	r1, r0, r1, ror #8

00001cdc <device_descriptor>:
    1cdc:	02000112 	andeq	r0, r0, #-2147483644	; 0x80000004
    1ce0:	40000000 	andmi	r0, r0, r0
    1ce4:	13aa6666 			; <UNDEFINED> instruction: 0x13aa6666
    1ce8:	00000100 	andeq	r0, r0, r0, lsl #2
    1cec:	00000100 	andeq	r0, r0, r0, lsl #2

00001cf0 <usb_events>:
    1cf0:	00001649 	andeq	r1, r0, r9, asr #12
    1cf4:	00001885 	andeq	r1, r0, r5, lsl #17
    1cf8:	00000000 	andeq	r0, r0, r0
    1cfc:	00001825 	andeq	r1, r0, r5, lsr #16
	...
    1d08:	000018dd 	ldrdeq	r1, [r0], -sp
    1d0c:	6e617453 	mcrvs	4, 3, r7, cr1, cr3, {2}
    1d10:	64726164 	ldrbtvs	r6, [r2], #-356	; 0xfffffe9c
    1d14:	74654720 	strbtvc	r4, [r5], #-1824	; 0xfffff8e0
    1d18:	73654420 	cmnvc	r5, #32, 8	; 0x20000000
    1d1c:	70697263 	rsbvc	r7, r9, r3, ror #4
    1d20:	20726f74 	rsbscs	r6, r2, r4, ror pc
    1d24:	75716572 	ldrbvc	r6, [r1, #-1394]!	; 0xfffffa8e
    1d28:	20747365 	rsbscs	r7, r4, r5, ror #6
    1d2c:	65636572 	strbvs	r6, [r3, #-1394]!	; 0xfffffa8e
    1d30:	64657669 	strbtvs	r7, [r5], #-1641	; 0xfffff997
    1d34:	0000002e 	andeq	r0, r0, lr, lsr #32
    1d38:	6547202d 	strbvs	r2, [r7, #-45]	; 0xffffffd3
    1d3c:	65442074 	strbvs	r2, [r4, #-116]	; 0xffffff8c
    1d40:	65636976 	strbvs	r6, [r3, #-2422]!	; 0xfffff68a
    1d44:	73654420 	cmnvc	r5, #32, 8	; 0x20000000
    1d48:	70697263 	rsbvc	r7, r9, r3, ror #4
    1d4c:	2e726f74 	mrccs	15, 3, r6, cr2, cr4, {3}
    1d50:	00000000 	andeq	r0, r0, r0
    1d54:	74697753 	strbtvc	r7, [r9], #-1875	; 0xfffff8ad
    1d58:	63206863 			; <UNDEFINED> instruction: 0x63206863
    1d5c:	72746e6f 	rsbsvc	r6, r4, #1776	; 0x6f0
    1d60:	73206c6f 			; <UNDEFINED> instruction: 0x73206c6f
    1d64:	65676174 	strbvs	r6, [r7, #-372]!	; 0xfffffe8c
    1d68:	206f7420 	rsbcs	r7, pc, r0, lsr #8
    1d6c:	2d4e4920 	vstrcs.16	s9, [lr, #-64]	; 0xffffffc0	; <UNPREDICTABLE>
    1d70:	41544144 	cmpmi	r4, r4, asr #2
    1d74:	0000002e 	andeq	r0, r0, lr, lsr #32
    1d78:	6568744f 	strbvs	r7, [r8, #-1103]!	; 0xfffffbb1
    1d7c:	65722072 	ldrbvs	r2, [r2, #-114]!	; 0xffffff8e
    1d80:	73657571 	cmnvc	r5, #473956352	; 0x1c400000
    1d84:	54203a74 	strtpl	r3, [r0], #-2676	; 0xfffff58c
    1d88:	004f444f 	subeq	r4, pc, pc, asr #8
    1d8c:	636f7250 	cmnvs	pc, #80, 4
    1d90:	69737365 	ldmdbvs	r3!, {r0, r2, r5, r6, r8, r9, ip, sp, lr}^
    1d94:	4920676e 	stmdbmi	r0!, {r1, r2, r3, r5, r6, r8, r9, sl, sp, lr}
    1d98:	41442d4e 	cmpmi	r4, lr, asr #26
    1d9c:	73204154 			; <UNDEFINED> instruction: 0x73204154
    1da0:	65676174 	strbvs	r6, [r7, #-372]!	; 0xfffffe8c
    1da4:	0000002e 	andeq	r0, r0, lr, lsr #32
    1da8:	74697753 	strbtvc	r7, [r9], #-1875	; 0xfffff8ad
    1dac:	6e696863 	cdpvs	8, 6, cr6, cr9, cr3, {3}
    1db0:	6f632067 	svcvs	0x00632067
    1db4:	6f72746e 	svcvs	0x0072746e
    1db8:	7473206c 	ldrbtvc	r2, [r3], #-108	; 0xffffff94
    1dbc:	20656761 	rsbcs	r6, r5, r1, ror #14
    1dc0:	49206f74 	stmdbmi	r0!, {r2, r4, r5, r6, r8, r9, sl, fp, sp, lr}
    1dc4:	41442d4e 	cmpmi	r4, lr, asr #26
    1dc8:	49204154 	stmdbmi	r0!, {r2, r4, r6, r8, lr}
    1dcc:	2e454c44 	cdpcs	12, 4, cr4, cr5, cr4, {2}
    1dd0:	00000000 	andeq	r0, r0, r0
    1dd4:	74697753 	strbtvc	r7, [r9], #-1875	; 0xfffff8ad
    1dd8:	6e696863 	cdpvs	8, 6, cr6, cr9, cr3, {3}
    1ddc:	6f632067 	svcvs	0x00632067
    1de0:	6f72746e 	svcvs	0x0072746e
    1de4:	7473206c 	ldrbtvc	r2, [r3], #-108	; 0xffffff94
    1de8:	20656761 	rsbcs	r6, r5, r1, ror #14
    1dec:	49206f74 	stmdbmi	r0!, {r2, r4, r5, r6, r8, r9, sl, fp, sp, lr}
    1df0:	41442d4e 	cmpmi	r4, lr, asr #26
    1df4:	5a204154 	bpl	81234c <_etext+0x8103fd>
    1df8:	2e4f5245 	cdpcs	2, 4, cr5, cr15, cr5, {2}
    1dfc:	00000000 	andeq	r0, r0, r0
    1e00:	74697753 	strbtvc	r7, [r9], #-1875	; 0xfffff8ad
    1e04:	6e696863 	cdpvs	8, 6, cr6, cr9, cr3, {3}
    1e08:	6f632067 	svcvs	0x00632067
    1e0c:	6f72746e 	svcvs	0x0072746e
    1e10:	7473206c 	ldrbtvc	r2, [r3], #-108	; 0xffffff94
    1e14:	20656761 	rsbcs	r6, r5, r1, ror #14
    1e18:	4f206f74 	svcmi	0x00206f74
    1e1c:	532d5455 			; <UNDEFINED> instruction: 0x532d5455
    1e20:	55544154 	ldrbpl	r4, [r4, #-340]	; 0xfffffeac
    1e24:	00002e53 	andeq	r2, r0, r3, asr lr
    1e28:	74697753 	strbtvc	r7, [r9], #-1875	; 0xfffff8ad
    1e2c:	6e696863 	cdpvs	8, 6, cr6, cr9, cr3, {3}
    1e30:	6f632067 	svcvs	0x00632067
    1e34:	6f72746e 	svcvs	0x0072746e
    1e38:	7473206c 	ldrbtvc	r2, [r3], #-108	; 0xffffff94
    1e3c:	20656761 	rsbcs	r6, r5, r1, ror #14
    1e40:	49206f74 	stmdbmi	r0!, {r2, r4, r5, r6, r8, r9, sl, fp, sp, lr}
    1e44:	41442d4e 	cmpmi	r4, lr, asr #26
    1e48:	002e4154 	eoreq	r4, lr, r4, asr r1
    1e4c:	55544553 	ldrbpl	r4, [r4, #-1363]	; 0xfffffaad
    1e50:	61642050 	qdsubvs	r2, r0, r4
    1e54:	203a6174 	eorscs	r6, sl, r4, ror r1
    1e58:	00000000 	andeq	r0, r0, r0
    1e5c:	70646e45 	rsbvc	r6, r4, r5, asr #28
    1e60:	746e696f 	strbtvc	r6, [lr], #-2415	; 0xfffff691
    1e64:	6e6f6320 	cdpvs	3, 6, cr6, cr15, cr0, {1}
    1e68:	6c6f7274 	sfmvs	f7, 2, [pc], #-464	; 1ca0 <usb_driver>
    1e6c:	61747320 	cmnvs	r4, r0, lsr #6
    1e70:	20737574 	rsbscs	r7, r3, r4, ror r5
    1e74:	4520666f 	strmi	r6, [r0, #-1647]!	; 0xfffff991
    1e78:	20642550 	rsbcs	r2, r4, r0, asr r5
    1e7c:	30207369 	eorcc	r7, r0, r9, ror #6
    1e80:	20782578 	rsbscs	r2, r8, r8, ror r5
    1e84:	20646e61 	rsbcs	r6, r4, r1, ror #28
    1e88:	6b636170 	blvs	18da450 <_etext+0x18d8501>
    1e8c:	73207465 			; <UNDEFINED> instruction: 0x73207465
    1e90:	3d657a69 	vstmdbcc	r5!, {s15-s119}
    1e94:	002e6425 	eoreq	r6, lr, r5, lsr #8
    1e98:	5d73255b 	cfldr64pl	mvdx2, [r3, #-364]!	; 0xfffffe94
    1e9c:	5d64255b 	cfstr64pl	mvdx2, [r4, #-364]!	; 0xfffffe94
    1ea0:	444f5420 	strbmi	r5, [pc], #-1056	; 1ea8 <usb_events+0x1b8>
    1ea4:	0000004f 	andeq	r0, r0, pc, asr #32
    1ea8:	736c6146 	cmnvc	ip, #-2147483631	; 0x80000011
    1eac:	61632065 	cmnvs	r3, r5, rrx
    1eb0:	21216573 			; <UNDEFINED> instruction: 0x21216573
    1eb4:	00212121 	eoreq	r2, r1, r1, lsr #2

00001eb8 <__FUNCTION__.0>:
    1eb8:	44425355 	strbmi	r5, [r2], #-853	; 0xfffffcab
    1ebc:	70646e45 	rsbvc	r6, r4, r5, asr #28
    1ec0:	746e696f 	strbtvc	r6, [lr], #-2415	; 0xfffff691
    1ec4:	646e6148 	strbtvs	r6, [lr], #-328	; 0xfffffeb8
    1ec8:	0072656c 	rsbseq	r6, r2, ip, ror #10
    1ecc:	78323025 	ldmdavc	r2!, {r0, r2, r5, ip, sp}
    1ed0:	00000020 	andeq	r0, r0, r0, lsr #32
    1ed4:	0000000a 	andeq	r0, r0, sl
    1ed8:	4f525245 	svcmi	0x00525245
    1edc:	00000052 	andeq	r0, r0, r2, asr r0
    1ee0:	4f464e49 	svcmi	0x00464e49
    1ee4:	00000000 	andeq	r0, r0, r0
    1ee8:	55424544 	strbpl	r4, [r2, #-1348]	; 0xfffffabc
    1eec:	00000047 	andeq	r0, r0, r7, asr #32
    1ef0:	5d73255b 	cfldr64pl	mvdx2, [r3, #-364]!	; 0xfffffe94
    1ef4:	00000020 	andeq	r0, r0, r0, lsr #32
    1ef8:	4245445b 	submi	r4, r5, #1526726656	; 0x5b000000
    1efc:	205d4755 	subscs	r4, sp, r5, asr r7
    1f00:	253a7325 	ldrcs	r7, [sl, #-805]!	; 0xfffffcdb
    1f04:	000a0d64 	andeq	r0, sl, r4, ror #26
    1f08:	0030564c 	eorseq	r5, r0, ip, asr #12
    1f0c:	0031564c 	eorseq	r5, r1, ip, asr #12
    1f10:	0032564c 	eorseq	r5, r2, ip, asr #12
    1f14:	00474f4c 	subeq	r4, r7, ip, asr #30
    1f18:	004e5257 	subeq	r5, lr, r7, asr r2
    1f1c:	00525245 	subseq	r5, r2, r5, asr #4
    1f20:	4f525245 	svcmi	0x00525245
    1f24:	454c2052 	strbmi	r2, [ip, #-82]	; 0xffffffae
    1f28:	004c4556 	subeq	r4, ip, r6, asr r5
    1f2c:	5d73255b 	cfldr64pl	mvdx2, [r3, #-364]!	; 0xfffffe94
    1f30:	00000000 	andeq	r0, r0, r0
    1f34:	33335b1b 	teqcc	r3, #27648	; 0x6c00
    1f38:	0000006d 	andeq	r0, r0, sp, rrx
    1f3c:	31335b1b 	teqcc	r3, fp, lsl fp
    1f40:	0000006d 	andeq	r0, r0, sp, rrx
    1f44:	6d305b1b 	fldmdbxvs	r0!, {d5-d17}	;@ Deprecated
    1f48:	00000000 	andeq	r0, r0, r0
    1f4c:	Address 0x00001f4c is out of bounds.


Disassembly of section .bss:

20000000 <g_ui32Counter>:
20000000:	00000000 	andeq	r0, r0, r0

20000004 <usbdevice>:
	...

20000018 <pulStack>:
	...

20000118 <g_ui32Base>:
20000118:	00000000 	andeq	r0, r0, r0

2000011c <usbd_handle>:
2000011c:	00000000 	andeq	r0, r0, r0

Disassembly of section .debug_info:

00000000 <.debug_info>:
       0:	00000244 	andeq	r0, r0, r4, asr #4
       4:	00000004 	andeq	r0, r0, r4
       8:	01040000 	mrseq	r0, (UNDEF: 4)
       c:	0000021e 	andeq	r0, r0, lr, lsl r2
      10:	0002de0c 	andeq	sp, r2, ip, lsl #28
      14:	00000a00 	andeq	r0, r0, r0, lsl #20
	...
      24:	06010200 	streq	r0, [r1], -r0, lsl #4
      28:	00000185 	andeq	r0, r0, r5, lsl #3
      2c:	83080102 	movwhi	r0, #33026	; 0x8102
      30:	02000001 	andeq	r0, r0, #1
      34:	00840502 	addeq	r0, r4, r2, lsl #10
      38:	02020000 	andeq	r0, r2, #0
      3c:	0001fd07 	andeq	pc, r1, r7, lsl #26
      40:	05040200 	streq	r0, [r4, #-512]	; 0xfffffe00
      44:	00000125 	andeq	r0, r0, r5, lsr #2
      48:	0000ae03 	andeq	sl, r0, r3, lsl #28
      4c:	194f0200 	stmdbne	pc, {r9}^	; <UNPREDICTABLE>
      50:	00000054 	andeq	r0, r0, r4, asr r0
      54:	b2070402 	andlt	r0, r7, #33554432	; 0x2000000
      58:	02000001 	andeq	r0, r0, #1
      5c:	01200508 			; <UNDEFINED> instruction: 0x01200508
      60:	08020000 	stmdaeq	r2, {}	; <UNPREDICTABLE>
      64:	0001ad07 	andeq	sl, r1, r7, lsl #26
      68:	05040400 	streq	r0, [r4, #-1024]	; 0xfffffc00
      6c:	00746e69 	rsbseq	r6, r4, r9, ror #28
      70:	b7070402 	strlt	r0, [r7, -r2, lsl #8]
      74:	03000001 	movweq	r0, #1
      78:	000000b0 	strheq	r0, [r0], -r0	; <UNPREDICTABLE>
      7c:	48143003 	ldmdami	r4, {r0, r1, ip, sp}
      80:	05000000 	streq	r0, [r0, #-0]
      84:	00000077 	andeq	r0, r0, r7, ror r0
      88:	2c010706 	stccs	7, cr0, [r1], {6}
      8c:	04000000 	streq	r0, [r0], #-0
      90:	00af0e77 	adceq	r0, pc, r7, ror lr	; <UNPREDICTABLE>
      94:	2d070000 	stccs	0, cr0, [r7, #-0]
      98:	00000000 	andeq	r0, r0, r0
      9c:	0001d107 	andeq	sp, r1, r7, lsl #2
      a0:	67070100 	strvs	r0, [r7, -r0, lsl #2]
      a4:	02000001 	andeq	r0, r0, #1
      a8:	00008e07 	andeq	r8, r0, r7, lsl #28
      ac:	03000300 	movweq	r0, #768	; 0x300
      b0:	000000e2 	andeq	r0, r0, r2, ror #1
      b4:	88037c04 	stmdahi	r3, {r2, sl, fp, ip, sp, lr}
      b8:	06000000 	streq	r0, [r0], -r0
      bc:	002c0107 	eoreq	r0, ip, r7, lsl #2
      c0:	7e040000 	cdpvc	0, 0, cr0, cr4, cr0, {0}
      c4:	0000f40e 	andeq	pc, r0, lr, lsl #8
      c8:	032e0700 			; <UNDEFINED> instruction: 0x032e0700
      cc:	07000000 	streq	r0, [r0, -r0]
      d0:	000000c7 	andeq	r0, r0, r7, asr #1
      d4:	013c0701 	teqeq	ip, r1, lsl #14
      d8:	07020000 	streq	r0, [r2, -r0]
      dc:	00000055 	andeq	r0, r0, r5, asr r0
      e0:	035e0703 	cmpeq	lr, #786432	; 0xc0000
      e4:	07040000 	streq	r0, [r4, -r0]
      e8:	00000303 	andeq	r0, r0, r3, lsl #6
      ec:	01910705 	orrseq	r0, r1, r5, lsl #14
      f0:	00060000 	andeq	r0, r6, r0
      f4:	00034603 	andeq	r4, r3, r3, lsl #12
      f8:	03860400 	orreq	r0, r6, #0, 8
      fc:	000000bb 	strheq	r0, [r0], -fp
     100:	c2020102 	andgt	r0, r2, #-2147483648	; 0x80000000
     104:	08000002 	stmdaeq	r0, {r1}
     108:	00010d04 	andeq	r0, r1, r4, lsl #26
     10c:	140a0900 	strne	r0, [sl], #-2304	; 0xfffff700
     110:	73090a05 	movwvc	r0, #39429	; 0x9a05
     114:	0b000001 	bleq	120 <g_pfnVectors+0x120>
     118:	00000105 	andeq	r0, r0, r5, lsl #2
     11c:	af140b05 	svcge	0x00140b05
     120:	00000000 	andeq	r0, r0, r0
     124:	000b4d0b 	andeq	r4, fp, fp, lsl #26
     128:	1d0c0500 	cfstr32ne	mvfx0, [ip, #-0]
     12c:	000000f4 	strdeq	r0, [r0], -r4
     130:	00f10b01 	rscseq	r0, r1, r1, lsl #22
     134:	0d050000 	stceq	0, cr0, [r5, #-0]
     138:	00002c13 	andeq	r2, r0, r3, lsl ip
     13c:	460b0200 	strmi	r0, [fp], -r0, lsl #4
     140:	05000000 	streq	r0, [r0, #-0]
     144:	0107110e 	tsteq	r7, lr, lsl #2
     148:	0b040000 	bleq	100150 <_etext+0xfe201>
     14c:	0000012e 	andeq	r0, r0, lr, lsr #2
     150:	70120f05 	andsvc	r0, r2, r5, lsl #30
     154:	08000000 	stmdaeq	r0, {}	; <UNPREDICTABLE>
     158:	0002100b 	andeq	r1, r2, fp
     15c:	11100500 	tstne	r0, r0, lsl #10
     160:	00000107 	andeq	r0, r0, r7, lsl #2
     164:	01c40b0c 	biceq	r0, r4, ip, lsl #22
     168:	11050000 	mrsne	r0, (UNDEF: 5)
     16c:	00007012 	andeq	r7, r0, r2, lsl r0
     170:	03001000 	movweq	r1, #0
     174:	000002d4 	ldrdeq	r0, [r0], -r4
     178:	0e031205 	cdpeq	2, 0, cr1, cr3, cr5, {0}
     17c:	0c000001 	stceq	0, cr0, [r0], {1}
     180:	00000320 	andeq	r0, r0, r0, lsr #6
     184:	83132101 	tsthi	r3, #1073741824	; 0x40000000
     188:	05000000 	streq	r0, [r0, #-0]
     18c:	00000003 	andeq	r0, r0, r3
     190:	00000c20 	andeq	r0, r0, r0, lsr #24
     194:	3e010000 	cdpcc	0, 0, cr0, cr1, cr0, {0}
     198:	0001730b 	andeq	r7, r1, fp, lsl #6
     19c:	04030500 	streq	r0, [r3], #-1280	; 0xfffffb00
     1a0:	0d200000 	stceq	0, cr0, [r0, #-0]
     1a4:	000000a9 	andeq	r0, r0, r9, lsr #1
     1a8:	69054001 	stmdbvs	r5, {r0, lr}
     1ac:	cc000000 	stcgt	0, cr0, [r0], {-0}
     1b0:	6c000002 	stcvs	0, cr0, [r0], {2}
     1b4:	01000000 	mrseq	r0, (UNDEF: 0)
     1b8:	0001ff9c 	muleq	r1, ip, pc	; <UNPREDICTABLE>
     1bc:	00b90e00 	adcseq	r0, r9, r0, lsl #28
     1c0:	42010000 	andmi	r0, r1, #0
     1c4:	0000770e 	andeq	r7, r0, lr, lsl #14
     1c8:	74910200 	ldrvc	r0, [r1], #512	; 0x200
     1cc:	0001560f 	andeq	r5, r1, pc, lsl #12
     1d0:	05480100 	strbeq	r0, [r8, #-256]	; 0xffffff00
     1d4:	00000069 	andeq	r0, r0, r9, rrx
     1d8:	000001de 	ldrdeq	r0, [r0], -lr
     1dc:	ec0f0010 	stc	0, cr0, [pc], {16}
     1e0:	01000001 	tsteq	r0, r1
     1e4:	00690551 	rsbeq	r0, r9, r1, asr r5
     1e8:	01f00000 	mvnseq	r0, r0
     1ec:	00100000 	andseq	r0, r0, r0
     1f0:	00011211 	andeq	r1, r1, r1, lsl r2
     1f4:	05560100 	ldrbeq	r0, [r6, #-256]	; 0xffffff00
     1f8:	00000069 	andeq	r0, r0, r9, rrx
     1fc:	12000010 	andne	r0, r0, #16
     200:	000002c8 	andeq	r0, r0, r8, asr #5
     204:	00013901 	andeq	r3, r1, r1, lsl #18
     208:	14000000 	strne	r0, [r0], #-0
     20c:	01000000 	mrseq	r0, (UNDEF: 0)
     210:	02e5139c 	rsceq	r1, r5, #156, 6	; 0x70000002
     214:	2d010000 	stccs	0, cr0, [r1, #-0]
     218:	00027c01 	andeq	r7, r2, r1, lsl #24
     21c:	00005000 	andeq	r5, r0, r0
     220:	149c0100 	ldrne	r0, [ip], #256	; 0x100
     224:	000002f1 	strdeq	r0, [r0], -r1
     228:	00012401 	andeq	r2, r1, r1, lsl #8
     22c:	1c000000 	stcne	0, cr0, [r0], {-0}
     230:	01000000 	mrseq	r0, (UNDEF: 0)
     234:	0074149c 			; <UNDEFINED> instruction: 0x0074149c
     238:	1e010000 	cdpne	0, 0, cr0, cr1, cr0, {0}
     23c:	00026c06 	andeq	r6, r2, r6, lsl #24
     240:	00000e00 	andeq	r0, r0, r0, lsl #28
     244:	009c0100 	addseq	r0, ip, r0, lsl #2
     248:	00000174 	andeq	r0, r0, r4, ror r1
     24c:	01430004 	cmpeq	r3, r4
     250:	01040000 	mrseq	r0, (UNDEF: 4)
     254:	0000021e 	andeq	r0, r0, lr, lsl r2
     258:	0003a20c 	andeq	sl, r3, ip, lsl #4
     25c:	00000a00 	andeq	r0, r0, r0, lsl #20
     260:	00003000 	andeq	r3, r0, r0
     264:	00000000 	andeq	r0, r0, r0
     268:	00019000 	andeq	r9, r1, r0
     26c:	06010200 	streq	r0, [r1], -r0, lsl #4
     270:	00000185 	andeq	r0, r0, r5, lsl #3
     274:	83080102 	movwhi	r0, #33026	; 0x8102
     278:	02000001 	andeq	r0, r0, #1
     27c:	00840502 	addeq	r0, r4, r2, lsl #10
     280:	02020000 	andeq	r0, r2, #0
     284:	0001fd07 	andeq	pc, r1, r7, lsl #26
     288:	05040200 	streq	r0, [r4, #-512]	; 0xfffffe00
     28c:	00000125 	andeq	r0, r0, r5, lsr #2
     290:	0000ae03 	andeq	sl, r0, r3, lsl #28
     294:	194f0200 	stmdbne	pc, {r9}^	; <UNPREDICTABLE>
     298:	00000054 	andeq	r0, r0, r4, asr r0
     29c:	b2070402 	andlt	r0, r7, #33554432	; 0x2000000
     2a0:	02000001 	andeq	r0, r0, #1
     2a4:	01200508 			; <UNDEFINED> instruction: 0x01200508
     2a8:	08020000 	stmdaeq	r2, {}	; <UNPREDICTABLE>
     2ac:	0001ad07 	andeq	sl, r1, r7, lsl #26
     2b0:	05040400 	streq	r0, [r4, #-1024]	; 0xfffffc00
     2b4:	00746e69 	rsbseq	r6, r4, r9, ror #28
     2b8:	b7070402 	strlt	r0, [r7, -r2, lsl #8]
     2bc:	03000001 	movweq	r0, #1
     2c0:	000000b0 	strheq	r0, [r0], -r0	; <UNPREDICTABLE>
     2c4:	48143003 	ldmdami	r4, {r0, r1, ip, sp}
     2c8:	05000000 	streq	r0, [r0, #-0]
     2cc:	00008e04 	andeq	r8, r0, r4, lsl #28
     2d0:	00830600 	addeq	r0, r3, r0, lsl #12
     2d4:	02070000 	andeq	r0, r7, #0
     2d8:	018c0801 	orreq	r0, ip, r1, lsl #16
     2dc:	54080000 	strpl	r0, [r8], #-0
     2e0:	a6000000 	strge	r0, [r0], -r0
     2e4:	09000000 	stmdbeq	r0, {}	; <UNPREDICTABLE>
     2e8:	00000070 	andeq	r0, r0, r0, ror r0
     2ec:	830a003f 	movwhi	r0, #41023	; 0xa03f
     2f0:	01000003 	tsteq	r0, r3
     2f4:	00961637 	addseq	r1, r6, r7, lsr r6
     2f8:	03050000 	movweq	r0, #20480	; 0x5000
     2fc:	20000018 	andcs	r0, r0, r8, lsl r0
     300:	00008908 	andeq	r8, r0, r8, lsl #18
     304:	0000c800 	andeq	ip, r0, r0, lsl #16
     308:	00700900 	rsbseq	r0, r0, r0, lsl #18
     30c:	009a0000 	addseq	r0, sl, r0
     310:	0000b806 	andeq	fp, r0, r6, lsl #16
     314:	03cb0b00 	biceq	r0, fp, #0, 22
     318:	40010000 	andmi	r0, r1, r0
     31c:	0000c80f 	andeq	ip, r0, pc, lsl #16
     320:	00030500 	andeq	r0, r3, r0, lsl #10
     324:	0c000000 	stceq	0, cr0, [r0], {-0}
     328:	00000394 	muleq	r0, r4, r3
     32c:	5416e701 	ldrpl	lr, [r6], #-1793	; 0xfffff8ff
     330:	0c000000 	stceq	0, cr0, [r0], {-0}
     334:	0000037d 	andeq	r0, r0, sp, ror r3
     338:	5416e801 	ldrpl	lr, [r6], #-2049	; 0xfffff7ff
     33c:	0c000000 	stceq	0, cr0, [r0], {-0}
     340:	0000039b 	muleq	r0, fp, r3
     344:	5416e901 	ldrpl	lr, [r6], #-2305	; 0xfffff6ff
     348:	0d000000 	stceq	0, cr0, [r0, #-0]
     34c:	000003b0 			; <UNDEFINED> instruction: 0x000003b0
     350:	01015301 	tsteq	r1, r1, lsl #6
     354:	000003d0 	ldrdeq	r0, [r0], -r0	; <UNPREDICTABLE>
     358:	00000006 	andeq	r0, r0, r6
     35c:	c20e9c01 	andgt	r9, lr, #256	; 0x100
     360:	01000003 	tsteq	r0, r3
     364:	ac010140 	stfges	f0, [r1], {64}	; 0x40
     368:	24000003 	strcs	r0, [r0], #-3
     36c:	01000000 	mrseq	r0, (UNDEF: 0)
     370:	03e80d9c 	mvneq	r0, #156, 26	; 0x2700
     374:	2e010000 	cdpcs	0, 0, cr0, cr1, cr0, {0}
     378:	03a40101 			; <UNDEFINED> instruction: 0x03a40101
     37c:	00060000 	andeq	r0, r6, r0
     380:	9c010000 	stcls	0, cr0, [r1], {-0}
     384:	0003df0f 	andeq	sp, r3, pc, lsl #30
     388:	01f80100 	mvnseq	r0, r0, lsl #2
     38c:	00000338 	andeq	r0, r0, r8, lsr r3
     390:	00000064 	andeq	r0, r0, r4, rrx
     394:	01719c01 	cmneq	r1, r1, lsl #24
     398:	d80a0000 	stmdale	sl, {}	; <UNPREDICTABLE>
     39c:	01000003 	tsteq	r0, r3
     3a0:	017114fa 	ldrsheq	r1, [r1, #-74]!	; 0xffffffb6
     3a4:	91020000 	mrsls	r0, (UNDEF: 2)
     3a8:	038c0a74 	orreq	r0, ip, #116, 20	; 0x74000
     3ac:	fa010000 	blx	403b4 <_etext+0x3e465>
     3b0:	0001711d 	andeq	r7, r1, sp, lsl r1
     3b4:	70910200 	addsvc	r0, r1, r0, lsl #4
     3b8:	54040500 	strpl	r0, [r4], #-1280	; 0xfffffb00
     3bc:	00000000 	andeq	r0, r0, r0
     3c0:	000003a1 	andeq	r0, r0, r1, lsr #7
     3c4:	02280004 	eoreq	r0, r8, #4
     3c8:	01040000 	mrseq	r0, (UNDEF: 4)
     3cc:	0000021e 	andeq	r0, r0, lr, lsl r2
     3d0:	0004c20c 	andeq	ip, r4, ip, lsl #4
     3d4:	00000a00 	andeq	r0, r0, r0, lsl #20
     3d8:	00005800 	andeq	r5, r0, r0, lsl #16
     3dc:	00000000 	andeq	r0, r0, r0
     3e0:	0002f300 	andeq	pc, r2, r0, lsl #6
     3e4:	04a40200 	strteq	r0, [r4], #512	; 0x200
     3e8:	29020000 	stmdbcs	r2, {}	; <UNPREDICTABLE>
     3ec:	00003117 	andeq	r3, r0, r7, lsl r1
     3f0:	06010300 	streq	r0, [r1], -r0, lsl #6
     3f4:	00000185 	andeq	r0, r0, r5, lsl #3
     3f8:	83080103 	movwhi	r0, #33027	; 0x8103
     3fc:	03000001 	movweq	r0, #1
     400:	00840502 	addeq	r0, r4, r2, lsl #10
     404:	02030000 	andeq	r0, r3, #0
     408:	0001fd07 	andeq	pc, r1, r7, lsl #26
     40c:	04fc0200 	ldrbteq	r0, [ip], #512	; 0x200
     410:	4d020000 	stcmi	0, cr0, [r2, #-0]
     414:	00005918 	andeq	r5, r0, r8, lsl r9
     418:	05040300 	streq	r0, [r4, #-768]	; 0xfffffd00
     41c:	00000125 	andeq	r0, r0, r5, lsr #2
     420:	0000ae02 	andeq	sl, r0, r2, lsl #28
     424:	194f0200 	stmdbne	pc, {r9}^	; <UNPREDICTABLE>
     428:	0000006c 	andeq	r0, r0, ip, rrx
     42c:	b2070403 	andlt	r0, r7, #50331648	; 0x3000000
     430:	03000001 	movweq	r0, #1
     434:	01200508 			; <UNDEFINED> instruction: 0x01200508
     438:	08030000 	stmdaeq	r3, {}	; <UNPREDICTABLE>
     43c:	0001ad07 	andeq	sl, r1, r7, lsl #26
     440:	05040400 	streq	r0, [r4, #-1024]	; 0xfffffc00
     444:	00746e69 	rsbseq	r6, r4, r9, ror #28
     448:	b7070403 	strlt	r0, [r7, -r3, lsl #8]
     44c:	02000001 	andeq	r0, r0, #1
     450:	000004a6 	andeq	r0, r0, r6, lsr #9
     454:	25121403 	ldrcs	r1, [r2, #-1027]	; 0xfffffbfd
     458:	02000000 	andeq	r0, r0, #0
     45c:	000004fe 	strdeq	r0, [r0], -lr
     460:	4d132c03 	ldcmi	12, cr2, [r3, #-12]
     464:	02000000 	andeq	r0, r0, #0
     468:	000000b0 	strheq	r0, [r0], -r0	; <UNPREDICTABLE>
     46c:	60143003 	andsvs	r3, r4, r3
     470:	05000000 	streq	r0, [r0, #-0]
     474:	000000a7 	andeq	r0, r0, r7, lsr #1
     478:	00050e02 	andeq	r0, r5, r2, lsl #28
     47c:	1b280400 	blne	a01484 <_etext+0x9ff535>
     480:	000000c4 	andeq	r0, r0, r4, asr #1
     484:	00045d06 	andeq	r5, r4, r6, lsl #26
     488:	00050400 	andeq	r0, r5, r0, lsl #8
     48c:	000000db 	ldrdeq	r0, [r0], -fp
     490:	0004ad07 	andeq	sl, r4, r7, lsl #26
     494:	0000db00 	andeq	sp, r0, r0, lsl #22
     498:	08000000 	stmdaeq	r0, {}	; <UNPREDICTABLE>
     49c:	045f0204 	ldrbeq	r0, [pc], #-516	; 4a4 <UARTwrite+0x3c>
     4a0:	63040000 	movwvs	r0, #16384	; 0x4000
     4a4:	0000b818 	andeq	fp, r0, r8, lsl r8
     4a8:	04670900 	strbteq	r0, [r7], #-2304	; 0xfffff700
     4ac:	7e010000 	cdpvc	0, 0, cr0, cr1, cr0, {0}
     4b0:	0000a711 	andeq	sl, r0, r1, lsl r7
     4b4:	18030500 	stmdane	r3, {r8, sl}
     4b8:	09200001 	stmdbeq	r0!, {r0}
     4bc:	000004e3 	andeq	r0, r0, r3, ror #9
     4c0:	131b8601 	tstne	fp, #1048576	; 0x100000
     4c4:	05000001 	streq	r0, [r0, #-1]
     4c8:	00000003 	andeq	r0, r0, r3
     4cc:	1f040a00 	svcne	0x00040a00
     4d0:	05000001 	streq	r0, [r0, #-1]
     4d4:	0000010d 	andeq	r0, r0, sp, lsl #2
     4d8:	8c080103 	stfhis	f0, [r8], {3}
     4dc:	05000001 	streq	r0, [r0, #-1]
     4e0:	00000118 	andeq	r0, r0, r8, lsl r1
     4e4:	0000b30b 	andeq	fp, r0, fp, lsl #6
     4e8:	00013400 	andeq	r3, r1, r0, lsl #8
     4ec:	00880c00 	addeq	r0, r8, r0, lsl #24
     4f0:	00020000 	andeq	r0, r2, r0
     4f4:	00012405 	andeq	r2, r1, r5, lsl #8
     4f8:	05260900 	streq	r0, [r6, #-2304]!	; 0xfffff700
     4fc:	8d010000 	stchi	0, cr0, [r1, #-0]
     500:	00013417 	andeq	r3, r1, r7, lsl r4
     504:	8c030500 	cfstr32hi	mvfx0, [r3], {-0}
     508:	0900001b 	stmdbeq	r0, {r0, r1, r3, r4}
     50c:	0000042a 	andeq	r0, r0, sl, lsr #8
     510:	3417aa01 	ldrcc	sl, [r7], #-2561	; 0xfffff5ff
     514:	05000001 	streq	r0, [r0, #-1]
     518:	001b9803 	andseq	r9, fp, r3, lsl #16
     51c:	048c0d00 	streq	r0, [ip], #3328	; 0xd00
     520:	14010000 	strne	r0, [r1], #-0
     524:	09000105 	stmdbeq	r0, {r0, r2, r8}
     528:	00240000 	eoreq	r0, r4, r0
     52c:	9c010000 	stcls	0, cr0, [r1], {-0}
     530:	00000196 	muleq	r0, r6, r1
     534:	0003fe0e 	andeq	pc, r3, lr, lsl #28
     538:	05140100 	ldreq	r0, [r4, #-256]	; 0xffffff00
     53c:	00010d18 	andeq	r0, r1, r8, lsl sp
     540:	70910200 	addsvc	r0, r1, r0, lsl #4
     544:	03ee100f 	mvneq	r1, #15
     548:	16010000 	strne	r0, [r1], -r0
     54c:	00dd0d05 	sbcseq	r0, sp, r5, lsl #26
     550:	91020000 	mrsls	r0, (UNDEF: 2)
     554:	720d0064 	andvc	r0, sp, #100	; 0x64
     558:	01000004 	tsteq	r0, r4
     55c:	f8010364 			; <UNDEFINED> instruction: 0xf8010364
     560:	08000004 	stmdaeq	r0, {r2}
     564:	01000004 	tsteq	r0, r4
     568:	0002789c 	muleq	r2, ip, r8
     56c:	03fe0e00 	mvnseq	r0, #0, 28
     570:	64010000 	strvs	r0, [r1], #-0
     574:	010d1903 	tsteq	sp, r3, lsl #18
     578:	91020000 	mrsls	r0, (UNDEF: 2)
     57c:	03ee0e44 	mvneq	r0, #68, 28	; 0x440
     580:	64010000 	strvs	r0, [r1], #-0
     584:	00dd2b03 	sbcseq	r2, sp, r3, lsl #22
     588:	91020000 	mrsls	r0, (UNDEF: 2)
     58c:	05061040 	streq	r1, [r6, #-64]	; 0xffffffc0
     590:	66010000 	strvs	r0, [r1], -r0
     594:	00a70e03 	adceq	r0, r7, r3, lsl #28
     598:	91020000 	mrsls	r0, (UNDEF: 2)
     59c:	04071074 	streq	r1, [r7], #-116	; 0xffffff8c
     5a0:	66010000 	strvs	r0, [r1], -r0
     5a4:	00a71703 	adceq	r1, r7, r3, lsl #14
     5a8:	91020000 	mrsls	r0, (UNDEF: 2)
     5ac:	05351058 	ldreq	r1, [r5, #-88]!	; 0xffffffa8
     5b0:	66010000 	strvs	r0, [r1], -r0
     5b4:	00a72203 	adceq	r2, r7, r3, lsl #4
     5b8:	91020000 	mrsls	r0, (UNDEF: 2)
     5bc:	04201070 	strteq	r1, [r0], #-112	; 0xffffff90
     5c0:	66010000 	strvs	r0, [r1], -r0
     5c4:	00a72b03 	adceq	r2, r7, r3, lsl #22
     5c8:	91020000 	mrsls	r0, (UNDEF: 2)
     5cc:	0469106c 	strbteq	r1, [r9], #-108	; 0xffffff94
     5d0:	66010000 	strvs	r0, [r1], -r0
     5d4:	00a73603 	adceq	r3, r7, r3, lsl #12
     5d8:	91020000 	mrsls	r0, (UNDEF: 2)
     5dc:	04841068 	streq	r1, [r4], #104	; 0x68
     5e0:	66010000 	strvs	r0, [r1], -r0
     5e4:	00a74003 	adceq	r4, r7, r3
     5e8:	91020000 	mrsls	r0, (UNDEF: 2)
     5ec:	04eb1064 	strbteq	r1, [fp], #100	; 0x64
     5f0:	67010000 	strvs	r0, [r1, -r0]
     5f4:	02780b03 	rsbseq	r0, r8, #3072	; 0xc00
     5f8:	91020000 	mrsls	r0, (UNDEF: 2)
     5fc:	053d105c 	ldreq	r1, [sp, #-92]!	; 0xffffffa4
     600:	67010000 	strvs	r0, [r1, -r0]
     604:	027e1203 	rsbseq	r1, lr, #805306368	; 0x30000000
     608:	91020000 	mrsls	r0, (UNDEF: 2)
     60c:	043b1048 	ldrteq	r1, [fp], #-72	; 0xffffffb8
     610:	67010000 	strvs	r0, [r1, -r0]
     614:	01181d03 	tsteq	r8, r3, lsl #26
     618:	91020000 	mrsls	r0, (UNDEF: 2)
     61c:	054c1163 	strbeq	r1, [ip, #-355]	; 0xfffffe9d
     620:	9c010000 	stcls	0, cr0, [r1], {-0}
     624:	05640103 	strbeq	r0, [r4, #-259]!	; 0xfffffefd
     628:	b2110000 	andslt	r0, r1, #0
     62c:	01000004 	tsteq	r0, r4
     630:	c201047a 	andgt	r0, r1, #2046820352	; 0x7a000000
     634:	00000007 	andeq	r0, r0, r7
     638:	0118040a 	tsteq	r8, sl, lsl #8
     63c:	180b0000 	stmdane	fp, {}	; <UNPREDICTABLE>
     640:	8e000001 	cdphi	0, 0, cr0, cr0, cr1, {0}
     644:	0c000002 	stceq	0, cr0, [r0], {2}
     648:	00000088 	andeq	r0, r0, r8, lsl #1
     64c:	1d12000f 	ldcne	0, cr0, [r2, #-60]	; 0xffffffc4
     650:	01000005 	tsteq	r0, r5
     654:	3801031a 	stmdacc	r1, {r1, r3, r4, r8, r9}
     658:	00000000 	andeq	r0, r0, r0
     65c:	1c000000 	stcne	0, cr0, [r0], {-0}
     660:	01000000 	mrseq	r0, (UNDEF: 0)
     664:	0543139c 	strbeq	r1, [r3, #-924]	; 0xfffffc64
     668:	41010000 	mrsmi	r0, (UNDEF: 1)
     66c:	00810102 	addeq	r0, r1, r2, lsl #2
     670:	00000000 	andeq	r0, r0, r0
     674:	01140000 	tsteq	r4, r0
     678:	9c010000 	stcls	0, cr0, [r1], {-0}
     67c:	00000314 	andeq	r0, r0, r4, lsl r3
     680:	00053d0e 	andeq	r3, r5, lr, lsl #26
     684:	02410100 	subeq	r0, r1, #0, 2
     688:	00027810 	andeq	r7, r2, r0, lsl r8
     68c:	6c910200 	lfmvs	f0, 4, [r1], {0}
     690:	0004ba0e 	andeq	fp, r4, lr, lsl #20
     694:	02410100 	subeq	r0, r1, #0, 2
     698:	0000a720 	andeq	sl, r0, r0, lsr #14
     69c:	68910200 	ldmvs	r1, {r9}
     6a0:	00042010 	andeq	r2, r4, r0, lsl r0
     6a4:	028b0100 	addeq	r0, fp, #0, 2
     6a8:	0000a70e 	andeq	sl, r0, lr, lsl #14
     6ac:	74910200 	ldrvc	r0, [r1], #512	; 0x200
     6b0:	00047e10 	andeq	r7, r4, r0, lsl lr
     6b4:	028c0100 	addeq	r0, ip, #0, 2
     6b8:	00008f0c 	andeq	r8, r0, ip, lsl #30
     6bc:	73910200 	orrsvc	r0, r1, #0, 4
     6c0:	0004f110 	andeq	pc, r4, r0, lsl r1	; <UNPREDICTABLE>
     6c4:	028d0100 	addeq	r0, sp, #0, 2
     6c8:	00008f13 	andeq	r8, r0, r3, lsl pc
     6cc:	00030500 	andeq	r0, r3, r0, lsl #10
     6d0:	00000000 	andeq	r0, r0, r0
     6d4:	00041613 	andeq	r1, r4, r3, lsl r6
     6d8:	01b40100 			; <UNDEFINED> instruction: 0x01b40100
     6dc:	00008101 	andeq	r8, r0, r1, lsl #2
     6e0:	00046800 	andeq	r6, r4, r0, lsl #16
     6e4:	00009000 	andeq	r9, r0, r0
     6e8:	609c0100 	addsvs	r0, ip, r0, lsl #2
     6ec:	0e000003 	cdpeq	0, 0, cr0, cr0, cr3, {0}
     6f0:	0000053d 	andeq	r0, r0, sp, lsr r5
     6f4:	1701b401 	strne	fp, [r1, -r1, lsl #8]
     6f8:	0000010d 	andeq	r0, r0, sp, lsl #2
     6fc:	0e6c9102 	lgneqe	f1, f2
     700:	000004ba 			; <UNDEFINED> instruction: 0x000004ba
     704:	2701b401 	strcs	fp, [r1, -r1, lsl #8]
     708:	000000a7 	andeq	r0, r0, r7, lsr #1
     70c:	10689102 	rsbne	r9, r8, r2, lsl #2
     710:	00000411 	andeq	r0, r0, r1, lsl r4
     714:	1201fc01 	andne	pc, r1, #256	; 0x100
     718:	00000088 	andeq	r0, r0, r8, lsl #1
     71c:	00749102 	rsbseq	r9, r4, r2, lsl #2
     720:	00044114 	andeq	r4, r4, r4, lsl r1
     724:	014e0100 	mrseq	r0, (UNDEF: 94)
     728:	0003d801 	andeq	sp, r3, r1, lsl #16
     72c:	00009000 	andeq	r9, r0, r0
     730:	0e9c0100 	fmleqe	f0, f4, f0
     734:	00000451 	andeq	r0, r0, r1, asr r4
     738:	1a014e01 	bne	53f44 <_etext+0x51ff5>
     73c:	000000a7 	andeq	r0, r0, r7, lsr #1
     740:	0e749102 	expeqs	f1, f2
     744:	000003f5 	strdeq	r0, [r0], -r5
     748:	30014e01 	andcc	r4, r1, r1, lsl #28
     74c:	000000a7 	andeq	r0, r0, r7, lsr #1
     750:	0e709102 	expeqs	f1, f2
     754:	00000497 	muleq	r0, r7, r4
     758:	43014e01 	movwmi	r4, #7681	; 0x1e01
     75c:	000000a7 	andeq	r0, r0, r7, lsr #1
     760:	006c9102 	rsbeq	r9, ip, r2, lsl #2
     764:	00074000 	andeq	r4, r7, r0
     768:	5d000400 	cfstrspl	mvf0, [r0, #-0]
     76c:	04000003 	streq	r0, [r0], #-3
     770:	00021e01 	andeq	r1, r2, r1, lsl #28
     774:	06ec0c00 	strbteq	r0, [ip], r0, lsl #24
     778:	000a0000 	andeq	r0, sl, r0
     77c:	00900000 	addseq	r0, r0, r0
     780:	00000000 	andeq	r0, r0, r0
     784:	07af0000 	streq	r0, [pc, r0]!
     788:	4f020000 	svcmi	0x00020000
     78c:	07000009 	streq	r0, [r0, -r9]
     790:	00005001 	andeq	r5, r0, r1
     794:	0e090200 	cdpeq	2, 0, cr0, cr9, cr0, {0}
     798:	00000050 	andeq	r0, r0, r0, asr r0
     79c:	00060303 	andeq	r0, r6, r3, lsl #6
     7a0:	16030000 	strne	r0, [r3], -r0
     7a4:	01000008 	tsteq	r0, r8
     7a8:	0007eb03 	andeq	lr, r7, r3, lsl #22
     7ac:	63030200 	movwvs	r0, #12800	; 0x3200
     7b0:	03000009 	movweq	r0, #9
     7b4:	08010400 	stmdaeq	r1, {sl}
     7b8:	00000183 	andeq	r0, r0, r3, lsl #3
     7bc:	00005005 	andeq	r5, r0, r5
     7c0:	07c90600 	strbeq	r0, [r9, r0, lsl #12]
     7c4:	0e020000 	cdpeq	0, 0, cr0, cr2, cr0, {0}
     7c8:	00002503 	andeq	r2, r0, r3, lsl #10
     7cc:	021c0700 	andseq	r0, ip, #0, 14
     7d0:	00cd0910 	sbceq	r0, sp, r0, lsl r9
     7d4:	5f080000 	svcpl	0x00080000
     7d8:	02000005 	andeq	r0, r0, #5
     7dc:	00ce0c11 	sbceq	r0, lr, r1, lsl ip
     7e0:	08000000 	stmdaeq	r0, {}	; <UNPREDICTABLE>
     7e4:	00000846 	andeq	r0, r0, r6, asr #16
     7e8:	f20c1202 	vhsub.s8	d1, d12, d2
     7ec:	04000000 	streq	r0, [r0], #-0
     7f0:	0008ea08 	andeq	lr, r8, r8, lsl #20
     7f4:	0c130200 	lfmeq	f0, 4, [r3], {-0}
     7f8:	000000f2 	strdeq	r0, [r0], -r2
     7fc:	07230808 	streq	r0, [r3, -r8, lsl #16]!
     800:	14020000 	strne	r0, [r2], #-0
     804:	0001030c 	andeq	r0, r1, ip, lsl #6
     808:	af080c00 	svcge	0x00080c00
     80c:	02000007 	andeq	r0, r0, #7
     810:	01030c15 	tsteq	r3, r5, lsl ip
     814:	08100000 	ldmdaeq	r0, {}	; <UNPREDICTABLE>
     818:	00000889 	andeq	r0, r0, r9, lsl #17
     81c:	ce0c1602 	cfmadd32gt	mvax0, mvfx1, mvfx12, mvfx2
     820:	14000000 	strne	r0, [r0], #-0
     824:	0005e108 	andeq	lr, r5, r8, lsl #2
     828:	0c170200 	lfmeq	f0, 4, [r7], {-0}
     82c:	00000119 	andeq	r0, r0, r9, lsl r1
     830:	0a090018 	beq	240898 <_etext+0x23e949>
     834:	0000cd04 	andeq	ip, r0, r4, lsl #26
     838:	00e40b00 	rsceq	r0, r4, r0, lsl #22
     83c:	e40c0000 	str	r0, [ip], #-0
     840:	0c000000 	stceq	0, cr0, [r0], {-0}
     844:	000000eb 	andeq	r0, r0, fp, ror #1
     848:	07040400 	streq	r0, [r4, -r0, lsl #8]
     84c:	000001b7 			; <UNDEFINED> instruction: 0x000001b7
     850:	fd070204 	stc2	2, cr0, [r7, #-16]
     854:	0a000001 	beq	860 <UARTvprintf+0x368>
     858:	0000d404 	andeq	sp, r0, r4, lsl #8
     85c:	01030b00 	tsteq	r3, r0, lsl #22
     860:	e40c0000 	str	r0, [ip], #-0
     864:	00000000 	andeq	r0, r0, r0
     868:	00f8040a 	rscseq	r0, r8, sl, lsl #8
     86c:	190b0000 	stmdbne	fp, {}	; <UNPREDICTABLE>
     870:	0c000001 	stceq	0, cr0, [r0], {1}
     874:	000000e4 	andeq	r0, r0, r4, ror #1
     878:	0000e40c 	andeq	lr, r0, ip, lsl #8
     87c:	040a0000 	streq	r0, [sl], #-0
     880:	00000109 	andeq	r0, r0, r9, lsl #2
     884:	0008cc06 	andeq	ip, r8, r6, lsl #24
     888:	03180200 	tsteq	r8, #0, 4
     88c:	00000068 	andeq	r0, r0, r8, rrx
     890:	00011f0d 	andeq	r1, r1, sp, lsl #30
     894:	06410e00 	strbeq	r0, [r1], -r0, lsl #28
     898:	03100000 	tsteq	r0, #0
     89c:	017f081b 	cmneq	pc, fp, lsl r8	; <UNPREDICTABLE>
     8a0:	b9080000 	stmdblt	r8, {}	; <UNPREDICTABLE>
     8a4:	03000009 	movweq	r0, #9
     8a8:	005c151c 	subseq	r1, ip, ip, lsl r5
     8ac:	08000000 	stmdaeq	r0, {}	; <UNPREDICTABLE>
     8b0:	00000684 	andeq	r0, r0, r4, lsl #13
     8b4:	7f0d1d03 	svcvc	0x000d1d03
     8b8:	01000001 	tsteq	r0, r1
     8bc:	0009ab08 	andeq	sl, r9, r8, lsl #22
     8c0:	0d1e0300 	ldceq	3, cr0, [lr, #-0]
     8c4:	00000186 	andeq	r0, r0, r6, lsl #3
     8c8:	090a0804 	stmdbeq	sl, {r2, fp}
     8cc:	1f030000 	svcne	0x00030000
     8d0:	0001860d 	andeq	r8, r1, sp, lsl #12
     8d4:	a0080800 	andge	r0, r8, r0, lsl #16
     8d8:	03000008 	movweq	r0, #8
     8dc:	01860d20 	orreq	r0, r6, r0, lsr #26
     8e0:	000c0000 	andeq	r0, ip, r0
     8e4:	c2020104 	andgt	r0, r2, #4, 2
     8e8:	0f000002 	svceq	0x00000002
     8ec:	6e690504 	cdpvs	5, 6, cr0, cr9, cr4, {0}
     8f0:	3c070074 	stccc	0, cr0, [r7], {116}	; 0x74
     8f4:	5a092a03 	bpl	24b108 <_etext+0x2491b9>
     8f8:	08000002 	stmdaeq	r0, {r1}
     8fc:	00000674 	andeq	r0, r0, r4, ror r6
     900:	ce0c2b03 	vmlagt.f64	d2, d12, d3
     904:	00000000 	andeq	r0, r0, r0
     908:	00091608 	andeq	r1, r9, r8, lsl #12
     90c:	0c2c0300 	stceq	3, cr0, [ip], #-0
     910:	000000ce 	andeq	r0, r0, lr, asr #1
     914:	08670804 	stmdaeq	r7!, {r2, fp}^
     918:	2d030000 	stccs	0, cr0, [r3, #-0]
     91c:	0000ce0c 	andeq	ip, r0, ip, lsl #28
     920:	95080800 	strls	r0, [r8, #-2048]	; 0xfffff800
     924:	03000009 	movweq	r0, #9
     928:	00ce0c2e 	sbceq	r0, lr, lr, lsr #24
     92c:	080c0000 	stmdaeq	ip, {}	; <UNPREDICTABLE>
     930:	00000552 	andeq	r0, r0, r2, asr r5
     934:	650c2f03 	strvs	r2, [ip, #-3843]	; 0xfffff0fd
     938:	10000002 	andne	r0, r0, r2
     93c:	00077e08 	andeq	r7, r7, r8, lsl #28
     940:	0c300300 	ldceq	3, cr0, [r0], #-0
     944:	00000265 	andeq	r0, r0, r5, ror #4
     948:	06960814 			; <UNDEFINED> instruction: 0x06960814
     94c:	31030000 	mrscc	r0, (UNDEF: 3)
     950:	00027b0c 	andeq	r7, r2, ip, lsl #22
     954:	c2081800 	andgt	r1, r8, #0, 16
     958:	03000006 	movweq	r0, #6
     95c:	027b0c32 	rsbseq	r0, fp, #12800	; 0x3200
     960:	081c0000 	ldmdaeq	ip, {}	; <UNPREDICTABLE>
     964:	00000934 	andeq	r0, r0, r4, lsr r9
     968:	9d0c3303 	stcls	3, cr3, [ip, #-12]
     96c:	20000002 	andcs	r0, r0, r2
     970:	00075708 	andeq	r5, r7, r8, lsl #14
     974:	0c340300 	ldceq	3, cr0, [r4], #-0
     978:	000002b9 			; <UNDEFINED> instruction: 0x000002b9
     97c:	05810824 	streq	r0, [r1, #2084]	; 0x824
     980:	35030000 	strcc	r0, [r3, #-0]
     984:	00029d0c 	andeq	r9, r2, ip, lsl #26
     988:	6b082800 	blvs	20a990 <_etext+0x208a41>
     98c:	03000007 	movweq	r0, #7
     990:	02ca0c36 	sbceq	r0, sl, #13824	; 0x3600
     994:	082c0000 	stmdaeq	ip!, {}	; <UNPREDICTABLE>
     998:	00000802 	andeq	r0, r0, r2, lsl #16
     99c:	e60c3703 	str	r3, [ip], -r3, lsl #14
     9a0:	30000002 	andcc	r0, r0, r2
     9a4:	00098d08 	andeq	r8, r9, r8, lsl #26
     9a8:	0c380300 	ldceq	3, cr0, [r8], #-0
     9ac:	00000103 	andeq	r0, r0, r3, lsl #2
     9b0:	087a0834 	ldmdaeq	sl!, {r2, r4, r5, fp}^
     9b4:	39030000 	stmdbcc	r3, {}	; <UNPREDICTABLE>
     9b8:	0002f70c 	andeq	pc, r2, ip, lsl #14
     9bc:	0b003800 	bleq	e9c4 <_etext+0xca75>
     9c0:	00000265 	andeq	r0, r0, r5, ror #4
     9c4:	0001860c 	andeq	r8, r1, ip, lsl #12
     9c8:	040a0000 	streq	r0, [sl], #-0
     9cc:	0000025a 	andeq	r0, r0, sl, asr r2
     9d0:	00027b0b 	andeq	r7, r2, fp, lsl #22
     9d4:	01860c00 	orreq	r0, r6, r0, lsl #24
     9d8:	300c0000 	andcc	r0, ip, r0
     9dc:	00000001 	andeq	r0, r0, r1
     9e0:	026b040a 	rsbeq	r0, fp, #167772160	; 0xa000000
     9e4:	960b0000 	strls	r0, [fp], -r0
     9e8:	0c000002 	stceq	0, cr0, [r0], {2}
     9ec:	000000e4 	andeq	r0, r0, r4, ror #1
     9f0:	0002960c 	andeq	r9, r2, ip, lsl #12
     9f4:	00eb0c00 	rsceq	r0, fp, r0, lsl #24
     9f8:	0a000000 	beq	a00 <GPIOPadConfigSet+0xb4>
     9fc:	00029c04 	andeq	r9, r2, r4, lsl #24
     a00:	040a1000 	streq	r1, [sl], #-0
     a04:	00000281 	andeq	r0, r0, r1, lsl #5
     a08:	0002b30b 	andeq	fp, r2, fp, lsl #6
     a0c:	01860c00 	orreq	r0, r6, r0, lsl #24
     a10:	b30c0000 	movwlt	r0, #49152	; 0xc000
     a14:	00000002 	andeq	r0, r0, r2
     a18:	00e4040a 	rsceq	r0, r4, sl, lsl #8
     a1c:	040a0000 	streq	r0, [sl], #-0
     a20:	000002a3 	andeq	r0, r0, r3, lsr #5
     a24:	0002ca0b 	andeq	ip, r2, fp, lsl #20
     a28:	00500c00 	subseq	r0, r0, r0, lsl #24
     a2c:	0a000000 	beq	a34 <GPIOPadConfigSet+0xe8>
     a30:	0002bf04 	andeq	fp, r2, r4, lsl #30
     a34:	02e00b00 	rsceq	r0, r0, #0, 22
     a38:	e40c0000 	str	r0, [ip], #-0
     a3c:	0c000000 	stceq	0, cr0, [r0], {-0}
     a40:	000002e0 	andeq	r0, r0, r0, ror #5
     a44:	eb040a00 	bl	10324c <_etext+0x1012fd>
     a48:	0a000000 	beq	a50 <GPIOPadConfigSet+0x104>
     a4c:	0002d004 	andeq	sp, r2, r4
     a50:	02f70b00 	rscseq	r0, r7, #0, 22
     a54:	b30c0000 	movwlt	r0, #49152	; 0xc000
     a58:	00000002 	andeq	r0, r0, r2
     a5c:	02ec040a 	rsceq	r0, ip, #167772160	; 0xa000000
     a60:	c0060000 	andgt	r0, r6, r0
     a64:	03000009 	movweq	r0, #9
     a68:	018d033a 	orreq	r0, sp, sl, lsr r3
     a6c:	fd0d0000 	stc2	0, cr0, [sp, #-0]
     a70:	11000002 	tstne	r0, r2
     a74:	000008ff 	strdeq	r0, [r0], -pc	; <UNPREDICTABLE>
     a78:	09183c03 	ldmdbeq	r8, {r0, r1, sl, fp, ip, sp}
     a7c:	11000003 	tstne	r0, r3
     a80:	000005d6 	ldrdeq	r0, [r0], -r6
     a84:	2b183d03 	blcs	60fe98 <_etext+0x60df49>
     a88:	12000001 	andne	r0, r0, #1
     a8c:	0000030e 	andeq	r0, r0, lr, lsl #6
     a90:	1101b901 	tstne	r1, r1, lsl #18
     a94:	1ca00305 	stcne	3, cr0, [r0], #20
     a98:	a0130000 	andsge	r0, r3, r0
     a9c:	01000007 	tsteq	r0, r7
     aa0:	8c0d0194 	stfhis	f0, [sp], {148}	; 0x94
     aa4:	8c000015 	stchi	0, cr0, [r0], {21}
     aa8:	01000000 	mrseq	r0, (UNDEF: 0)
     aac:	00035d9c 	muleq	r3, ip, sp
     ab0:	09411400 	stmdbeq	r1, {sl, ip}^
     ab4:	94010000 	strls	r0, [r1], #-0
     ab8:	00e42901 	rsceq	r2, r4, r1, lsl #18
     abc:	91020000 	mrsls	r0, (UNDEF: 2)
     ac0:	d9150074 	ldmdble	r5, {r2, r4, r5, r6}
     ac4:	01000007 	tsteq	r0, r7
     ac8:	780d0179 	stmdavc	sp, {r0, r3, r4, r5, r6, r8}
     acc:	14000015 	strne	r0, [r0], #-21	; 0xffffffeb
     ad0:	01000000 	mrseq	r0, (UNDEF: 0)
     ad4:	05aa169c 	streq	r1, [sl, #1692]!	; 0x69c
     ad8:	70010000 	andvc	r0, r1, r0
     adc:	14ec0d01 	strbtne	r0, [ip], #3329	; 0xd01
     ae0:	008c0000 	addeq	r0, ip, r0
     ae4:	9c010000 	stcls	0, cr0, [r1], {-0}
     ae8:	000003a8 	andeq	r0, r0, r8, lsr #7
     aec:	00084014 	andeq	r4, r8, r4, lsl r0
     af0:	01700100 	cmneq	r0, r0, lsl #2
     af4:	00018626 	andeq	r8, r1, r6, lsr #12
     af8:	74910200 	ldrvc	r0, [r1], #512	; 0x200
     afc:	74657217 	strbtvc	r7, [r5], #-535	; 0xfffffde9
     b00:	01700100 	cmneq	r0, r0, lsl #2
     b04:	0002b33b 	andeq	fp, r2, fp, lsr r3
     b08:	70910200 	addsvc	r0, r1, r0, lsl #4
     b0c:	05f41800 	ldrbeq	r1, [r4, #2048]!	; 0x800
     b10:	67010000 	strvs	r0, [r1, -r0]
     b14:	14ac0601 	strtne	r0, [ip], #1537	; 0x601
     b18:	00400000 	subeq	r0, r0, r0
     b1c:	9c010000 	stcls	0, cr0, [r1], {-0}
     b20:	000003e0 	andeq	r0, r0, r0, ror #7
     b24:	00084014 	andeq	r4, r8, r4, lsl r0
     b28:	01670100 	cmneq	r7, r0, lsl #2
     b2c:	0000e422 	andeq	lr, r0, r2, lsr #8
     b30:	74910200 	ldrvc	r0, [r1], #512	; 0x200
     b34:	00074714 	andeq	r4, r7, r4, lsl r7
     b38:	01670100 	cmneq	r7, r0, lsl #2
     b3c:	0002e039 	andeq	lr, r2, r9, lsr r0
     b40:	70910200 	addsvc	r0, r1, r0, lsl #4
     b44:	062b1800 	strteq	r1, [fp], -r0, lsl #16
     b48:	5e010000 	cdppl	0, 0, cr0, cr1, cr0, {0}
     b4c:	14600601 	strbtne	r0, [r0], #-1537	; 0xfffff9ff
     b50:	004c0000 	subeq	r0, ip, r0
     b54:	9c010000 	stcls	0, cr0, [r1], {-0}
     b58:	00000408 	andeq	r0, r0, r8, lsl #8
     b5c:	00086f14 	andeq	r6, r8, r4, lsl pc
     b60:	015e0100 	cmpeq	lr, r0, lsl #2
     b64:	0002b32a 	andeq	fp, r2, sl, lsr #6
     b68:	74910200 	ldrvc	r0, [r1], #512	; 0x200
     b6c:	064e1300 	strbeq	r1, [lr], -r0, lsl #6
     b70:	57010000 	strpl	r0, [r1, -r0]
     b74:	00000d01 	andeq	r0, r0, r1, lsl #26
     b78:	002a0000 	eoreq	r0, sl, r0
     b7c:	9c010000 	stcls	0, cr0, [r1], {-0}
     b80:	0000042e 	andeq	r0, r0, lr, lsr #8
     b84:	01006919 	tsteq	r0, r9, lsl r9
     b88:	e4120158 	ldr	r0, [r2], #-344	; 0xfffffea8
     b8c:	02000000 	andeq	r0, r0, #0
     b90:	13007491 	movwne	r7, #1169	; 0x491
     b94:	00000575 	andeq	r0, r0, r5, ror r5
     b98:	0d014a01 	vstreq	s8, [r1, #-4]
     b9c:	00001404 	andeq	r1, r0, r4, lsl #8
     ba0:	0000005c 	andeq	r0, r0, ip, asr r0
     ba4:	04769c01 	ldrbteq	r9, [r6], #-3073	; 0xfffff3ff
     ba8:	40140000 	andsmi	r0, r4, r0
     bac:	01000008 	tsteq	r0, r8
     bb0:	e426014a 	strt	r0, [r6], #-330	; 0xfffffeb6
     bb4:	02000000 	andeq	r0, r0, #0
     bb8:	17147491 			; <UNDEFINED> instruction: 0x17147491
     bbc:	01000002 	tsteq	r0, r2
     bc0:	9639014a 	ldrtls	r0, [r9], -sl, asr #2
     bc4:	02000002 	andeq	r0, r0, #2
     bc8:	cc147091 	ldcgt	0, cr7, [r4], {145}	; 0x91
     bcc:	01000001 	tsteq	r0, r1
     bd0:	eb50014a 	bl	1401100 <_etext+0x13ff1b1>
     bd4:	02000000 	andeq	r0, r0, #0
     bd8:	13006e91 	movwne	r6, #3729	; 0xe91
     bdc:	0000073c 	andeq	r0, r0, ip, lsr r7
     be0:	0d013f01 	stceq	15, cr3, [r1, #-4]
     be4:	000013a8 	andeq	r1, r0, r8, lsr #7
     be8:	0000005c 	andeq	r0, r0, ip, asr r0
     bec:	04be9c01 	ldrteq	r9, [lr], #3073	; 0xc01
     bf0:	40140000 	andsmi	r0, r4, r0
     bf4:	01000008 	tsteq	r0, r8
     bf8:	e425013f 	strt	r0, [r5], #-319	; 0xfffffec1
     bfc:	02000000 	andeq	r0, r0, #0
     c00:	17147491 			; <UNDEFINED> instruction: 0x17147491
     c04:	01000002 	tsteq	r0, r2
     c08:	be32013f 	mrclt	1, 1, r0, cr2, cr15, {1}
     c0c:	02000004 	andeq	r0, r0, #4
     c10:	cc147091 	ldcgt	0, cr7, [r4], {145}	; 0x91
     c14:	01000001 	tsteq	r0, r1
     c18:	eb49013f 	bl	124111c <_etext+0x123f1cd>
     c1c:	02000000 	andeq	r0, r0, #0
     c20:	1a006e91 	bne	1c66c <_etext+0x1a71d>
     c24:	09a01604 	stmibeq	r0!, {r2, r9, sl, ip}
     c28:	31010000 	mrscc	r0, (UNDEF: 1)
     c2c:	133c0d01 	teqne	ip, #1, 26	; 0x40
     c30:	006c0000 	rsbeq	r0, ip, r0
     c34:	9c010000 	stcls	0, cr0, [r1], {-0}
     c38:	00000508 	andeq	r0, r0, r8, lsl #10
     c3c:	00084014 	andeq	r4, r8, r4, lsl r0
     c40:	01310100 	teqeq	r1, r0, lsl #2
     c44:	0001861c 	andeq	r8, r1, ip, lsl r6
     c48:	74910200 	ldrvc	r0, [r1], #512	; 0x200
     c4c:	00037e14 	andeq	r7, r3, r4, lsl lr
     c50:	01310100 	teqeq	r1, r0, lsl #2
     c54:	0002b331 	andeq	fp, r2, r1, lsr r3
     c58:	70910200 	addsvc	r0, r1, r0, lsl #4
     c5c:	00074c14 	andeq	r4, r7, r4, lsl ip
     c60:	01310100 	teqeq	r1, r0, lsl #2
     c64:	0000e444 	andeq	lr, r0, r4, asr #8
     c68:	6c910200 	lfmvs	f0, 4, [r1], {0}
     c6c:	059e1600 	ldreq	r1, [lr, #1536]	; 0x600
     c70:	22010000 	andcs	r0, r1, #0
     c74:	12c80d01 	sbcne	r0, r8, #1, 26	; 0x40
     c78:	00740000 	rsbseq	r0, r4, r0
     c7c:	9c010000 	stcls	0, cr0, [r1], {-0}
     c80:	00000550 	andeq	r0, r0, r0, asr r5
     c84:	00084014 	andeq	r4, r8, r4, lsl r0
     c88:	01220100 			; <UNDEFINED> instruction: 0x01220100
     c8c:	0001861d 	andeq	r8, r1, sp, lsl r6
     c90:	74910200 	ldrvc	r0, [r1], #512	; 0x200
     c94:	00037e14 	andeq	r7, r3, r4, lsl lr
     c98:	01220100 			; <UNDEFINED> instruction: 0x01220100
     c9c:	0002b332 	andeq	fp, r2, r2, lsr r3
     ca0:	70910200 	addsvc	r0, r1, r0, lsl #4
     ca4:	00074c14 	andeq	r4, r7, r4, lsl ip
     ca8:	01220100 			; <UNDEFINED> instruction: 0x01220100
     cac:	0000e445 	andeq	lr, r0, r5, asr #8
     cb0:	6c910200 	lfmvs	f0, 4, [r1], {0}
     cb4:	06ac1b00 	strteq	r1, [ip], r0, lsl #22
     cb8:	ea010000 	b	40cc0 <_etext+0x3ed71>
     cbc:	0011880d 	andseq	r8, r1, sp, lsl #16
     cc0:	00014000 	andeq	r4, r1, r0
     cc4:	b19c0100 	orrslt	r0, ip, r0, lsl #2
     cc8:	1c000005 	stcne	0, cr0, [r0], {5}
     ccc:	00000840 	andeq	r0, r0, r0, asr #16
     cd0:	8628ea01 	strthi	lr, [r8], -r1, lsl #20
     cd4:	02000001 	andeq	r0, r0, #1
     cd8:	ac1c5491 	cfldrsge	mvf5, [ip], {145}	; 0x91
     cdc:	01000008 	tsteq	r0, r8
     ce0:	017f34ea 	cmneq	pc, sl, ror #9
     ce4:	91020000 	mrsls	r0, (UNDEF: 2)
     ce8:	08b91c53 	ldmeq	r9!, {r0, r1, r4, r6, sl, fp, ip}
     cec:	ea010000 	b	40cf4 <_etext+0x3eda5>
     cf0:	00013056 	andeq	r3, r1, r6, asr r0
     cf4:	78910200 	ldmvc	r1, {r9}
     cf8:	0050451d 	subseq	r4, r0, sp, lsl r5
     cfc:	3019eb01 	andscc	lr, r9, r1, lsl #22
     d00:	02000001 	andeq	r0, r0, #1
     d04:	971e5c91 			; <UNDEFINED> instruction: 0x971e5c91
     d08:	01000008 	tsteq	r0, r8
     d0c:	00e412ec 	rsceq	r1, r4, ip, ror #5
     d10:	91020000 	mrsls	r0, (UNDEF: 2)
     d14:	8b1f006c 	blhi	7c0ecc <_etext+0x7bef7d>
     d18:	01000007 	tsteq	r0, r7
     d1c:	11280ddd 	ldrdne	r0, [r8, -sp]!
     d20:	00600000 	rsbeq	r0, r0, r0
     d24:	9c010000 	stcls	0, cr0, [r1], {-0}
     d28:	000005e6 	andeq	r0, r0, r6, ror #11
     d2c:	0008401c 	andeq	r4, r8, ip, lsl r0
     d30:	26dd0100 	ldrbcs	r0, [sp], r0, lsl #2
     d34:	00000186 	andeq	r0, r0, r6, lsl #3
     d38:	1c649102 	stfnep	f1, [r4], #-8
     d3c:	000008b9 			; <UNDEFINED> instruction: 0x000008b9
     d40:	3041dd01 	subcc	sp, r1, r1, lsl #26
     d44:	02000001 	andeq	r0, r0, #1
     d48:	1f007491 	svcne	0x00007491
     d4c:	000008d6 	ldrdeq	r0, [r0], -r6
     d50:	c80dd201 	stmdagt	sp, {r0, r9, ip, lr, pc}
     d54:	60000010 	andvs	r0, r0, r0, lsl r0
     d58:	01000000 	mrseq	r0, (UNDEF: 0)
     d5c:	00061b9c 	muleq	r6, ip, fp
     d60:	08401c00 	stmdaeq	r0, {sl, fp, ip}^
     d64:	d2010000 	andle	r0, r1, #0
     d68:	00018625 	andeq	r8, r1, r5, lsr #12
     d6c:	64910200 	ldrvs	r0, [r1], #512	; 0x200
     d70:	0008b91c 	andeq	fp, r8, ip, lsl r9
     d74:	40d20100 	sbcsmi	r0, r2, r0, lsl #2
     d78:	00000130 	andeq	r0, r0, r0, lsr r1
     d7c:	00749102 	rsbseq	r9, r4, r2, lsl #2
     d80:	00070f1f 	andeq	r0, r7, pc, lsl pc
     d84:	0dc50100 	stfeqe	f0, [r5]
     d88:	00000000 	andeq	r0, r0, r0
     d8c:	00000060 	andeq	r0, r0, r0, rrx
     d90:	06419c01 	strbeq	r9, [r1], -r1, lsl #24
     d94:	401c0000 	andsmi	r0, ip, r0
     d98:	01000008 	tsteq	r0, r8
     d9c:	018625c5 	orreq	r2, r6, r5, asr #11
     da0:	91020000 	mrsls	r0, (UNDEF: 2)
     da4:	d9200074 	stmdble	r0!, {r2, r4, r5, r6}
     da8:	01000006 	tsteq	r0, r6
     dac:	10a80dbb 	strhtne	r0, [r8], fp
     db0:	00200000 	eoreq	r0, r0, r0
     db4:	9c010000 	stcls	0, cr0, [r1], {-0}
     db8:	0008c01b 	andeq	ip, r8, fp, lsl r0
     dbc:	0db30100 	ldfeqs	f0, [r3]
     dc0:	00001074 	andeq	r1, r0, r4, ror r0
     dc4:	00000034 	andeq	r0, r0, r4, lsr r0
     dc8:	06799c01 	ldrbteq	r9, [r9], -r1, lsl #24
     dcc:	401c0000 	andsmi	r0, ip, r0
     dd0:	01000008 	tsteq	r0, r8
     dd4:	01861db3 			; <UNDEFINED> instruction: 0x01861db3
     dd8:	91020000 	mrsls	r0, (UNDEF: 2)
     ddc:	341b0074 	ldrcc	r0, [fp], #-116	; 0xffffff8c
     de0:	01000008 	tsteq	r0, r8
     de4:	103c0daf 	eorsne	r0, ip, pc, lsr #27
     de8:	00380000 	eorseq	r0, r8, r0
     dec:	9c010000 	stcls	0, cr0, [r1], {-0}
     df0:	0000069f 	muleq	r0, pc, r6	; <UNPREDICTABLE>
     df4:	0008401c 	andeq	r4, r8, ip, lsl r0
     df8:	1daf0100 	stfnes	f0, [pc]	; e00 <UARTConfigSetExpClk+0x14>
     dfc:	00000186 	andeq	r0, r0, r6, lsl #3
     e00:	00749102 	rsbseq	r9, r4, r2, lsl #2
     e04:	00061d1b 	andeq	r1, r6, fp, lsl sp
     e08:	0d980100 	ldfeqs	f0, [r8]
     e0c:	00000fac 	andeq	r0, r0, ip, lsr #31
     e10:	00000090 	muleq	r0, r0, r0
     e14:	06c59c01 	strbeq	r9, [r5], r1, lsl #24
     e18:	2b1e0000 	blcs	780e20 <_etext+0x77eed1>
     e1c:	01000009 	tsteq	r0, r9
     e20:	00571c99 			; <UNDEFINED> instruction: 0x00571c99
     e24:	91020000 	mrsls	r0, (UNDEF: 2)
     e28:	bf200077 	svclt	0x00200077
     e2c:	01000005 	tsteq	r0, r5
     e30:	0f580d86 	svceq	0x00580d86
     e34:	00540000 	subseq	r0, r4, r0
     e38:	9c010000 	stcls	0, cr0, [r1], {-0}
     e3c:	0006611b 	andeq	r6, r6, fp, lsl r1
     e40:	0d820100 	stfeqs	f0, [r2]
     e44:	00000f38 	andeq	r0, r0, r8, lsr pc
     e48:	00000020 	andeq	r0, r0, r0, lsr #32
     e4c:	06fd9c01 	ldrbteq	r9, [sp], r1, lsl #24
     e50:	761c0000 	ldrvc	r0, [ip], -r0
     e54:	01000007 	tsteq	r0, r7
     e58:	00502e82 	subseq	r2, r0, r2, lsl #29
     e5c:	91020000 	mrsls	r0, (UNDEF: 2)
     e60:	5e200077 	mcrpl	0, 1, r0, cr0, cr7, {3}
     e64:	01000008 	tsteq	r0, r8
     e68:	0f180d7e 	svceq	0x00180d7e
     e6c:	00200000 	eoreq	r0, r0, r0
     e70:	9c010000 	stcls	0, cr0, [r1], {-0}
     e74:	00097f20 	andeq	r7, r9, r0, lsr #30
     e78:	0d7a0100 	ldfeqe	f0, [sl, #-0]
     e7c:	00000ef8 	strdeq	r0, [r0], -r8
     e80:	00000020 	andeq	r0, r0, r0, lsr #32
     e84:	8d219c01 	stchi	12, cr9, [r1, #-4]!
     e88:	01000005 	tsteq	r0, r5
     e8c:	0e4c0d65 	cdpeq	13, 4, cr0, cr12, cr5, {3}
     e90:	00ac0000 	adceq	r0, ip, r0
     e94:	9c010000 	stcls	0, cr0, [r1], {-0}
     e98:	00092b1e 	andeq	r2, r9, lr, lsl fp
     e9c:	1c660100 	stfnee	f0, [r6], #-0
     ea0:	00000057 	andeq	r0, r0, r7, asr r0
     ea4:	00779102 	rsbseq	r9, r7, r2, lsl #2
     ea8:	0007e800 	andeq	lr, r7, r0, lsl #16
     eac:	73000400 	movwvc	r0, #1024	; 0x400
     eb0:	04000005 	streq	r0, [r0], #-5
     eb4:	00021e01 	andeq	r1, r2, r1, lsl #28
     eb8:	0ab30c00 	beq	fecc3ec0 <_ebss+0xdecc3da0>
     ebc:	000a0000 	andeq	r0, sl, r0
     ec0:	01500000 	cmpeq	r0, r0
     ec4:	00000000 	andeq	r0, r0, r0
     ec8:	0e0c0000 	cdpeq	0, 0, cr0, cr12, cr0, {0}
     ecc:	01020000 	mrseq	r0, (UNDEF: 2)
     ed0:	00018506 	andeq	r8, r1, r6, lsl #10
     ed4:	08010200 	stmdaeq	r1, {r9}
     ed8:	00000183 	andeq	r0, r0, r3, lsl #3
     edc:	00002c03 	andeq	r2, r0, r3, lsl #24
     ee0:	05020200 	streq	r0, [r2, #-512]	; 0xfffffe00
     ee4:	00000084 	andeq	r0, r0, r4, lsl #1
     ee8:	fd070202 	stc2	2, cr0, [r7, #-8]
     eec:	03000001 	movweq	r0, #1
     ef0:	0000003f 	andeq	r0, r0, pc, lsr r0
     ef4:	25050402 	strcs	r0, [r5, #-1026]	; 0xfffffbfe
     ef8:	02000001 	andeq	r0, r0, #1
     efc:	01b20704 			; <UNDEFINED> instruction: 0x01b20704
     f00:	08020000 	stmdaeq	r2, {}	; <UNPREDICTABLE>
     f04:	00012005 	andeq	r2, r1, r5
     f08:	07080200 	streq	r0, [r8, -r0, lsl #4]
     f0c:	000001ad 	andeq	r0, r0, sp, lsr #3
     f10:	69050404 	stmdbvs	r5, {r2, sl}
     f14:	0200746e 	andeq	r7, r0, #1845493760	; 0x6e000000
     f18:	01b70704 			; <UNDEFINED> instruction: 0x01b70704
     f1c:	4f050000 	svcmi	0x00050000
     f20:	07000009 	streq	r0, [r0, -r9]
     f24:	00002c01 	andeq	r2, r0, r1, lsl #24
     f28:	0e090200 	cdpeq	2, 0, cr0, cr9, cr0, {0}
     f2c:	000000a0 	andeq	r0, r0, r0, lsr #1
     f30:	00060306 	andeq	r0, r6, r6, lsl #6
     f34:	16060000 	strne	r0, [r6], -r0
     f38:	01000008 	tsteq	r0, r8
     f3c:	0007eb06 	andeq	lr, r7, r6, lsl #22
     f40:	63060200 	movwvs	r0, #25088	; 0x6200
     f44:	03000009 	movweq	r0, #9
     f48:	07c90700 	strbeq	r0, [r9, r0, lsl #14]
     f4c:	0e020000 	cdpeq	0, 0, cr0, cr2, cr0, {0}
     f50:	00007503 	andeq	r7, r0, r3, lsl #10
     f54:	021c0800 	andseq	r0, ip, #0, 16
     f58:	01110910 	tsteq	r1, r0, lsl r9
     f5c:	5f090000 	svcpl	0x00090000
     f60:	02000005 	andeq	r0, r0, #5
     f64:	01120c11 	tsteq	r2, r1, lsl ip
     f68:	09000000 	stmdbeq	r0, {}	; <UNPREDICTABLE>
     f6c:	00000846 	andeq	r0, r0, r6, asr #16
     f70:	280c1202 	stmdacs	ip, {r1, r9, ip}
     f74:	04000001 	streq	r0, [r0], #-1
     f78:	0008ea09 	andeq	lr, r8, r9, lsl #20
     f7c:	0c130200 	lfmeq	f0, 4, [r3], {-0}
     f80:	00000128 	andeq	r0, r0, r8, lsr #2
     f84:	07230908 	streq	r0, [r3, -r8, lsl #18]!
     f88:	14020000 	strne	r0, [r2], #-0
     f8c:	0001390c 	andeq	r3, r1, ip, lsl #18
     f90:	af090c00 	svcge	0x00090c00
     f94:	02000007 	andeq	r0, r0, #7
     f98:	01390c15 	teqeq	r9, r5, lsl ip
     f9c:	09100000 	ldmdbeq	r0, {}	; <UNPREDICTABLE>
     fa0:	00000889 	andeq	r0, r0, r9, lsl #17
     fa4:	120c1602 	andne	r1, ip, #2097152	; 0x200000
     fa8:	14000001 	strne	r0, [r0], #-1
     fac:	0005e109 	andeq	lr, r5, r9, lsl #2
     fb0:	0c170200 	lfmeq	f0, 4, [r7], {-0}
     fb4:	0000014f 	andeq	r0, r0, pc, asr #2
     fb8:	0b0a0018 	bleq	281020 <_etext+0x27f0d1>
     fbc:	00011104 	andeq	r1, r1, r4, lsl #2
     fc0:	01280c00 			; <UNDEFINED> instruction: 0x01280c00
     fc4:	6e0d0000 	cdpvs	0, 0, cr0, cr13, cr0, {0}
     fc8:	0d000000 	stceq	0, cr0, [r0, #-0]
     fcc:	0000003f 	andeq	r0, r0, pc, lsr r0
     fd0:	18040b00 	stmdane	r4, {r8, r9, fp}
     fd4:	0c000001 	stceq	0, cr0, [r0], {1}
     fd8:	00000139 	andeq	r0, r0, r9, lsr r1
     fdc:	00006e0d 	andeq	r6, r0, sp, lsl #28
     fe0:	040b0000 	streq	r0, [fp], #-0
     fe4:	0000012e 	andeq	r0, r0, lr, lsr #2
     fe8:	00014f0c 	andeq	r4, r1, ip, lsl #30
     fec:	006e0d00 	rsbeq	r0, lr, r0, lsl #26
     ff0:	6e0d0000 	cdpvs	0, 0, cr0, cr13, cr0, {0}
     ff4:	00000000 	andeq	r0, r0, r0
     ff8:	013f040b 	teqeq	pc, fp, lsl #8
     ffc:	cc070000 	stcgt	0, cr0, [r7], {-0}
    1000:	02000008 	andeq	r0, r0, #8
    1004:	00ac0318 	adceq	r0, ip, r8, lsl r3
    1008:	55030000 	strpl	r0, [r3, #-0]
    100c:	08000001 	stmdaeq	r0, {r0}
    1010:	091a0208 	ldmdbeq	sl, {r3, r9}
    1014:	000001b1 			; <UNDEFINED> instruction: 0x000001b1
    1018:	000a5709 	andeq	r5, sl, r9, lsl #14
    101c:	131b0200 	tstne	fp, #0, 4
    1020:	0000002c 	andeq	r0, r0, ip, lsr #32
    1024:	0b900900 	bleq	fe40342c <_ebss+0xde40330c>
    1028:	1c020000 	stcne	0, cr0, [r2], {-0}
    102c:	00002c13 	andeq	r2, r0, r3, lsl ip
    1030:	2f090100 	svccs	0x00090100
    1034:	0200000a 	andeq	r0, r0, #10
    1038:	003f141d 	eorseq	r1, pc, sp, lsl r4	; <UNPREDICTABLE>
    103c:	09020000 	stmdbeq	r2, {}	; <UNPREDICTABLE>
    1040:	000009ca 	andeq	r0, r0, sl, asr #19
    1044:	3f141e02 	svccc	0x00141e02
    1048:	04000000 	streq	r0, [r0], #-0
    104c:	000c4909 	andeq	r4, ip, r9, lsl #18
    1050:	141f0200 	ldrne	r0, [pc], #-512	; 1058 <FlushRxFifo+0x1c>
    1054:	0000003f 	andeq	r0, r0, pc, lsr r0
    1058:	f9070006 			; <UNDEFINED> instruction: 0xf9070006
    105c:	0200000a 	andeq	r0, r0, #10
    1060:	01660320 	cmneq	r6, r0, lsr #6
    1064:	b1030000 	mrslt	r0, (UNDEF: 3)
    1068:	0e000001 	cdpeq	0, 0, cr0, cr0, cr1, {0}
    106c:	002c0107 	eoreq	r0, ip, r7, lsl #2
    1070:	77020000 	strvc	r0, [r2, -r0]
    1074:	0001e90e 	andeq	lr, r1, lr, lsl #18
    1078:	002d0600 	eoreq	r0, sp, r0, lsl #12
    107c:	06000000 	streq	r0, [r0], -r0
    1080:	000001d1 	ldrdeq	r0, [r0], -r1
    1084:	01670601 	cmneq	r7, r1, lsl #12
    1088:	06020000 	streq	r0, [r2], -r0
    108c:	0000008e 	andeq	r0, r0, lr, lsl #1
    1090:	e2070003 	and	r0, r7, #3
    1094:	02000000 	andeq	r0, r0, #0
    1098:	01c2037c 	biceq	r0, r2, ip, ror r3
    109c:	070e0000 	streq	r0, [lr, -r0]
    10a0:	00002c01 	andeq	r2, r0, r1, lsl #24
    10a4:	0e7e0200 	cdpeq	2, 7, cr0, cr14, cr0, {0}
    10a8:	0000022e 	andeq	r0, r0, lr, lsr #4
    10ac:	00032e06 	andeq	r2, r3, r6, lsl #28
    10b0:	c7060000 	strgt	r0, [r6, -r0]
    10b4:	01000000 	mrseq	r0, (UNDEF: 0)
    10b8:	00013c06 	andeq	r3, r1, r6, lsl #24
    10bc:	55060200 	strpl	r0, [r6, #-512]	; 0xfffffe00
    10c0:	03000000 	movweq	r0, #0
    10c4:	00035e06 	andeq	r5, r3, r6, lsl #28
    10c8:	03060400 	movweq	r0, #25600	; 0x6400
    10cc:	05000003 	streq	r0, [r0, #-3]
    10d0:	00019106 	andeq	r9, r1, r6, lsl #2
    10d4:	07000600 	streq	r0, [r0, -r0, lsl #12]
    10d8:	00000346 	andeq	r0, r0, r6, asr #6
    10dc:	f5038602 			; <UNDEFINED> instruction: 0xf5038602
    10e0:	08000001 	stmdaeq	r0, {r0}
    10e4:	09880212 	stmibeq	r8, {r1, r4, r9}
    10e8:	000002fa 	strdeq	r0, [r0], -sl
    10ec:	000c0409 	andeq	r0, ip, r9, lsl #8
    10f0:	15890200 	strne	r0, [r9, #512]	; 0x200
    10f4:	0000002c 	andeq	r0, r0, ip, lsr #32
    10f8:	0ad90900 	beq	ff643500 <_ebss+0xdf6433e0>
    10fc:	8a020000 	bhi	81104 <_etext+0x7f1b5>
    1100:	00002c15 	andeq	r2, r0, r5, lsl ip
    1104:	65090100 	strvs	r0, [r9, #-256]	; 0xffffff00
    1108:	0200000a 	andeq	r0, r0, #10
    110c:	003f158b 	eorseq	r1, pc, fp, lsl #11
    1110:	09020000 	stmdbeq	r2, {}	; <UNPREDICTABLE>
    1114:	00000bcc 	andeq	r0, r0, ip, asr #23
    1118:	2c158c02 	ldccs	12, cr8, [r5], {2}
    111c:	04000000 	streq	r0, [r0], #-0
    1120:	000a7b09 	andeq	r7, sl, r9, lsl #22
    1124:	158d0200 	strne	r0, [sp, #512]	; 0x200
    1128:	0000002c 	andeq	r0, r0, ip, lsr #32
    112c:	0b800905 	bleq	fe003548 <_ebss+0xde003428>
    1130:	8e020000 	cdphi	0, 0, cr0, cr2, cr0, {0}
    1134:	00002c15 	andeq	r2, r0, r5, lsl ip
    1138:	35090600 	strcc	r0, [r9, #-1536]	; 0xfffffa00
    113c:	0200000b 	andeq	r0, r0, #11
    1140:	002c158f 	eoreq	r1, ip, pc, lsl #11
    1144:	09070000 	stmdbeq	r7, {}	; <UNPREDICTABLE>
    1148:	00000c78 	andeq	r0, r0, r8, ror ip
    114c:	3f159002 	svccc	0x00159002
    1150:	08000000 	stmdaeq	r0, {}	; <UNPREDICTABLE>
    1154:	000a4d09 	andeq	r4, sl, r9, lsl #26
    1158:	15910200 	ldrne	r0, [r1, #512]	; 0x200
    115c:	0000003f 	andeq	r0, r0, pc, lsr r0
    1160:	0a25090a 	beq	943590 <_etext+0x941641>
    1164:	92020000 	andls	r0, r2, #0
    1168:	00003f15 	andeq	r3, r0, r5, lsl pc
    116c:	36090c00 	strcc	r0, [r9], -r0, lsl #24
    1170:	0200000a 	andeq	r0, r0, #10
    1174:	002c1593 	mlaeq	ip, r3, r5, r1
    1178:	090e0000 	stmdbeq	lr, {}	; <UNPREDICTABLE>
    117c:	00000a44 	andeq	r0, r0, r4, asr #20
    1180:	2c159402 	cfldrscs	mvf9, [r5], {2}
    1184:	0f000000 	svceq	0x00000000
    1188:	000a9809 	andeq	r9, sl, r9, lsl #16
    118c:	15950200 	ldrne	r0, [r5, #512]	; 0x200
    1190:	0000002c 	andeq	r0, r0, ip, lsr #32
    1194:	0bb90910 	bleq	fee435dc <_ebss+0xdee434bc>
    1198:	96020000 	strls	r0, [r2], -r0
    119c:	00002c15 	andeq	r2, r0, r5, lsl ip
    11a0:	07001100 	streq	r1, [r0, -r0, lsl #2]
    11a4:	00000a05 	andeq	r0, r0, r5, lsl #20
    11a8:	3a1f9702 	bcc	7e6db8 <_etext+0x7e4e69>
    11ac:	03000002 	movweq	r0, #2
    11b0:	000002fa 	strdeq	r0, [r0], -sl
    11b4:	0006410f 	andeq	r4, r6, pc, lsl #2
    11b8:	1b031000 	blne	c51c0 <_etext+0xc3271>
    11bc:	00035a08 	andeq	r5, r3, r8, lsl #20
    11c0:	09b90900 	ldmibeq	r9!, {r8, fp}
    11c4:	1c030000 	stcne	0, cr0, [r3], {-0}
    11c8:	0000a015 	andeq	sl, r0, r5, lsl r0
    11cc:	84090000 	strhi	r0, [r9], #-0
    11d0:	03000006 	movweq	r0, #6
    11d4:	035a0d1d 	cmpeq	sl, #1856	; 0x740
    11d8:	09010000 	stmdbeq	r1, {}	; <UNPREDICTABLE>
    11dc:	000009ab 	andeq	r0, r0, fp, lsr #19
    11e0:	670d1e03 	strvs	r1, [sp, -r3, lsl #28]
    11e4:	04000000 	streq	r0, [r0], #-0
    11e8:	00090a09 	andeq	r0, r9, r9, lsl #20
    11ec:	0d1f0300 	ldceq	3, cr0, [pc, #-0]	; 11f4 <ConfigureTxRxFIFOSize+0x6c>
    11f0:	00000067 	andeq	r0, r0, r7, rrx
    11f4:	08a00908 	stmiaeq	r0!, {r3, r8, fp}
    11f8:	20030000 	andcs	r0, r3, r0
    11fc:	0000670d 	andeq	r6, r0, sp, lsl #14
    1200:	02000c00 	andeq	r0, r0, #0, 24
    1204:	02c20201 	sbceq	r0, r2, #268435456	; 0x10000000
    1208:	3c080000 	stccc	0, cr0, [r8], {-0}
    120c:	2e092a03 	vmlacs.f32	s4, s18, s6
    1210:	09000004 	stmdbeq	r0, {r2}
    1214:	00000674 	andeq	r0, r0, r4, ror r6
    1218:	120c2b03 	andne	r2, ip, #3072	; 0xc00
    121c:	00000001 	andeq	r0, r0, r1
    1220:	00091609 	andeq	r1, r9, r9, lsl #12
    1224:	0c2c0300 	stceq	3, cr0, [ip], #-0
    1228:	00000112 	andeq	r0, r0, r2, lsl r1
    122c:	08670904 	stmdaeq	r7!, {r2, r8, fp}^
    1230:	2d030000 	stccs	0, cr0, [r3, #-0]
    1234:	0001120c 	andeq	r1, r1, ip, lsl #4
    1238:	95090800 	strls	r0, [r9, #-2048]	; 0xfffff800
    123c:	03000009 	movweq	r0, #9
    1240:	01120c2e 	tsteq	r2, lr, lsr #24
    1244:	090c0000 	stmdbeq	ip, {}	; <UNPREDICTABLE>
    1248:	00000552 	andeq	r0, r0, r2, asr r5
    124c:	390c2f03 	stmdbcc	ip, {r0, r1, r8, r9, sl, fp, sp}
    1250:	10000004 	andne	r0, r0, r4
    1254:	00077e09 	andeq	r7, r7, r9, lsl #28
    1258:	0c300300 	ldceq	3, cr0, [r0], #-0
    125c:	00000439 	andeq	r0, r0, r9, lsr r4
    1260:	06960914 			; <UNDEFINED> instruction: 0x06960914
    1264:	31030000 	mrscc	r0, (UNDEF: 3)
    1268:	00044f0c 	andeq	r4, r4, ip, lsl #30
    126c:	c2091800 	andgt	r1, r9, #0, 16
    1270:	03000006 	movweq	r0, #6
    1274:	044f0c32 	strbeq	r0, [pc], #-3122	; 127c <ConfigureTxRxFIFOSize+0xf4>
    1278:	091c0000 	ldmdbeq	ip, {}	; <UNPREDICTABLE>
    127c:	00000934 	andeq	r0, r0, r4, lsr r9
    1280:	710c3303 	tstvc	ip, r3, lsl #6
    1284:	20000004 	andcs	r0, r0, r4
    1288:	00075709 	andeq	r5, r7, r9, lsl #14
    128c:	0c340300 	ldceq	3, cr0, [r4], #-0
    1290:	0000048d 	andeq	r0, r0, sp, lsl #9
    1294:	05810924 	streq	r0, [r1, #2340]	; 0x924
    1298:	35030000 	strcc	r0, [r3, #-0]
    129c:	0004710c 	andeq	r7, r4, ip, lsl #2
    12a0:	6b092800 	blvs	24b2a8 <_etext+0x249359>
    12a4:	03000007 	movweq	r0, #7
    12a8:	049e0c36 	ldreq	r0, [lr], #3126	; 0xc36
    12ac:	092c0000 	stmdbeq	ip!, {}	; <UNPREDICTABLE>
    12b0:	00000802 	andeq	r0, r0, r2, lsl #16
    12b4:	ba0c3703 	blt	30eec8 <_etext+0x30cf79>
    12b8:	30000004 	andcc	r0, r0, r4
    12bc:	00098d09 	andeq	r8, r9, r9, lsl #26
    12c0:	0c380300 	ldceq	3, cr0, [r8], #-0
    12c4:	00000139 	andeq	r0, r0, r9, lsr r1
    12c8:	087a0934 	ldmdaeq	sl!, {r2, r4, r5, r8, fp}^
    12cc:	39030000 	stmdbcc	r3, {}	; <UNPREDICTABLE>
    12d0:	0004cb0c 	andeq	ip, r4, ip, lsl #22
    12d4:	0c003800 	stceq	8, cr3, [r0], {-0}
    12d8:	00000439 	andeq	r0, r0, r9, lsr r4
    12dc:	0000670d 	andeq	r6, r0, sp, lsl #14
    12e0:	040b0000 	streq	r0, [fp], #-0
    12e4:	0000042e 	andeq	r0, r0, lr, lsr #8
    12e8:	00044f0c 	andeq	r4, r4, ip, lsl #30
    12ec:	00670d00 	rsbeq	r0, r7, r0, lsl #26
    12f0:	0b0d0000 	bleq	3412f8 <_etext+0x33f3a9>
    12f4:	00000003 	andeq	r0, r0, r3
    12f8:	043f040b 	ldrteq	r0, [pc], #-1035	; 1300 <writeTxFIFO+0x38>
    12fc:	6a0c0000 	bvs	301304 <_etext+0x2ff3b5>
    1300:	0d000004 	stceq	0, cr0, [r0, #-16]
    1304:	0000006e 	andeq	r0, r0, lr, rrx
    1308:	00046a0d 	andeq	r6, r4, sp, lsl #20
    130c:	003f0d00 	eorseq	r0, pc, r0, lsl #26
    1310:	0b000000 	bleq	1318 <writeTxFIFO+0x50>
    1314:	00047004 	andeq	r7, r4, r4
    1318:	040b1000 	streq	r1, [fp], #-0
    131c:	00000455 	andeq	r0, r0, r5, asr r4
    1320:	0004870c 	andeq	r8, r4, ip, lsl #14
    1324:	00670d00 	rsbeq	r0, r7, r0, lsl #26
    1328:	870d0000 	strhi	r0, [sp, -r0]
    132c:	00000004 	andeq	r0, r0, r4
    1330:	006e040b 	rsbeq	r0, lr, fp, lsl #8
    1334:	040b0000 	streq	r0, [fp], #-0
    1338:	00000477 	andeq	r0, r0, r7, ror r4
    133c:	00049e0c 	andeq	r9, r4, ip, lsl #28
    1340:	002c0d00 	eoreq	r0, ip, r0, lsl #26
    1344:	0b000000 	bleq	134c <readRxFIFO+0x10>
    1348:	00049304 	andeq	r9, r4, r4, lsl #6
    134c:	04b40c00 	ldrteq	r0, [r4], #3072	; 0xc00
    1350:	6e0d0000 	cdpvs	0, 0, cr0, cr13, cr0, {0}
    1354:	0d000000 	stceq	0, cr0, [r0, #-0]
    1358:	000004b4 			; <UNDEFINED> instruction: 0x000004b4
    135c:	3f040b00 	svccc	0x00040b00
    1360:	0b000000 	bleq	1368 <readRxFIFO+0x2c>
    1364:	0004a404 	andeq	sl, r4, r4, lsl #8
    1368:	04cb0c00 	strbeq	r0, [fp], #3072	; 0xc00
    136c:	870d0000 	strhi	r0, [sp, -r0]
    1370:	00000004 	andeq	r0, r0, r4
    1374:	04c0040b 	strbeq	r0, [r0], #1035	; 0x40b
    1378:	c0070000 	andgt	r0, r7, r0
    137c:	03000009 	movweq	r0, #9
    1380:	0361033a 	cmneq	r1, #-402653184	; 0xe8000000
    1384:	d1030000 	mrsle	r0, (UNDEF: 3)
    1388:	11000004 	tstne	r0, r4
    138c:	000008ff 	strdeq	r0, [r0], -pc	; <UNPREDICTABLE>
    1390:	dd183c03 	ldcle	12, cr3, [r8, #-12]
    1394:	11000004 	tstne	r0, r4
    1398:	000005d6 	ldrdeq	r0, [r0], -r6
    139c:	61183d03 	tstvs	r8, r3, lsl #26
    13a0:	08000001 	stmdaeq	r0, {r0}
    13a4:	090a0414 	stmdbeq	sl, {r2, r4, sl}
    13a8:	0000055f 	andeq	r0, r0, pc, asr r5
    13ac:	00010509 	andeq	r0, r1, r9, lsl #10
    13b0:	140b0400 	strne	r0, [fp], #-1024	; 0xfffffc00
    13b4:	000001e9 	andeq	r0, r0, r9, ror #3
    13b8:	0b4d0900 	bleq	13437c0 <_etext+0x1341871>
    13bc:	0c040000 	stceq	0, cr0, [r4], {-0}
    13c0:	00022e1d 	andeq	r2, r2, sp, lsl lr
    13c4:	f1090100 			; <UNDEFINED> instruction: 0xf1090100
    13c8:	04000000 	streq	r0, [r0], #-0
    13cc:	002c130d 	eoreq	r1, ip, sp, lsl #6
    13d0:	09020000 	stmdbeq	r2, {}	; <UNPREDICTABLE>
    13d4:	00000046 	andeq	r0, r0, r6, asr #32
    13d8:	6a110e04 	bvs	444bf0 <_etext+0x442ca1>
    13dc:	04000004 	streq	r0, [r0], #-4
    13e0:	00012e09 	andeq	r2, r1, r9, lsl #28
    13e4:	120f0400 	andne	r0, pc, #0, 8
    13e8:	0000006e 	andeq	r0, r0, lr, rrx
    13ec:	02100908 	andseq	r0, r0, #8, 18	; 0x20000
    13f0:	10040000 	andne	r0, r4, r0
    13f4:	00046a11 	andeq	r6, r4, r1, lsl sl
    13f8:	c4090c00 	strgt	r0, [r9], #-3072	; 0xfffff400
    13fc:	04000001 	streq	r0, [r0], #-1
    1400:	006e1211 	rsbeq	r1, lr, r1, lsl r2
    1404:	00100000 	andseq	r0, r0, r0
    1408:	0002d407 	andeq	sp, r2, r7, lsl #8
    140c:	03120400 	tsteq	r2, #0, 8
    1410:	000004fa 	strdeq	r0, [r0], -sl
    1414:	000a1312 	andeq	r1, sl, r2, lsl r3
    1418:	15090500 	strne	r0, [r9, #-1280]	; 0xfffffb00
    141c:	00000306 	andeq	r0, r0, r6, lsl #6
    1420:	1cdc0305 	ldclne	3, cr0, [ip], {5}
    1424:	19130000 	ldmdbne	r3, {}	; <UNPREDICTABLE>
    1428:	0100000b 	tsteq	r0, fp
    142c:	058f130e 	streq	r1, [pc, #782]	; 1742 <process_control_transfer_stage+0x6>
    1430:	03050000 	movweq	r0, #20480	; 0x5000
    1434:	2000011c 	andcs	r0, r0, ip, lsl r1
    1438:	055f040b 	ldrbeq	r0, [pc, #-1035]	; 1035 <USBDeviceInit+0x89>
    143c:	ee140000 	cdp	0, 1, cr0, cr4, cr0, {0}
    1440:	01000004 	tsteq	r0, r4
    1444:	0305110f 	movweq	r1, #20751	; 0x510f
    1448:	00001cf0 	strdeq	r1, [r0], -r0
    144c:	000c1715 	andeq	r1, ip, r5, lsl r7
    1450:	06d30100 	ldrbeq	r0, [r3], r0, lsl #2
    1454:	0000198c 	andeq	r1, r0, ip, lsl #19
    1458:	0000002c 	andeq	r0, r0, ip, lsr #32
    145c:	05c99c01 	strbeq	r9, [r9, #3073]	; 0xc01
    1460:	41130000 	tstmi	r3, r0
    1464:	01000009 	tsteq	r0, r9
    1468:	006e12d4 	ldrdeq	r1, [lr], #-36	; 0xffffffdc	; <UNPREDICTABLE>
    146c:	91020000 	mrsls	r0, (UNDEF: 2)
    1470:	64160074 	ldrvs	r0, [r6], #-116	; 0xffffff8c
    1474:	0100000c 	tsteq	r0, ip
    1478:	18dc0d9a 	ldmne	ip, {r1, r3, r4, r7, r8, sl, fp}^
    147c:	00b00000 	adcseq	r0, r0, r0
    1480:	9c010000 	stcls	0, cr0, [r1], {-0}
    1484:	0000063a 	andeq	r0, r0, sl, lsr r6
    1488:	00084017 	andeq	r4, r8, r7, lsl r0
    148c:	2e9a0100 	fmlcse	f0, f2, f0
    1490:	0000006e 	andeq	r0, r0, lr, rrx
    1494:	17649102 	strbne	r9, [r4, -r2, lsl #2]!
    1498:	00000a8b 	andeq	r0, r0, fp, lsl #21
    149c:	6e429a01 	vmlavs.f32	s19, s4, s2
    14a0:	02000000 	andeq	r0, r0, #0
    14a4:	6c136091 	ldcvs	0, cr6, [r3], {145}	; 0x91
    14a8:	0100000a 	tsteq	r0, sl
    14ac:	006e129b 	mlseq	lr, fp, r2, r1
    14b0:	91020000 	mrsls	r0, (UNDEF: 2)
    14b4:	0c2a1370 	stceq	3, cr1, [sl], #-448	; 0xfffffe40
    14b8:	9c010000 	stcls	0, cr0, [r1], {-0}
    14bc:	00002c13 	andeq	r2, r0, r3, lsl ip
    14c0:	77910200 	ldrvc	r0, [r1, r0, lsl #4]
    14c4:	00074713 	andeq	r4, r7, r3, lsl r7
    14c8:	149d0100 	ldrne	r0, [sp], #256	; 0x100
    14cc:	0000003f 	andeq	r0, r0, pc, lsr r0
    14d0:	186e9102 	stmdane	lr!, {r1, r8, ip, pc}^
    14d4:	00000aa6 	andeq	r0, r0, r6, lsr #21
    14d8:	0000064a 	andeq	r0, r0, sl, asr #12
    14dc:	1eb80305 	cdpne	3, 11, cr0, cr8, cr5, {0}
    14e0:	19000000 	stmdbne	r0, {}	; <UNPREDICTABLE>
    14e4:	00000656 	andeq	r0, r0, r6, asr r6
    14e8:	0000064a 	andeq	r0, r0, sl, asr #12
    14ec:	00006e1a 	andeq	r6, r0, sl, lsl lr
    14f0:	03001300 	movweq	r1, #768	; 0x300
    14f4:	0000063a 	andeq	r0, r0, sl, lsr r6
    14f8:	8c080102 	stfhis	f0, [r8], {2}
    14fc:	03000001 	movweq	r0, #1
    1500:	0000064f 	andeq	r0, r0, pc, asr #12
    1504:	000b6416 	andeq	r6, fp, r6, lsl r4
    1508:	0d840100 	stfeqs	f0, [r4]
    150c:	00001884 	andeq	r1, r0, r4, lsl #17
    1510:	00000058 	andeq	r0, r0, r8, asr r0
    1514:	06b29c01 	ldrteq	r9, [r2], r1, lsl #24
    1518:	40170000 	andsmi	r0, r7, r0
    151c:	01000008 	tsteq	r0, r8
    1520:	006e3684 	rsbeq	r3, lr, r4, lsl #13
    1524:	91020000 	mrsls	r0, (UNDEF: 2)
    1528:	0c511774 	mrrceq	7, 7, r1, r1, cr4	; <UNPREDICTABLE>
    152c:	84010000 	strhi	r0, [r1], #-0
    1530:	00003f4c 	andeq	r3, r0, ip, asr #30
    1534:	72910200 	addsvc	r0, r1, #0, 4
    1538:	0018981b 	andseq	r9, r8, fp, lsl r8
    153c:	00002e00 	andeq	r2, r0, r0, lsl #28
    1540:	0b041100 	bleq	105948 <_etext+0x1039f9>
    1544:	86010000 	strhi	r0, [r1], -r0
    1548:	0006b21e 	andeq	fp, r6, lr, lsl r2
    154c:	0c5c1100 	ldfeqe	f1, [ip], {-0}
    1550:	87010000 	strhi	r0, [r1, -r0]
    1554:	00002c1e 	andeq	r2, r0, lr, lsl ip
    1558:	19000000 	stmdbne	r0, {}	; <UNPREDICTABLE>
    155c:	0000002c 	andeq	r0, r0, ip, lsr #32
    1560:	000006c3 	andeq	r0, r0, r3, asr #13
    1564:	00006e1c 	andeq	r6, r0, ip, lsl lr
    1568:	0003ff00 	andeq	pc, r3, r0, lsl #30
    156c:	0009e716 	andeq	lr, r9, r6, lsl r7
    1570:	0d700100 	ldfeqe	f0, [r0, #-0]
    1574:	00001824 	andeq	r1, r0, r4, lsr #16
    1578:	00000060 	andeq	r0, r0, r0, rrx
    157c:	06e99c01 	strbteq	r9, [r9], r1, lsl #24
    1580:	d9170000 	ldmdble	r7, {}	; <UNPREDICTABLE>
    1584:	0100000b 	tsteq	r0, fp
    1588:	006e3870 	rsbeq	r3, lr, r0, ror r8
    158c:	91020000 	mrsls	r0, (UNDEF: 2)
    1590:	451d0074 	ldrmi	r0, [sp, #-116]	; 0xffffff8c
    1594:	0100000b 	tsteq	r0, fp
    1598:	173c0d4d 	ldrne	r0, [ip, -sp, asr #26]!
    159c:	00e80000 	rsceq	r0, r8, r0
    15a0:	9c010000 	stcls	0, cr0, [r1], {-0}
    15a4:	00000719 	andeq	r0, r0, r9, lsl r7
    15a8:	00176c1b 	andseq	r6, r7, fp, lsl ip
    15ac:	00009800 	andeq	r9, r0, r0, lsl #16
    15b0:	01c71300 	biceq	r1, r7, r0, lsl #6
    15b4:	53010000 	movwpl	r0, #4096	; 0x1000
    15b8:	00002c1b 	andeq	r2, r0, fp, lsl ip
    15bc:	77910200 	ldrvc	r0, [r1, r0, lsl #4]
    15c0:	e9160000 	ldmdb	r6, {}	; <UNPREDICTABLE>
    15c4:	0100000a 	tsteq	r0, sl
    15c8:	170c0d42 	strne	r0, [ip, -r2, asr #26]
    15cc:	00300000 	eorseq	r0, r0, r0
    15d0:	9c010000 	stcls	0, cr0, [r1], {-0}
    15d4:	0000073f 	andeq	r0, r0, pc, lsr r7
    15d8:	000bb113 	andeq	fp, fp, r3, lsl r1
    15dc:	17430100 	strbne	r0, [r3, -r0, lsl #2]
    15e0:	0000073f 	andeq	r0, r0, pc, lsr r7
    15e4:	00749102 	rsbseq	r9, r4, r2, lsl #2
    15e8:	01bd040b 			; <UNDEFINED> instruction: 0x01bd040b
    15ec:	99160000 	ldmdbls	r6, {}	; <UNPREDICTABLE>
    15f0:	0100000b 	tsteq	r0, fp
    15f4:	16880d2b 	strne	r0, [r8], fp, lsr #26
    15f8:	00840000 	addeq	r0, r4, r0
    15fc:	9c010000 	stcls	0, cr0, [r1], {-0}
    1600:	00000793 	muleq	r0, r3, r7
    1604:	000bb113 	andeq	fp, fp, r3, lsl r1
    1608:	172c0100 	strne	r0, [ip, -r0, lsl #2]!
    160c:	0000073f 	andeq	r0, r0, pc, lsr r7
    1610:	1b749102 	blne	1d25a20 <_etext+0x1d23ad1>
    1614:	0000169e 	muleq	r0, lr, r6
    1618:	0000004e 	andeq	r0, r0, lr, asr #32
    161c:	000b2513 	andeq	r2, fp, r3, lsl r5
    1620:	1d300100 	ldfnes	f0, [r0, #-0]
    1624:	00000033 	andeq	r0, r0, r3, lsr r0
    1628:	13739102 	cmnne	r3, #-2147483648	; 0x80000000
    162c:	00000c37 	andeq	r0, r0, r7, lsr ip
    1630:	461e3101 	ldrmi	r3, [lr], -r1, lsl #2
    1634:	02000000 	andeq	r0, r0, #0
    1638:	00007091 	muleq	r0, r1, r0
    163c:	000be91e 	andeq	lr, fp, lr, lsl r9
    1640:	0d210100 	stfeqs	f0, [r1, #-0]
    1644:	00001648 	andeq	r1, r0, r8, asr #12
    1648:	00000040 	andeq	r0, r0, r0, asr #32
    164c:	d11f9c01 	tstle	pc, r1, lsl #24
    1650:	01000009 	tsteq	r0, r9
    1654:	0000061d 	andeq	r0, r0, sp, lsl r6
    1658:	00140000 	andseq	r0, r4, r0
    165c:	9c010000 	stcls	0, cr0, [r1], {-0}
    1660:	000c0c1f 	andeq	r0, ip, pc, lsl ip
    1664:	06190100 	ldreq	r0, [r9], -r0, lsl #2
    1668:	00000000 	andeq	r0, r0, r0
    166c:	00000014 	andeq	r0, r0, r4, lsl r0
    1670:	10209c01 	eorne	r9, r0, r1, lsl #24
    1674:	0100000b 	tsteq	r0, fp
    1678:	16180611 			; <UNDEFINED> instruction: 0x16180611
    167c:	00300000 	eorseq	r0, r0, r0
    1680:	9c010000 	stcls	0, cr0, [r1], {-0}
    1684:	0009dc17 	andeq	sp, r9, r7, lsl ip
    1688:	1a110100 	bne	441a90 <_etext+0x43fb41>
    168c:	0000058f 	andeq	r0, r0, pc, lsl #11
    1690:	00749102 	rsbseq	r9, r4, r2, lsl #2
    1694:	00020500 	andeq	r0, r2, r0, lsl #10
    1698:	5a000400 	bpl	26a0 <_etext+0x751>
    169c:	04000007 	streq	r0, [r0], #-7
    16a0:	00021e01 	andeq	r1, r2, r1, lsl #28
    16a4:	0cee0c00 	stcleq	12, cr0, [lr]
    16a8:	000a0000 	andeq	r0, sl, r0
    16ac:	01b00000 	movseq	r0, r0
    16b0:	00000000 	andeq	r0, r0, r0
    16b4:	11260000 			; <UNDEFINED> instruction: 0x11260000
    16b8:	01020000 	mrseq	r0, (UNDEF: 2)
    16bc:	00018506 	andeq	r8, r1, r6, lsl #10
    16c0:	08010200 	stmdaeq	r1, {r9}
    16c4:	00000183 	andeq	r0, r0, r3, lsl #3
    16c8:	84050202 	strhi	r0, [r5], #-514	; 0xfffffdfe
    16cc:	02000000 	andeq	r0, r0, #0
    16d0:	01fd0702 	mvnseq	r0, r2, lsl #14
    16d4:	04020000 	streq	r0, [r2], #-0
    16d8:	00012505 	andeq	r2, r1, r5, lsl #10
    16dc:	07040200 	streq	r0, [r4, -r0, lsl #4]
    16e0:	000001b2 			; <UNDEFINED> instruction: 0x000001b2
    16e4:	20050802 	andcs	r0, r5, r2, lsl #16
    16e8:	02000001 	andeq	r0, r0, #1
    16ec:	01ad0708 			; <UNDEFINED> instruction: 0x01ad0708
    16f0:	04030000 	streq	r0, [r3], #-0
    16f4:	746e6905 	strbtvc	r6, [lr], #-2309	; 0xfffff6fb
    16f8:	07040200 	streq	r0, [r4, -r0, lsl #4]
    16fc:	000001b7 			; <UNDEFINED> instruction: 0x000001b7
    1700:	00050e04 	andeq	r0, r5, r4, lsl #28
    1704:	1b280200 	blne	a01f0c <_etext+0x9fffbd>
    1708:	00000077 	andeq	r0, r0, r7, ror r0
    170c:	00045d05 	andeq	r5, r4, r5, lsl #26
    1710:	00040400 	andeq	r0, r4, r0, lsl #8
    1714:	0000008e 	andeq	r0, r0, lr, lsl #1
    1718:	0004ad06 	andeq	sl, r4, r6, lsl #26
    171c:	00008e00 	andeq	r8, r0, r0, lsl #28
    1720:	07000000 	streq	r0, [r0, -r0]
    1724:	045f0404 	ldrbeq	r0, [pc], #-1028	; 172c <process_request+0x20>
    1728:	63020000 	movwvs	r0, #8192	; 0x2000
    172c:	00006b18 	andeq	r6, r0, r8, lsl fp
    1730:	01070800 	tsteq	r7, r0, lsl #16
    1734:	0000002c 	andeq	r0, r0, ip, lsr #32
    1738:	bd010a03 	vstrlt	s0, [r1, #-12]
    173c:	09000000 	stmdbeq	r0, {}	; <UNPREDICTABLE>
    1740:	00000d18 	andeq	r0, r0, r8, lsl sp
    1744:	0ca80900 			; <UNDEFINED> instruction: 0x0ca80900
    1748:	09010000 	stmdbeq	r1, {}	; <UNPREDICTABLE>
    174c:	00000d28 	andeq	r0, r0, r8, lsr #26
    1750:	be040002 	cdplt	0, 0, cr0, cr4, cr2, {0}
    1754:	0300000c 	movweq	r0, #12
    1758:	009c030e 	addseq	r0, ip, lr, lsl #6
    175c:	bd0a0000 	stclt	0, cr0, [sl, #-0]
    1760:	0b000000 	bleq	1768 <process_control_transfer_stage+0x2c>
    1764:	00000ce4 	andeq	r0, r0, r4, ror #25
    1768:	94063201 	strls	r3, [r6], #-513	; 0xfffffdff
    176c:	4400001a 	strmi	r0, [r0], #-26	; 0xffffffe6
    1770:	01000000 	mrseq	r0, (UNDEF: 0)
    1774:	0001049c 	muleq	r1, ip, r4
    1778:	0cdd0c00 	ldcleq	12, cr0, [sp], {0}
    177c:	32010000 	andcc	r0, r1, #0
    1780:	00010a23 	andeq	r0, r1, r3, lsr #20
    1784:	70910200 	addsvc	r0, r1, r0, lsl #4
    1788:	0ca30e0d 	stceq	14, cr0, [r3], #52	; 0x34
    178c:	33010000 	movwcc	r0, #4096	; 0x1000
    1790:	0000900d 	andeq	r9, r0, sp
    1794:	64910200 	ldrvs	r0, [r1], #512	; 0x200
    1798:	16040f00 	strne	r0, [r4], -r0, lsl #30
    179c:	0a000001 	beq	17a8 <process_control_transfer_stage+0x6c>
    17a0:	00000104 	andeq	r0, r0, r4, lsl #2
    17a4:	8c080102 	stfhis	f0, [r8], {2}
    17a8:	0a000001 	beq	17b4 <process_control_transfer_stage+0x78>
    17ac:	0000010f 	andeq	r0, r0, pc, lsl #2
    17b0:	000c890b 	andeq	r8, ip, fp, lsl #18
    17b4:	06290100 	strteq	r0, [r9], -r0, lsl #2
    17b8:	00000000 	andeq	r0, r0, r0
    17bc:	00000044 	andeq	r0, r0, r4, asr #32
    17c0:	01519c01 	cmpeq	r1, r1, lsl #24
    17c4:	dd0c0000 	stcle	0, cr0, [ip, #-0]
    17c8:	0100000c 	tsteq	r0, ip
    17cc:	010a2329 	tsteq	sl, r9, lsr #6
    17d0:	91020000 	mrsls	r0, (UNDEF: 2)
    17d4:	a30e0d70 	movwge	r0, #60784	; 0xed70
    17d8:	0100000c 	tsteq	r0, ip
    17dc:	00900d2a 	addseq	r0, r0, sl, lsr #26
    17e0:	91020000 	mrsls	r0, (UNDEF: 2)
    17e4:	0f0b0064 	svceq	0x000b0064
    17e8:	0100000d 	tsteq	r0, sp
    17ec:	1a500620 	bne	1403074 <_etext+0x1401125>
    17f0:	00440000 	subeq	r0, r4, r0
    17f4:	9c010000 	stcls	0, cr0, [r1], {-0}
    17f8:	00000187 	andeq	r0, r0, r7, lsl #3
    17fc:	000cdd0c 	andeq	sp, ip, ip, lsl #26
    1800:	22200100 	eorcs	r0, r0, #0, 2
    1804:	0000010a 	andeq	r0, r0, sl, lsl #2
    1808:	0d709102 	ldfeqp	f1, [r0, #-8]!
    180c:	000ca30e 	andeq	sl, ip, lr, lsl #6
    1810:	0d210100 	stfeqs	f0, [r1, #-0]
    1814:	00000090 	muleq	r0, r0, r0
    1818:	00649102 	rsbeq	r9, r4, r2, lsl #2
    181c:	000cc710 	andeq	ip, ip, r0, lsl r7
    1820:	14120100 	ldrne	r0, [r2], #-256	; 0xffffff00
    1824:	0000010a 	andeq	r0, r0, sl, lsl #2
    1828:	00001a0c 	andeq	r1, r0, ip, lsl #20
    182c:	00000044 	andeq	r0, r0, r4, asr #32
    1830:	01b19c01 			; <UNDEFINED> instruction: 0x01b19c01
    1834:	380c0000 	stmdacc	ip, {}	; <UNPREDICTABLE>
    1838:	0100000d 	tsteq	r0, sp
    183c:	00c93912 	sbceq	r3, r9, r2, lsl r9
    1840:	91020000 	mrsls	r0, (UNDEF: 2)
    1844:	930b0077 	movwls	r0, #45175	; 0xb077
    1848:	0100000c 	tsteq	r0, ip
    184c:	19b80607 	ldmibne	r8!, {r0, r1, r2, r9, sl}
    1850:	00540000 	subseq	r0, r4, r0
    1854:	9c010000 	stcls	0, cr0, [r1], {-0}
    1858:	00000202 	andeq	r0, r0, r2, lsl #4
    185c:	000c810c 	andeq	r8, ip, ip, lsl #2
    1860:	23070100 	movwcs	r0, #28928	; 0x7100
    1864:	00000104 	andeq	r0, r0, r4, lsl #2
    1868:	0c6c9102 	stfeqp	f1, [ip], #-8
    186c:	00000c9d 	muleq	r0, sp, ip
    1870:	023b0701 	eorseq	r0, fp, #262144	; 0x40000
    1874:	02000002 	andeq	r0, r0, #2
    1878:	470c6891 			; <UNDEFINED> instruction: 0x470c6891
    187c:	01000007 	tsteq	r0, r7
    1880:	003a5107 	eorseq	r5, sl, r7, lsl #2
    1884:	91020000 	mrsls	r0, (UNDEF: 2)
    1888:	00691166 	rsbeq	r1, r9, r6, ror #2
    188c:	64120801 	ldrvs	r0, [r2], #-2049	; 0xfffff7ff
    1890:	02000000 	andeq	r0, r0, #0
    1894:	0f007491 	svceq	0x00007491
    1898:	00002c04 	andeq	r2, r0, r4, lsl #24
    189c:	03270000 			; <UNDEFINED> instruction: 0x03270000
    18a0:	00040000 	andeq	r0, r4, r0
    18a4:	00000854 	andeq	r0, r0, r4, asr r8
    18a8:	0eac0104 	fdveqe	f0, f4, f4
    18ac:	69040000 	stmdbvs	r4, {}	; <UNPREDICTABLE>
    18b0:	0a00000f 	beq	18f4 <USBDEndpointHandler+0x18>
    18b4:	e0000000 	and	r0, r0, r0
    18b8:	00000001 	andeq	r0, r0, r1
    18bc:	99000000 	stmdbls	r0, {}	; <UNPREDICTABLE>
    18c0:	02000012 	andeq	r0, r0, #18
    18c4:	01850601 	orreq	r0, r5, r1, lsl #12
    18c8:	01020000 	mrseq	r0, (UNDEF: 2)
    18cc:	00018308 	andeq	r8, r1, r8, lsl #6
    18d0:	05020200 	streq	r0, [r2, #-512]	; 0xfffffe00
    18d4:	00000084 	andeq	r0, r0, r4, lsl #1
    18d8:	fd070202 	stc2	2, cr0, [r7, #-8]
    18dc:	02000001 	andeq	r0, r0, #1
    18e0:	01250504 			; <UNDEFINED> instruction: 0x01250504
    18e4:	ae030000 	cdpge	0, 0, cr0, cr3, cr0, {0}
    18e8:	02000000 	andeq	r0, r0, #0
    18ec:	0054194f 	subseq	r1, r4, pc, asr #18
    18f0:	04020000 	streq	r0, [r2], #-0
    18f4:	0001b207 	andeq	fp, r1, r7, lsl #4
    18f8:	05080200 	streq	r0, [r8, #-512]	; 0xfffffe00
    18fc:	00000120 	andeq	r0, r0, r0, lsr #2
    1900:	ad070802 	stcge	8, cr0, [r7, #-8]
    1904:	04000001 	streq	r0, [r0], #-1
    1908:	6e690504 	cdpvs	5, 6, cr0, cr9, cr4, {0}
    190c:	04020074 	streq	r0, [r2], #-116	; 0xffffff8c
    1910:	0001b707 	andeq	fp, r1, r7, lsl #14
    1914:	00b00300 	adcseq	r0, r0, r0, lsl #6
    1918:	30030000 	andcc	r0, r3, r0
    191c:	00004814 	andeq	r4, r0, r4, lsl r8
    1920:	050e0300 	streq	r0, [lr, #-768]	; 0xfffffd00
    1924:	28040000 	stmdacs	r4, {}	; <UNPREDICTABLE>
    1928:	00008f1b 	andeq	r8, r0, fp, lsl pc
    192c:	045d0500 	ldrbeq	r0, [sp], #-1280	; 0xfffffb00
    1930:	06040000 	streq	r0, [r4], -r0
    1934:	0000a600 	andeq	sl, r0, r0, lsl #12
    1938:	04ad0600 	strteq	r0, [sp], #1536	; 0x600
    193c:	00a60000 	adceq	r0, r6, r0
    1940:	00000000 	andeq	r0, r0, r0
    1944:	5f030407 	svcpl	0x00030407
    1948:	04000004 	streq	r0, [r0], #-4
    194c:	00831863 	addeq	r1, r3, r3, ror #16
    1950:	04080000 	streq	r0, [r8], #-0
    1954:	000000c6 	andeq	r0, r0, r6, asr #1
    1958:	0000b409 	andeq	fp, r0, r9, lsl #8
    195c:	08010200 	stmdaeq	r1, {r9}
    1960:	0000018c 	andeq	r0, r0, ip, lsl #3
    1964:	0000bf09 	andeq	fp, r0, r9, lsl #30
    1968:	01070a00 	tsteq	r7, r0, lsl #20
    196c:	0000002c 	andeq	r0, r0, ip, lsr #32
    1970:	550e0905 	strpl	r0, [lr, #-2309]	; 0xfffff6fb
    1974:	0800000e 	stmdaeq	r0, {r1, r2, r3}
    1978:	0b000001 	bleq	1984 <USBDEndpointHandler+0xa8>
    197c:	00000df0 	strdeq	r0, [r0], -r0	; <UNPREDICTABLE>
    1980:	0dfa0b00 			; <UNDEFINED> instruction: 0x0dfa0b00
    1984:	0b010000 	bleq	4198c <_etext+0x3fa3d>
    1988:	00000e04 	andeq	r0, r0, r4, lsl #28
    198c:	0e280b02 	vmuleq.f64	d0, d8, d2
    1990:	0b030000 	bleq	c1998 <_etext+0xbfa49>
    1994:	00000d91 	muleq	r0, r1, sp
    1998:	0da60b04 			; <UNDEFINED> instruction: 0x0da60b04
    199c:	0b050000 	bleq	1419a4 <_etext+0x13fa55>
    19a0:	00000f84 	andeq	r0, r0, r4, lsl #31
    19a4:	57030006 	strpl	r0, [r3, -r6]
    19a8:	0500000e 	streq	r0, [r0, #-14]
    19ac:	00cb0311 	sbceq	r0, fp, r1, lsl r3
    19b0:	08090000 	stmdaeq	r9, {}	; <UNPREDICTABLE>
    19b4:	0c000001 	stceq	0, cr0, [r0], {1}
    19b8:	00000db0 			; <UNDEFINED> instruction: 0x00000db0
    19bc:	07140504 	ldreq	r0, [r4, -r4, lsl #10]
    19c0:	00000195 	muleq	r0, r5, r1
    19c4:	000e1d0d 	andeq	r1, lr, sp, lsl #26
    19c8:	12160500 	andsne	r0, r6, #0, 10
    19cc:	00000077 	andeq	r0, r0, r7, ror r0
    19d0:	0d420e00 	stcleq	14, cr0, [r2, #-0]
    19d4:	18050000 	stmdane	r5, {}	; <UNPREDICTABLE>
    19d8:	000e320e 	andeq	r3, lr, lr, lsl #4
    19dc:	01480100 	mrseq	r0, (UNDEF: 88)
    19e0:	01530000 	cmpeq	r3, r0
    19e4:	950f0000 	strls	r0, [pc, #-0]	; 19ec <log_debug_array+0x34>
    19e8:	10000001 	andne	r0, r0, r1
    19ec:	00000108 	andeq	r0, r0, r8, lsl #2
    19f0:	0db01100 	ldfeqs	f1, [r0]
    19f4:	19050000 	stmdbne	r5, {}	; <UNPREDICTABLE>
    19f8:	000d7909 	andeq	r7, sp, r9, lsl #18
    19fc:	00019500 	andeq	r9, r1, r0, lsl #10
    1a00:	016c0100 	cmneq	ip, r0, lsl #2
    1a04:	01720000 	cmneq	r2, r0
    1a08:	950f0000 	strls	r0, [pc, #-0]	; 1a10 <_get_log_level_string+0x4>
    1a0c:	00000001 	andeq	r0, r0, r1
    1a10:	676f6c12 			; <UNDEFINED> instruction: 0x676f6c12
    1a14:	0e1a0500 	cfmul32eq	mvfx0, mvfx10, mvfx0
    1a18:	00000d50 	andeq	r0, r0, r0, asr sp
    1a1c:	00018301 	andeq	r8, r1, r1, lsl #6
    1a20:	01950f00 	orrseq	r0, r5, r0, lsl #30
    1a24:	08100000 	ldmdaeq	r0, {}	; <UNPREDICTABLE>
    1a28:	10000001 	andne	r0, r0, r1
    1a2c:	000000b4 	strheq	r0, [r0], -r4
    1a30:	08000013 	stmdaeq	r0, {r0, r1, r4}
    1a34:	00011904 	andeq	r1, r1, r4, lsl #18
    1a38:	01950900 	orrseq	r0, r5, r0, lsl #18
    1a3c:	62140000 	andsvs	r0, r4, #0
    1a40:	0500000e 	streq	r0, [r0, #-14]
    1a44:	0119171e 	tsteq	r9, lr, lsl r7
    1a48:	a0150000 	andsge	r0, r5, r0
    1a4c:	01000001 	tsteq	r0, r1
    1a50:	0305104e 	movweq	r1, #20558	; 0x504e
    1a54:	00000000 	andeq	r0, r0, r0
    1a58:	000dbf16 	andeq	fp, sp, r6, lsl pc
    1a5c:	00000000 	andeq	r0, r0, r0
    1a60:	00001000 	andeq	r1, r0, r0
    1a64:	179c0100 	ldrne	r0, [ip, r0, lsl #2]
    1a68:	00000e6e 	andeq	r0, r0, lr, ror #28
    1a6c:	00000000 	andeq	r0, r0, r0
    1a70:	0000002c 	andeq	r0, r0, ip, lsr #32
    1a74:	01fb9c01 	mvnseq	r9, r1, lsl #24
    1a78:	0e180000 	cdpeq	0, 1, cr0, cr8, cr0, {0}
    1a7c:	0100000e 	tsteq	r0, lr
    1a80:	00691b4e 	rsbeq	r1, r9, lr, asr #22
    1a84:	91020000 	mrsls	r0, (UNDEF: 2)
    1a88:	0e981874 	mrceq	8, 4, r1, cr8, cr4, {3}
    1a8c:	4e010000 	cdpmi	0, 0, cr0, cr1, cr0, {0}
    1a90:	0000691b 	andeq	r6, r0, fp, lsl r9
    1a94:	70910200 	addsvc	r0, r1, r0, lsl #4
    1a98:	01721900 	cmneq	r2, r0, lsl #18
    1a9c:	30010000 	andcc	r0, r1, r0
    1aa0:	00021506 	andeq	r1, r2, r6, lsl #10
    1aa4:	00000000 	andeq	r0, r0, r0
    1aa8:	00008800 	andeq	r8, r0, r0, lsl #16
    1aac:	509c0100 	addspl	r0, ip, r0, lsl #2
    1ab0:	1a000002 	bne	1ac0 <log_error+0x2c>
    1ab4:	00000f64 	andeq	r0, r0, r4, ror #30
    1ab8:	0000019b 	muleq	r0, fp, r1
    1abc:	18649102 	stmdane	r4!, {r1, r8, ip, pc}^
    1ac0:	00000d3c 	andeq	r0, r0, ip, lsr sp
    1ac4:	08253001 	stmdaeq	r5!, {r0, ip, sp}
    1ac8:	02000001 	andeq	r0, r0, #1
    1acc:	fe186391 	mrc2	3, 0, r6, cr8, cr1, {4}
    1ad0:	01000003 	tsteq	r0, r3
    1ad4:	00b43830 	adcseq	r3, r4, r0, lsr r8
    1ad8:	91020000 	mrsls	r0, (UNDEF: 2)
    1adc:	ee1b1378 	mrc	3, 0, r1, cr11, cr8, {3}
    1ae0:	01000003 	tsteq	r0, r3
    1ae4:	00a80d31 	adceq	r0, r8, r1, lsr sp
    1ae8:	91020000 	mrsls	r0, (UNDEF: 2)
    1aec:	331c006c 	tstcc	ip, #108	; 0x6c
    1af0:	01000001 	tsteq	r0, r1
    1af4:	026a062a 	rsbeq	r0, sl, #44040192	; 0x2a00000
    1af8:	00000000 	andeq	r0, r0, r0
    1afc:	00240000 	eoreq	r0, r4, r0
    1b00:	9c010000 	stcls	0, cr0, [r1], {-0}
    1b04:	00000286 	andeq	r0, r0, r6, lsl #5
    1b08:	000f641a 	andeq	r6, pc, sl, lsl r4	; <UNPREDICTABLE>
    1b0c:	00019b00 	andeq	r9, r1, r0, lsl #22
    1b10:	74910200 	ldrvc	r0, [r1], #512	; 0x200
    1b14:	000d3c18 	andeq	r3, sp, r8, lsl ip
    1b18:	2f2a0100 	svccs	0x002a0100
    1b1c:	00000108 	andeq	r0, r0, r8, lsl #2
    1b20:	00739102 	rsbseq	r9, r3, r2, lsl #2
    1b24:	0001531d 	andeq	r5, r1, sp, lsl r3
    1b28:	01260100 			; <UNDEFINED> instruction: 0x01260100
    1b2c:	00000297 	muleq	r0, r7, r2
    1b30:	0002a100 	andeq	sl, r2, r0, lsl #2
    1b34:	0f641e00 	svceq	0x00641e00
    1b38:	019b0000 	orrseq	r0, fp, r0
    1b3c:	1f000000 	svcne	0x00000000
    1b40:	00000286 	andeq	r0, r0, r6, lsl #5
    1b44:	00000dd8 	ldrdeq	r0, [r0], -r8
    1b48:	000002bc 			; <UNDEFINED> instruction: 0x000002bc
    1b4c:	00000000 	andeq	r0, r0, r0
    1b50:	0000001c 	andeq	r0, r0, ip, lsl r0
    1b54:	02c59c01 	sbceq	r9, r5, #256	; 0x100
    1b58:	97200000 	strls	r0, [r0, -r0]!
    1b5c:	02000002 	andeq	r0, r0, #2
    1b60:	21007491 			; <UNDEFINED> instruction: 0x21007491
    1b64:	00000cc7 	andeq	r0, r0, r7, asr #25
    1b68:	ba1b1101 	blt	6c5f74 <_etext+0x6c4025>
    1b6c:	00000000 	andeq	r0, r0, r0
    1b70:	74000000 	strvc	r0, [r0], #-0
    1b74:	01000000 	mrseq	r0, (UNDEF: 0)
    1b78:	0002ef9c 	muleq	r2, ip, pc	; <UNPREDICTABLE>
    1b7c:	0d381800 	ldceq	8, cr1, [r8, #-0]
    1b80:	11010000 	mrsne	r0, (UNDEF: 1)
    1b84:	00011442 	andeq	r1, r1, r2, asr #8
    1b88:	77910200 	ldrvc	r0, [r1, r0, lsl #4]
    1b8c:	0dce2200 	sfmeq	f2, 2, [lr]
    1b90:	0b010000 	bleq	41b98 <_etext+0x3fc49>
    1b94:	001ad806 	andseq	sp, sl, r6, lsl #16
    1b98:	00002000 	andeq	r2, r0, r0
    1b9c:	249c0100 	ldrcs	r0, [ip], #256	; 0x100
    1ba0:	18000003 	stmdane	r0, {r0, r1}
    1ba4:	00000d9b 	muleq	r0, fp, sp
    1ba8:	24160b01 	ldrcs	r0, [r6], #-2817	; 0xfffff4ff
    1bac:	02000003 	andeq	r0, r0, #3
    1bb0:	a3187491 	tstge	r8, #-1862270976	; 0x91000000
    1bb4:	0100000e 	tsteq	r0, lr
    1bb8:	00772b0b 	rsbseq	r2, r7, fp, lsl #22
    1bbc:	91020000 	mrsls	r0, (UNDEF: 2)
    1bc0:	04080070 	streq	r0, [r8], #-112	; 0xffffff90
    1bc4:	000000bf 	strheq	r0, [r0], -pc	; <UNPREDICTABLE>
	...

Disassembly of section .debug_abbrev:

00000000 <.debug_abbrev>:
   0:	25011101 	strcs	r1, [r1, #-257]	; 0xfffffeff
   4:	030b130e 	movweq	r1, #45838	; 0xb30e
   8:	550e1b0e 	strpl	r1, [lr, #-2830]	; 0xfffff4f2
   c:	10011117 	andne	r1, r1, r7, lsl r1
  10:	02000017 	andeq	r0, r0, #23
  14:	0b0b0024 	bleq	2c00ac <_etext+0x2be15d>
  18:	0e030b3e 	vmoveq.16	d3[0], r0
  1c:	16030000 	strne	r0, [r3], -r0
  20:	3a0e0300 	bcc	380c28 <_etext+0x37ecd9>
  24:	390b3b0b 	stmdbcc	fp, {r0, r1, r3, r8, r9, fp, ip, sp}
  28:	0013490b 	andseq	r4, r3, fp, lsl #18
  2c:	00240400 	eoreq	r0, r4, r0, lsl #8
  30:	0b3e0b0b 	bleq	f82c64 <_etext+0xf80d15>
  34:	00000803 	andeq	r0, r0, r3, lsl #16
  38:	49003505 	stmdbmi	r0, {r0, r2, r8, sl, ip, sp}
  3c:	06000013 			; <UNDEFINED> instruction: 0x06000013
  40:	0b3e0104 	bleq	f80458 <_etext+0xf7e509>
  44:	13490b0b 	movtne	r0, #39691	; 0x9b0b
  48:	0b3b0b3a 	bleq	ec2d38 <_etext+0xec0de9>
  4c:	13010b39 	movwne	r0, #6969	; 0x1b39
  50:	28070000 	stmdacs	r7, {}	; <UNPREDICTABLE>
  54:	1c0e0300 	stcne	3, cr0, [lr], {-0}
  58:	0800000b 	stmdaeq	r0, {r0, r1, r3}
  5c:	0b0b000f 	bleq	2c00a0 <_etext+0x2be151>
  60:	00001349 	andeq	r1, r0, r9, asr #6
  64:	00002609 	andeq	r2, r0, r9, lsl #12
  68:	01130a00 	tsteq	r3, r0, lsl #20
  6c:	0b3a0b0b 	bleq	e82ca0 <_etext+0xe80d51>
  70:	0b390b3b 	bleq	e42d64 <_etext+0xe40e15>
  74:	00001301 	andeq	r1, r0, r1, lsl #6
  78:	03000d0b 	movweq	r0, #3339	; 0xd0b
  7c:	3b0b3a0e 	blcc	2ce8bc <_etext+0x2cc96d>
  80:	490b390b 	stmdbmi	fp, {r0, r1, r3, r8, fp, ip, sp}
  84:	000b3813 	andeq	r3, fp, r3, lsl r8
  88:	00340c00 	eorseq	r0, r4, r0, lsl #24
  8c:	0b3a0e03 	bleq	e838a0 <_etext+0xe81951>
  90:	0b390b3b 	bleq	e42d84 <_etext+0xe40e35>
  94:	193f1349 	ldmdbne	pc!, {r0, r3, r6, r8, r9, ip}	; <UNPREDICTABLE>
  98:	00001802 	andeq	r1, r0, r2, lsl #16
  9c:	3f012e0d 	svccc	0x00012e0d
  a0:	3a0e0319 	bcc	380d0c <_etext+0x37edbd>
  a4:	390b3b0b 	stmdbcc	fp, {r0, r1, r3, r8, r9, fp, ip, sp}
  a8:	1113490b 	tstne	r3, fp, lsl #18
  ac:	40061201 	andmi	r1, r6, r1, lsl #4
  b0:	19429618 	stmdbne	r2, {r3, r4, r9, sl, ip, pc}^
  b4:	00001301 	andeq	r1, r0, r1, lsl #6
  b8:	0300340e 	movweq	r3, #1038	; 0x40e
  bc:	3b0b3a0e 	blcc	2ce8fc <_etext+0x2cc9ad>
  c0:	490b390b 	stmdbmi	fp, {r0, r1, r3, r8, fp, ip, sp}
  c4:	00180213 	andseq	r0, r8, r3, lsl r2
  c8:	012e0f00 			; <UNDEFINED> instruction: 0x012e0f00
  cc:	0e03193f 			; <UNDEFINED> instruction: 0x0e03193f
  d0:	0b3b0b3a 	bleq	ec2dc0 <_etext+0xec0e71>
  d4:	13490b39 	movtne	r0, #39737	; 0x9b39
  d8:	1301193c 	movwne	r1, #6460	; 0x193c
  dc:	18100000 	ldmdane	r0, {}	; <UNPREDICTABLE>
  e0:	11000000 	mrsne	r0, (UNDEF: 0)
  e4:	193f012e 	ldmdbne	pc!, {r1, r2, r3, r5, r8}	; <UNPREDICTABLE>
  e8:	0b3a0e03 	bleq	e838fc <_etext+0xe819ad>
  ec:	0b390b3b 	bleq	e42de0 <_etext+0xe40e91>
  f0:	193c1349 	ldmdbne	ip!, {r0, r3, r6, r8, r9, ip}
  f4:	2e120000 	cdpcs	0, 1, cr0, cr2, cr0, {0}
  f8:	03193f00 	tsteq	r9, #0, 30
  fc:	3b0b3a0e 	blcc	2ce93c <_etext+0x2cc9ed>
 100:	270b390b 	strcs	r3, [fp, -fp, lsl #18]
 104:	12011119 	andne	r1, r1, #1073741830	; 0x40000006
 108:	96184006 	ldrls	r4, [r8], -r6
 10c:	00001942 	andeq	r1, r0, r2, asr #18
 110:	3f002e13 	svccc	0x00002e13
 114:	3a0e0319 	bcc	380d80 <_etext+0x37ee31>
 118:	390b3b0b 	stmdbcc	fp, {r0, r1, r3, r8, r9, fp, ip, sp}
 11c:	1201110b 	andne	r1, r1, #-1073741822	; 0xc0000002
 120:	96184006 	ldrls	r4, [r8], -r6
 124:	00001942 	andeq	r1, r0, r2, asr #18
 128:	3f002e14 	svccc	0x00002e14
 12c:	3a0e0319 	bcc	380d98 <_etext+0x37ee49>
 130:	390b3b0b 	stmdbcc	fp, {r0, r1, r3, r8, r9, fp, ip, sp}
 134:	1119270b 	tstne	r9, fp, lsl #14
 138:	40061201 	andmi	r1, r6, r1, lsl #4
 13c:	19429718 	stmdbne	r2, {r3, r4, r8, r9, sl, ip, pc}^
 140:	01000000 	mrseq	r0, (UNDEF: 0)
 144:	0e250111 	mcreq	1, 1, r0, cr5, cr1, {0}
 148:	0e030b13 	vmoveq.32	d3[0], r0
 14c:	17550e1b 	smmlane	r5, fp, lr, r0
 150:	17100111 			; <UNDEFINED> instruction: 0x17100111
 154:	24020000 	strcs	r0, [r2], #-0
 158:	3e0b0b00 	vmlacc.f64	d0, d11, d0
 15c:	000e030b 	andeq	r0, lr, fp, lsl #6
 160:	00160300 	andseq	r0, r6, r0, lsl #6
 164:	0b3a0e03 	bleq	e83978 <_etext+0xe81a29>
 168:	0b390b3b 	bleq	e42e5c <_etext+0xe40f0d>
 16c:	00001349 	andeq	r1, r0, r9, asr #6
 170:	0b002404 	bleq	9188 <_etext+0x7239>
 174:	030b3e0b 	movweq	r3, #48651	; 0xbe0b
 178:	05000008 	streq	r0, [r0, #-8]
 17c:	0b0b000f 	bleq	2c01c0 <_etext+0x2be271>
 180:	00001349 	andeq	r1, r0, r9, asr #6
 184:	49002606 	stmdbmi	r0, {r1, r2, r9, sl, sp}
 188:	07000013 	smladeq	r0, r3, r0, r0
 18c:	19270015 	stmdbne	r7!, {r0, r2, r4}
 190:	01080000 	mrseq	r0, (UNDEF: 8)
 194:	01134901 	tsteq	r3, r1, lsl #18
 198:	09000013 	stmdbeq	r0, {r0, r1, r4}
 19c:	13490021 	movtne	r0, #36897	; 0x9021
 1a0:	00000b2f 	andeq	r0, r0, pc, lsr #22
 1a4:	0300340a 	movweq	r3, #1034	; 0x40a
 1a8:	3b0b3a0e 	blcc	2ce9e8 <_etext+0x2cca99>
 1ac:	490b390b 	stmdbmi	fp, {r0, r1, r3, r8, fp, ip, sp}
 1b0:	00180213 	andseq	r0, r8, r3, lsl r2
 1b4:	00340b00 	eorseq	r0, r4, r0, lsl #22
 1b8:	0b3a0e03 	bleq	e839cc <_etext+0xe81a7d>
 1bc:	0b390b3b 	bleq	e42eb0 <_etext+0xe40f61>
 1c0:	193f1349 	ldmdbne	pc!, {r0, r3, r6, r8, r9, ip}	; <UNPREDICTABLE>
 1c4:	00001802 	andeq	r1, r0, r2, lsl #16
 1c8:	0300340c 	movweq	r3, #1036	; 0x40c
 1cc:	3b0b3a0e 	blcc	2cea0c <_etext+0x2ccabd>
 1d0:	490b390b 	stmdbmi	fp, {r0, r1, r3, r8, fp, ip, sp}
 1d4:	3c193f13 	ldccc	15, cr3, [r9], {19}
 1d8:	0d000019 	stceq	0, cr0, [r0, #-100]	; 0xffffff9c
 1dc:	0e03002e 	cdpeq	0, 0, cr0, cr3, cr14, {1}
 1e0:	053b0b3a 	ldreq	r0, [fp, #-2874]!	; 0xfffff4c6
 1e4:	19270b39 	stmdbne	r7!, {r0, r3, r4, r5, r8, r9, fp}
 1e8:	06120111 			; <UNDEFINED> instruction: 0x06120111
 1ec:	42971840 	addsmi	r1, r7, #64, 16	; 0x400000
 1f0:	0e000019 	mcreq	0, 0, r0, cr0, cr9, {0}
 1f4:	0e03002e 	cdpeq	0, 0, cr0, cr3, cr14, {1}
 1f8:	053b0b3a 	ldreq	r0, [fp, #-2874]!	; 0xfffff4c6
 1fc:	19270b39 	stmdbne	r7!, {r0, r3, r4, r5, r8, r9, fp}
 200:	06120111 			; <UNDEFINED> instruction: 0x06120111
 204:	42961840 	addsmi	r1, r6, #64, 16	; 0x400000
 208:	0f000019 	svceq	0x00000019
 20c:	193f012e 	ldmdbne	pc!, {r1, r2, r3, r5, r8}	; <UNPREDICTABLE>
 210:	0b3a0e03 	bleq	e83a24 <_etext+0xe81ad5>
 214:	0b390b3b 	bleq	e42f08 <_etext+0xe40fb9>
 218:	01111927 	tsteq	r1, r7, lsr #18
 21c:	18400612 	stmdane	r0, {r1, r4, r9, sl}^
 220:	01194296 			; <UNDEFINED> instruction: 0x01194296
 224:	00000013 	andeq	r0, r0, r3, lsl r0
 228:	25011101 	strcs	r1, [r1, #-257]	; 0xfffffeff
 22c:	030b130e 	movweq	r1, #45838	; 0xb30e
 230:	550e1b0e 	strpl	r1, [lr, #-2830]	; 0xfffff4f2
 234:	10011117 	andne	r1, r1, r7, lsl r1
 238:	02000017 	andeq	r0, r0, #23
 23c:	0e030016 	mcreq	0, 0, r0, cr3, cr6, {0}
 240:	0b3b0b3a 	bleq	ec2f30 <_etext+0xec0fe1>
 244:	13490b39 	movtne	r0, #39737	; 0x9b39
 248:	24030000 	strcs	r0, [r3], #-0
 24c:	3e0b0b00 	vmlacc.f64	d0, d11, d0
 250:	000e030b 	andeq	r0, lr, fp, lsl #6
 254:	00240400 	eoreq	r0, r4, r0, lsl #8
 258:	0b3e0b0b 	bleq	f82e8c <_etext+0xf80f3d>
 25c:	00000803 	andeq	r0, r0, r3, lsl #16
 260:	49002605 	stmdbmi	r0, {r0, r2, r9, sl, sp}
 264:	06000013 			; <UNDEFINED> instruction: 0x06000013
 268:	0e030113 	mcreq	1, 0, r0, cr3, cr3, {0}
 26c:	0b3a0b0b 	bleq	e82ea0 <_etext+0xe80f51>
 270:	13010b3b 	movwne	r0, #6971	; 0x1b3b
 274:	0d070000 	stceq	0, cr0, [r7, #-0]
 278:	490e0300 	stmdbmi	lr, {r8, r9}
 27c:	340b3813 	strcc	r3, [fp], #-2067	; 0xfffff7ed
 280:	08000019 	stmdaeq	r0, {r0, r3, r4}
 284:	0b0b000f 	bleq	2c02c8 <_etext+0x2be379>
 288:	34090000 	strcc	r0, [r9], #-0
 28c:	3a0e0300 	bcc	380e94 <_etext+0x37ef45>
 290:	390b3b0b 	stmdbcc	fp, {r0, r1, r3, r8, r9, fp, ip, sp}
 294:	0213490b 	andseq	r4, r3, #180224	; 0x2c000
 298:	0a000018 	beq	300 <main+0x34>
 29c:	0b0b000f 	bleq	2c02e0 <_etext+0x2be391>
 2a0:	00001349 	andeq	r1, r0, r9, asr #6
 2a4:	4901010b 	stmdbmi	r1, {r0, r1, r3, r8}
 2a8:	00130113 	andseq	r0, r3, r3, lsl r1
 2ac:	00210c00 	eoreq	r0, r1, r0, lsl #24
 2b0:	0b2f1349 	bleq	bc4fdc <_etext+0xbc308d>
 2b4:	2e0d0000 	cdpcs	0, 0, cr0, cr13, cr0, {0}
 2b8:	03193f01 	tsteq	r9, #1, 30
 2bc:	3b0b3a0e 	blcc	2ceafc <_etext+0x2ccbad>
 2c0:	270b3905 	strcs	r3, [fp, -r5, lsl #18]
 2c4:	12011119 	andne	r1, r1, #1073741830	; 0x40000006
 2c8:	96184006 	ldrls	r4, [r8], -r6
 2cc:	13011942 	movwne	r1, #6466	; 0x1942
 2d0:	050e0000 	streq	r0, [lr, #-0]
 2d4:	3a0e0300 	bcc	380edc <_etext+0x37ef8d>
 2d8:	39053b0b 	stmdbcc	r5, {r0, r1, r3, r8, r9, fp, ip, sp}
 2dc:	0213490b 	andseq	r4, r3, #180224	; 0x2c000
 2e0:	0f000018 	svceq	0x00000018
 2e4:	00000018 	andeq	r0, r0, r8, lsl r0
 2e8:	03003410 	movweq	r3, #1040	; 0x410
 2ec:	3b0b3a0e 	blcc	2ceb2c <_etext+0x2ccbdd>
 2f0:	490b3905 	stmdbmi	fp, {r0, r2, r8, fp, ip, sp}
 2f4:	00180213 	andseq	r0, r8, r3, lsl r2
 2f8:	000a1100 	andeq	r1, sl, r0, lsl #2
 2fc:	0b3a0e03 	bleq	e83b10 <_etext+0xe81bc1>
 300:	0b39053b 	bleq	e417f4 <_etext+0xe3f8a5>
 304:	00000111 	andeq	r0, r0, r1, lsl r1
 308:	3f002e12 	svccc	0x00002e12
 30c:	3a0e0319 	bcc	380f78 <_etext+0x37f029>
 310:	39053b0b 	stmdbcc	r5, {r0, r1, r3, r8, r9, fp, ip, sp}
 314:	4919270b 	ldmdbmi	r9, {r0, r1, r3, r8, r9, sl, sp}
 318:	12011113 	andne	r1, r1, #-1073741820	; 0xc0000004
 31c:	96184006 	ldrls	r4, [r8], -r6
 320:	00001942 	andeq	r1, r0, r2, asr #18
 324:	3f012e13 	svccc	0x00012e13
 328:	3a0e0319 	bcc	380f94 <_etext+0x37f045>
 32c:	39053b0b 	stmdbcc	r5, {r0, r1, r3, r8, r9, fp, ip, sp}
 330:	4919270b 	ldmdbmi	r9, {r0, r1, r3, r8, r9, sl, sp}
 334:	12011113 	andne	r1, r1, #-1073741820	; 0xc0000004
 338:	96184006 	ldrls	r4, [r8], -r6
 33c:	13011942 	movwne	r1, #6466	; 0x1942
 340:	2e140000 	cdpcs	0, 1, cr0, cr4, cr0, {0}
 344:	03193f01 	tsteq	r9, #1, 30
 348:	3b0b3a0e 	blcc	2ceb88 <_etext+0x2ccc39>
 34c:	270b3905 	strcs	r3, [fp, -r5, lsl #18]
 350:	12011119 	andne	r1, r1, #1073741830	; 0x40000006
 354:	96184006 	ldrls	r4, [r8], -r6
 358:	00001942 	andeq	r1, r0, r2, asr #18
 35c:	01110100 	tsteq	r1, r0, lsl #2
 360:	0b130e25 	bleq	4c3bfc <_etext+0x4c1cad>
 364:	0e1b0e03 	cdpeq	14, 1, cr0, cr11, cr3, {0}
 368:	01111755 	tsteq	r1, r5, asr r7
 36c:	00001710 	andeq	r1, r0, r0, lsl r7
 370:	03010402 	movweq	r0, #5122	; 0x1402
 374:	0b0b3e0e 	bleq	2cfbb4 <_etext+0x2cdc65>
 378:	3a13490b 	bcc	4d27ac <_etext+0x4d085d>
 37c:	390b3b0b 	stmdbcc	fp, {r0, r1, r3, r8, r9, fp, ip, sp}
 380:	0013010b 	andseq	r0, r3, fp, lsl #2
 384:	00280300 	eoreq	r0, r8, r0, lsl #6
 388:	0b1c0e03 	bleq	703b9c <_etext+0x701c4d>
 38c:	24040000 	strcs	r0, [r4], #-0
 390:	3e0b0b00 	vmlacc.f64	d0, d11, d0
 394:	000e030b 	andeq	r0, lr, fp, lsl #6
 398:	00350500 	eorseq	r0, r5, r0, lsl #10
 39c:	00001349 	andeq	r1, r0, r9, asr #6
 3a0:	03001606 	movweq	r1, #1542	; 0x606
 3a4:	3b0b3a0e 	blcc	2cebe4 <_etext+0x2ccc95>
 3a8:	490b390b 	stmdbmi	fp, {r0, r1, r3, r8, fp, ip, sp}
 3ac:	07000013 	smladeq	r0, r3, r0, r0
 3b0:	0b0b0113 	bleq	2c0804 <_etext+0x2be8b5>
 3b4:	0b3b0b3a 	bleq	ec30a4 <_etext+0xec1155>
 3b8:	13010b39 	movwne	r0, #6969	; 0x1b39
 3bc:	0d080000 	stceq	0, cr0, [r8, #-0]
 3c0:	3a0e0300 	bcc	380fc8 <_etext+0x37f079>
 3c4:	390b3b0b 	stmdbcc	fp, {r0, r1, r3, r8, r9, fp, ip, sp}
 3c8:	3813490b 	ldmdacc	r3, {r0, r1, r3, r8, fp, lr}
 3cc:	0900000b 	stmdbeq	r0, {r0, r1, r3}
 3d0:	19270015 	stmdbne	r7!, {r0, r2, r4}
 3d4:	0f0a0000 	svceq	0x000a0000
 3d8:	490b0b00 	stmdbmi	fp, {r8, r9, fp}
 3dc:	0b000013 	bleq	430 <UARTStdioConfig+0x58>
 3e0:	19270115 	stmdbne	r7!, {r0, r2, r4, r8}
 3e4:	00001301 	andeq	r1, r0, r1, lsl #6
 3e8:	4900050c 	stmdbmi	r0, {r2, r3, r8, sl}
 3ec:	0d000013 	stceq	0, cr0, [r0, #-76]	; 0xffffffb4
 3f0:	13490026 	movtne	r0, #36902	; 0x9026
 3f4:	130e0000 	movwne	r0, #57344	; 0xe000
 3f8:	0b0e0301 	bleq	381004 <_etext+0x37f0b5>
 3fc:	3b0b3a0b 	blcc	2cec30 <_etext+0x2ccce1>
 400:	010b390b 	tsteq	fp, fp, lsl #18
 404:	0f000013 	svceq	0x00000013
 408:	0b0b0024 	bleq	2c04a0 <_etext+0x2be551>
 40c:	08030b3e 	stmdaeq	r3, {r1, r2, r3, r4, r5, r8, r9, fp}
 410:	26100000 	ldrcs	r0, [r0], -r0
 414:	11000000 	mrsne	r0, (UNDEF: 0)
 418:	0e030034 	mcreq	0, 0, r0, cr3, cr4, {1}
 41c:	0b3b0b3a 	bleq	ec310c <_etext+0xec11bd>
 420:	13490b39 	movtne	r0, #39737	; 0x9b39
 424:	193c193f 	ldmdbne	ip!, {r0, r1, r2, r3, r4, r5, r8, fp, ip}
 428:	34120000 	ldrcc	r0, [r2], #-0
 42c:	3a134700 	bcc	4d2034 <_etext+0x4d00e5>
 430:	39053b0b 	stmdbcc	r5, {r0, r1, r3, r8, r9, fp, ip, sp}
 434:	0018020b 	andseq	r0, r8, fp, lsl #4
 438:	012e1300 			; <UNDEFINED> instruction: 0x012e1300
 43c:	0b3a0e03 	bleq	e83c50 <_etext+0xe81d01>
 440:	0b39053b 	bleq	e41934 <_etext+0xe3f9e5>
 444:	01111927 	tsteq	r1, r7, lsr #18
 448:	18400612 	stmdane	r0, {r1, r4, r9, sl}^
 44c:	01194296 			; <UNDEFINED> instruction: 0x01194296
 450:	14000013 	strne	r0, [r0], #-19	; 0xffffffed
 454:	0e030005 	cdpeq	0, 0, cr0, cr3, cr5, {0}
 458:	053b0b3a 	ldreq	r0, [fp, #-2874]!	; 0xfffff4c6
 45c:	13490b39 	movtne	r0, #39737	; 0x9b39
 460:	00001802 	andeq	r1, r0, r2, lsl #16
 464:	03002e15 	movweq	r2, #3605	; 0xe15
 468:	3b0b3a0e 	blcc	2ceca8 <_etext+0x2ccd59>
 46c:	270b3905 	strcs	r3, [fp, -r5, lsl #18]
 470:	12011119 	andne	r1, r1, #1073741830	; 0x40000006
 474:	96184006 	ldrls	r4, [r8], -r6
 478:	00001942 	andeq	r1, r0, r2, asr #18
 47c:	03012e16 	movweq	r2, #7702	; 0x1e16
 480:	3b0b3a0e 	blcc	2cecc0 <_etext+0x2ccd71>
 484:	270b3905 	strcs	r3, [fp, -r5, lsl #18]
 488:	12011119 	andne	r1, r1, #1073741830	; 0x40000006
 48c:	97184006 	ldrls	r4, [r8, -r6]
 490:	13011942 	movwne	r1, #6466	; 0x1942
 494:	05170000 	ldreq	r0, [r7, #-0]
 498:	3a080300 	bcc	2010a0 <_etext+0x1ff151>
 49c:	39053b0b 	stmdbcc	r5, {r0, r1, r3, r8, r9, fp, ip, sp}
 4a0:	0213490b 	andseq	r4, r3, #180224	; 0x2c000
 4a4:	18000018 	stmdane	r0, {r3, r4}
 4a8:	193f012e 	ldmdbne	pc!, {r1, r2, r3, r5, r8}	; <UNPREDICTABLE>
 4ac:	0b3a0e03 	bleq	e83cc0 <_etext+0xe81d71>
 4b0:	0b39053b 	bleq	e419a4 <_etext+0xe3fa55>
 4b4:	01111927 	tsteq	r1, r7, lsr #18
 4b8:	18400612 	stmdane	r0, {r1, r4, r9, sl}^
 4bc:	01194297 			; <UNDEFINED> instruction: 0x01194297
 4c0:	19000013 	stmdbne	r0, {r0, r1, r4}
 4c4:	08030034 	stmdaeq	r3, {r2, r4, r5}
 4c8:	053b0b3a 	ldreq	r0, [fp, #-2874]!	; 0xfffff4c6
 4cc:	13490b39 	movtne	r0, #39737	; 0x9b39
 4d0:	00001802 	andeq	r1, r0, r2, lsl #16
 4d4:	0b000f1a 	bleq	4144 <_etext+0x21f5>
 4d8:	1b00000b 	blne	50c <UARTvprintf+0x14>
 4dc:	0e03012e 	adfeqsp	f0, f3, #0.5
 4e0:	0b3b0b3a 	bleq	ec31d0 <_etext+0xec1281>
 4e4:	19270b39 	stmdbne	r7!, {r0, r3, r4, r5, r8, r9, fp}
 4e8:	06120111 			; <UNDEFINED> instruction: 0x06120111
 4ec:	42971840 	addsmi	r1, r7, #64, 16	; 0x400000
 4f0:	00130119 	andseq	r0, r3, r9, lsl r1
 4f4:	00051c00 	andeq	r1, r5, r0, lsl #24
 4f8:	0b3a0e03 	bleq	e83d0c <_etext+0xe81dbd>
 4fc:	0b390b3b 	bleq	e431f0 <_etext+0xe412a1>
 500:	18021349 	stmdane	r2, {r0, r3, r6, r8, r9, ip}
 504:	341d0000 	ldrcc	r0, [sp], #-0
 508:	3a080300 	bcc	201110 <_etext+0x1ff1c1>
 50c:	390b3b0b 	stmdbcc	fp, {r0, r1, r3, r8, r9, fp, ip, sp}
 510:	0213490b 	andseq	r4, r3, #180224	; 0x2c000
 514:	1e000018 	mcrne	0, 0, r0, cr0, cr8, {0}
 518:	0e030034 	mcreq	0, 0, r0, cr3, cr4, {1}
 51c:	0b3b0b3a 	bleq	ec320c <_etext+0xec12bd>
 520:	13490b39 	movtne	r0, #39737	; 0x9b39
 524:	00001802 	andeq	r1, r0, r2, lsl #16
 528:	03012e1f 	movweq	r2, #7711	; 0x1e1f
 52c:	3b0b3a0e 	blcc	2ced6c <_etext+0x2cce1d>
 530:	270b390b 	strcs	r3, [fp, -fp, lsl #18]
 534:	12011119 	andne	r1, r1, #1073741830	; 0x40000006
 538:	96184006 	ldrls	r4, [r8], -r6
 53c:	13011942 	movwne	r1, #6466	; 0x1942
 540:	2e200000 	cdpcs	0, 2, cr0, cr0, cr0, {0}
 544:	3a0e0300 	bcc	38114c <_etext+0x37f1fd>
 548:	390b3b0b 	stmdbcc	fp, {r0, r1, r3, r8, r9, fp, ip, sp}
 54c:	1119270b 	tstne	r9, fp, lsl #14
 550:	40061201 	andmi	r1, r6, r1, lsl #4
 554:	19429718 	stmdbne	r2, {r3, r4, r8, r9, sl, ip, pc}^
 558:	2e210000 	cdpcs	0, 2, cr0, cr1, cr0, {0}
 55c:	3a0e0301 	bcc	381168 <_etext+0x37f219>
 560:	390b3b0b 	stmdbcc	fp, {r0, r1, r3, r8, r9, fp, ip, sp}
 564:	1119270b 	tstne	r9, fp, lsl #14
 568:	40061201 	andmi	r1, r6, r1, lsl #4
 56c:	19429718 	stmdbne	r2, {r3, r4, r8, r9, sl, ip, pc}^
 570:	01000000 	mrseq	r0, (UNDEF: 0)
 574:	0e250111 	mcreq	1, 1, r0, cr5, cr1, {0}
 578:	0e030b13 	vmoveq.32	d3[0], r0
 57c:	17550e1b 	smmlane	r5, fp, lr, r0
 580:	17100111 			; <UNDEFINED> instruction: 0x17100111
 584:	24020000 	strcs	r0, [r2], #-0
 588:	3e0b0b00 	vmlacc.f64	d0, d11, d0
 58c:	000e030b 	andeq	r0, lr, fp, lsl #6
 590:	00260300 	eoreq	r0, r6, r0, lsl #6
 594:	00001349 	andeq	r1, r0, r9, asr #6
 598:	0b002404 	bleq	95b0 <_etext+0x7661>
 59c:	030b3e0b 	movweq	r3, #48651	; 0xbe0b
 5a0:	05000008 	streq	r0, [r0, #-8]
 5a4:	0e030104 	adfeqs	f0, f3, f4
 5a8:	0b0b0b3e 	bleq	2c32a8 <_etext+0x2c1359>
 5ac:	0b3a1349 	bleq	e852d8 <_etext+0xe83389>
 5b0:	0b390b3b 	bleq	e432a4 <_etext+0xe41355>
 5b4:	00001301 	andeq	r1, r0, r1, lsl #6
 5b8:	03002806 	movweq	r2, #2054	; 0x806
 5bc:	000b1c0e 	andeq	r1, fp, lr, lsl #24
 5c0:	00160700 	andseq	r0, r6, r0, lsl #14
 5c4:	0b3a0e03 	bleq	e83dd8 <_etext+0xe81e89>
 5c8:	0b390b3b 	bleq	e432bc <_etext+0xe4136d>
 5cc:	00001349 	andeq	r1, r0, r9, asr #6
 5d0:	0b011308 	bleq	451f8 <_etext+0x432a9>
 5d4:	3b0b3a0b 	blcc	2cee08 <_etext+0x2cceb9>
 5d8:	010b390b 	tsteq	fp, fp, lsl #18
 5dc:	09000013 	stmdbeq	r0, {r0, r1, r4}
 5e0:	0e03000d 	cdpeq	0, 0, cr0, cr3, cr13, {0}
 5e4:	0b3b0b3a 	bleq	ec32d4 <_etext+0xec1385>
 5e8:	13490b39 	movtne	r0, #39737	; 0x9b39
 5ec:	00000b38 	andeq	r0, r0, r8, lsr fp
 5f0:	2700150a 	strcs	r1, [r0, -sl, lsl #10]
 5f4:	0b000019 	bleq	660 <UARTvprintf+0x168>
 5f8:	0b0b000f 	bleq	2c063c <_etext+0x2be6ed>
 5fc:	00001349 	andeq	r1, r0, r9, asr #6
 600:	2701150c 	strcs	r1, [r1, -ip, lsl #10]
 604:	00130119 	andseq	r0, r3, r9, lsl r1
 608:	00050d00 	andeq	r0, r5, r0, lsl #26
 60c:	00001349 	andeq	r1, r0, r9, asr #6
 610:	3e01040e 	cdpcc	4, 0, cr0, cr1, cr14, {0}
 614:	490b0b0b 	stmdbmi	fp, {r0, r1, r3, r8, r9, fp}
 618:	3b0b3a13 	blcc	2cee6c <_etext+0x2ccf1d>
 61c:	010b390b 	tsteq	fp, fp, lsl #18
 620:	0f000013 	svceq	0x00000013
 624:	0e030113 	mcreq	1, 0, r0, cr3, cr3, {0}
 628:	0b3a0b0b 	bleq	e8325c <_etext+0xe8130d>
 62c:	0b390b3b 	bleq	e43320 <_etext+0xe413d1>
 630:	00001301 	andeq	r1, r0, r1, lsl #6
 634:	00002610 	andeq	r2, r0, r0, lsl r6
 638:	00341100 	eorseq	r1, r4, r0, lsl #2
 63c:	0b3a0e03 	bleq	e83e50 <_etext+0xe81f01>
 640:	0b390b3b 	bleq	e43334 <_etext+0xe413e5>
 644:	193f1349 	ldmdbne	pc!, {r0, r3, r6, r8, r9, ip}	; <UNPREDICTABLE>
 648:	0000193c 	andeq	r1, r0, ip, lsr r9
 64c:	03003412 	movweq	r3, #1042	; 0x412
 650:	3b0b3a0e 	blcc	2cee90 <_etext+0x2ccf41>
 654:	490b390b 	stmdbmi	fp, {r0, r1, r3, r8, fp, ip, sp}
 658:	02193f13 	andseq	r3, r9, #19, 30	; 0x4c
 65c:	13000018 	movwne	r0, #24
 660:	0e030034 	mcreq	0, 0, r0, cr3, cr4, {1}
 664:	0b3b0b3a 	bleq	ec3354 <_etext+0xec1405>
 668:	13490b39 	movtne	r0, #39737	; 0x9b39
 66c:	00001802 	andeq	r1, r0, r2, lsl #16
 670:	47003414 	smladmi	r0, r4, r4, r3
 674:	3b0b3a13 	blcc	2ceec8 <_etext+0x2ccf79>
 678:	020b390b 	andeq	r3, fp, #180224	; 0x2c000
 67c:	15000018 	strne	r0, [r0, #-24]	; 0xffffffe8
 680:	193f012e 	ldmdbne	pc!, {r1, r2, r3, r5, r8}	; <UNPREDICTABLE>
 684:	0b3a0e03 	bleq	e83e98 <_etext+0xe81f49>
 688:	0b390b3b 	bleq	e4337c <_etext+0xe4142d>
 68c:	01111927 	tsteq	r1, r7, lsr #18
 690:	18400612 	stmdane	r0, {r1, r4, r9, sl}^
 694:	01194296 			; <UNDEFINED> instruction: 0x01194296
 698:	16000013 			; <UNDEFINED> instruction: 0x16000013
 69c:	0e03012e 	adfeqsp	f0, f3, #0.5
 6a0:	0b3b0b3a 	bleq	ec3390 <_etext+0xec1441>
 6a4:	19270b39 	stmdbne	r7!, {r0, r3, r4, r5, r8, r9, fp}
 6a8:	06120111 			; <UNDEFINED> instruction: 0x06120111
 6ac:	42961840 	addsmi	r1, r6, #64, 16	; 0x400000
 6b0:	00130119 	andseq	r0, r3, r9, lsl r1
 6b4:	00051700 	andeq	r1, r5, r0, lsl #14
 6b8:	0b3a0e03 	bleq	e83ecc <_etext+0xe81f7d>
 6bc:	0b390b3b 	bleq	e433b0 <_etext+0xe41461>
 6c0:	18021349 	stmdane	r2, {r0, r3, r6, r8, r9, ip}
 6c4:	34180000 	ldrcc	r0, [r8], #-0
 6c8:	490e0300 	stmdbmi	lr, {r8, r9}
 6cc:	02193413 	andseq	r3, r9, #318767104	; 0x13000000
 6d0:	19000018 	stmdbne	r0, {r3, r4}
 6d4:	13490101 	movtne	r0, #37121	; 0x9101
 6d8:	00001301 	andeq	r1, r0, r1, lsl #6
 6dc:	4900211a 	stmdbmi	r0, {r1, r3, r4, r8, sp}
 6e0:	000b2f13 	andeq	r2, fp, r3, lsl pc
 6e4:	010b1b00 	tsteq	fp, r0, lsl #22
 6e8:	06120111 			; <UNDEFINED> instruction: 0x06120111
 6ec:	211c0000 	tstcs	ip, r0
 6f0:	2f134900 	svccs	0x00134900
 6f4:	1d000005 	stcne	0, cr0, [r0, #-20]	; 0xffffffec
 6f8:	0e03012e 	adfeqsp	f0, f3, #0.5
 6fc:	0b3b0b3a 	bleq	ec33ec <_etext+0xec149d>
 700:	01110b39 	tsteq	r1, r9, lsr fp
 704:	18400612 	stmdane	r0, {r1, r4, r9, sl}^
 708:	01194296 			; <UNDEFINED> instruction: 0x01194296
 70c:	1e000013 	mcrne	0, 0, r0, cr0, cr3, {0}
 710:	0e03002e 	cdpeq	0, 0, cr0, cr3, cr14, {1}
 714:	0b3b0b3a 	bleq	ec3404 <_etext+0xec14b5>
 718:	01110b39 	tsteq	r1, r9, lsr fp
 71c:	18400612 	stmdane	r0, {r1, r4, r9, sl}^
 720:	00194296 	mulseq	r9, r6, r2
 724:	002e1f00 	eoreq	r1, lr, r0, lsl #30
 728:	0e03193f 			; <UNDEFINED> instruction: 0x0e03193f
 72c:	0b3b0b3a 	bleq	ec341c <_etext+0xec14cd>
 730:	19270b39 	stmdbne	r7!, {r0, r3, r4, r5, r8, r9, fp}
 734:	06120111 			; <UNDEFINED> instruction: 0x06120111
 738:	42961840 	addsmi	r1, r6, #64, 16	; 0x400000
 73c:	20000019 	andcs	r0, r0, r9, lsl r0
 740:	193f012e 	ldmdbne	pc!, {r1, r2, r3, r5, r8}	; <UNPREDICTABLE>
 744:	0b3a0e03 	bleq	e83f58 <_etext+0xe82009>
 748:	0b390b3b 	bleq	e4343c <_etext+0xe414ed>
 74c:	01111927 	tsteq	r1, r7, lsr #18
 750:	18400612 	stmdane	r0, {r1, r4, r9, sl}^
 754:	00194296 	mulseq	r9, r6, r2
 758:	11010000 	mrsne	r0, (UNDEF: 1)
 75c:	130e2501 	movwne	r2, #58625	; 0xe501
 760:	1b0e030b 	blne	381394 <_etext+0x37f445>
 764:	1117550e 	tstne	r7, lr, lsl #10
 768:	00171001 	andseq	r1, r7, r1
 76c:	00240200 	eoreq	r0, r4, r0, lsl #4
 770:	0b3e0b0b 	bleq	f833a4 <_etext+0xf81455>
 774:	00000e03 	andeq	r0, r0, r3, lsl #28
 778:	0b002403 	bleq	978c <_etext+0x783d>
 77c:	030b3e0b 	movweq	r3, #48651	; 0xbe0b
 780:	04000008 	streq	r0, [r0], #-8
 784:	0e030016 	mcreq	0, 0, r0, cr3, cr6, {0}
 788:	0b3b0b3a 	bleq	ec3478 <_etext+0xec1529>
 78c:	13490b39 	movtne	r0, #39737	; 0x9b39
 790:	13050000 	movwne	r0, #20480	; 0x5000
 794:	0b0e0301 	bleq	3813a0 <_etext+0x37f451>
 798:	3b0b3a0b 	blcc	2cefcc <_etext+0x2cd07d>
 79c:	0013010b 	andseq	r0, r3, fp, lsl #2
 7a0:	000d0600 	andeq	r0, sp, r0, lsl #12
 7a4:	13490e03 	movtne	r0, #40451	; 0x9e03
 7a8:	19340b38 	ldmdbne	r4!, {r3, r4, r5, r8, r9, fp}
 7ac:	0f070000 	svceq	0x00070000
 7b0:	000b0b00 	andeq	r0, fp, r0, lsl #22
 7b4:	01040800 	tsteq	r4, r0, lsl #16
 7b8:	0b0b0b3e 	bleq	2c34b8 <_etext+0x2c1569>
 7bc:	0b3a1349 	bleq	e854e8 <_etext+0xe83599>
 7c0:	0b390b3b 	bleq	e434b4 <_etext+0xe41565>
 7c4:	00001301 	andeq	r1, r0, r1, lsl #6
 7c8:	03002809 	movweq	r2, #2057	; 0x809
 7cc:	000b1c0e 	andeq	r1, fp, lr, lsl #24
 7d0:	00260a00 	eoreq	r0, r6, r0, lsl #20
 7d4:	00001349 	andeq	r1, r0, r9, asr #6
 7d8:	3f012e0b 	svccc	0x00012e0b
 7dc:	3a0e0319 	bcc	381448 <_etext+0x37f4f9>
 7e0:	390b3b0b 	stmdbcc	fp, {r0, r1, r3, r8, r9, fp, ip, sp}
 7e4:	1119270b 	tstne	r9, fp, lsl #14
 7e8:	40061201 	andmi	r1, r6, r1, lsl #4
 7ec:	19429618 	stmdbne	r2, {r3, r4, r9, sl, ip, pc}^
 7f0:	00001301 	andeq	r1, r0, r1, lsl #6
 7f4:	0300050c 	movweq	r0, #1292	; 0x50c
 7f8:	3b0b3a0e 	blcc	2cf038 <_etext+0x2cd0e9>
 7fc:	490b390b 	stmdbmi	fp, {r0, r1, r3, r8, fp, ip, sp}
 800:	00180213 	andseq	r0, r8, r3, lsl r2
 804:	00180d00 	andseq	r0, r8, r0, lsl #26
 808:	340e0000 	strcc	r0, [lr], #-0
 80c:	3a0e0300 	bcc	381414 <_etext+0x37f4c5>
 810:	390b3b0b 	stmdbcc	fp, {r0, r1, r3, r8, r9, fp, ip, sp}
 814:	0213490b 	andseq	r4, r3, #180224	; 0x2c000
 818:	0f000018 	svceq	0x00000018
 81c:	0b0b000f 	bleq	2c0860 <_etext+0x2be911>
 820:	00001349 	andeq	r1, r0, r9, asr #6
 824:	3f012e10 	svccc	0x00012e10
 828:	3a0e0319 	bcc	381494 <_etext+0x37f545>
 82c:	390b3b0b 	stmdbcc	fp, {r0, r1, r3, r8, r9, fp, ip, sp}
 830:	4919270b 	ldmdbmi	r9, {r0, r1, r3, r8, r9, sl, sp}
 834:	12011113 	andne	r1, r1, #-1073741820	; 0xc0000004
 838:	97184006 	ldrls	r4, [r8, -r6]
 83c:	13011942 	movwne	r1, #6466	; 0x1942
 840:	34110000 	ldrcc	r0, [r1], #-0
 844:	3a080300 	bcc	20144c <_etext+0x1ff4fd>
 848:	390b3b0b 	stmdbcc	fp, {r0, r1, r3, r8, r9, fp, ip, sp}
 84c:	0213490b 	andseq	r4, r3, #180224	; 0x2c000
 850:	00000018 	andeq	r0, r0, r8, lsl r0
 854:	25011101 	strcs	r1, [r1, #-257]	; 0xfffffeff
 858:	030b130e 	movweq	r1, #45838	; 0xb30e
 85c:	550e1b0e 	strpl	r1, [lr, #-2830]	; 0xfffff4f2
 860:	10011117 	andne	r1, r1, r7, lsl r1
 864:	02000017 	andeq	r0, r0, #23
 868:	0b0b0024 	bleq	2c0900 <_etext+0x2be9b1>
 86c:	0e030b3e 	vmoveq.16	d3[0], r0
 870:	16030000 	strne	r0, [r3], -r0
 874:	3a0e0300 	bcc	38147c <_etext+0x37f52d>
 878:	390b3b0b 	stmdbcc	fp, {r0, r1, r3, r8, r9, fp, ip, sp}
 87c:	0013490b 	andseq	r4, r3, fp, lsl #18
 880:	00240400 	eoreq	r0, r4, r0, lsl #8
 884:	0b3e0b0b 	bleq	f834b8 <_etext+0xf81569>
 888:	00000803 	andeq	r0, r0, r3, lsl #16
 88c:	03011305 	movweq	r1, #4869	; 0x1305
 890:	3a0b0b0e 	bcc	2c34d0 <_etext+0x2c1581>
 894:	010b3b0b 	tsteq	fp, fp, lsl #22
 898:	06000013 			; <UNDEFINED> instruction: 0x06000013
 89c:	0e03000d 	cdpeq	0, 0, cr0, cr3, cr13, {0}
 8a0:	0b381349 	bleq	e055cc <_etext+0xe0367d>
 8a4:	00001934 	andeq	r1, r0, r4, lsr r9
 8a8:	0b000f07 	bleq	44cc <_etext+0x257d>
 8ac:	0800000b 	stmdaeq	r0, {r0, r1, r3}
 8b0:	0b0b000f 	bleq	2c08f4 <_etext+0x2be9a5>
 8b4:	00001349 	andeq	r1, r0, r9, asr #6
 8b8:	49002609 	stmdbmi	r0, {r0, r3, r9, sl, sp}
 8bc:	0a000013 	beq	910 <UARTprintf+0x10>
 8c0:	0b3e0104 	bleq	f80cd8 <_etext+0xf7ed89>
 8c4:	13490b0b 	movtne	r0, #39691	; 0x9b0b
 8c8:	0b3b0b3a 	bleq	ec35b8 <_etext+0xec1669>
 8cc:	0e6e0b39 	vmoveq.8	d14[5], r0
 8d0:	00001301 	andeq	r1, r0, r1, lsl #6
 8d4:	0300280b 	movweq	r2, #2059	; 0x80b
 8d8:	000b1c0e 	andeq	r1, fp, lr, lsl #24
 8dc:	01020c00 	tsteq	r2, r0, lsl #24
 8e0:	0b0b0e03 	bleq	2c40f4 <_etext+0x2c21a5>
 8e4:	0b3b0b3a 	bleq	ec35d4 <_etext+0xec1685>
 8e8:	13010b39 	movwne	r0, #6969	; 0x1b39
 8ec:	0d0d0000 	stceq	0, cr0, [sp, #-0]
 8f0:	3a0e0300 	bcc	3814f8 <_etext+0x37f5a9>
 8f4:	390b3b0b 	stmdbcc	fp, {r0, r1, r3, r8, r9, fp, ip, sp}
 8f8:	3813490b 	ldmdacc	r3, {r0, r1, r3, r8, fp, lr}
 8fc:	0e00000b 	cdpeq	0, 0, cr0, cr0, cr11, {0}
 900:	193f012e 	ldmdbne	pc!, {r1, r2, r3, r5, r8}	; <UNPREDICTABLE>
 904:	0b3a0e03 	bleq	e84118 <_etext+0xe821c9>
 908:	0b390b3b 	bleq	e435fc <_etext+0xe416ad>
 90c:	0b320e6e 	bleq	c842cc <_etext+0xc8237d>
 910:	1364193c 	cmnne	r4, #60, 18	; 0xf0000
 914:	00001301 	andeq	r1, r0, r1, lsl #6
 918:	4900050f 	stmdbmi	r0, {r0, r1, r2, r3, r8, sl}
 91c:	00193413 	andseq	r3, r9, r3, lsl r4
 920:	00051000 	andeq	r1, r5, r0
 924:	00001349 	andeq	r1, r0, r9, asr #6
 928:	3f012e11 	svccc	0x00012e11
 92c:	3a0e0319 	bcc	381598 <_etext+0x37f649>
 930:	390b3b0b 	stmdbcc	fp, {r0, r1, r3, r8, r9, fp, ip, sp}
 934:	490e6e0b 	stmdbmi	lr, {r0, r1, r3, r9, sl, fp, sp, lr}
 938:	3c0b3213 	sfmcc	f3, 4, [fp], {19}
 93c:	01136419 	tsteq	r3, r9, lsl r4
 940:	12000013 	andne	r0, r0, #19
 944:	193f012e 	ldmdbne	pc!, {r1, r2, r3, r5, r8}	; <UNPREDICTABLE>
 948:	0b3a0803 	bleq	e8295c <_etext+0xe80a0d>
 94c:	0b390b3b 	bleq	e43640 <_etext+0xe416f1>
 950:	0b320e6e 	bleq	c84310 <_etext+0xc823c1>
 954:	1364193c 	cmnne	r4, #60, 18	; 0xf0000
 958:	18130000 	ldmdane	r3, {}	; <UNPREDICTABLE>
 95c:	14000000 	strne	r0, [r0], #-0
 960:	0e030034 	mcreq	0, 0, r0, cr3, cr4, {1}
 964:	0b3b0b3a 	bleq	ec3654 <_etext+0xec1705>
 968:	13490b39 	movtne	r0, #39737	; 0x9b39
 96c:	193c193f 	ldmdbne	ip!, {r0, r1, r2, r3, r4, r5, r8, fp, ip}
 970:	34150000 	ldrcc	r0, [r5], #-0
 974:	3a134700 	bcc	4d257c <_etext+0x4d062d>
 978:	390b3b0b 	stmdbcc	fp, {r0, r1, r3, r8, r9, fp, ip, sp}
 97c:	0018020b 	andseq	r0, r8, fp, lsl #4
 980:	002e1600 	eoreq	r1, lr, r0, lsl #12
 984:	19340e03 	ldmdbne	r4!, {r0, r1, r9, sl, fp}
 988:	06120111 			; <UNDEFINED> instruction: 0x06120111
 98c:	42961840 	addsmi	r1, r6, #64, 16	; 0x400000
 990:	17000019 	smladne	r0, r9, r0, r0
 994:	0e03012e 	adfeqsp	f0, f3, #0.5
 998:	01111934 	tsteq	r1, r4, lsr r9
 99c:	18400612 	stmdane	r0, {r1, r4, r9, sl}^
 9a0:	01194296 			; <UNDEFINED> instruction: 0x01194296
 9a4:	18000013 	stmdane	r0, {r0, r1, r4}
 9a8:	0e030005 	cdpeq	0, 0, cr0, cr3, cr5, {0}
 9ac:	0b3b0b3a 	bleq	ec369c <_etext+0xec174d>
 9b0:	13490b39 	movtne	r0, #39737	; 0x9b39
 9b4:	00001802 	andeq	r1, r0, r2, lsl #16
 9b8:	47012e19 	smladmi	r1, r9, lr, r2
 9bc:	3b0b3a13 	blcc	2cf210 <_etext+0x2cd2c1>
 9c0:	640b390b 	strvs	r3, [fp], #-2315	; 0xfffff6f5
 9c4:	12011113 	andne	r1, r1, #-1073741820	; 0xc0000004
 9c8:	96184006 	ldrls	r4, [r8], -r6
 9cc:	13011942 	movwne	r1, #6466	; 0x1942
 9d0:	051a0000 	ldreq	r0, [sl, #-0]
 9d4:	490e0300 	stmdbmi	lr, {r8, r9}
 9d8:	02193413 	andseq	r3, r9, #318767104	; 0x13000000
 9dc:	1b000018 	blne	a44 <GPIOPadConfigSet+0xf8>
 9e0:	0e030034 	mcreq	0, 0, r0, cr3, cr4, {1}
 9e4:	0b3b0b3a 	bleq	ec36d4 <_etext+0xec1785>
 9e8:	13490b39 	movtne	r0, #39737	; 0x9b39
 9ec:	00001802 	andeq	r1, r0, r2, lsl #16
 9f0:	47012e1c 	smladmi	r1, ip, lr, r2
 9f4:	3b0b3a13 	blcc	2cf248 <_etext+0x2cd2f9>
 9f8:	640b390b 	strvs	r3, [fp], #-2315	; 0xfffff6f5
 9fc:	12011113 	andne	r1, r1, #-1073741820	; 0xc0000004
 a00:	97184006 	ldrls	r4, [r8, -r6]
 a04:	13011942 	movwne	r1, #6466	; 0x1942
 a08:	2e1d0000 	cdpcs	0, 1, cr0, cr13, cr0, {0}
 a0c:	3a134701 	bcc	4d2618 <_etext+0x4d06c9>
 a10:	390b3b0b 	stmdbcc	fp, {r0, r1, r3, r8, r9, fp, ip, sp}
 a14:	2013640b 	andscs	r6, r3, fp, lsl #8
 a18:	0013010b 	andseq	r0, r3, fp, lsl #2
 a1c:	00051e00 	andeq	r1, r5, r0, lsl #28
 a20:	13490e03 	movtne	r0, #40451	; 0x9e03
 a24:	00001934 	andeq	r1, r0, r4, lsr r9
 a28:	31012e1f 	tstcc	r1, pc, lsl lr
 a2c:	640e6e13 	strvs	r6, [lr], #-3603	; 0xfffff1ed
 a30:	12011113 	andne	r1, r1, #-1073741820	; 0xc0000004
 a34:	97184006 	ldrls	r4, [r8, -r6]
 a38:	13011942 	movwne	r1, #6466	; 0x1942
 a3c:	05200000 	streq	r0, [r0, #-0]!
 a40:	02133100 	andseq	r3, r3, #0, 2
 a44:	21000018 	tstcs	r0, r8, lsl r0
 a48:	0e03012e 	adfeqsp	f0, f3, #0.5
 a4c:	0b3b0b3a 	bleq	ec373c <_etext+0xec17ed>
 a50:	13490b39 	movtne	r0, #39737	; 0x9b39
 a54:	06120111 			; <UNDEFINED> instruction: 0x06120111
 a58:	42971840 	addsmi	r1, r7, #64, 16	; 0x400000
 a5c:	00130119 	andseq	r0, r3, r9, lsl r1
 a60:	012e2200 			; <UNDEFINED> instruction: 0x012e2200
 a64:	0e03193f 			; <UNDEFINED> instruction: 0x0e03193f
 a68:	0b3b0b3a 	bleq	ec3758 <_etext+0xec1809>
 a6c:	01110b39 	tsteq	r1, r9, lsr fp
 a70:	18400612 	stmdane	r0, {r1, r4, r9, sl}^
 a74:	01194296 			; <UNDEFINED> instruction: 0x01194296
 a78:	00000013 	andeq	r0, r0, r3, lsl r0

Disassembly of section .debug_aranges:

00000000 <.debug_aranges>:
   0:	0000003c 	andeq	r0, r0, ip, lsr r0
   4:	00000002 	andeq	r0, r0, r2
   8:	00040000 	andeq	r0, r4, r0
   c:	00000000 	andeq	r0, r0, r0
  10:	0000026c 	andeq	r0, r0, ip, ror #4
  14:	0000000e 	andeq	r0, r0, lr
  18:	00000000 	andeq	r0, r0, r0
  1c:	0000001c 	andeq	r0, r0, ip, lsl r0
  20:	0000027c 	andeq	r0, r0, ip, ror r2
  24:	00000050 	andeq	r0, r0, r0, asr r0
  28:	00000000 	andeq	r0, r0, r0
  2c:	00000014 	andeq	r0, r0, r4, lsl r0
  30:	000002cc 	andeq	r0, r0, ip, asr #5
  34:	0000006c 	andeq	r0, r0, ip, rrx
	...
  40:	00000034 	andeq	r0, r0, r4, lsr r0
  44:	02480002 	subeq	r0, r8, #2
  48:	00040000 	andeq	r0, r4, r0
  4c:	00000000 	andeq	r0, r0, r0
  50:	00000338 	andeq	r0, r0, r8, lsr r3
  54:	00000064 	andeq	r0, r0, r4, rrx
  58:	000003a4 	andeq	r0, r0, r4, lsr #7
  5c:	00000006 	andeq	r0, r0, r6
  60:	000003ac 	andeq	r0, r0, ip, lsr #7
  64:	00000024 	andeq	r0, r0, r4, lsr #32
  68:	000003d0 	ldrdeq	r0, [r0], -r0	; <UNPREDICTABLE>
  6c:	00000006 	andeq	r0, r0, r6
	...
  78:	00000044 	andeq	r0, r0, r4, asr #32
  7c:	03c00002 	biceq	r0, r0, #2
  80:	00040000 	andeq	r0, r4, r0
  84:	00000000 	andeq	r0, r0, r0
  88:	000003d8 	ldrdeq	r0, [r0], -r8
  8c:	00000090 	muleq	r0, r0, r0
  90:	00000468 	andeq	r0, r0, r8, ror #8
  94:	00000090 	muleq	r0, r0, r0
  98:	00000000 	andeq	r0, r0, r0
  9c:	00000114 	andeq	r0, r0, r4, lsl r1
  a0:	00000000 	andeq	r0, r0, r0
  a4:	0000001c 	andeq	r0, r0, ip, lsl r0
  a8:	000004f8 	strdeq	r0, [r0], -r8
  ac:	00000408 	andeq	r0, r0, r8, lsl #8
  b0:	00000900 	andeq	r0, r0, r0, lsl #18
  b4:	00000024 	andeq	r0, r0, r4, lsr #32
	...
  c0:	000000cc 	andeq	r0, r0, ip, asr #1
  c4:	07650002 	strbeq	r0, [r5, -r2]!
  c8:	00040000 	andeq	r0, r4, r0
  cc:	00000000 	andeq	r0, r0, r0
  d0:	00000e4c 	andeq	r0, r0, ip, asr #28
  d4:	000000ac 	andeq	r0, r0, ip, lsr #1
  d8:	00000ef8 	strdeq	r0, [r0], -r8
  dc:	00000020 	andeq	r0, r0, r0, lsr #32
  e0:	00000f18 	andeq	r0, r0, r8, lsl pc
  e4:	00000020 	andeq	r0, r0, r0, lsr #32
  e8:	00000f38 	andeq	r0, r0, r8, lsr pc
  ec:	00000020 	andeq	r0, r0, r0, lsr #32
  f0:	00000f58 	andeq	r0, r0, r8, asr pc
  f4:	00000054 	andeq	r0, r0, r4, asr r0
  f8:	00000fac 	andeq	r0, r0, ip, lsr #31
  fc:	00000090 	muleq	r0, r0, r0
 100:	0000103c 	andeq	r1, r0, ip, lsr r0
 104:	00000038 	andeq	r0, r0, r8, lsr r0
 108:	00001074 	andeq	r1, r0, r4, ror r0
 10c:	00000034 	andeq	r0, r0, r4, lsr r0
 110:	000010a8 	andeq	r1, r0, r8, lsr #1
 114:	00000020 	andeq	r0, r0, r0, lsr #32
 118:	00000000 	andeq	r0, r0, r0
 11c:	00000060 	andeq	r0, r0, r0, rrx
 120:	000010c8 	andeq	r1, r0, r8, asr #1
 124:	00000060 	andeq	r0, r0, r0, rrx
 128:	00001128 	andeq	r1, r0, r8, lsr #2
 12c:	00000060 	andeq	r0, r0, r0, rrx
 130:	00001188 	andeq	r1, r0, r8, lsl #3
 134:	00000140 	andeq	r0, r0, r0, asr #2
 138:	000012c8 	andeq	r1, r0, r8, asr #5
 13c:	00000074 	andeq	r0, r0, r4, ror r0
 140:	0000133c 	andeq	r1, r0, ip, lsr r3
 144:	0000006c 	andeq	r0, r0, ip, rrx
 148:	000013a8 	andeq	r1, r0, r8, lsr #7
 14c:	0000005c 	andeq	r0, r0, ip, asr r0
 150:	00001404 	andeq	r1, r0, r4, lsl #8
 154:	0000005c 	andeq	r0, r0, ip, asr r0
 158:	00000000 	andeq	r0, r0, r0
 15c:	0000002a 	andeq	r0, r0, sl, lsr #32
 160:	00001460 	andeq	r1, r0, r0, ror #8
 164:	0000004c 	andeq	r0, r0, ip, asr #32
 168:	000014ac 	andeq	r1, r0, ip, lsr #9
 16c:	00000040 	andeq	r0, r0, r0, asr #32
 170:	000014ec 	andeq	r1, r0, ip, ror #9
 174:	0000008c 	andeq	r0, r0, ip, lsl #1
 178:	00001578 	andeq	r1, r0, r8, ror r5
 17c:	00000014 	andeq	r0, r0, r4, lsl r0
 180:	0000158c 	andeq	r1, r0, ip, lsl #11
 184:	0000008c 	andeq	r0, r0, ip, lsl #1
	...
 190:	0000006c 	andeq	r0, r0, ip, rrx
 194:	0ea90002 	cdpeq	0, 10, cr0, cr9, cr2, {0}
 198:	00040000 	andeq	r0, r4, r0
 19c:	00000000 	andeq	r0, r0, r0
 1a0:	00001618 	andeq	r1, r0, r8, lsl r6
 1a4:	00000030 	andeq	r0, r0, r0, lsr r0
 1a8:	00000000 	andeq	r0, r0, r0
 1ac:	00000014 	andeq	r0, r0, r4, lsl r0
 1b0:	00000000 	andeq	r0, r0, r0
 1b4:	00000014 	andeq	r0, r0, r4, lsl r0
 1b8:	00001648 	andeq	r1, r0, r8, asr #12
 1bc:	00000040 	andeq	r0, r0, r0, asr #32
 1c0:	00001688 	andeq	r1, r0, r8, lsl #13
 1c4:	00000084 	andeq	r0, r0, r4, lsl #1
 1c8:	0000170c 	andeq	r1, r0, ip, lsl #14
 1cc:	00000030 	andeq	r0, r0, r0, lsr r0
 1d0:	0000173c 	andeq	r1, r0, ip, lsr r7
 1d4:	000000e8 	andeq	r0, r0, r8, ror #1
 1d8:	00001824 	andeq	r1, r0, r4, lsr #16
 1dc:	00000060 	andeq	r0, r0, r0, rrx
 1e0:	00001884 	andeq	r1, r0, r4, lsl #17
 1e4:	00000058 	andeq	r0, r0, r8, asr r0
 1e8:	000018dc 	ldrdeq	r1, [r0], -ip
 1ec:	000000b0 	strheq	r0, [r0], -r0	; <UNPREDICTABLE>
 1f0:	0000198c 	andeq	r1, r0, ip, lsl #19
 1f4:	0000002c 	andeq	r0, r0, ip, lsr #32
	...
 200:	0000003c 	andeq	r0, r0, ip, lsr r0
 204:	16950002 	ldrne	r0, [r5], r2
 208:	00040000 	andeq	r0, r4, r0
 20c:	00000000 	andeq	r0, r0, r0
 210:	000019b8 			; <UNDEFINED> instruction: 0x000019b8
 214:	00000054 	andeq	r0, r0, r4, asr r0
 218:	00001a0c 	andeq	r1, r0, ip, lsl #20
 21c:	00000044 	andeq	r0, r0, r4, asr #32
 220:	00001a50 	andeq	r1, r0, r0, asr sl
 224:	00000044 	andeq	r0, r0, r4, asr #32
 228:	00000000 	andeq	r0, r0, r0
 22c:	00000044 	andeq	r0, r0, r4, asr #32
 230:	00001a94 	muleq	r0, r4, sl
 234:	00000044 	andeq	r0, r0, r4, asr #32
	...
 240:	0000004c 	andeq	r0, r0, ip, asr #32
 244:	189e0002 	ldmne	lr, {r1}
 248:	00040000 	andeq	r0, r4, r0
 24c:	00000000 	andeq	r0, r0, r0
 250:	00001ad8 	ldrdeq	r1, [r0], -r8
 254:	00000020 	andeq	r0, r0, r0, lsr #32
 258:	00000000 	andeq	r0, r0, r0
 25c:	00000074 	andeq	r0, r0, r4, ror r0
 260:	00000000 	andeq	r0, r0, r0
 264:	0000001c 	andeq	r0, r0, ip, lsl r0
 268:	00000000 	andeq	r0, r0, r0
 26c:	00000024 	andeq	r0, r0, r4, lsr #32
 270:	00000000 	andeq	r0, r0, r0
 274:	00000088 	andeq	r0, r0, r8, lsl #1
 278:	00000000 	andeq	r0, r0, r0
 27c:	0000002c 	andeq	r0, r0, ip, lsr #32
 280:	00000000 	andeq	r0, r0, r0
 284:	00000010 	andeq	r0, r0, r0, lsl r0
	...

Disassembly of section .debug_ranges:

00000000 <.debug_ranges>:
   0:	0000026c 	andeq	r0, r0, ip, ror #4
   4:	0000027a 	andeq	r0, r0, sl, ror r2
   8:	00000001 	andeq	r0, r0, r1
   c:	00000001 	andeq	r0, r0, r1
  10:	0000027c 	andeq	r0, r0, ip, ror r2
  14:	000002cc 	andeq	r0, r0, ip, asr #5
  18:	00000001 	andeq	r0, r0, r1
  1c:	00000001 	andeq	r0, r0, r1
  20:	000002cc 	andeq	r0, r0, ip, asr #5
  24:	00000338 	andeq	r0, r0, r8, lsr r3
	...
  30:	00000338 	andeq	r0, r0, r8, lsr r3
  34:	0000039c 	muleq	r0, ip, r3
  38:	000003a4 	andeq	r0, r0, r4, lsr #7
  3c:	000003aa 	andeq	r0, r0, sl, lsr #7
  40:	000003ac 	andeq	r0, r0, ip, lsr #7
  44:	000003d0 	ldrdeq	r0, [r0], -r0	; <UNPREDICTABLE>
  48:	000003d0 	ldrdeq	r0, [r0], -r0	; <UNPREDICTABLE>
  4c:	000003d6 	ldrdeq	r0, [r0], -r6
	...
  58:	000003d8 	ldrdeq	r0, [r0], -r8
  5c:	00000468 	andeq	r0, r0, r8, ror #8
  60:	00000468 	andeq	r0, r0, r8, ror #8
  64:	000004f8 	strdeq	r0, [r0], -r8
  68:	00000001 	andeq	r0, r0, r1
  6c:	00000001 	andeq	r0, r0, r1
  70:	00000001 	andeq	r0, r0, r1
  74:	00000001 	andeq	r0, r0, r1
  78:	000004f8 	strdeq	r0, [r0], -r8
  7c:	00000900 	andeq	r0, r0, r0, lsl #18
  80:	00000900 	andeq	r0, r0, r0, lsl #18
  84:	00000924 	andeq	r0, r0, r4, lsr #18
	...
  90:	00000e4c 	andeq	r0, r0, ip, asr #28
  94:	00000ef8 	strdeq	r0, [r0], -r8
  98:	00000ef8 	strdeq	r0, [r0], -r8
  9c:	00000f18 	andeq	r0, r0, r8, lsl pc
  a0:	00000f18 	andeq	r0, r0, r8, lsl pc
  a4:	00000f38 	andeq	r0, r0, r8, lsr pc
  a8:	00000f38 	andeq	r0, r0, r8, lsr pc
  ac:	00000f58 	andeq	r0, r0, r8, asr pc
  b0:	00000f58 	andeq	r0, r0, r8, asr pc
  b4:	00000fac 	andeq	r0, r0, ip, lsr #31
  b8:	00000fac 	andeq	r0, r0, ip, lsr #31
  bc:	0000103c 	andeq	r1, r0, ip, lsr r0
  c0:	0000103c 	andeq	r1, r0, ip, lsr r0
  c4:	00001074 	andeq	r1, r0, r4, ror r0
  c8:	00001074 	andeq	r1, r0, r4, ror r0
  cc:	000010a8 	andeq	r1, r0, r8, lsr #1
  d0:	000010a8 	andeq	r1, r0, r8, lsr #1
  d4:	000010c8 	andeq	r1, r0, r8, asr #1
  d8:	00000001 	andeq	r0, r0, r1
  dc:	00000001 	andeq	r0, r0, r1
  e0:	000010c8 	andeq	r1, r0, r8, asr #1
  e4:	00001128 	andeq	r1, r0, r8, lsr #2
  e8:	00001128 	andeq	r1, r0, r8, lsr #2
  ec:	00001188 	andeq	r1, r0, r8, lsl #3
  f0:	00001188 	andeq	r1, r0, r8, lsl #3
  f4:	000012c8 	andeq	r1, r0, r8, asr #5
  f8:	000012c8 	andeq	r1, r0, r8, asr #5
  fc:	0000133c 	andeq	r1, r0, ip, lsr r3
 100:	0000133c 	andeq	r1, r0, ip, lsr r3
 104:	000013a8 	andeq	r1, r0, r8, lsr #7
 108:	000013a8 	andeq	r1, r0, r8, lsr #7
 10c:	00001404 	andeq	r1, r0, r4, lsl #8
 110:	00001404 	andeq	r1, r0, r4, lsl #8
 114:	00001460 	andeq	r1, r0, r0, ror #8
 118:	00000001 	andeq	r0, r0, r1
 11c:	00000001 	andeq	r0, r0, r1
 120:	00001460 	andeq	r1, r0, r0, ror #8
 124:	000014ac 	andeq	r1, r0, ip, lsr #9
 128:	000014ac 	andeq	r1, r0, ip, lsr #9
 12c:	000014ec 	andeq	r1, r0, ip, ror #9
 130:	000014ec 	andeq	r1, r0, ip, ror #9
 134:	00001578 	andeq	r1, r0, r8, ror r5
 138:	00001578 	andeq	r1, r0, r8, ror r5
 13c:	0000158c 	andeq	r1, r0, ip, lsl #11
 140:	0000158c 	andeq	r1, r0, ip, lsl #11
 144:	00001618 	andeq	r1, r0, r8, lsl r6
	...
 150:	00001618 	andeq	r1, r0, r8, lsl r6
 154:	00001648 	andeq	r1, r0, r8, asr #12
 158:	00000001 	andeq	r0, r0, r1
 15c:	00000001 	andeq	r0, r0, r1
 160:	00000001 	andeq	r0, r0, r1
 164:	00000001 	andeq	r0, r0, r1
 168:	00001648 	andeq	r1, r0, r8, asr #12
 16c:	00001688 	andeq	r1, r0, r8, lsl #13
 170:	00001688 	andeq	r1, r0, r8, lsl #13
 174:	0000170c 	andeq	r1, r0, ip, lsl #14
 178:	0000170c 	andeq	r1, r0, ip, lsl #14
 17c:	0000173c 	andeq	r1, r0, ip, lsr r7
 180:	0000173c 	andeq	r1, r0, ip, lsr r7
 184:	00001824 	andeq	r1, r0, r4, lsr #16
 188:	00001824 	andeq	r1, r0, r4, lsr #16
 18c:	00001884 	andeq	r1, r0, r4, lsl #17
 190:	00001884 	andeq	r1, r0, r4, lsl #17
 194:	000018dc 	ldrdeq	r1, [r0], -ip
 198:	000018dc 	ldrdeq	r1, [r0], -ip
 19c:	0000198c 	andeq	r1, r0, ip, lsl #19
 1a0:	0000198c 	andeq	r1, r0, ip, lsl #19
 1a4:	000019b8 			; <UNDEFINED> instruction: 0x000019b8
	...
 1b0:	000019b8 			; <UNDEFINED> instruction: 0x000019b8
 1b4:	00001a0c 	andeq	r1, r0, ip, lsl #20
 1b8:	00001a0c 	andeq	r1, r0, ip, lsl #20
 1bc:	00001a50 	andeq	r1, r0, r0, asr sl
 1c0:	00001a50 	andeq	r1, r0, r0, asr sl
 1c4:	00001a94 	muleq	r0, r4, sl
 1c8:	00000001 	andeq	r0, r0, r1
 1cc:	00000001 	andeq	r0, r0, r1
 1d0:	00001a94 	muleq	r0, r4, sl
 1d4:	00001ad8 	ldrdeq	r1, [r0], -r8
	...
 1e0:	00001ad8 	ldrdeq	r1, [r0], -r8
 1e4:	00001af8 	strdeq	r1, [r0], -r8
 1e8:	00000001 	andeq	r0, r0, r1
 1ec:	00000001 	andeq	r0, r0, r1
 1f0:	00000001 	andeq	r0, r0, r1
 1f4:	00000001 	andeq	r0, r0, r1
 1f8:	00000001 	andeq	r0, r0, r1
 1fc:	00000001 	andeq	r0, r0, r1
 200:	00000001 	andeq	r0, r0, r1
 204:	00000001 	andeq	r0, r0, r1
 208:	00000001 	andeq	r0, r0, r1
 20c:	00000001 	andeq	r0, r0, r1
 210:	00000001 	andeq	r0, r0, r1
 214:	00000001 	andeq	r0, r0, r1
	...

Disassembly of section .debug_line:

00000000 <.debug_line>:
       0:	0000018c 	andeq	r0, r0, ip, lsl #3
       4:	00f70003 	rscseq	r0, r7, r3
       8:	01020000 	mrseq	r0, (UNDEF: 2)
       c:	000d0efb 	strdeq	r0, [sp], -fp
      10:	01010101 	tsteq	r1, r1, lsl #2
      14:	01000000 	mrseq	r0, (UNDEF: 0)
      18:	64010000 	strvs	r0, [r1], #-0
      1c:	63675c3a 	cmnvs	r7, #14848	; 0x3a00
      20:	72612d63 	rsbvc	r2, r1, #6336	; 0x18c0
      24:	6f6e2d6d 	svcvs	0x006e2d6d
      28:	652d656e 	strvs	r6, [sp, #-1390]!	; 0xfffffa92
      2c:	2d696261 	sfmcs	f6, 2, [r9, #-388]!	; 0xfffffe7c
      30:	322d3031 	eorcc	r3, sp, #49	; 0x31
      34:	2d303230 	lfmcs	f3, 4, [r0, #-192]!	; 0xffffff40
      38:	6d2d3471 	cfstrsvs	mvf3, [sp, #-452]!	; 0xfffffe3c
      3c:	726f6a61 	rsbvc	r6, pc, #397312	; 0x61000
      40:	6d72615c 	ldfvse	f6, [r2, #-368]!	; 0xfffffe90
      44:	6e6f6e2d 	cdpvs	14, 6, cr6, cr15, cr13, {1}
      48:	61652d65 	cmnvs	r5, r5, ror #26
      4c:	695c6962 	ldmdbvs	ip, {r1, r5, r6, r8, fp, sp, lr}^
      50:	756c636e 	strbvc	r6, [ip, #-878]!	; 0xfffffc92
      54:	6d5c6564 	cfldr64vs	mvdx6, [ip, #-400]	; 0xfffffe70
      58:	69686361 	stmdbvs	r8!, {r0, r5, r6, r8, r9, sp, lr}^
      5c:	6400656e 	strvs	r6, [r0], #-1390	; 0xfffffa92
      60:	63675c3a 	cmnvs	r7, #14848	; 0x3a00
      64:	72612d63 	rsbvc	r2, r1, #6336	; 0x18c0
      68:	6f6e2d6d 	svcvs	0x006e2d6d
      6c:	652d656e 	strvs	r6, [sp, #-1390]!	; 0xfffffa92
      70:	2d696261 	sfmcs	f6, 2, [r9, #-388]!	; 0xfffffe7c
      74:	322d3031 	eorcc	r3, sp, #49	; 0x31
      78:	2d303230 	lfmcs	f3, 4, [r0, #-192]!	; 0xffffff40
      7c:	6d2d3471 	cfstrsvs	mvf3, [sp, #-452]!	; 0xfffffe3c
      80:	726f6a61 	rsbvc	r6, pc, #397312	; 0x61000
      84:	6d72615c 	ldfvse	f6, [r2, #-368]!	; 0xfffffe90
      88:	6e6f6e2d 	cdpvs	14, 6, cr6, cr15, cr13, {1}
      8c:	61652d65 	cmnvs	r5, r5, ror #26
      90:	695c6962 	ldmdbvs	ip, {r1, r5, r6, r8, fp, sp, lr}^
      94:	756c636e 	strbvc	r6, [ip, #-878]!	; 0xfffffc92
      98:	735c6564 	cmpvc	ip, #100, 10	; 0x19000000
      9c:	2e007379 	mcrcs	3, 0, r7, cr0, cr9, {3}
      a0:	2e2e2f2e 	cdpcs	15, 2, cr2, cr14, cr14, {1}
      a4:	6372732f 	cmnvs	r2, #-1140850688	; 0xbc000000
      a8:	434e492f 	movtmi	r4, #59695	; 0xe92f
      ac:	6273752f 	rsbsvs	r7, r3, #197132288	; 0xbc00000
      b0:	616d0000 	cmnvs	sp, r0
      b4:	632e6e69 			; <UNDEFINED> instruction: 0x632e6e69
      b8:	00000000 	andeq	r0, r0, r0
      bc:	6665645f 			; <UNDEFINED> instruction: 0x6665645f
      c0:	746c7561 	strbtvc	r7, [ip], #-1377	; 0xfffffa9f
      c4:	7079745f 	rsbsvc	r7, r9, pc, asr r4
      c8:	682e7365 	stmdavs	lr!, {r0, r2, r5, r6, r8, r9, ip, sp, lr}
      cc:	00000100 	andeq	r0, r0, r0, lsl #2
      d0:	6474735f 	ldrbtvs	r7, [r4], #-863	; 0xfffffca1
      d4:	2e746e69 	cdpcs	14, 7, cr6, cr4, cr9, {3}
      d8:	00020068 	andeq	r0, r2, r8, rrx
      dc:	62737500 	rsbsvs	r7, r3, #0, 10
      e0:	6174735f 	cmnvs	r4, pc, asr r3
      e4:	7261646e 	rsbvc	r6, r1, #1845493760	; 0x6e000000
      e8:	682e7364 	stmdavs	lr!, {r2, r5, r6, r8, r9, ip, sp, lr}
      ec:	00000300 	andeq	r0, r0, r0, lsl #6
      f0:	5f627375 	svcpl	0x00627375
      f4:	69766564 	ldmdbvs	r6!, {r2, r5, r6, r8, sl, sp, lr}^
      f8:	682e6563 	stmdavs	lr!, {r0, r1, r5, r6, r8, sl, sp, lr}
      fc:	00000300 	andeq	r0, r0, r0, lsl #6
     100:	001b0500 	andseq	r0, fp, r0, lsl #10
     104:	026c0205 	rsbeq	r0, ip, #1342177280	; 0x50000000
     108:	1d030000 	stcne	0, cr0, [r3, #-0]
     10c:	2f010501 	svccs	0x00010501
     110:	01000502 	tsteq	r0, r2, lsl #10
     114:	00010501 	andeq	r0, r1, r1, lsl #10
     118:	00000205 	andeq	r0, r0, r5, lsl #4
     11c:	24030000 	strcs	r0, [r3], #-0
     120:	32120501 	andscc	r0, r2, #4194304	; 0x400000
     124:	02590105 	subseq	r0, r9, #1073741825	; 0x40000001
     128:	01010007 	tsteq	r1, r7
     12c:	05000105 	streq	r0, [r0, #-261]	; 0xfffffefb
     130:	00027c02 	andeq	r7, r2, r2, lsl #24
     134:	012d0300 			; <UNDEFINED> instruction: 0x012d0300
     138:	3d2f0505 	cfstr32cc	mvfx0, [pc, #-20]!	; 12c <g_pfnVectors+0x12c>
     13c:	4b3d4b3d 	blmi	f52e38 <_etext+0xf50ee9>
     140:	6701055a 	smlsdvs	r1, sl, r5, r0
     144:	01000a02 	tsteq	r0, r2, lsl #20
     148:	00010501 	andeq	r0, r1, r1, lsl #10
     14c:	00000205 	andeq	r0, r0, r5, lsl #4
     150:	39030000 	stmdbcc	r3, {}	; <UNPREDICTABLE>
     154:	2f050501 	svccs	0x00050501
     158:	023d0105 	eorseq	r0, sp, #1073741825	; 0x40000001
     15c:	01010005 	tsteq	r1, r5
     160:	05000105 	streq	r0, [r0, #-261]	; 0xfffffefb
     164:	0002cc02 	andeq	ip, r2, r2, lsl #24
     168:	00c00300 	sbceq	r0, r0, r0, lsl #6
     16c:	3d0e0501 	cfstr32cc	mvfx0, [lr, #-4]
     170:	3e300505 	cdpcc	5, 3, cr0, cr0, cr5, {0}
     174:	33336a30 	teqcc	r3, #48, 20	; 0x30000
     178:	1a053d30 	bne	14f640 <_etext+0x14d6f1>
     17c:	2e0b053f 	mcrcs	5, 0, r0, cr11, cr15, {1}
     180:	05410d05 	strbeq	r0, [r1, #-3333]	; 0xfffff2fb
     184:	0b05671b 	bleq	159df8 <_etext+0x157ea9>
     188:	023c7a03 	eorseq	r7, ip, #12288	; 0x3000
     18c:	0101000c 	tsteq	r1, ip
     190:	0000015f 	andeq	r0, r0, pc, asr r1
     194:	00c90003 	sbceq	r0, r9, r3
     198:	01020000 	mrseq	r0, (UNDEF: 2)
     19c:	000d0efb 	strdeq	r0, [sp], -fp
     1a0:	01010101 	tsteq	r1, r1, lsl #2
     1a4:	01000000 	mrseq	r0, (UNDEF: 0)
     1a8:	64010000 	strvs	r0, [r1], #-0
     1ac:	63675c3a 	cmnvs	r7, #14848	; 0x3a00
     1b0:	72612d63 	rsbvc	r2, r1, #6336	; 0x18c0
     1b4:	6f6e2d6d 	svcvs	0x006e2d6d
     1b8:	652d656e 	strvs	r6, [sp, #-1390]!	; 0xfffffa92
     1bc:	2d696261 	sfmcs	f6, 2, [r9, #-388]!	; 0xfffffe7c
     1c0:	322d3031 	eorcc	r3, sp, #49	; 0x31
     1c4:	2d303230 	lfmcs	f3, 4, [r0, #-192]!	; 0xffffff40
     1c8:	6d2d3471 	cfstrsvs	mvf3, [sp, #-452]!	; 0xfffffe3c
     1cc:	726f6a61 	rsbvc	r6, pc, #397312	; 0x61000
     1d0:	6d72615c 	ldfvse	f6, [r2, #-368]!	; 0xfffffe90
     1d4:	6e6f6e2d 	cdpvs	14, 6, cr6, cr15, cr13, {1}
     1d8:	61652d65 	cmnvs	r5, r5, ror #26
     1dc:	695c6962 	ldmdbvs	ip, {r1, r5, r6, r8, fp, sp, lr}^
     1e0:	756c636e 	strbvc	r6, [ip, #-878]!	; 0xfffffc92
     1e4:	6d5c6564 	cfldr64vs	mvdx6, [ip, #-400]	; 0xfffffe70
     1e8:	69686361 	stmdbvs	r8!, {r0, r5, r6, r8, r9, sp, lr}^
     1ec:	6400656e 	strvs	r6, [r0], #-1390	; 0xfffffa92
     1f0:	63675c3a 	cmnvs	r7, #14848	; 0x3a00
     1f4:	72612d63 	rsbvc	r2, r1, #6336	; 0x18c0
     1f8:	6f6e2d6d 	svcvs	0x006e2d6d
     1fc:	652d656e 	strvs	r6, [sp, #-1390]!	; 0xfffffa92
     200:	2d696261 	sfmcs	f6, 2, [r9, #-388]!	; 0xfffffe7c
     204:	322d3031 	eorcc	r3, sp, #49	; 0x31
     208:	2d303230 	lfmcs	f3, 4, [r0, #-192]!	; 0xffffff40
     20c:	6d2d3471 	cfstrsvs	mvf3, [sp, #-452]!	; 0xfffffe3c
     210:	726f6a61 	rsbvc	r6, pc, #397312	; 0x61000
     214:	6d72615c 	ldfvse	f6, [r2, #-368]!	; 0xfffffe90
     218:	6e6f6e2d 	cdpvs	14, 6, cr6, cr15, cr13, {1}
     21c:	61652d65 	cmnvs	r5, r5, ror #26
     220:	695c6962 	ldmdbvs	ip, {r1, r5, r6, r8, fp, sp, lr}^
     224:	756c636e 	strbvc	r6, [ip, #-878]!	; 0xfffffc92
     228:	735c6564 	cmpvc	ip, #100, 10	; 0x19000000
     22c:	00007379 	andeq	r7, r0, r9, ror r3
     230:	72617473 	rsbvc	r7, r1, #1929379840	; 0x73000000
     234:	5f707574 	svcpl	0x00707574
     238:	2e636367 	cdpcs	3, 6, cr6, cr3, cr7, {3}
     23c:	00000063 	andeq	r0, r0, r3, rrx
     240:	65645f00 	strbvs	r5, [r4, #-3840]!	; 0xfffff100
     244:	6c756166 	ldfvse	f6, [r5], #-408	; 0xfffffe68
     248:	79745f74 	ldmdbvc	r4!, {r2, r4, r5, r6, r8, r9, sl, fp, ip, lr}^
     24c:	2e736570 	mrccs	5, 3, r6, cr3, cr0, {3}
     250:	00010068 	andeq	r0, r1, r8, rrx
     254:	74735f00 	ldrbtvc	r5, [r3], #-3840	; 0xfffff100
     258:	746e6964 	strbtvc	r6, [lr], #-2404	; 0xfffff69c
     25c:	0200682e 	andeq	r6, r0, #3014656	; 0x2e0000
     260:	05000000 	streq	r0, [r0, #-0]
     264:	02050001 	andeq	r0, r5, #1
     268:	00000338 	andeq	r0, r0, r8, lsr r3
     26c:	0101f803 	tsteq	r1, r3, lsl #16	; <UNPREDICTABLE>
     270:	05420c05 	strbeq	r0, [r2, #-3077]	; 0xfffff3fb
     274:	05052f11 	streq	r2, [r5, #-3857]	; 0xfffff0ef
     278:	2216052e 	andscs	r0, r6, #192937984	; 0xb800000
     27c:	053c0a05 	ldreq	r0, [ip, #-2565]!	; 0xfffff5fb
     280:	0d053c0f 	stceq	12, cr3, [r5, #-60]	; 0xffffffc4
     284:	00050520 	andeq	r0, r5, r0, lsr #10
     288:	1e010402 	cdpne	4, 0, cr0, cr1, cr2, {0}
     28c:	031a0552 	tsteq	sl, #343932928	; 0x14800000
     290:	05059014 	streq	r9, [r5, #-20]	; 0xffffffec
     294:	2218052e 	andscs	r0, r8, #192937984	; 0xb800000
     298:	052c1605 	streq	r1, [ip, #-1541]!	; 0xfffff9fb
     29c:	01052705 	tsteq	r5, r5, lsl #14
     2a0:	0100082f 	tsteq	r0, pc, lsr #16
     2a4:	00010501 	andeq	r0, r1, r1, lsl #10
     2a8:	03a40205 			; <UNDEFINED> instruction: 0x03a40205
     2ac:	ae030000 	cdpge	0, 0, cr0, cr3, cr0, {0}
     2b0:	0a050102 	beq	1406c0 <_etext+0x13e771>
     2b4:	01040200 	mrseq	r0, R12_usr
     2b8:	00010232 	andeq	r0, r1, r2, lsr r2
     2bc:	01050101 	tsteq	r5, r1, lsl #2
     2c0:	ac020500 	cfstr32ge	mvfx0, [r2], {-0}
     2c4:	03000003 	movweq	r0, #3
     2c8:	050102c0 	streq	r0, [r1, #-704]	; 0xfffffd40
     2cc:	0a053205 	beq	14cae8 <_etext+0x14ab99>
     2d0:	01040200 	mrseq	r0, R12_usr
     2d4:	00080283 	andeq	r0, r8, r3, lsl #5
     2d8:	01050101 	tsteq	r5, r1, lsl #2
     2dc:	d0020500 	andle	r0, r2, r0, lsl #10
     2e0:	03000003 	movweq	r0, #3
     2e4:	050102d3 	streq	r0, [r1, #-723]	; 0xfffffd2d
     2e8:	0402000a 	streq	r0, [r2], #-10
     2ec:	01023201 	tsteq	r2, r1, lsl #4
     2f0:	b8010100 	stmdalt	r1, {r8}
     2f4:	03000004 	movweq	r0, #4
     2f8:	00014100 	andeq	r4, r1, r0, lsl #2
     2fc:	fb010200 	blx	40b06 <_etext+0x3ebb7>
     300:	01000d0e 	tsteq	r0, lr, lsl #26
     304:	00010101 	andeq	r0, r1, r1, lsl #2
     308:	00010000 	andeq	r0, r1, r0
     30c:	2e2e0100 	sufcse	f0, f6, f0
     310:	2f2e2e2f 	svccs	0x002e2e2f
     314:	61766954 	cmnvs	r6, r4, asr r9
     318:	65726157 	ldrbvs	r6, [r2, #-343]!	; 0xfffffea9
     31c:	6974752f 	ldmdbvs	r4!, {r0, r1, r2, r3, r5, r8, sl, ip, sp, lr}^
     320:	6400736c 	strvs	r7, [r0], #-876	; 0xfffffc94
     324:	63675c3a 	cmnvs	r7, #14848	; 0x3a00
     328:	72612d63 	rsbvc	r2, r1, #6336	; 0x18c0
     32c:	6f6e2d6d 	svcvs	0x006e2d6d
     330:	652d656e 	strvs	r6, [sp, #-1390]!	; 0xfffffa92
     334:	2d696261 	sfmcs	f6, 2, [r9, #-388]!	; 0xfffffe7c
     338:	322d3031 	eorcc	r3, sp, #49	; 0x31
     33c:	2d303230 	lfmcs	f3, 4, [r0, #-192]!	; 0xffffff40
     340:	6d2d3471 	cfstrsvs	mvf3, [sp, #-452]!	; 0xfffffe3c
     344:	726f6a61 	rsbvc	r6, pc, #397312	; 0x61000
     348:	6d72615c 	ldfvse	f6, [r2, #-368]!	; 0xfffffe90
     34c:	6e6f6e2d 	cdpvs	14, 6, cr6, cr15, cr13, {1}
     350:	61652d65 	cmnvs	r5, r5, ror #26
     354:	695c6962 	ldmdbvs	ip, {r1, r5, r6, r8, fp, sp, lr}^
     358:	756c636e 	strbvc	r6, [ip, #-878]!	; 0xfffffc92
     35c:	6d5c6564 	cfldr64vs	mvdx6, [ip, #-400]	; 0xfffffe70
     360:	69686361 	stmdbvs	r8!, {r0, r5, r6, r8, r9, sp, lr}^
     364:	6400656e 	strvs	r6, [r0], #-1390	; 0xfffffa92
     368:	63675c3a 	cmnvs	r7, #14848	; 0x3a00
     36c:	72612d63 	rsbvc	r2, r1, #6336	; 0x18c0
     370:	6f6e2d6d 	svcvs	0x006e2d6d
     374:	652d656e 	strvs	r6, [sp, #-1390]!	; 0xfffffa92
     378:	2d696261 	sfmcs	f6, 2, [r9, #-388]!	; 0xfffffe7c
     37c:	322d3031 	eorcc	r3, sp, #49	; 0x31
     380:	2d303230 	lfmcs	f3, 4, [r0, #-192]!	; 0xffffff40
     384:	6d2d3471 	cfstrsvs	mvf3, [sp, #-452]!	; 0xfffffe3c
     388:	726f6a61 	rsbvc	r6, pc, #397312	; 0x61000
     38c:	6d72615c 	ldfvse	f6, [r2, #-368]!	; 0xfffffe90
     390:	6e6f6e2d 	cdpvs	14, 6, cr6, cr15, cr13, {1}
     394:	61652d65 	cmnvs	r5, r5, ror #26
     398:	695c6962 	ldmdbvs	ip, {r1, r5, r6, r8, fp, sp, lr}^
     39c:	756c636e 	strbvc	r6, [ip, #-878]!	; 0xfffffc92
     3a0:	735c6564 	cmpvc	ip, #100, 10	; 0x19000000
     3a4:	64007379 	strvs	r7, [r0], #-889	; 0xfffffc87
     3a8:	63675c3a 	cmnvs	r7, #14848	; 0x3a00
     3ac:	72612d63 	rsbvc	r2, r1, #6336	; 0x18c0
     3b0:	6f6e2d6d 	svcvs	0x006e2d6d
     3b4:	652d656e 	strvs	r6, [sp, #-1390]!	; 0xfffffa92
     3b8:	2d696261 	sfmcs	f6, 2, [r9, #-388]!	; 0xfffffe7c
     3bc:	322d3031 	eorcc	r3, sp, #49	; 0x31
     3c0:	2d303230 	lfmcs	f3, 4, [r0, #-192]!	; 0xffffff40
     3c4:	6d2d3471 	cfstrsvs	mvf3, [sp, #-452]!	; 0xfffffe3c
     3c8:	726f6a61 	rsbvc	r6, pc, #397312	; 0x61000
     3cc:	62696c5c 	rsbvs	r6, r9, #92, 24	; 0x5c00
     3d0:	6363675c 	cmnvs	r3, #92, 14	; 0x1700000
     3d4:	6d72615c 	ldfvse	f6, [r2, #-368]!	; 0xfffffe90
     3d8:	6e6f6e2d 	cdpvs	14, 6, cr6, cr15, cr13, {1}
     3dc:	61652d65 	cmnvs	r5, r5, ror #26
     3e0:	315c6962 	cmpcc	ip, r2, ror #18
     3e4:	2e322e30 	mrccs	14, 1, r2, cr2, cr0, {1}
     3e8:	6e695c31 	mcrvs	12, 3, r5, cr9, cr1, {1}
     3ec:	64756c63 	ldrbtvs	r6, [r5], #-3171	; 0xfffff39d
     3f0:	75000065 	strvc	r0, [r0, #-101]	; 0xffffff9b
     3f4:	73747261 	cmnvc	r4, #268435462	; 0x10000006
     3f8:	6f696474 	svcvs	0x00696474
     3fc:	0100632e 	tsteq	r0, lr, lsr #6
     400:	645f0000 	ldrbvs	r0, [pc], #-0	; 408 <UARTStdioConfig+0x30>
     404:	75616665 	strbvc	r6, [r1, #-1637]!	; 0xfffff99b
     408:	745f746c 	ldrbvc	r7, [pc], #-1132	; 410 <UARTStdioConfig+0x38>
     40c:	73657079 	cmnvc	r5, #121	; 0x79
     410:	0200682e 	andeq	r6, r0, #3014656	; 0x2e0000
     414:	735f0000 	cmpvc	pc, #0
     418:	6e696474 	mcrvs	4, 3, r6, cr9, cr4, {3}
     41c:	00682e74 	rsbeq	r2, r8, r4, ror lr
     420:	73000003 	movwvc	r0, #3
     424:	72616474 	rsbvc	r6, r1, #116, 8	; 0x74000000
     428:	00682e67 	rsbeq	r2, r8, r7, ror #28
     42c:	3c000004 	stccc	0, cr0, [r0], {4}
     430:	6c697562 	cfstr64vs	mvdx7, [r9], #-392	; 0xfffffe78
     434:	6e692d74 	mcrvs	13, 3, r2, cr9, cr4, {3}
     438:	0000003e 	andeq	r0, r0, lr, lsr r0
     43c:	01050000 	mrseq	r0, (UNDEF: 5)
     440:	d8020500 	stmdale	r2, {r8, sl}
     444:	03000003 	movweq	r0, #3
     448:	050102ce 	streq	r0, [r1, #-718]	; 0xfffffd32
     44c:	02006a05 	andeq	r6, r0, #20480	; 0x5000
     450:	3c060104 	stfccs	f0, [r6], {4}
     454:	02040200 	andeq	r0, r4, #0, 4
     458:	0402003c 	streq	r0, [r2], #-60	; 0xffffffc4
     45c:	09053c03 	stmdbeq	r5, {r0, r1, sl, fp, ip, sp}
     460:	580d0306 	stmdapl	sp, {r1, r2, r8, r9}
     464:	05820805 	streq	r0, [r2, #2053]	; 0x805
     468:	20053c07 	andcs	r3, r5, r7, lsl #24
     46c:	4a100536 	bmi	40194c <_etext+0x3ff9fd>
     470:	79330505 	ldmdbvc	r3!, {r0, r2, r8, sl}
     474:	05742403 	ldrbeq	r2, [r4, #-1027]!	; 0xfffffbfd
     478:	664c0309 	strbvs	r0, [ip], -r9, lsl #6
     47c:	35030105 	strcc	r0, [r3, #-261]	; 0xfffffefb
     480:	000c0220 	andeq	r0, ip, r0, lsr #4
     484:	01050101 	tsteq	r5, r1, lsl #2
     488:	68020500 	stmdavs	r2, {r8, sl}
     48c:	03000004 	movweq	r0, #4
     490:	050103b4 	streq	r0, [r1, #-948]	; 0xfffffc4c
     494:	00cc0305 	sbceq	r0, ip, r5, lsl #6
     498:	04020058 	streq	r0, [r2], #-88	; 0xffffffa8
     49c:	064a0601 	strbeq	r0, [sl], -r1, lsl #12
     4a0:	04020059 	streq	r0, [r2], #-89	; 0xffffffa7
     4a4:	053c0601 	ldreq	r0, [ip, #-1537]!	; 0xfffff9ff
     4a8:	055d060e 	ldrbeq	r0, [sp, #-1550]	; 0xfffff9f2
     4ac:	11052e05 	tstne	r5, r5, lsl #28
     4b0:	4a0b0526 	bmi	2c1950 <_etext+0x2bfa01>
     4b4:	05300d05 	ldreq	r0, [r0, #-3333]!	; 0xfffff2fb
     4b8:	10057616 	andne	r7, r5, r6, lsl r6
     4bc:	0009054a 	andeq	r0, r9, sl, asr #10
     4c0:	36020402 	strcc	r0, [r2], -r2, lsl #8
     4c4:	02002a05 	andeq	r2, r0, #20480	; 0x5000
     4c8:	052e0204 	streq	r0, [lr, #-516]!	; 0xfffffdfc
     4cc:	04020009 	streq	r0, [r2], #-9
     4d0:	27053c02 	strcs	r3, [r5, -r2, lsl #24]
     4d4:	02040200 	andeq	r0, r4, #0, 4
     4d8:	054a6e03 	strbeq	r6, [sl, #-3587]	; 0xfffff1fd
     4dc:	04020005 	streq	r0, [r2], #-5
     4e0:	0a053c01 	beq	14f4ec <_etext+0x14d59d>
     4e4:	05580c03 	ldrbeq	r0, [r8, #-3075]	; 0xfffff3fd
     4e8:	200c030b 	andcs	r0, ip, fp, lsl #6
     4ec:	02220105 	eoreq	r0, r2, #1073741825	; 0x40000001
     4f0:	01010009 	tsteq	r1, r9
     4f4:	05000105 	streq	r0, [r0, #-261]	; 0xfffffefb
     4f8:	00000002 	andeq	r0, r0, r2
     4fc:	04c10300 	strbeq	r0, [r1], #768	; 0x300
     500:	030e0501 	movweq	r0, #58625	; 0xe501
     504:	055800c9 	ldrbeq	r0, [r8, #-201]	; 0xffffff37
     508:	02003505 	andeq	r3, r0, #20971520	; 0x1400000
     50c:	3c060104 	stfccs	f0, [r6], {4}
     510:	02005906 	andeq	r5, r0, #98304	; 0x18000
     514:	3c060104 	stfccs	f0, [r6], {4}
     518:	02005906 	andeq	r5, r0, #98304	; 0x18000
     51c:	4a060104 	bmi	180934 <_etext+0x17e9e5>
     520:	5e060c05 	cdppl	12, 0, cr0, cr6, cr5, {0}
     524:	0a031105 	beq	c4940 <_etext+0xc29f1>
     528:	660f053c 			; <UNDEFINED> instruction: 0x660f053c
     52c:	05250b05 	streq	r0, [r5, #-2821]!	; 0xfffff4fb
     530:	1105500f 	tstne	r5, pc
     534:	4f1a0541 	svcmi	0x001a0541
     538:	05420d05 	strbeq	r0, [r2, #-3333]	; 0xfffff2fb
     53c:	1c05270b 	stcne	7, cr2, [r5], {11}
     540:	01040200 	mrseq	r0, R12_usr
     544:	5a18054a 	bpl	601a74 <_etext+0x5ffb25>
     548:	053d0d05 	ldreq	r0, [sp, #-3333]!	; 0xfffff2fb
     54c:	1c05260b 	stcne	6, cr2, [r5], {11}
     550:	01040200 	mrseq	r0, R12_usr
     554:	002f054a 	eoreq	r0, pc, sl, asr #10
     558:	4a020402 	bmi	81568 <_etext+0x7f619>
     55c:	05510f05 	ldrbeq	r0, [r1, #-3845]	; 0xfffff0fb
     560:	0d054c1c 	stceq	12, cr4, [r5, #-112]	; 0xffffff90
     564:	280b0542 	stmdacs	fp, {r1, r6, r8, sl}
     568:	054f1205 	strbeq	r1, [pc, #-517]	; 36b <zero_loop+0x3>
     56c:	16053c1e 			; <UNDEFINED> instruction: 0x16053c1e
     570:	410d0533 	tstmi	sp, r3, lsr r5
     574:	05824a03 	streq	r4, [r2, #2563]	; 0xa03
     578:	2065030f 	rsbcs	r0, r5, pc, lsl #6
     57c:	3a030d05 	bcc	c3998 <_etext+0xc1a49>
     580:	030a0520 	movweq	r0, #42272	; 0xa520
     584:	1605201e 			; <UNDEFINED> instruction: 0x1605201e
     588:	3305053c 	movwcc	r0, #21820	; 0x553c
     58c:	054f0b05 	strbeq	r0, [pc, #-2821]	; fffffa8f <_ebss+0xdffff96f>
     590:	0f022201 	svceq	0x00022201
     594:	05010100 	streq	r0, [r1, #-256]	; 0xffffff00
     598:	02050001 	andeq	r0, r5, #1
     59c:	00000000 	andeq	r0, r0, r0
     5a0:	01069a03 	tsteq	r6, r3, lsl #20
     5a4:	1e030c05 	cdpne	12, 0, cr0, cr3, cr5, {0}
     5a8:	7601052e 	strvc	r0, [r1], -lr, lsr #10
     5ac:	01000502 	tsteq	r0, r2, lsl #10
     5b0:	00010501 	andeq	r0, r1, r1, lsl #10
     5b4:	04f80205 	ldrbteq	r0, [r8], #517	; 0x205
     5b8:	e4030000 	str	r0, [r3], #-0
     5bc:	05050106 	streq	r0, [r5, #-262]	; 0xfffffefa
     5c0:	0402005f 	streq	r0, [r2], #-95	; 0xffffffa1
     5c4:	054a0601 	strbeq	r0, [sl, #-1537]	; 0xfffff9ff
     5c8:	0402000a 	streq	r0, [r2], #-10
     5cc:	055d0601 	ldrbeq	r0, [sp, #-1537]	; 0xfffff9ff
     5d0:	09052515 	stmdbeq	r5, {r0, r2, r4, r8, sl, sp}
     5d4:	2214052e 	andscs	r0, r4, #192937984	; 0xb800000
     5d8:	02001605 	andeq	r1, r0, #5242880	; 0x500000
     5dc:	053b0104 	ldreq	r0, [fp, #-260]!	; 0xfffffefc
     5e0:	04020009 	streq	r0, [r2], #-9
     5e4:	34054901 	strcc	r4, [r5], #-2305	; 0xfffff6ff
     5e8:	4a28052f 	bmi	a01aac <_etext+0x9ffb5d>
     5ec:	05360905 	ldreq	r0, [r6, #-2309]!	; 0xfffff6fb
     5f0:	0c054f12 	stceq	15, cr4, [r5], {18}
     5f4:	2e0b054f 	cfsh32cs	mvfx0, mvfx11, #47
     5f8:	05411505 	strbeq	r1, [r1, #-1285]	; 0xfffffafb
     5fc:	13054217 	movwne	r4, #21015	; 0x5217
     600:	031d052f 	tsteq	sp, #197132288	; 0xbc00000
     604:	14053c0c 	strne	r3, [r5], #-3084	; 0xfffff3f4
     608:	0321053c 			; <UNDEFINED> instruction: 0x0321053c
     60c:	01b10214 			; <UNDEFINED> instruction: 0x01b10214
     610:	3c170501 	cfldr32cc	mvfx0, [r7], {1}
     614:	02002e05 	andeq	r2, r0, #5, 28	; 0x50
     618:	052e0104 	streq	r0, [lr, #-260]!	; 0xfffffefc
     61c:	05423e1f 	strbeq	r3, [r2, #-3615]	; 0xfffff1e1
     620:	1f05672a 	svcne	0x0005672a
     624:	5d15053c 	cfldr32pl	mvfx0, [r5, #-240]	; 0xffffff10
     628:	0b032105 	bleq	c8a44 <_etext+0xc6af5>
     62c:	4a1f0520 	bmi	7c1ab4 <_etext+0x7bfb65>
     630:	6b251505 	blvs	945a4c <_etext+0x943afd>
     634:	0c032105 	stfeqs	f2, [r3], {5}
     638:	4a1f0520 	bmi	7c1ac0 <_etext+0x7bfb71>
     63c:	05251d05 	streq	r1, [r5, #-3333]!	; 0xfffff2fb
     640:	17053418 	smladne	r5, r8, r4, r3
     644:	33260520 			; <UNDEFINED> instruction: 0x33260520
     648:	05202505 	streq	r2, [r0, #-1285]!	; 0xfffffafb
     64c:	21052023 	tstcs	r5, r3, lsr #32
     650:	1e054425 	cdpne	4, 0, cr4, cr5, cr5, {1}
     654:	33150534 	tstcc	r5, #52, 10	; 0xd000000
     658:	0b031b05 	bleq	c7274 <_etext+0xc5325>
     65c:	5d210520 	cfstr32pl	mvfx0, [r1, #-128]!	; 0xffffff80
     660:	052e1505 	streq	r1, [lr, #-1285]!	; 0xfffffafb
     664:	04020045 	streq	r0, [r2], #-69	; 0xffffffbb
     668:	2b052003 	blcs	14867c <_etext+0x14672d>
     66c:	01040200 	mrseq	r0, R12_usr
     670:	0015053c 	andseq	r0, r5, ip, lsr r5
     674:	4a010402 	bmi	41684 <_etext+0x3f735>
     678:	4f170535 	svcmi	0x00170535
     67c:	055a2305 	ldrbeq	r2, [sl, #-773]	; 0xfffffcfb
     680:	1d054b1e 	vstrne	d4, [r5, #-120]	; 0xffffff88
     684:	48280522 	stmdami	r8!, {r1, r5, r8, sl}
     688:	053c1e05 	ldreq	r1, [ip, #-3589]!	; 0xfffff1fb
     68c:	2e090315 	mcrcs	3, 0, r0, cr9, cr5, {0}
     690:	0b032105 	bleq	c8aac <_etext+0xc6b5d>
     694:	4a1f0520 	bmi	7c1b1c <_etext+0x7bfbcd>
     698:	05251d05 	streq	r1, [r5, #-3333]!	; 0xfffff2fb
     69c:	1d05331e 	stcne	3, cr3, [r5, #-120]	; 0xffffff88
     6a0:	33150534 	tstcc	r5, #52, 10	; 0xd000000
     6a4:	10032105 	andne	r2, r3, r5, lsl #2
     6a8:	4a1f0520 	bmi	7c1b30 <_etext+0x7bfbe1>
     6ac:	05251d05 	streq	r1, [r5, #-3333]!	; 0xfffff2fb
     6b0:	1d05331e 	stcne	3, cr3, [r5, #-120]	; 0xffffff88
     6b4:	35210534 	strcc	r0, [r1, #-1332]!	; 0xfffffacc
     6b8:	052e1505 	streq	r1, [lr, #-1285]!	; 0xfffffafb
     6bc:	37055b21 	strcc	r5, [r5, -r1, lsr #22]
     6c0:	00240558 	eoreq	r0, r4, r8, asr r5
     6c4:	3a010402 	bcc	416d4 <_etext+0x3f785>
     6c8:	02003005 	andeq	r3, r0, #5
     6cc:	054a0104 	strbeq	r0, [sl, #-260]	; 0xfffffefc
     6d0:	04020015 	streq	r0, [r2], #-21	; 0xffffffeb
     6d4:	25051f01 	strcs	r1, [r5, #-3841]	; 0xfffff0ff
     6d8:	4a310530 	bmi	c41ba0 <_etext+0xc3fc51>
     6dc:	053b3e05 	ldreq	r3, [fp, #-3589]!	; 0xfffff1fb
     6e0:	3c0a0317 	stccc	3, cr0, [sl], {23}
     6e4:	053e2205 	ldreq	r2, [lr, #-517]!	; 0xfffffdfb
     6e8:	20054317 	andcs	r4, r5, r7, lsl r3
     6ec:	01040200 	mrseq	r0, R12_usr
     6f0:	4f26053c 	svcmi	0x0026053c
     6f4:	053c2a05 	ldreq	r2, [ip, #-2565]!	; 0xfffff5fb
     6f8:	17056c21 	strne	r6, [r5, -r1, lsr #24]
     6fc:	00280535 	eoreq	r0, r8, r5, lsr r5
     700:	3c010402 	cfstrscc	mvf0, [r1], {2}
     704:	053e2605 	ldreq	r2, [lr, #-1541]!	; 0xfffff9fb
     708:	2a053c19 	bcs	14f774 <_etext+0x14d825>
     70c:	03040200 	movweq	r0, #16896	; 0x4200
     710:	002e0522 	eoreq	r0, lr, r2, lsr #10
     714:	3c030402 	cfstrscc	mvf0, [r3], {2}
     718:	02003e05 	andeq	r3, r0, #5, 28	; 0x50
     71c:	05720304 	ldrbeq	r0, [r2, #-772]!	; 0xfffffcfc
     720:	04020019 	streq	r0, [r2], #-25	; 0xffffffe7
     724:	17053c01 	strne	r3, [r5, -r1, lsl #24]
     728:	053c0a03 	ldreq	r0, [ip, #-2563]!	; 0xfffff5fd
     72c:	2a054126 	bcs	150bcc <_etext+0x14ec7d>
     730:	6c15053c 	cfldr32vs	mvfx0, [r5], {60}	; 0x3c
     734:	02002405 	andeq	r2, r0, #83886080	; 0x5000000
     738:	05230204 	streq	r0, [r3, #-516]!	; 0xfffffdfc
     73c:	04020030 	streq	r0, [r2], #-48	; 0xffffffd0
     740:	3b052002 	blcc	148750 <_etext+0x146801>
     744:	02040200 	andeq	r0, r4, #0, 4
     748:	0024054a 	eoreq	r0, r4, sl, asr #10
     74c:	74020402 	strvc	r0, [r2], #-1026	; 0xfffffbfe
     750:	02002605 	andeq	r2, r0, #5242880	; 0x500000
     754:	051f0204 	ldreq	r0, [pc, #-516]	; 558 <UARTvprintf+0x60>
     758:	04020024 	streq	r0, [r2], #-36	; 0xffffffdc
     75c:	2a053d02 	bcs	14fb6c <_etext+0x14dc1d>
     760:	02040200 	andeq	r0, r4, #0, 4
     764:	002c051f 	eoreq	r0, ip, pc, lsl r5
     768:	56020402 	strpl	r0, [r2], -r2, lsl #8
     76c:	02001505 	andeq	r1, r0, #20971520	; 0x1400000
     770:	03580104 	cmpeq	r8, #4, 2
     774:	036b3c09 	cmneq	fp, #2304	; 0x900
     778:	036b200b 	cmneq	fp, #11
     77c:	054f200b 	strbeq	r2, [pc, #-11]	; 779 <UARTvprintf+0x281>
     780:	0b052309 	bleq	1493ac <_etext+0x14745d>
     784:	207d8803 	rsbscs	r8, sp, r3, lsl #16
     788:	052e0a05 	streq	r0, [lr, #-2565]!	; 0xfffff5fb
     78c:	02fa0301 	rscseq	r0, sl, #67108864	; 0x4000000
     790:	0009023c 	andeq	r0, r9, ip, lsr r2
     794:	01050101 	tsteq	r5, r1, lsl #2
     798:	00020500 	andeq	r0, r2, r0, lsl #10
     79c:	03000009 	movweq	r0, #9
     7a0:	05010a94 	streq	r0, [r1, #-2708]	; 0xfffff56c
     7a4:	053e5005 	ldreq	r5, [lr, #-5]!
     7a8:	07025001 	streq	r5, [r2, -r1]
     7ac:	59010100 	stmdbpl	r1, {r8}
     7b0:	03000006 	movweq	r0, #6
     7b4:	00006f00 	andeq	r6, r0, r0, lsl #30
     7b8:	fb010200 	blx	40fc2 <_etext+0x3f073>
     7bc:	01000d0e 	tsteq	r0, lr, lsl #26
     7c0:	00010101 	andeq	r0, r1, r1, lsl #2
     7c4:	00010000 	andeq	r0, r1, r0
     7c8:	2e2e0100 	sufcse	f0, f6, f0
     7cc:	2f2e2e2f 	svccs	0x002e2e2f
     7d0:	2f637273 	svccs	0x00637273
     7d4:	76697264 	strbtvc	r7, [r9], -r4, ror #4
     7d8:	752f7265 	strvc	r7, [pc, #-613]!	; 57b <UARTvprintf+0x83>
     7dc:	2e006273 	mcrcs	2, 0, r6, cr0, cr3, {3}
     7e0:	2e2e2f2e 	cdpcs	15, 2, cr2, cr14, cr14, {1}
     7e4:	6372732f 	cmnvs	r2, #-1140850688	; 0xbc000000
     7e8:	434e492f 	movtmi	r4, #59695	; 0xe92f
     7ec:	6273752f 	rsbsvs	r7, r3, #197132288	; 0xbc00000
     7f0:	73750000 	cmnvc	r5, #0
     7f4:	645f6462 	ldrbvs	r6, [pc], #-1122	; 7fc <UARTvprintf+0x304>
     7f8:	65766972 	ldrbvs	r6, [r6, #-2418]!	; 0xfffff68e
     7fc:	00632e72 	rsbeq	r2, r3, r2, ror lr
     800:	75000001 	strvc	r0, [r0, #-1]
     804:	735f6273 	cmpvc	pc, #805306375	; 0x30000007
     808:	646e6174 	strbtvs	r6, [lr], #-372	; 0xfffffe8c
     80c:	73647261 	cmnvc	r4, #268435462	; 0x10000006
     810:	0200682e 	andeq	r6, r0, #3014656	; 0x2e0000
     814:	73750000 	cmnvc	r5, #0
     818:	645f6462 	ldrbvs	r6, [pc], #-1122	; 820 <UARTvprintf+0x328>
     81c:	65766972 	ldrbvs	r6, [r6, #-2418]!	; 0xfffff68e
     820:	00682e72 	rsbeq	r2, r8, r2, ror lr
     824:	00000002 	andeq	r0, r0, r2
     828:	05002405 	streq	r2, [r0, #-1029]	; 0xfffffbfb
     82c:	000e4c02 	andeq	r4, lr, r2, lsl #24
     830:	00e40300 	rsceq	r0, r4, r0, lsl #6
     834:	3f100501 	svccc	0x00100501
     838:	052e0505 	streq	r0, [lr, #-1285]!	; 0xfffffafb
     83c:	0e052019 	mcreq	0, 0, r2, cr5, cr9, {0}
     840:	2112052e 	tstcs	r2, lr, lsr #10
     844:	052e0505 	streq	r0, [lr, #-1285]!	; 0xfffffafb
     848:	0402002e 	streq	r0, [r2], #-46	; 0xffffffd2
     84c:	20052003 	andcs	r2, r5, r3
     850:	01040200 	mrseq	r0, R12_usr
     854:	00050558 	andeq	r0, r5, r8, asr r5
     858:	2e010402 	cdpcs	4, 0, cr0, cr1, cr2, {0}
     85c:	05301305 	ldreq	r1, [r0, #-773]!	; 0xfffffcfb
     860:	1f052e05 	svcne	0x00052e05
     864:	2e110520 	cfmul64cs	mvdx0, mvdx1, mvdx0
     868:	05211505 	streq	r1, [r1, #-1285]!	; 0xfffffafb
     86c:	23052e05 	movwcs	r2, #24069	; 0x5e05
     870:	2e130520 	cfmul64cs	mvdx0, mvdx3, mvdx0
     874:	05211405 	streq	r1, [r1, #-1029]!	; 0xfffffbfb
     878:	21052e05 	tstcs	r5, r5, lsl #28
     87c:	2e120520 	cfmul64cs	mvdx0, mvdx2, mvdx0
     880:	05221405 	streq	r1, [r2, #-1029]!	; 0xfffffbfb
     884:	21052e05 	tstcs	r5, r5, lsl #28
     888:	2e120520 	cfmul64cs	mvdx0, mvdx2, mvdx0
     88c:	05211405 	streq	r1, [r1, #-1029]!	; 0xfffffbfb
     890:	21052e05 	tstcs	r5, r5, lsl #28
     894:	2e120520 	cfmul64cs	mvdx0, mvdx2, mvdx0
     898:	05211405 	streq	r1, [r1, #-1029]!	; 0xfffffbfb
     89c:	21052e05 	tstcs	r5, r5, lsl #28
     8a0:	2e120520 	cfmul64cs	mvdx0, mvdx2, mvdx0
     8a4:	05211505 	streq	r1, [r1, #-1285]!	; 0xfffffafb
     8a8:	23052e05 	movwcs	r2, #24069	; 0x5e05
     8ac:	2e130520 	cfmul64cs	mvdx0, mvdx3, mvdx0
     8b0:	02210105 	eoreq	r0, r1, #1073741825	; 0x40000001
     8b4:	01010017 	tsteq	r1, r7, lsl r0
     8b8:	05002105 	streq	r2, [r0, #-261]	; 0xfffffefb
     8bc:	000ef802 	andeq	pc, lr, r2, lsl #16
     8c0:	00f90300 	rscseq	r0, r9, r0, lsl #6
     8c4:	2f100501 	svccs	0x00100501
     8c8:	052e0505 	streq	r0, [lr, #-1285]!	; 0xfffffafb
     8cc:	0105200e 	tsteq	r5, lr
     8d0:	0007024b 	andeq	r0, r7, fp, asr #4
     8d4:	24050101 	strcs	r0, [r5], #-257	; 0xfffffeff
     8d8:	18020500 	stmdane	r2, {r8, sl}
     8dc:	0300000f 	movweq	r0, #15
     8e0:	050100fd 	streq	r0, [r1, #-253]	; 0xffffff03
     8e4:	05052f10 	streq	r2, [r5, #-3856]	; 0xfffff0f0
     8e8:	2019052e 	andscs	r0, r9, lr, lsr #10
     8ec:	053c0e05 	ldreq	r0, [ip, #-3589]!	; 0xfffff1fb
     8f0:	07022101 	streq	r2, [r2, -r1, lsl #2]
     8f4:	05010100 	streq	r0, [r1, #-256]	; 0xffffff00
     8f8:	02050037 	andeq	r0, r5, #55	; 0x37
     8fc:	00000f38 	andeq	r0, r0, r8, lsr pc
     900:	01018103 	tsteq	r1, r3, lsl #2
     904:	05590505 	ldrbeq	r0, [r9, #-1285]	; 0xfffffafb
     908:	0105200e 	tsteq	r5, lr
     90c:	0008022f 	andeq	r0, r8, pc, lsr #4
     910:	29050101 	stmdbcs	r5, {r0, r8}
     914:	58020500 	stmdapl	r2, {r8, sl}
     918:	0300000f 	movweq	r0, #15
     91c:	05010185 	streq	r0, [r1, #-389]	; 0xfffffe7b
     920:	0505300d 	streq	r3, [r5, #-13]
     924:	200b052e 	andcs	r0, fp, lr, lsr #10
     928:	054c0f05 	strbeq	r0, [ip, #-3845]	; 0xfffff0fb
     92c:	0d052e05 	stceq	14, cr2, [r5, #-20]	; 0xffffffec
     930:	4b0f0520 	blmi	3c1db8 <_etext+0x3bfe69>
     934:	052e0505 	streq	r0, [lr, #-1285]!	; 0xfffffafb
     938:	1605200d 	strne	r2, [r5], -sp
     93c:	054a0903 	strbeq	r0, [sl, #-2307]	; 0xfffff6fd
     940:	25052e05 	strcs	r2, [r5, #-3589]	; 0xfffff1fb
     944:	2e140520 	cfmul64cs	mvdx0, mvdx4, mvdx0
     948:	02220105 	eoreq	r0, r2, #1073741825	; 0x40000001
     94c:	0101000d 	tsteq	r1, sp
     950:	05002105 	streq	r2, [r0, #-261]	; 0xfffffefb
     954:	000fac02 	andeq	sl, pc, r2, lsl #24
     958:	01970300 	orrseq	r0, r7, r0, lsl #6
     95c:	3f0c0501 	svccc	0x000c0501
     960:	052e0505 	streq	r0, [lr, #-1285]!	; 0xfffffafb
     964:	0a052011 	beq	1489b0 <_etext+0x146a61>
     968:	220f052e 	andcs	r0, pc, #192937984	; 0xb800000
     96c:	052e0505 	streq	r0, [lr, #-1285]!	; 0xfffffafb
     970:	0d052017 	stceq	0, cr2, [r5, #-92]	; 0xffffffa4
     974:	2211052e 	andscs	r0, r1, #192937984	; 0xb800000
     978:	052e0505 	streq	r0, [lr, #-1285]!	; 0xfffffafb
     97c:	0f05201b 	svceq	0x0005201b
     980:	2112052e 	tstcs	r2, lr, lsr #10
     984:	052e0505 	streq	r0, [lr, #-1285]!	; 0xfffffafb
     988:	0402002e 	streq	r0, [r2], #-46	; 0xffffffd2
     98c:	20052003 	andcs	r2, r5, r3
     990:	01040200 	mrseq	r0, R12_usr
     994:	00050558 	andeq	r0, r5, r8, asr r5
     998:	2e010402 	cdpcs	4, 0, cr0, cr1, cr2, {0}
     99c:	05311105 	ldreq	r1, [r1, #-261]!	; 0xfffffefb
     9a0:	1b052e05 	blne	14c1bc <_etext+0x14a26d>
     9a4:	2e0f0520 	cfsh32cs	mvfx0, mvfx15, #16
     9a8:	05241205 	streq	r1, [r4, #-517]!	; 0xfffffdfb
     9ac:	2e052e05 	cdpcs	14, 0, cr2, cr5, cr5, {0}
     9b0:	03040200 	movweq	r0, #16896	; 0x4200
     9b4:	00200520 	eoreq	r0, r0, r0, lsr #10
     9b8:	58010402 	stmdapl	r1, {r1, sl}
     9bc:	02000505 	andeq	r0, r0, #20971520	; 0x1400000
     9c0:	052e0104 	streq	r0, [lr, #-260]!	; 0xfffffefc
     9c4:	0505310f 	streq	r3, [r5, #-271]	; 0xfffffef1
     9c8:	2017052e 	andscs	r0, r7, lr, lsr #10
     9cc:	052e0d05 	streq	r0, [lr, #-3333]!	; 0xfffff2fb
     9d0:	0f022301 	svceq	0x00022301
     9d4:	05010100 	streq	r0, [r1, #-256]	; 0xffffff00
     9d8:	02050024 	andeq	r0, r5, #36	; 0x24
     9dc:	0000103c 	andeq	r1, r0, ip, lsr r0
     9e0:	0101ae03 	tsteq	r1, r3, lsl #28
     9e4:	054b1805 	strbeq	r1, [fp, #-2053]	; 0xfffff7fb
     9e8:	29056605 	stmdbcs	r5, {r0, r2, r9, sl, sp, lr}
     9ec:	3c160558 	cfldr32cc	mvfx0, [r6], {88}	; 0x58
     9f0:	02210105 	eoreq	r0, r1, #1073741825	; 0x40000001
     9f4:	01010009 	tsteq	r1, r9
     9f8:	05002405 	streq	r2, [r0, #-1029]	; 0xfffffbfb
     9fc:	00107402 	andseq	r7, r0, r2, lsl #8
     a00:	01b20300 			; <UNDEFINED> instruction: 0x01b20300
     a04:	4b180501 	blmi	601e10 <_etext+0x5ffec1>
     a08:	05740505 	ldrbeq	r0, [r4, #-1285]!	; 0xfffffafb
     a0c:	16055818 			; <UNDEFINED> instruction: 0x16055818
     a10:	21010520 	tstcs	r1, r0, lsr #10
     a14:	01000802 	tsteq	r0, r2, lsl #16
     a18:	00260501 	eoreq	r0, r6, r1, lsl #10
     a1c:	10a80205 	adcne	r0, r8, r5, lsl #4
     a20:	ba030000 	blt	c0a28 <_etext+0xbead9>
     a24:	0f050101 	svceq	0x00050101
     a28:	2e050530 	cfmv64hrcs	mvdx5, r0
     a2c:	05200d05 	streq	r0, [r0, #-3333]!	; 0xfffff2fb
     a30:	07024c01 	streq	r4, [r2, -r1, lsl #24]
     a34:	05010100 	streq	r0, [r1, #-256]	; 0xffffff00
     a38:	0205002c 	andeq	r0, r5, #44	; 0x2c
     a3c:	00000000 	andeq	r0, r0, r0
     a40:	0101c403 	tsteq	r1, r3, lsl #8
     a44:	054b0f05 	strbeq	r0, [fp, #-3845]	; 0xfffff0fb
     a48:	17053c1d 	smladne	r5, sp, ip, r3
     a4c:	5805054a 	stmdapl	r5, {r1, r3, r6, r8, sl}
     a50:	05201705 	streq	r1, [r0, #-1797]!	; 0xfffff8fb
     a54:	0f05200d 	svceq	0x0005200d
     a58:	3c1d0521 	cfldr32cc	mvfx0, [sp], {33}	; 0x21
     a5c:	054a1705 	strbeq	r1, [sl, #-1797]	; 0xfffff8fb
     a60:	17055805 	strne	r5, [r5, -r5, lsl #16]
     a64:	200d0520 	andcs	r0, sp, r0, lsr #10
     a68:	3d230505 	cfstr32cc	mvfx0, [r3, #-20]!	; 0xffffffec
     a6c:	023d0105 	eorseq	r0, sp, #1073741825	; 0x40000001
     a70:	01010008 	tsteq	r1, r8
     a74:	05004805 	streq	r4, [r0, #-2053]	; 0xfffff7fb
     a78:	0010c802 	andseq	ip, r0, r2, lsl #16
     a7c:	01d10300 	bicseq	r0, r1, r0, lsl #6
     a80:	00050501 	andeq	r0, r5, r1, lsl #10
     a84:	91010402 	tstls	r1, r2, lsl #8
     a88:	d70f053e 	smladxle	pc, lr, r5, r0	; <UNPREDICTABLE>
     a8c:	053c1b05 	ldreq	r1, [ip, #-2821]!	; 0xfffff4fb
     a90:	05054a17 	streq	r4, [r5, #-2583]	; 0xfffff5e9
     a94:	2017053c 	andscs	r0, r7, ip, lsr r5
     a98:	05200d05 	streq	r0, [r0, #-3333]!	; 0xfffff2fb
     a9c:	09022101 	stmdbeq	r2, {r0, r8, sp}
     aa0:	05010100 	streq	r0, [r1, #-256]	; 0xffffff00
     aa4:	02050049 	andeq	r0, r5, #73	; 0x49
     aa8:	00001128 	andeq	r1, r0, r8, lsr #2
     aac:	0101dc03 	tsteq	r1, r3, lsl #24
     ab0:	02000505 	andeq	r0, r0, #20971520	; 0x1400000
     ab4:	3e910104 	fmlccs	f0, f1, f4
     ab8:	05d70f05 	ldrbeq	r0, [r7, #3845]	; 0xf05
     abc:	17053c1b 	smladne	r5, fp, ip, r3
     ac0:	3c05054a 	cfstr32cc	mvfx0, [r5], {74}	; 0x4a
     ac4:	05201705 	streq	r1, [r0, #-1797]!	; 0xfffff8fb
     ac8:	0105200d 	tsteq	r5, sp
     acc:	00090221 	andeq	r0, r9, r1, lsr #4
     ad0:	5e050101 	adfpls	f0, f5, f1
     ad4:	88020500 	stmdahi	r2, {r8, sl}
     ad8:	03000011 	movweq	r0, #17
     adc:	050101e9 	streq	r0, [r1, #-489]	; 0xfffffe17
     ae0:	1205ad19 	andne	sl, r5, #1600	; 0x640
     ae4:	2f050575 	svccs	0x00050575
     ae8:	01040200 	mrseq	r0, R12_usr
     aec:	02002006 	andeq	r2, r0, #6
     af0:	59060104 	stmdbpl	r6, {r2, r8}
     af4:	200e053e 	andcs	r0, lr, lr, lsr r5
     af8:	053d0805 	ldreq	r0, [sp, #-2053]!	; 0xfffff7fb
     afc:	09053d19 	stmdbeq	r5, {r0, r3, r4, r8, sl, fp, ip, sp}
     b00:	20150520 	andscs	r0, r5, r0, lsr #10
     b04:	052f1a05 	streq	r1, [pc, #-2565]!	; 107 <g_pfnVectors+0x107>
     b08:	09052027 	stmdbeq	r5, {r0, r1, r2, r5, sp}
     b0c:	20160558 	andscs	r0, r6, r8, asr r5
     b10:	053f1905 	ldreq	r1, [pc, #-2309]!	; 213 <g_pfnVectors+0x213>
     b14:	15052009 	strne	r2, [r5, #-9]
     b18:	2f1a0520 	svccs	0x001a0520
     b1c:	05202705 	streq	r2, [r0, #-1797]!	; 0xfffff8fb
     b20:	16055809 	strne	r5, [r5], -r9, lsl #16
     b24:	310e0520 	tstcc	lr, r0, lsr #10
     b28:	84082205 	strhi	r2, [r8], #-517	; 0xfffffdfb
     b2c:	052f0d05 	streq	r0, [pc, #-3333]!	; fffffe2f <_ebss+0xdffffd0f>
     b30:	0d052222 	sfmeq	f2, 4, [r5, #-136]	; 0xffffff78
     b34:	2222052f 	eorcs	r0, r2, #197132288	; 0xbc00000
     b38:	052f0d05 	streq	r0, [pc, #-3333]!	; fffffe3b <_ebss+0xdffffd1b>
     b3c:	0d052222 	sfmeq	f2, 4, [r5, #-136]	; 0xffffff78
     b40:	2222052f 	eorcs	r0, r2, #197132288	; 0xbc00000
     b44:	052f0d05 	streq	r0, [pc, #-3333]!	; fffffe47 <_ebss+0xdffffd27>
     b48:	0d052222 	sfmeq	f2, 4, [r5, #-136]	; 0xffffff78
     b4c:	2222053d 	eorcs	r0, r2, #255852544	; 0xf400000
     b50:	053d0d05 	ldreq	r0, [sp, #-3333]!	; 0xfffff2fb
     b54:	0d052222 	sfmeq	f2, 4, [r5, #-136]	; 0xffffff78
     b58:	2222053d 	eorcs	r0, r2, #255852544	; 0xf400000
     b5c:	003d0d05 	eorseq	r0, sp, r5, lsl #26
     b60:	22010402 	andcs	r0, r1, #33554432	; 0x2000000
     b64:	05230805 	streq	r0, [r3, #-2053]!	; 0xfffff7fb
     b68:	1a053d09 	bne	14ff94 <_etext+0x14e045>
     b6c:	4101054a 	tstmi	r1, sl, asr #10
     b70:	051e0905 	ldreq	r0, [lr, #-2309]	; 0xfffff6fb
     b74:	0105581a 	tsteq	r5, sl, lsl r8
     b78:	0015023e 	andseq	r0, r5, lr, lsr r2
     b7c:	51050101 	tstpl	r5, r1, lsl #2
     b80:	c8020500 	stmdagt	r2, {r8, sl}
     b84:	03000012 	movweq	r0, #18
     b88:	050102a1 	streq	r0, [r1, #-673]	; 0xfffffd5f
     b8c:	04020005 	streq	r0, [r2], #-5
     b90:	053d6701 	ldreq	r6, [sp, #-1793]!	; 0xfffff8ff
     b94:	ba0b0301 	blt	2c17a0 <_etext+0x2bf851>
     b98:	77033005 	strvc	r3, [r3, -r5]
     b9c:	2e0d0520 	cfsh32cs	mvfx0, mvfx13, #16
     ba0:	054a2005 	strbeq	r2, [sl, #-5]
     ba4:	0d05201e 	stceq	0, cr2, [r5, #-120]	; 0xffffff88
     ba8:	22320521 	eorscs	r0, r2, #138412032	; 0x8400000
     bac:	052e0d05 	streq	r0, [lr, #-3333]!	; 0xfffff2fb
     bb0:	1f054a21 	svcne	0x00054a21
     bb4:	210d0520 	tstcs	sp, r0, lsr #10
     bb8:	58210522 	stmdapl	r1!, {r1, r5, r8, sl}
     bbc:	052e1f05 	streq	r1, [lr, #-3845]!	; 0xfffff0fb
     bc0:	0105210d 	tsteq	r5, sp, lsl #2
     bc4:	00090222 	andeq	r0, r9, r2, lsr #4
     bc8:	50050101 	andpl	r0, r5, r1, lsl #2
     bcc:	3c020500 	cfstr32cc	mvfx0, [r2], {-0}
     bd0:	03000013 	movweq	r0, #19
     bd4:	050102b0 	streq	r0, [r1, #-688]	; 0xfffffd50
     bd8:	01056705 	tsteq	r5, r5, lsl #14
     bdc:	05ba0b03 	ldreq	r0, [sl, #2819]!	; 0xb03
     be0:	20770315 	rsbscs	r0, r7, r5, lsl r3
     be4:	05661305 	strbeq	r1, [r6, #-773]!	; 0xfffffcfb
     be8:	15052f0d 	strne	r2, [r5, #-3853]	; 0xfffff0f3
     bec:	66130522 	ldrvs	r0, [r3], -r2, lsr #10
     bf0:	052f0d05 	streq	r0, [pc, #-3333]!	; fffffef3 <_ebss+0xdffffdd3>
     bf4:	13052215 	movwne	r2, #21013	; 0x5215
     bf8:	2f0d0558 	svccs	0x000d0558
     bfc:	02220105 	eoreq	r0, r2, #1073741825	; 0x40000001
     c00:	01010009 	tsteq	r1, r9
     c04:	05004f05 	streq	r4, [r0, #-3845]	; 0xfffff0fb
     c08:	0013a802 	andseq	sl, r3, r2, lsl #16
     c0c:	02be0300 	adcseq	r0, lr, #0, 6
     c10:	75050501 	strvc	r0, [r5, #-1281]	; 0xfffffaff
     c14:	02000905 	andeq	r0, r0, #81920	; 0x14000
     c18:	05210204 	streq	r0, [r1, #-516]!	; 0xfffffdfc
     c1c:	0402001a 	streq	r0, [r2], #-26	; 0xffffffe6
     c20:	26056502 	strcs	r6, [r5], -r2, lsl #10
     c24:	02040200 	andeq	r0, r4, #0, 4
     c28:	0005053c 	andeq	r0, r5, ip, lsr r5
     c2c:	3c010402 	cfstrscc	mvf0, [r1], {2}
     c30:	053f0805 	ldreq	r0, [pc, #-2053]!	; 433 <UARTStdioConfig+0x5b>
     c34:	0d053d09 	stceq	13, cr3, [r5, #-36]	; 0xffffffdc
     c38:	02040200 	andeq	r0, r4, #0, 4
     c3c:	001d0521 	andseq	r0, sp, r1, lsr #10
     c40:	65020402 	strvs	r0, [r2, #-1026]	; 0xfffffbfe
     c44:	02002705 	andeq	r2, r0, #1310720	; 0x140000
     c48:	053c0204 	ldreq	r0, [ip, #-516]!	; 0xfffffdfc
     c4c:	04020009 	streq	r0, [r2], #-9
     c50:	01053c01 	tsteq	r5, r1, lsl #24
     c54:	00040240 	andeq	r0, r4, r0, asr #4
     c58:	56050101 	strpl	r0, [r5], -r1, lsl #2
     c5c:	04020500 	streq	r0, [r2], #-1280	; 0xfffffb00
     c60:	03000014 	movweq	r0, #20
     c64:	050102c9 	streq	r0, [r1, #-713]	; 0xfffffd37
     c68:	09057505 	stmdbeq	r5, {r0, r2, r8, sl, ip, sp, lr}
     c6c:	02040200 	andeq	r0, r4, #0, 4
     c70:	001a0521 	andseq	r0, sl, r1, lsr #10
     c74:	65020402 	strvs	r0, [r2, #-1026]	; 0xfffffbfe
     c78:	02002605 	andeq	r2, r0, #5242880	; 0x500000
     c7c:	053c0204 	ldreq	r0, [ip, #-516]!	; 0xfffffdfc
     c80:	04020005 	streq	r0, [r2], #-5
     c84:	08053c01 	stmdaeq	r5, {r0, sl, fp, ip, sp}
     c88:	3d09053f 	cfstr32cc	mvfx0, [r9, #-252]	; 0xffffff04
     c8c:	02000d05 	andeq	r0, r0, #320	; 0x140
     c90:	05210204 	streq	r0, [r1, #-516]!	; 0xfffffdfc
     c94:	0402001d 	streq	r0, [r2], #-29	; 0xffffffe3
     c98:	27056502 	strcs	r6, [r5, -r2, lsl #10]
     c9c:	02040200 	andeq	r0, r4, #0, 4
     ca0:	0009053c 	andeq	r0, r9, ip, lsr r5
     ca4:	3c010402 	cfstrscc	mvf0, [r1], {2}
     ca8:	02410105 	subeq	r0, r1, #1073741825	; 0x40000001
     cac:	01010004 	tsteq	r1, r4
     cb0:	05002605 	streq	r2, [r0, #-1541]	; 0xfffff9fb
     cb4:	00000002 	andeq	r0, r0, r2
     cb8:	02d60300 	sbcseq	r0, r6, #0, 6
     cbc:	3e0c0501 	cfsh32cc	mvfx0, mvfx12, #1
     cc0:	052e0505 	streq	r0, [lr, #-1285]!	; 0xfffffafb
     cc4:	04020009 	streq	r0, [r2], #-9
     cc8:	19052103 	stmdbne	r5, {r0, r1, r8, sp}
     ccc:	03040200 	movweq	r0, #16896	; 0x4200
     cd0:	00050549 	andeq	r0, r5, r9, asr #10
     cd4:	3c010402 	cfstrscc	mvf0, [r1], {2}
     cd8:	023f0105 	eorseq	r0, pc, #1073741825	; 0x40000001
     cdc:	01010005 	tsteq	r1, r5
     ce0:	05003605 	streq	r3, [r0, #-1541]	; 0xfffff9fb
     ce4:	00146002 	andseq	r6, r4, r2
     ce8:	02dd0300 	sbcseq	r0, sp, #0, 6
     cec:	4c130501 	cfldr32mi	mvfx0, [r3], {1}
     cf0:	303c1105 	eorscc	r1, ip, r5, lsl #2
     cf4:	052e1405 	streq	r1, [lr, #-1029]!	; 0xfffffbfb
     cf8:	11052e1c 	tstne	r5, ip, lsl lr
     cfc:	14053e20 	strne	r3, [r5], #-3616	; 0xfffff1e0
     d00:	2e1c052e 	cfmul64cs	mvdx0, mvdx12, mvdx14
     d04:	05201105 	streq	r1, [r0, #-261]!	; 0xfffffefb
     d08:	0d023d01 	stceq	13, cr3, [r2, #-4]
     d0c:	05010100 	streq	r0, [r1, #-256]	; 0xffffff00
     d10:	0205003f 	andeq	r0, r5, #63	; 0x3f
     d14:	000014ac 	andeq	r1, r0, ip, lsr #9
     d18:	0102e603 	tsteq	r2, r3, lsl #12
     d1c:	05590805 	ldrbeq	r0, [r9, #-2053]	; 0xfffff7fb
     d20:	0f053d11 	svceq	0x00053d11
     d24:	3301053c 	movwcc	r0, #5436	; 0x153c
     d28:	051e1105 	ldreq	r1, [lr, #-261]	; 0xfffffefb
     d2c:	0105660f 	tsteq	r5, pc, lsl #12
     d30:	000a0230 	andeq	r0, sl, r0, lsr r2
     d34:	40050101 	andmi	r0, r5, r1, lsl #2
     d38:	ec020500 	cfstr32	mvfx0, [r2], {-0}
     d3c:	03000014 	movweq	r0, #20
     d40:	050102ef 	streq	r0, [r1, #-751]	; 0xfffffd11
     d44:	11055908 	tstne	r5, r8, lsl #18
     d48:	2e1a053d 	mrccs	5, 0, r0, cr10, cr13, {1}
     d4c:	05202205 	streq	r2, [r0, #-517]!	; 0xfffffdfb
     d50:	0e052e20 	cdpeq	14, 0, cr2, cr5, cr0, {1}
     d54:	3301052e 	movwcc	r0, #5422	; 0x152e
     d58:	051e2005 	ldreq	r2, [lr, #-5]
     d5c:	39056631 	stmdbcc	r5, {r0, r4, r5, r9, sl, sp, lr}
     d60:	664a0520 	strbvs	r0, [sl], -r0, lsr #10
     d64:	05203705 	streq	r3, [r0, #-1797]!	; 0xfffff8fb
     d68:	63052052 	movwvs	r2, #20562	; 0x5052
     d6c:	20500566 	subscs	r0, r0, r6, ror #10
     d70:	05206a05 	streq	r6, [r0, #-2565]!	; 0xfffff5fb
     d74:	10056668 	andne	r6, r5, r8, ror #12
     d78:	200e0520 	andcs	r0, lr, r0, lsr #10
     d7c:	02300105 	eorseq	r0, r0, #1073741825	; 0x40000001
     d80:	01010013 	tsteq	r1, r3, lsl r0
     d84:	05002505 	streq	r2, [r0, #-1285]	; 0xfffffafb
     d88:	00157802 	andseq	r7, r5, r2, lsl #16
     d8c:	02f80300 	rscseq	r0, r8, #0, 6
     d90:	2f050501 	svccs	0x00050501
     d94:	01052f2f 	tsteq	r5, pc, lsr #30
     d98:	00020230 	andeq	r0, r2, r0, lsr r2
     d9c:	38050101 	stmdacc	r5, {r0, r8}
     da0:	8c020500 	cfstr32hi	mvfx0, [r2], {-0}
     da4:	03000015 	movweq	r0, #21
     da8:	05010393 	streq	r0, [r1, #-915]	; 0xfffffc6d
     dac:	4a090317 	bmi	241a10 <_etext+0x23fac1>
     db0:	053c0805 	ldreq	r0, [ip, #-2053]!	; 0xfffff7fb
     db4:	09052f13 	stmdbeq	r5, {r0, r1, r4, r8, r9, sl, fp, sp}
     db8:	200c032e 	andcs	r0, ip, lr, lsr #6
     dbc:	053c0805 	ldreq	r0, [ip, #-2053]!	; 0xfffff7fb
     dc0:	09052f13 	stmdbeq	r5, {r0, r1, r4, r8, r9, sl, fp, sp}
     dc4:	3e0a052e 	cfsh32cc	mvfx0, mvfx10, #30
     dc8:	052e3405 	streq	r3, [lr, #-1029]!	; 0xfffffbfb
     dcc:	5d052e32 	stcpl	14, cr2, [r5, #-200]	; 0xffffff38
     dd0:	2e080520 	cfsh32cs	mvfx0, mvfx8, #16
     dd4:	052f1305 	streq	r1, [pc, #-773]!	; ad7 <GPIOPinConfigure+0x27>
     dd8:	0a052e09 	beq	14c604 <_etext+0x14a6b5>
     ddc:	2e34053e 	mrccs	5, 1, r0, cr4, cr14, {1}
     de0:	052e3205 	streq	r3, [lr, #-517]!	; 0xfffffdfb
     de4:	0805205d 	stmdaeq	r5, {r0, r2, r3, r4, r6, sp}
     de8:	2f13052e 	svccs	0x0013052e
     dec:	052e0905 	streq	r0, [lr, #-2309]!	; 0xfffff6fb
     df0:	34053e0a 	strcc	r3, [r5], #-3594	; 0xfffff1f6
     df4:	2e32052e 	cdpcs	5, 3, cr0, cr2, cr14, {1}
     df8:	05205d05 	streq	r5, [r0, #-3333]!	; 0xfffff2fb
     dfc:	13052e08 	movwne	r2, #24072	; 0x5e08
     e00:	2e09052f 	cfsh32cs	mvfx0, mvfx9, #31
     e04:	023f0105 	eorseq	r0, pc, #1073741825	; 0x40000001
     e08:	01010006 	tsteq	r1, r6
     e0c:	00000316 	andeq	r0, r0, r6, lsl r3
     e10:	00970003 	addseq	r0, r7, r3
     e14:	01020000 	mrseq	r0, (UNDEF: 2)
     e18:	000d0efb 	strdeq	r0, [sp], -fp
     e1c:	01010101 	tsteq	r1, r1, lsl #2
     e20:	01000000 	mrseq	r0, (UNDEF: 0)
     e24:	2e010000 	cdpcs	0, 0, cr0, cr1, cr0, {0}
     e28:	2e2e2f2e 	cdpcs	15, 2, cr2, cr14, cr14, {1}
     e2c:	6372732f 	cmnvs	r2, #-1140850688	; 0xbc000000
     e30:	6972642f 	ldmdbvs	r2!, {r0, r1, r2, r3, r5, sl, sp, lr}^
     e34:	2f726576 	svccs	0x00726576
     e38:	00627375 	rsbeq	r7, r2, r5, ror r3
     e3c:	2e2f2e2e 	cdpcs	14, 2, cr2, cr15, cr14, {1}
     e40:	72732f2e 	rsbsvc	r2, r3, #46, 30	; 0xb8
     e44:	4e492f63 	cdpmi	15, 4, cr2, cr9, cr3, {3}
     e48:	73752f43 	cmnvc	r5, #268	; 0x10c
     e4c:	75000062 	strvc	r0, [r0, #-98]	; 0xffffff9e
     e50:	5f646273 	svcpl	0x00646273
     e54:	6d617266 	sfmvs	f7, 2, [r1, #-408]!	; 0xfffffe68
     e58:	726f7765 	rsbvc	r7, pc, #26476544	; 0x1940000
     e5c:	00632e6b 	rsbeq	r2, r3, fp, ror #28
     e60:	75000001 	strvc	r0, [r0, #-1]
     e64:	735f6273 	cmpvc	pc, #805306375	; 0x30000007
     e68:	646e6174 	strbtvs	r6, [lr], #-372	; 0xfffffe8c
     e6c:	73647261 	cmnvc	r4, #268435462	; 0x10000006
     e70:	0200682e 	andeq	r6, r0, #3014656	; 0x2e0000
     e74:	73750000 	cmnvc	r5, #0
     e78:	645f6462 	ldrbvs	r6, [pc], #-1122	; e80 <USBPinInitialize+0x34>
     e7c:	65766972 	ldrbvs	r6, [r6, #-2418]!	; 0xfffff68e
     e80:	00682e72 	rsbeq	r2, r8, r2, ror lr
     e84:	75000002 	strvc	r0, [r0, #-2]
     e88:	645f6273 	ldrbvs	r6, [pc], #-627	; e90 <USBPinInitialize+0x44>
     e8c:	63697665 	cmnvs	r9, #105906176	; 0x6500000
     e90:	00682e65 	rsbeq	r2, r8, r5, ror #28
     e94:	75000002 	strvc	r0, [r0, #-2]
     e98:	645f6273 	ldrbvs	r6, [pc], #-627	; ea0 <USBPinInitialize+0x54>
     e9c:	72637365 	rsbvc	r7, r3, #-1811939327	; 0x94000001
     ea0:	6f747069 	svcvs	0x00747069
     ea4:	682e7372 	stmdavs	lr!, {r1, r4, r5, r6, r8, r9, ip, sp, lr}
     ea8:	00000200 	andeq	r0, r0, r0, lsl #4
     eac:	00260500 	eoreq	r0, r6, r0, lsl #10
     eb0:	16180205 	ldrne	r0, [r8], -r5, lsl #4
     eb4:	10030000 	andne	r0, r3, r0
     eb8:	4c0f0501 	cfstr32mi	mvfx0, [pc], {1}
     ebc:	052e0505 	streq	r0, [lr, #-1285]!	; 0xfffffafb
     ec0:	0505210f 	streq	r2, [r5, #-271]	; 0xfffffef1
     ec4:	2111052e 	tstcs	r1, lr, lsr #10
     ec8:	053d0f05 	ldreq	r0, [sp, #-3845]!	; 0xfffff0fb
     ecc:	01052e05 	tsteq	r5, r5, lsl #28
     ed0:	00080221 	andeq	r0, r8, r1, lsr #4
     ed4:	17050101 	strne	r0, [r5, -r1, lsl #2]
     ed8:	00020500 	andeq	r0, r2, r0, lsl #10
     edc:	03000000 	movweq	r0, #0
     ee0:	0f050118 	svceq	0x00050118
     ee4:	2e05052f 	cfsh32cs	mvfx0, mvfx5, #31
     ee8:	02210105 	eoreq	r0, r1, #1073741825	; 0x40000001
     eec:	01010005 	tsteq	r1, r5
     ef0:	05001705 	streq	r1, [r0, #-1797]	; 0xfffff8fb
     ef4:	00000002 	andeq	r0, r0, r2
     ef8:	011c0300 	tsteq	ip, r0, lsl #6
     efc:	052f0f05 	streq	r0, [pc, #-3845]!	; ffffffff <_ebss+0xdffffedf>
     f00:	01052e05 	tsteq	r5, r5, lsl #28
     f04:	00050221 	andeq	r0, r5, r1, lsr #4
     f08:	01050101 	tsteq	r5, r1, lsl #2
     f0c:	48020500 	stmdami	r2, {r8, sl}
     f10:	03000016 	movweq	r0, #22
     f14:	0d050121 	stfeqs	f0, [r5, #-132]	; 0xffffff7c
     f18:	2e1c052f 	cfmul64cs	mvdx0, mvdx12, mvdx15
     f1c:	052f0d05 	streq	r0, [pc, #-3333]!	; 21f <g_pfnVectors+0x21f>
     f20:	0d052e1d 	stceq	14, cr2, [r5, #-116]	; 0xffffff8c
     f24:	2e23052f 	cfsh64cs	mvdx0, mvdx3, #31
     f28:	052f0d05 	streq	r0, [pc, #-3333]!	; 22b <g_pfnVectors+0x22b>
     f2c:	0d052e1c 	stceq	14, cr2, [r5, #-112]	; 0xffffff90
     f30:	2e26052f 	cfsh64cs	mvdx0, mvdx6, #31
     f34:	052f0c05 	streq	r0, [pc, #-3077]!	; 337 <main+0x6b>
     f38:	01052e02 	tsteq	r5, r2, lsl #28
     f3c:	0006022f 	andeq	r0, r6, pc, lsr #4
     f40:	33050101 	movwcc	r0, #20737	; 0x5101
     f44:	88020500 	stmdahi	r2, {r8, sl}
     f48:	03000016 	movweq	r0, #22
     f4c:	2c05012a 	stfcss	f0, [r5], {42}	; 0x2a
     f50:	2e17053d 	mrccs	5, 0, r0, cr7, cr13, {1}
     f54:	052f1405 	streq	r1, [pc, #-1029]!	; b57 <SysCtlClockSet+0x7>
     f58:	09052e05 	stmdbeq	r5, {r0, r2, r9, sl, fp, sp}
     f5c:	3d360530 	cfldr32cc	mvfx0, [r6, #-192]!	; 0xffffff40
     f60:	052e1d05 	streq	r1, [lr, #-3333]!	; 0xfffff2fb
     f64:	09053d1e 	stmdbeq	r5, {r1, r2, r3, r4, r8, sl, fp, ip, sp}
     f68:	3e0d053d 	mcrcc	5, 0, r0, cr13, cr13, {1}
     f6c:	053d1805 	ldreq	r1, [sp, #-2053]!	; 0xfffff7fb
     f70:	18052e28 	stmdane	r5, {r3, r5, r9, sl, fp, sp}
     f74:	2e27052f 	cfsh64cs	mvdx0, mvdx7, #31
     f78:	052f0d05 	streq	r0, [pc, #-3333]!	; 27b <UART0IntHandler+0xf>
     f7c:	31053d18 	tstcc	r5, r8, lsl sp
     f80:	2f0d052e 	svccs	0x000d052e
     f84:	22220905 	eorcs	r0, r2, #81920	; 0x14000
     f88:	01051d3d 	tsteq	r5, sp, lsr sp
     f8c:	00100225 	andseq	r0, r0, r5, lsr #4
     f90:	23050101 	movwcs	r0, #20737	; 0x5101
     f94:	0c020500 	cfstr32eq	mvfx0, [r2], {-0}
     f98:	03000017 	movweq	r0, #23
     f9c:	050100c1 	streq	r0, [r1, #-193]	; 0xffffff3f
     fa0:	17053d2c 	strne	r3, [r5, -ip, lsr #26]
     fa4:	2f13052e 	svccs	0x0013052e
     fa8:	052e2305 	streq	r2, [lr, #-773]!	; 0xfffffcfb
     fac:	0d052e05 	stceq	14, cr2, [r5, #-20]	; 0xffffffec
     fb0:	05222f30 	streq	r2, [r2, #-3888]!	; 0xfffff0d0
     fb4:	07022201 	streq	r2, [r2, -r1, lsl #4]
     fb8:	05010100 	streq	r0, [r1, #-256]	; 0xffffff00
     fbc:	0205002e 	andeq	r0, r5, #46	; 0x2e
     fc0:	0000173c 	andeq	r1, r0, ip, lsr r7
     fc4:	0100cc03 	tsteq	r0, r3, lsl #24
     fc8:	053d1705 	ldreq	r1, [sp, #-1797]!	; 0xfffff8fb
     fcc:	054e080d 	strbeq	r0, [lr, #-2061]	; 0xfffff7f3
     fd0:	1b053d27 	blne	150474 <_etext+0x14e525>
     fd4:	21170582 	tstcs	r7, r2, lsl #11
     fd8:	052e3305 	streq	r3, [lr, #-773]!	; 0xfffffcfb
     fdc:	27052e0d 	strcs	r2, [r5, -sp, lsl #28]
     fe0:	83280559 			; <UNDEFINED> instruction: 0x83280559
     fe4:	05840d05 	streq	r0, [r4, #3333]	; 0xd05
     fe8:	31053d18 	tstcc	r5, r8, lsl sp
     fec:	301c052e 	andscc	r0, ip, lr, lsr #10
     ff0:	053c1005 	ldreq	r1, [ip, #-5]!
     ff4:	14052f33 	strne	r2, [r5], #-3891	; 0xfffff0cd
     ff8:	3d150520 	cfldr32cc	mvfx0, [r5, #-128]	; 0xffffff80
     ffc:	053d2005 	ldreq	r2, [sp, #-5]!
    1000:	0d052e39 	stceq	14, cr2, [r5, #-228]	; 0xffffff1c
    1004:	1b150536 	blne	5424e4 <_etext+0x540595>
    1008:	053d2005 	ldreq	r2, [sp, #-5]!
    100c:	0d052e39 	stceq	14, cr2, [r5, #-228]	; 0xffffff1c
    1010:	24180532 	ldrcs	r0, [r8], #-1330	; 0xffffface
    1014:	052e3105 	streq	r3, [lr, #-261]!	; 0xfffffefb
    1018:	7a03300d 	bvc	cd054 <_etext+0xcb105>
    101c:	2801052e 	stmdacs	r1, {r1, r2, r3, r5, r8, sl}
    1020:	01001002 	tsteq	r0, r2
    1024:	00010501 	andeq	r0, r1, r1, lsl #10
    1028:	18240205 	stmdane	r4!, {r0, r2, r9}
    102c:	f0030000 			; <UNDEFINED> instruction: 0xf0030000
    1030:	11050100 	mrsne	r0, (UNDEF: 21)
    1034:	3c05054b 	cfstr32cc	mvfx0, [r5], {75}	; 0x4b
    1038:	05300305 	ldreq	r0, [r0, #-773]!	; 0xfffffcfb
    103c:	27053d0e 	strcs	r3, [r5, -lr, lsl #26]
    1040:	0301052e 	movweq	r0, #5422	; 0x152e
    1044:	16052e0d 	strne	r2, [r5], -sp, lsl #28
    1048:	05207503 	streq	r7, [r0, #-1283]!	; 0xfffffafd
    104c:	0d053c0a 	stceq	12, cr3, [r5, #-40]	; 0xffffffd8
    1050:	2e030530 	cfmv64hrcs	mvdx3, r0
    1054:	3d0e054b 	cfstr32cc	mvfx0, [lr, #-300]	; 0xfffffed4
    1058:	052e2705 	streq	r2, [lr, #-1797]!	; 0xfffff8fb
    105c:	0d023501 	cfstr32eq	mvfx3, [r2, #-4]
    1060:	05010100 	streq	r0, [r1, #-256]	; 0xffffff00
    1064:	02050058 	andeq	r0, r5, #88	; 0x58
    1068:	00001884 	andeq	r1, r0, r4, lsl #17
    106c:	01018303 	tsteq	r1, r3, lsl #6
    1070:	05671405 	strbeq	r1, [r7, #-1029]!	; 0xfffffbfb
    1074:	13052e07 	movwne	r2, #24071	; 0x5e07
    1078:	2e320532 	mrccs	5, 1, r0, cr2, cr2, {1}
    107c:	052e0905 	streq	r0, [lr, #-2309]!	; 0xfffff6fb
    1080:	09054b44 	stmdbeq	r5, {r2, r6, r8, r9, fp, lr}
    1084:	30305a3c 	eorscc	r5, r0, ip, lsr sl
    1088:	05430105 	strbeq	r0, [r3, #-261]	; 0xfffffefb
    108c:	0402000e 	streq	r0, [r2], #-14
    1090:	01051e01 	tsteq	r5, r1, lsl #28
    1094:	00090222 	andeq	r0, r9, r2, lsr #4
    1098:	50050101 	andpl	r0, r5, r1, lsl #2
    109c:	dc020500 	cfstr32le	mvfx0, [r2], {-0}
    10a0:	03000018 	movweq	r0, #24
    10a4:	05010199 	streq	r0, [r1, #-409]	; 0xfffffe67
    10a8:	13055912 	movwne	r5, #22802	; 0x5912
    10ac:	2f14052f 	svccs	0x0014052f
    10b0:	05300f05 	ldreq	r0, [r0, #-3845]!	; 0xfffff0fb
    10b4:	0f052e05 	svceq	0x00052e05
    10b8:	2e05055a 	cfrshl32cs	mvfx5, mvfx10, r0
    10bc:	20056859 	andcs	r6, r5, r9, asr r8
    10c0:	3c10053f 	cfldr32cc	mvfx0, [r0], {63}	; 0x3f
    10c4:	052f1b05 	streq	r1, [pc, #-2821]!	; 5c7 <UARTvprintf+0xcf>
    10c8:	0d052011 	stceq	0, cr2, [r5, #-68]	; 0xffffffbc
    10cc:	054a1403 	strbeq	r1, [sl, #-1027]	; 0xfffffbfd
    10d0:	10052211 	andne	r2, r5, r1, lsl r2
    10d4:	2f11053c 	svccs	0x0011053c
    10d8:	05600d05 	strbeq	r0, [r0, #-3333]!	; 0xfffff2fb
    10dc:	207a0316 	rsbscs	r0, sl, r6, lsl r3
    10e0:	053c1505 	ldreq	r1, [ip, #-1285]!	; 0xfffffafb
    10e4:	0d052f11 	stceq	15, cr2, [r5, #-68]	; 0xffffffbc
    10e8:	1e11055d 	mrcne	5, 0, r0, cr1, cr13, {2}
    10ec:	033e0d05 	teqeq	lr, #320	; 0x140
    10f0:	01052075 	tsteq	r5, r5, ror r0
    10f4:	01040200 	mrseq	r0, R12_usr
    10f8:	02200f03 	eoreq	r0, r0, #3, 30
    10fc:	01010010 	tsteq	r1, r0, lsl r0
    1100:	05001f05 	streq	r1, [r0, #-3845]	; 0xfffff0fb
    1104:	00198c02 	andseq	r8, r9, r2, lsl #24
    1108:	01d20300 	bicseq	r0, r2, r0, lsl #6
    110c:	3d120501 	cfldr32cc	mvfx0, [r2, #-4]
    1110:	05300f05 	ldreq	r0, [r0, #-3845]!	; 0xfffff0fb
    1114:	0f052e05 	svceq	0x00052e05
    1118:	2e05053d 	mcrcs	5, 0, r0, cr5, cr13, {1}
    111c:	12030105 	andne	r0, r3, #1073741825	; 0x40000001
    1120:	0007023c 	andeq	r0, r7, ip, lsr r2
    1124:	016f0101 	cmneq	pc, r1, lsl #2
    1128:	00030000 	andeq	r0, r3, r0
    112c:	000000bd 	strheq	r0, [r0], -sp
    1130:	0efb0102 	cdpeq	1, 15, cr0, cr11, cr2, {0}
    1134:	0101000d 	tsteq	r1, sp
    1138:	00000101 	andeq	r0, r0, r1, lsl #2
    113c:	00000100 	andeq	r0, r0, r0, lsl #2
    1140:	2f2e2e01 	svccs	0x002e2e01
    1144:	732f2e2e 			; <UNDEFINED> instruction: 0x732f2e2e
    1148:	642f6372 	strtvs	r6, [pc], #-882	; 1150 <ConfigureOUTEndpoint+0x28>
    114c:	65766972 	ldrbvs	r6, [r6, #-2418]!	; 0xfffff68e
    1150:	73752f72 	cmnvc	r5, #456	; 0x1c8
    1154:	3a640062 	bcc	19012e4 <_etext+0x18ff395>
    1158:	6363675c 	cmnvs	r3, #92, 14	; 0x1700000
    115c:	6d72612d 	ldfvse	f6, [r2, #-180]!	; 0xffffff4c
    1160:	6e6f6e2d 	cdpvs	14, 6, cr6, cr15, cr13, {1}
    1164:	61652d65 	cmnvs	r5, r5, ror #26
    1168:	312d6962 			; <UNDEFINED> instruction: 0x312d6962
    116c:	30322d30 	eorscc	r2, r2, r0, lsr sp
    1170:	712d3032 			; <UNDEFINED> instruction: 0x712d3032
    1174:	616d2d34 	cmnvs	sp, r4, lsr sp
    1178:	5c726f6a 	ldclpl	15, cr6, [r2], #-424	; 0xfffffe58
    117c:	5c62696c 			; <UNDEFINED> instruction: 0x5c62696c
    1180:	5c636367 	stclpl	3, cr6, [r3], #-412	; 0xfffffe64
    1184:	2d6d7261 	sfmcs	f7, 2, [sp, #-388]!	; 0xfffffe7c
    1188:	656e6f6e 	strbvs	r6, [lr, #-3950]!	; 0xfffff092
    118c:	6261652d 	rsbvs	r6, r1, #188743680	; 0xb400000
    1190:	30315c69 	eorscc	r5, r1, r9, ror #24
    1194:	312e322e 			; <UNDEFINED> instruction: 0x312e322e
    1198:	636e695c 	cmnvs	lr, #92, 18	; 0x170000
    119c:	6564756c 	strbvs	r7, [r4, #-1388]!	; 0xfffffa94
    11a0:	2f2e2e00 	svccs	0x002e2e00
    11a4:	732f2e2e 			; <UNDEFINED> instruction: 0x732f2e2e
    11a8:	492f6372 	stmdbmi	pc!, {r1, r4, r5, r6, r8, r9, sp, lr}	; <UNPREDICTABLE>
    11ac:	752f434e 	strvc	r4, [pc, #-846]!	; e66 <USBPinInitialize+0x1a>
    11b0:	00006273 	andeq	r6, r0, r3, ror r2
    11b4:	5f676f6c 	svcpl	0x00676f6c
    11b8:	75626564 	strbvc	r6, [r2, #-1380]!	; 0xfffffa9c
    11bc:	00632e67 	rsbeq	r2, r3, r7, ror #28
    11c0:	73000001 	movwvc	r0, #1
    11c4:	72616474 	rsbvc	r6, r1, #116, 8	; 0x74000000
    11c8:	00682e67 	rsbeq	r2, r8, r7, ror #28
    11cc:	6c000002 	stcvs	0, cr0, [r0], {2}
    11d0:	645f676f 	ldrbvs	r6, [pc], #-1903	; 11d8 <ConfigureTxRxFIFOSize+0x50>
    11d4:	67756265 	ldrbvs	r6, [r5, -r5, ror #4]!
    11d8:	0300682e 	movweq	r6, #2094	; 0x82e
    11dc:	623c0000 	eorsvs	r0, ip, #0
    11e0:	746c6975 	strbtvc	r6, [ip], #-2421	; 0xfffff68b
    11e4:	3e6e692d 	vmulcc.f16	s13, s28, s27	; <UNPREDICTABLE>
    11e8:	00000000 	andeq	r0, r0, r0
    11ec:	00570500 	subseq	r0, r7, r0, lsl #10
    11f0:	19b80205 	ldmibne	r8!, {r0, r2, r9}
    11f4:	05180000 	ldreq	r0, [r8, #-0]
    11f8:	05057512 	streq	r7, [r5, #-1298]	; 0xfffffaee
    11fc:	3d0b052f 	cfstr32cc	mvfx0, [fp, #-188]	; 0xffffff44
    1200:	052e0505 	streq	r0, [lr, #-1285]!	; 0xfffffafb
    1204:	04020022 	streq	r0, [r2], #-34	; 0xffffffde
    1208:	09052103 	stmdbeq	r5, {r0, r1, r8, sp}
    120c:	03040200 	movweq	r0, #16896	; 0x4200
    1210:	001a054a 	andseq	r0, sl, sl, asr #10
    1214:	49030402 	stmdbmi	r3, {r1, sl}
    1218:	02001105 	andeq	r1, r0, #1073741825	; 0x40000001
    121c:	053c0104 	ldreq	r0, [ip, #-260]!	; 0xfffffefc
    1220:	04020005 	streq	r0, [r2], #-5
    1224:	053f2001 	ldreq	r2, [pc, #-1]!	; 122b <ConfigureTxRxFIFOSize+0xa3>
    1228:	09023d01 	stmdbeq	r2, {r0, r8, sl, fp, ip, sp}
    122c:	05010100 	streq	r0, [r1, #-256]	; 0xffffff00
    1230:	02050001 	andeq	r0, r5, #1
    1234:	00001a0c 	andeq	r1, r0, ip, lsl #20
    1238:	05011203 	streq	r1, [r1, #-515]	; 0xfffffdfd
    123c:	14055905 	strne	r5, [r5], #-2309	; 0xfffff6fb
    1240:	053030a1 	ldreq	r3, [r0, #-161]!	; 0xffffff5f
    1244:	0d023001 	stceq	0, cr3, [r2, #-4]
    1248:	05010100 	streq	r0, [r1, #-256]	; 0xffffff00
    124c:	0205002f 	andeq	r0, r5, #47	; 0x2f
    1250:	00001a50 	andeq	r1, r0, r0, asr sl
    1254:	05011f03 	streq	r1, [r1, #-3843]	; 0xfffff0fd
    1258:	833d4c05 	teqhi	sp, #1280	; 0x500
    125c:	3e01054b 	cfsh32cc	mvfx0, mvfx1, #43
    1260:	01000c02 	tsteq	r0, r2, lsl #24
    1264:	00300501 	eorseq	r0, r0, r1, lsl #10
    1268:	00000205 	andeq	r0, r0, r5, lsl #4
    126c:	28030000 	stmdacs	r3, {}	; <UNPREDICTABLE>
    1270:	4c050501 	cfstr32mi	mvfx0, [r5], {1}
    1274:	054b833d 	strbeq	r8, [fp, #-829]	; 0xfffffcc3
    1278:	0c023e01 	stceq	14, cr3, [r2], {1}
    127c:	05010100 	streq	r0, [r1, #-256]	; 0xffffff00
    1280:	02050030 	andeq	r0, r5, #48	; 0x30
    1284:	00001a94 	muleq	r0, r4, sl
    1288:	05013103 	streq	r3, [r1, #-259]	; 0xfffffefd
    128c:	833d4c05 	teqhi	sp, #1280	; 0x500
    1290:	3e01054b 	cfsh32cc	mvfx0, mvfx1, #43
    1294:	01000c02 	tsteq	r0, r2, lsl #24
    1298:	00024401 	andeq	r4, r2, r1, lsl #8
    129c:	54000300 	strpl	r0, [r0], #-768	; 0xfffffd00
    12a0:	02000001 	andeq	r0, r0, #1
    12a4:	0d0efb01 	vstreq	d15, [lr, #-4]
    12a8:	01010100 	mrseq	r0, (UNDEF: 17)
    12ac:	00000001 	andeq	r0, r0, r1
    12b0:	01000001 	tsteq	r0, r1
    12b4:	2e2f2e2e 	cdpcs	14, 2, cr2, cr15, cr14, {1}
    12b8:	72732f2e 	rsbsvc	r2, r3, #46, 30	; 0xb8
    12bc:	72642f63 	rsbvc	r2, r4, #396	; 0x18c
    12c0:	72657669 	rsbvc	r7, r5, #110100480	; 0x6900000
    12c4:	5c3a6400 	cfldrspl	mvf6, [sl], #-0
    12c8:	2d636367 	stclcs	3, cr6, [r3, #-412]!	; 0xfffffe64
    12cc:	2d6d7261 	sfmcs	f7, 2, [sp, #-388]!	; 0xfffffe7c
    12d0:	656e6f6e 	strbvs	r6, [lr, #-3950]!	; 0xfffff092
    12d4:	6261652d 	rsbvs	r6, r1, #188743680	; 0xb400000
    12d8:	30312d69 	eorscc	r2, r1, r9, ror #26
    12dc:	3230322d 	eorscc	r3, r0, #-805306366	; 0xd0000002
    12e0:	34712d30 	ldrbtcc	r2, [r1], #-3376	; 0xfffff2d0
    12e4:	6a616d2d 	bvs	185c7a0 <_etext+0x185a851>
    12e8:	615c726f 	cmpvs	ip, pc, ror #4
    12ec:	6e2d6d72 	mcrvs	13, 1, r6, cr13, cr2, {3}
    12f0:	2d656e6f 	stclcs	14, cr6, [r5, #-444]!	; 0xfffffe44
    12f4:	69626165 	stmdbvs	r2!, {r0, r2, r5, r6, r8, sp, lr}^
    12f8:	636e695c 	cmnvs	lr, #92, 18	; 0x170000
    12fc:	6564756c 	strbvs	r7, [r4, #-1388]!	; 0xfffffa94
    1300:	63616d5c 	cmnvs	r1, #92, 26	; 0x1700
    1304:	656e6968 	strbvs	r6, [lr, #-2408]!	; 0xfffff698
    1308:	5c3a6400 	cfldrspl	mvf6, [sl], #-0
    130c:	2d636367 	stclcs	3, cr6, [r3, #-412]!	; 0xfffffe64
    1310:	2d6d7261 	sfmcs	f7, 2, [sp, #-388]!	; 0xfffffe7c
    1314:	656e6f6e 	strbvs	r6, [lr, #-3950]!	; 0xfffff092
    1318:	6261652d 	rsbvs	r6, r1, #188743680	; 0xb400000
    131c:	30312d69 	eorscc	r2, r1, r9, ror #26
    1320:	3230322d 	eorscc	r3, r0, #-805306366	; 0xd0000002
    1324:	34712d30 	ldrbtcc	r2, [r1], #-3376	; 0xfffff2d0
    1328:	6a616d2d 	bvs	185c7e4 <_etext+0x185a895>
    132c:	615c726f 	cmpvs	ip, pc, ror #4
    1330:	6e2d6d72 	mcrvs	13, 1, r6, cr13, cr2, {3}
    1334:	2d656e6f 	stclcs	14, cr6, [r5, #-444]!	; 0xfffffe44
    1338:	69626165 	stmdbvs	r2!, {r0, r2, r5, r6, r8, sp, lr}^
    133c:	636e695c 	cmnvs	lr, #92, 18	; 0x170000
    1340:	6564756c 	strbvs	r7, [r4, #-1388]!	; 0xfffffa94
    1344:	7379735c 	cmnvc	r9, #92, 6	; 0x70000001
    1348:	5c3a6400 	cfldrspl	mvf6, [sl], #-0
    134c:	2d636367 	stclcs	3, cr6, [r3, #-412]!	; 0xfffffe64
    1350:	2d6d7261 	sfmcs	f7, 2, [sp, #-388]!	; 0xfffffe7c
    1354:	656e6f6e 	strbvs	r6, [lr, #-3950]!	; 0xfffff092
    1358:	6261652d 	rsbvs	r6, r1, #188743680	; 0xb400000
    135c:	30312d69 	eorscc	r2, r1, r9, ror #26
    1360:	3230322d 	eorscc	r3, r0, #-805306366	; 0xd0000002
    1364:	34712d30 	ldrbtcc	r2, [r1], #-3376	; 0xfffff2d0
    1368:	6a616d2d 	bvs	185c824 <_etext+0x185a8d5>
    136c:	6c5c726f 	lfmvs	f7, 2, [ip], {111}	; 0x6f
    1370:	675c6269 	ldrbvs	r6, [ip, -r9, ror #4]
    1374:	615c6363 	cmpvs	ip, r3, ror #6
    1378:	6e2d6d72 	mcrvs	13, 1, r6, cr13, cr2, {3}
    137c:	2d656e6f 	stclcs	14, cr6, [r5, #-444]!	; 0xfffffe44
    1380:	69626165 	stmdbvs	r2!, {r0, r2, r5, r6, r8, sp, lr}^
    1384:	2e30315c 	mrccs	1, 1, r3, cr0, cr12, {2}
    1388:	5c312e32 	ldcpl	14, cr2, [r1], #-200	; 0xffffff38
    138c:	6c636e69 	stclvs	14, cr6, [r3], #-420	; 0xfffffe5c
    1390:	00656475 	rsbeq	r6, r5, r5, ror r4
    1394:	2e2f2e2e 	cdpcs	14, 2, cr2, cr15, cr14, {1}
    1398:	72732f2e 	rsbsvc	r2, r3, #46, 30	; 0xb8
    139c:	4e492f63 	cdpmi	15, 4, cr2, cr9, cr3, {3}
    13a0:	64000043 	strvs	r0, [r0], #-67	; 0xffffffbd
    13a4:	67756265 	ldrbvs	r6, [r5, -r5, ror #4]!
    13a8:	7070632e 	rsbsvc	r6, r0, lr, lsr #6
    13ac:	00000100 	andeq	r0, r0, r0, lsl #2
    13b0:	6665645f 			; <UNDEFINED> instruction: 0x6665645f
    13b4:	746c7561 	strbtvc	r7, [ip], #-1377	; 0xfffffa9f
    13b8:	7079745f 	rsbsvc	r7, r9, pc, asr r4
    13bc:	682e7365 	stmdavs	lr!, {r0, r2, r5, r6, r8, r9, ip, sp, lr}
    13c0:	00000200 	andeq	r0, r0, r0, lsl #4
    13c4:	6474735f 	ldrbtvs	r7, [r4], #-863	; 0xfffffca1
    13c8:	2e746e69 	cdpcs	14, 7, cr6, cr4, cr9, {3}
    13cc:	00030068 	andeq	r0, r3, r8, rrx
    13d0:	64747300 	ldrbtvs	r7, [r4], #-768	; 0xfffffd00
    13d4:	2e677261 	cdpcs	2, 6, cr7, cr7, cr1, {3}
    13d8:	00040068 	andeq	r0, r4, r8, rrx
    13dc:	62656400 	rsbvs	r6, r5, #0, 8
    13e0:	682e6775 	stmdavs	lr!, {r0, r2, r4, r5, r6, r8, r9, sl, sp, lr}
    13e4:	00000500 	andeq	r0, r0, r0, lsl #10
    13e8:	6975623c 	ldmdbvs	r5!, {r2, r3, r4, r5, r9, sp, lr}^
    13ec:	692d746c 	pushvs	{r2, r3, r5, r6, sl, ip, sp, lr}
    13f0:	00003e6e 	andeq	r3, r0, lr, ror #28
    13f4:	05000000 	streq	r0, [r0, #-0]
    13f8:	02050001 	andeq	r0, r5, #1
    13fc:	00001ad8 	ldrdeq	r1, [r0], -r8
    1400:	05010b03 	streq	r0, [r1, #-2819]	; 0xfffff4fd
    1404:	0105590f 	tsteq	r5, pc, lsl #18
    1408:	0006025a 	andeq	r0, r6, sl, asr r2
    140c:	01050101 	tsteq	r5, r1, lsl #2
    1410:	00020500 	andeq	r0, r2, r0, lsl #10
    1414:	03000000 	movweq	r0, #0
    1418:	0c050111 	stfeqs	f0, [r5], {17}
    141c:	08140559 	ldmdaeq	r4, {r0, r3, r4, r6, r8, sl}
    1420:	30303031 	eorscc	r3, r0, r1, lsr r0
    1424:	05303030 	ldreq	r3, [r0, #-48]!	; 0xffffffd0
    1428:	15022201 	strne	r2, [r2, #-513]	; 0xfffffdff
    142c:	05010100 	streq	r0, [r1, #-256]	; 0xffffff00
    1430:	02050001 	andeq	r0, r5, #1
    1434:	00000000 	andeq	r0, r0, r0
    1438:	05012503 	streq	r2, [r1, #-1283]	; 0xfffffafd
    143c:	01054b16 	tsteq	r5, r6, lsl fp
    1440:	0007023d 	andeq	r0, r7, sp, lsr r2
    1444:	36050101 	strcc	r0, [r5], -r1, lsl #2
    1448:	00020500 	andeq	r0, r2, r0, lsl #10
    144c:	03000000 	movweq	r0, #0
    1450:	05050129 	streq	r0, [r5, #-297]	; 0xfffffed7
    1454:	3d1c0567 	cfldr32cc	mvfx0, [ip, #-412]	; 0xfffffe64
    1458:	05201a05 	streq	r1, [r0, #-2565]!	; 0xfffff5fb
    145c:	06023001 	streq	r3, [r2], -r1
    1460:	05010100 	streq	r0, [r1, #-256]	; 0xffffff00
    1464:	02050047 	andeq	r0, r5, #71	; 0x47
    1468:	00000000 	andeq	r0, r0, r0
    146c:	05012f03 	streq	r2, [r1, #-3843]	; 0xfffff0fd
    1470:	08057605 	stmdaeq	r5, {r0, r2, r9, sl, ip, sp, lr}
    1474:	2017053d 	andscs	r0, r7, sp, lsr r5
    1478:	052e0505 	streq	r0, [lr, #-1285]!	; 0xfffffafb
    147c:	11052f13 	tstne	r5, r3, lsl pc
    1480:	20090592 	mulcs	r9, r2, r5
    1484:	0b030d05 	bleq	c48a0 <_etext+0xc2951>
    1488:	0317054a 	tsteq	r7, #310378496	; 0x12800000
    148c:	0d052078 	stceq	0, cr2, [r5, #-480]	; 0xfffffe20
    1490:	2317053d 	tstcs	r7, #255852544	; 0xf400000
    1494:	053d0d05 	ldreq	r0, [sp, #-3333]!	; 0xfffff2fb
    1498:	09052614 	stmdbeq	r5, {r2, r4, r9, sl, sp}
    149c:	3d17054b 	cfldr32cc	mvfx0, [r7, #-300]	; 0xfffffed4
    14a0:	053e1305 	ldreq	r1, [lr, #-773]!	; 0xfffffcfb
    14a4:	00084001 	andeq	r4, r8, r1
    14a8:	1b050101 	blne	1418b4 <_etext+0x13f965>
    14ac:	00020500 	andeq	r0, r2, r0, lsl #10
    14b0:	03000000 	movweq	r0, #0
    14b4:	580100cd 	stmdapl	r1, {r0, r2, r3, r6, r7}
    14b8:	01040200 	mrseq	r0, R12_usr
    14bc:	10053c06 	andne	r3, r5, r6, lsl #24
    14c0:	03040200 	movweq	r0, #16896	; 0x4200
    14c4:	1b055806 	blne	1574e4 <_etext+0x155595>
    14c8:	0006023c 	andeq	r0, r6, ip, lsr r2
    14cc:	1b050101 	blne	1418d8 <_etext+0x13f989>
    14d0:	00020500 	andeq	r0, r2, r0, lsl #10
    14d4:	03000000 	movweq	r0, #0
    14d8:	2e0100cd 	cdpcs	0, 0, cr0, cr1, cr13, {6}
    14dc:	01000602 	tsteq	r0, r2, lsl #12
    14e0:	Address 0x000014e0 is out of bounds.


Disassembly of section .debug_str:

00000000 <.debug_str>:
   0:	64627375 	strbtvs	r7, [r2], #-885	; 0xfffffc8b
   4:	63697665 	cmnvs	r9, #105906176	; 0x6500000
   8:	3a440065 	bcc	11001a4 <_etext+0x10fe255>
   c:	726f575c 	rsbvc	r5, pc, #92, 14	; 0x1700000
  10:	6170736b 	cmnvs	r0, fp, ror #6
  14:	745c6563 	ldrbvc	r6, [ip], #-1379	; 0xfffffa9d
  18:	43617669 	cmnmi	r1, #110100480	; 0x6900000
  1c:	6f72705c 	svcvs	0x0072705c
  20:	7463656a 	strbtvc	r6, [r3], #-1386	; 0xfffffa96
  24:	73755c73 	cmnvc	r5, #29440	; 0x7300
  28:	78655f62 	stmdavc	r5!, {r1, r5, r6, r8, r9, sl, fp, ip, lr}^
  2c:	42535500 	subsmi	r5, r3, #0, 10
  30:	5645445f 			; <UNDEFINED> instruction: 0x5645445f
  34:	5f454349 	svcpl	0x00454349
  38:	54415453 	strbpl	r5, [r1], #-1107	; 0xfffffbad
  3c:	45445f45 	strbmi	r5, [r4, #-3909]	; 0xfffff0bb
  40:	4c554146 	ldfmie	f4, [r5], {70}	; 0x46
  44:	74700054 	ldrbtvc	r0, [r0], #-84	; 0xffffffac
  48:	756f5f72 	strbvc	r5, [pc, #-3954]!	; fffff0de <_ebss+0xdfffefbe>
  4c:	75625f74 	strbvc	r5, [r2, #-3956]!	; 0xfffff08c
  50:	72656666 	rsbvc	r6, r5, #106954752	; 0x6600000
  54:	42535500 	subsmi	r5, r3, #0, 10
  58:	4e4f435f 	mcrmi	3, 2, r4, cr15, cr15, {2}
  5c:	4c4f5254 	sfmmi	f5, 2, [pc], {84}	; 0x54
  60:	4154535f 	cmpmi	r4, pc, asr r3
  64:	445f4547 	ldrbmi	r4, [pc], #-1351	; 6c <g_pfnVectors+0x6c>
  68:	5f415441 	svcpl	0x00415441
  6c:	495f4e49 	ldmdbmi	pc, {r0, r3, r6, r9, sl, fp, lr}^	; <UNPREDICTABLE>
  70:	00454c44 	subeq	r4, r5, r4, asr #24
  74:	54524155 	ldrbpl	r4, [r2], #-341	; 0xfffffeab
  78:	746e4930 	strbtvc	r4, [lr], #-2352	; 0xfffff6d0
  7c:	646e6148 	strbtvs	r6, [lr], #-328	; 0xfffffeb8
  80:	0072656c 	rsbseq	r6, r2, ip, ror #10
  84:	726f6873 	rsbvc	r6, pc, #7536640	; 0x730000
  88:	6e692074 	mcrvs	0, 3, r2, cr9, cr4, {3}
  8c:	53550074 	cmppl	r5, #116	; 0x74
  90:	45445f42 	strbmi	r5, [r4, #-3906]	; 0xfffff0be
  94:	45434956 	strbmi	r4, [r3, #-2390]	; 0xfffff6aa
  98:	4154535f 	cmpmi	r4, pc, asr r3
  9c:	535f4554 	cmppl	pc, #84, 10	; 0x15000000
  a0:	45505355 	ldrbmi	r5, [r0, #-853]	; 0xfffffcab
  a4:	4445444e 	strbmi	r4, [r5], #-1102	; 0xfffffbb2
  a8:	69616d00 	stmdbvs	r1!, {r8, sl, fp, sp, lr}^
  ac:	5f5f006e 	svcpl	0x005f006e
  b0:	746e6975 	strbtvc	r6, [lr], #-2421	; 0xfffff68b
  b4:	745f3233 	ldrbvc	r3, [pc], #-563	; bc <g_pfnVectors+0xbc>
  b8:	33697500 	cmncc	r9, #0, 10
  bc:	65725032 	ldrbvs	r5, [r2, #-50]!	; 0xffffffce
  c0:	756f4376 	strbvc	r4, [pc, #-886]!	; fffffd52 <_ebss+0xdffffc32>
  c4:	5500746e 	strpl	r7, [r0, #-1134]	; 0xfffffb92
  c8:	435f4253 	cmpmi	pc, #805306373	; 0x30000005
  cc:	52544e4f 	subspl	r4, r4, #1264	; 0x4f0
  d0:	535f4c4f 	cmppl	pc, #20224	; 0x4f00
  d4:	45474154 	strbmi	r4, [r7, #-340]	; 0xfffffeac
  d8:	5441445f 	strbpl	r4, [r1], #-1119	; 0xfffffba1
  dc:	554f5f41 	strbpl	r5, [pc, #-3905]	; fffff1a3 <_ebss+0xdffff083>
  e0:	53550054 	cmppl	r5, #84	; 0x54
  e4:	76654442 	strbtvc	r4, [r5], -r2, asr #8
  e8:	53656369 	cmnpl	r5, #-1543503871	; 0xa4000001
  ec:	65746174 	ldrbvs	r6, [r4, #-372]!	; 0xfffffe8c
  f0:	6e6f6300 	cdpvs	3, 6, cr6, cr15, cr0, {0}
  f4:	75676966 	strbvc	r6, [r7, #-2406]!	; 0xfffff69a
  f8:	69746172 	ldmdbvs	r4!, {r1, r4, r5, r6, r8, sp, lr}^
  fc:	765f6e6f 	ldrbvc	r6, [pc], -pc, ror #28
 100:	65756c61 	ldrbvs	r6, [r5, #-3169]!	; 0xfffff39f
 104:	76656400 	strbtvc	r6, [r5], -r0, lsl #8
 108:	5f656369 	svcpl	0x00656369
 10c:	74617473 	strbtvc	r7, [r1], #-1139	; 0xfffffb8d
 110:	79530065 	ldmdbvc	r3, {r0, r2, r5, r6}^
 114:	63695473 	cmnvs	r9, #1929379840	; 0x73000000
 118:	616e456b 	cmnvs	lr, fp, ror #10
 11c:	00656c62 	rsbeq	r6, r5, r2, ror #24
 120:	676e6f6c 	strbvs	r6, [lr, -ip, ror #30]!
 124:	6e6f6c20 	cdpvs	12, 6, cr6, cr15, cr0, {1}
 128:	6e692067 	cdpvs	0, 6, cr2, cr9, cr7, {3}
 12c:	756f0074 	strbvc	r0, [pc, #-116]!	; c0 <g_pfnVectors+0xc0>
 130:	61645f74 	smcvs	17908	; 0x45f4
 134:	735f6174 	cmpvc	pc, #116, 2
 138:	00657a69 	rsbeq	r7, r5, r9, ror #20
 13c:	5f425355 	svcpl	0x00425355
 140:	544e4f43 	strbpl	r4, [lr], #-3907	; 0xfffff0bd
 144:	5f4c4f52 	svcpl	0x004c4f52
 148:	47415453 	smlsldmi	r5, r1, r3, r4
 14c:	41445f45 	cmpmi	r4, r5, asr #30
 150:	495f4154 	ldmdbmi	pc, {r2, r4, r6, r8, lr}^	; <UNPREDICTABLE>
 154:	7953004e 	ldmdbvc	r3, {r1, r2, r3, r6}^
 158:	63695473 	cmnvs	r9, #1929379840	; 0x73000000
 15c:	7265506b 	rsbvc	r5, r5, #107	; 0x6b
 160:	53646f69 	cmnpl	r4, #420	; 0x1a4
 164:	55007465 	strpl	r7, [r0, #-1125]	; 0xfffffb9b
 168:	445f4253 	ldrbmi	r4, [pc], #-595	; 170 <g_pfnVectors+0x170>
 16c:	43495645 	movtmi	r5, #38469	; 0x9645
 170:	54535f45 	ldrbpl	r5, [r3], #-3909	; 0xfffff0bb
 174:	5f455441 	svcpl	0x00455441
 178:	464e4f43 	strbmi	r4, [lr], -r3, asr #30
 17c:	52554749 	subspl	r4, r5, #19136512	; 0x1240000
 180:	75004445 	strvc	r4, [r0, #-1093]	; 0xfffffbbb
 184:	6769736e 	strbvs	r7, [r9, -lr, ror #6]!
 188:	2064656e 	rsbcs	r6, r4, lr, ror #10
 18c:	72616863 	rsbvc	r6, r1, #6488064	; 0x630000
 190:	42535500 	subsmi	r5, r3, #0, 10
 194:	4e4f435f 	mcrmi	3, 2, r4, cr15, cr15, {2}
 198:	4c4f5254 	sfmmi	f5, 2, [pc], {84}	; 0x54
 19c:	4154535f 	cmpmi	r4, pc, asr r3
 1a0:	535f4547 	cmppl	pc, #297795584	; 0x11c00000
 1a4:	55544154 	ldrbpl	r4, [r4, #-340]	; 0xfffffeac
 1a8:	4e495f53 	mcrmi	15, 2, r5, cr9, cr3, {2}
 1ac:	6e6f6c00 	cdpvs	12, 6, cr6, cr15, cr0, {0}
 1b0:	6f6c2067 	svcvs	0x006c2067
 1b4:	7520676e 	strvc	r6, [r0, #-1902]!	; 0xfffff892
 1b8:	6769736e 	strbvs	r7, [r9, -lr, ror #6]!
 1bc:	2064656e 	rsbcs	r6, r4, lr, ror #10
 1c0:	00746e69 	rsbseq	r6, r4, r9, ror #28
 1c4:	645f6e69 	ldrbvs	r6, [pc], #-3689	; 1cc <g_pfnVectors+0x1cc>
 1c8:	5f617461 	svcpl	0x00617461
 1cc:	657a6973 	ldrbvs	r6, [sl, #-2419]!	; 0xfffff68d
 1d0:	42535500 	subsmi	r5, r3, #0, 10
 1d4:	5645445f 			; <UNDEFINED> instruction: 0x5645445f
 1d8:	5f454349 	svcpl	0x00454349
 1dc:	54415453 	strbpl	r5, [r1], #-1107	; 0xfffffbad
 1e0:	44415f45 	strbmi	r5, [r1], #-3909	; 0xfffff0bb
 1e4:	53455244 	movtpl	r5, #21060	; 0x5244
 1e8:	00444553 	subeq	r4, r4, r3, asr r5
 1ec:	54737953 	ldrbtpl	r7, [r3], #-2387	; 0xfffff6ad
 1f0:	496b6369 	stmdbmi	fp!, {r0, r3, r5, r6, r8, r9, sp, lr}^
 1f4:	6e45746e 	cdpvs	4, 4, cr7, cr5, cr14, {3}
 1f8:	656c6261 	strbvs	r6, [ip, #-609]!	; 0xfffffd9f
 1fc:	6f687300 	svcvs	0x00687300
 200:	75207472 	strvc	r7, [r0, #-1138]!	; 0xfffffb8e
 204:	6769736e 	strbvs	r7, [r9, -lr, ror #6]!
 208:	2064656e 	rsbcs	r6, r4, lr, ror #10
 20c:	00746e69 	rsbseq	r6, r4, r9, ror #28
 210:	5f727470 	svcpl	0x00727470
 214:	625f6e69 	subsvs	r6, pc, #1680	; 0x690
 218:	65666675 	strbvs	r6, [r6, #-1653]!	; 0xfffff98b
 21c:	4e470072 	mcrmi	0, 2, r0, cr7, cr2, {3}
 220:	39432055 	stmdbcc	r3, {r0, r2, r4, r6, sp}^
 224:	30312039 	eorscc	r2, r1, r9, lsr r0
 228:	312e322e 			; <UNDEFINED> instruction: 0x312e322e
 22c:	32303220 	eorscc	r3, r0, #32, 4
 230:	30313130 	eorscc	r3, r1, r0, lsr r1
 234:	72282033 	eorvc	r2, r8, #51	; 0x33
 238:	61656c65 	cmnvs	r5, r5, ror #24
 23c:	20296573 	eorcs	r6, r9, r3, ror r5
 240:	68746d2d 	ldmdavs	r4!, {r0, r2, r3, r5, r8, sl, fp, sp, lr}^
 244:	20626d75 	rsbcs	r6, r2, r5, ror sp
 248:	70636d2d 	rsbvc	r6, r3, sp, lsr #26
 24c:	6f633d75 	svcvs	0x00633d75
 250:	78657472 	stmdavc	r5!, {r1, r4, r5, r6, sl, ip, sp, lr}^
 254:	20346d2d 	eorscs	r6, r4, sp, lsr #26
 258:	70666d2d 	rsbvc	r6, r6, sp, lsr #26
 25c:	70663d75 	rsbvc	r3, r6, r5, ror sp
 260:	732d3476 			; <UNDEFINED> instruction: 0x732d3476
 264:	31642d70 	smccc	17104	; 0x42d0
 268:	6d2d2036 	stcvs	0, cr2, [sp, #-216]!	; 0xffffff28
 26c:	616f6c66 	cmnvs	pc, r6, ror #24
 270:	62612d74 	rsbvs	r2, r1, #116, 26	; 0x1d00
 274:	61683d69 	cmnvs	r8, r9, ror #26
 278:	2d206472 	cfstrscs	mvf6, [r0, #-456]!	; 0xfffffe38
 27c:	6372616d 	cmnvs	r2, #1073741851	; 0x4000001b
 280:	72613d68 	rsbvc	r3, r1, #104, 26	; 0x1a00
 284:	6537766d 	ldrvs	r7, [r7, #-1645]!	; 0xfffff993
 288:	662b6d2d 	strtvs	r6, [fp], -sp, lsr #26
 28c:	672d2070 			; <UNDEFINED> instruction: 0x672d2070
 290:	304f2d20 	subcc	r2, pc, r0, lsr #26
 294:	74732d20 	ldrbtvc	r2, [r3], #-3360	; 0xfffff2e0
 298:	39633d64 	stmdbcc	r3!, {r2, r5, r6, r8, sl, fp, ip, sp}^
 29c:	662d2039 			; <UNDEFINED> instruction: 0x662d2039
 2a0:	636e7566 	cmnvs	lr, #427819008	; 0x19800000
 2a4:	6e6f6974 			; <UNDEFINED> instruction: 0x6e6f6974
 2a8:	6365732d 	cmnvs	r5, #-1275068416	; 0xb4000000
 2ac:	6e6f6974 			; <UNDEFINED> instruction: 0x6e6f6974
 2b0:	662d2073 			; <UNDEFINED> instruction: 0x662d2073
 2b4:	61746164 	cmnvs	r4, r4, ror #2
 2b8:	6365732d 	cmnvs	r5, #-1275068416	; 0xb4000000
 2bc:	6e6f6974 			; <UNDEFINED> instruction: 0x6e6f6974
 2c0:	425f0073 	subsmi	r0, pc, #115	; 0x73
 2c4:	006c6f6f 	rsbeq	r6, ip, pc, ror #30
 2c8:	706d6953 	rsbvc	r6, sp, r3, asr r9
 2cc:	6544656c 	strbvs	r6, [r4, #-1388]	; 0xfffffa94
 2d0:	0079616c 	rsbseq	r6, r9, ip, ror #2
 2d4:	44425355 	strbmi	r5, [r2], #-853	; 0xfffffcab
 2d8:	63697665 	cmnvs	r9, #105906176	; 0x6500000
 2dc:	616d0065 	cmnvs	sp, r5, rrx
 2e0:	632e6e69 			; <UNDEFINED> instruction: 0x632e6e69
 2e4:	696e4900 	stmdbvs	lr!, {r8, fp, lr}^
 2e8:	6e6f4374 	mcrvs	3, 3, r4, cr15, cr4, {3}
 2ec:	656c6f73 	strbvs	r6, [ip, #-3955]!	; 0xfffff08d
 2f0:	73795300 	cmnvc	r9, #0, 6
 2f4:	6b636954 	blvs	18da84c <_etext+0x18d88fd>
 2f8:	48746e49 	ldmdami	r4!, {r0, r3, r6, r9, sl, fp, sp, lr}^
 2fc:	6c646e61 	stclvs	14, cr6, [r4], #-388	; 0xfffffe7c
 300:	55007265 	strpl	r7, [r0, #-613]	; 0xfffffd9b
 304:	435f4253 	cmpmi	pc, #805306373	; 0x30000005
 308:	52544e4f 	subspl	r4, r4, #1264	; 0x4f0
 30c:	535f4c4f 	cmppl	pc, #20224	; 0x4f00
 310:	45474154 	strbmi	r4, [r7, #-340]	; 0xfffffeac
 314:	4154535f 	cmpmi	r4, pc, asr r3
 318:	5f535554 	svcpl	0x00535554
 31c:	0054554f 	subseq	r5, r4, pc, asr #10
 320:	69755f67 	ldmdbvs	r5!, {r0, r1, r2, r5, r6, r8, r9, sl, fp, ip, lr}^
 324:	6f433233 	svcvs	0x00433233
 328:	65746e75 	ldrbvs	r6, [r4, #-3701]!	; 0xfffff18b
 32c:	53550072 	cmppl	r5, #114	; 0x72
 330:	4f435f42 	svcmi	0x00435f42
 334:	4f52544e 	svcmi	0x0052544e
 338:	54535f4c 	ldrbpl	r5, [r3], #-3916	; 0xfffff0b4
 33c:	5f454741 	svcpl	0x00454741
 340:	55544553 	ldrbpl	r4, [r4, #-1363]	; 0xfffffaad
 344:	53550050 	cmppl	r5, #80	; 0x50
 348:	6e6f4342 	cdpvs	3, 6, cr4, cr15, cr2, {2}
 34c:	6c6f7274 	sfmvs	f7, 2, [pc], #-464	; 184 <g_pfnVectors+0x184>
 350:	6e617254 	mcrvs	2, 3, r7, cr1, cr4, {2}
 354:	72656673 	rsbvc	r6, r5, #120586240	; 0x7300000
 358:	67617453 			; <UNDEFINED> instruction: 0x67617453
 35c:	53550065 	cmppl	r5, #101	; 0x65
 360:	4f435f42 	svcmi	0x00435f42
 364:	4f52544e 	svcmi	0x0052544e
 368:	54535f4c 	ldrbpl	r5, [r3], #-3916	; 0xfffff0b4
 36c:	5f454741 	svcpl	0x00454741
 370:	41544144 	cmpmi	r4, r4, asr #2
 374:	5f4e495f 	svcpl	0x004e495f
 378:	4f52455a 	svcmi	0x0052455a
 37c:	61645f00 	cmnvs	r4, r0, lsl #30
 380:	70006174 	andvc	r6, r0, r4, ror r1
 384:	74536c75 	ldrbvc	r6, [r3], #-3189	; 0xfffff38b
 388:	006b6361 	rsbeq	r6, fp, r1, ror #6
 38c:	446c7570 	strbtmi	r7, [ip], #-1392	; 0xfffffa90
 390:	00747365 	rsbseq	r7, r4, r5, ror #6
 394:	6574655f 	ldrbvs	r6, [r4, #-1375]!	; 0xfffffaa1
 398:	5f007478 	svcpl	0x00007478
 39c:	74616465 	strbtvc	r6, [r1], #-1125	; 0xfffffb9b
 3a0:	74730061 	ldrbtvc	r0, [r3], #-97	; 0xffffff9f
 3a4:	75747261 	ldrbvc	r7, [r4, #-609]!	; 0xfffffd9f
 3a8:	63675f70 	cmnvs	r7, #112, 30	; 0x1c0
 3ac:	00632e63 	rsbeq	r2, r3, r3, ror #28
 3b0:	44746e49 	ldrbtmi	r6, [r4], #-3657	; 0xfffff1b7
 3b4:	75616665 	strbvc	r6, [r1, #-1637]!	; 0xfffff99b
 3b8:	6148746c 	cmpvs	r8, ip, ror #8
 3bc:	656c646e 	strbvs	r6, [ip, #-1134]!	; 0xfffffb92
 3c0:	61460072 	hvcvs	24578	; 0x6002
 3c4:	49746c75 	ldmdbmi	r4!, {r0, r2, r4, r5, r6, sl, fp, sp, lr}^
 3c8:	67005253 	smlsdvs	r0, r3, r2, r5
 3cc:	6e66705f 	mcrvs	0, 3, r7, cr6, cr15, {2}
 3d0:	74636556 	strbtvc	r6, [r3], #-1366	; 0xfffffaaa
 3d4:	0073726f 	rsbseq	r7, r3, pc, ror #4
 3d8:	536c7570 	cmnpl	ip, #112, 10	; 0x1c000000
 3dc:	52006372 	andpl	r6, r0, #-939524095	; 0xc8000001
 3e0:	74657365 	strbtvc	r7, [r5], #-869	; 0xfffffc9b
 3e4:	00525349 	subseq	r5, r2, r9, asr #6
 3e8:	53696d4e 	cmnpl	r9, #4992	; 0x1380
 3ec:	61760052 	cmnvs	r6, r2, asr r0
 3f0:	50677241 	rsbpl	r7, r7, r1, asr #4
 3f4:	33697500 	cmncc	r9, #0, 10
 3f8:	75614232 	strbvc	r4, [r1, #-562]!	; 0xfffffdce
 3fc:	63700064 	cmnvs	r0, #100	; 0x64
 400:	69727453 	ldmdbvs	r2!, {r0, r1, r4, r6, sl, ip, sp, lr}^
 404:	7500676e 	strvc	r6, [r0, #-1902]	; 0xfffff892
 408:	56323369 	ldrtpl	r3, [r2], -r9, ror #6
 40c:	65756c61 	ldrbvs	r6, [r5, #-3169]!	; 0xfffff39f
 410:	64497500 	strbvs	r7, [r9], #-1280	; 0xfffffb00
 414:	41550078 	cmpmi	r5, r8, ror r0
 418:	72775452 	rsbsvc	r5, r7, #1375731712	; 0x52000000
 41c:	00657469 	rsbeq	r7, r5, r9, ror #8
 420:	32336975 	eorscc	r6, r3, #1916928	; 0x1d4000
 424:	6e756f43 	cdpvs	15, 7, cr6, cr5, cr3, {2}
 428:	5f670074 	svcpl	0x00670074
 42c:	32336975 	eorscc	r6, r3, #1916928	; 0x1d4000
 430:	54524155 	ldrbpl	r4, [r2], #-341	; 0xfffffeab
 434:	69726550 	ldmdbvs	r2!, {r4, r6, r8, sl, sp, lr}^
 438:	63006870 	movwvs	r6, #2160	; 0x870
 43c:	6c6c6946 			; <UNDEFINED> instruction: 0x6c6c6946
 440:	52415500 	subpl	r5, r1, #0, 10
 444:	64745354 	ldrbtvs	r5, [r4], #-852	; 0xfffffcac
 448:	6f436f69 	svcvs	0x00436f69
 44c:	6769666e 	strbvs	r6, [r9, -lr, ror #12]!
 450:	33697500 	cmncc	r9, #0, 10
 454:	726f5032 	rsbvc	r5, pc, #50	; 0x32
 458:	6d754e74 	ldclvs	14, cr4, [r5, #-464]!	; 0xfffffe30
 45c:	765f5f00 	ldrbvc	r5, [pc], -r0, lsl #30
 460:	696c5f61 	stmdbvs	ip!, {r0, r5, r6, r8, r9, sl, fp, ip, lr}^
 464:	67007473 	smlsdxvs	r0, r3, r4, r7
 468:	3369755f 	cmncc	r9, #398458880	; 0x17c00000
 46c:	73614232 	cmnvc	r1, #536870915	; 0x20000003
 470:	41550065 	cmpmi	r5, r5, rrx
 474:	70765452 	rsbsvc	r5, r6, r2, asr r4
 478:	746e6972 	strbtvc	r6, [lr], #-2418	; 0xfffff68e
 47c:	43630066 	cmnmi	r3, #102	; 0x66
 480:	00726168 	rsbseq	r6, r2, r8, ror #2
 484:	32336975 	eorscc	r6, r3, #1916928	; 0x1d4000
 488:	0067654e 	rsbeq	r6, r7, lr, asr #10
 48c:	54524155 	ldrbpl	r4, [r2], #-341	; 0xfffffeab
 490:	6e697270 	mcrvs	2, 3, r7, cr9, cr0, {3}
 494:	75006674 	strvc	r6, [r0, #-1652]	; 0xfffff98c
 498:	53323369 	teqpl	r2, #-1543503871	; 0xa4000001
 49c:	6c436372 	mcrrvs	3, 7, r6, r3, cr2
 4a0:	006b636f 	rsbeq	r6, fp, pc, ror #6
 4a4:	6e695f5f 	mcrvs	15, 3, r5, cr9, cr15, {2}
 4a8:	745f3874 	ldrbvc	r3, [pc], #-2164	; 4b0 <UARTwrite+0x48>
 4ac:	615f5f00 	cmpvs	pc, r0, lsl #30
 4b0:	6f630070 	svcvs	0x00630070
 4b4:	7265766e 	rsbvc	r7, r5, #115343360	; 0x6e00000
 4b8:	69750074 	ldmdbvs	r5!, {r2, r4, r5, r6}^
 4bc:	654c3233 	strbvs	r3, [ip, #-563]	; 0xfffffdcd
 4c0:	2e2e006e 	cdpcs	0, 2, cr0, cr14, cr14, {3}
 4c4:	2f2e2e2f 	svccs	0x002e2e2f
 4c8:	61766954 	cmnvs	r6, r4, asr r9
 4cc:	65726157 	ldrbvs	r6, [r2, #-343]!	; 0xfffffea9
 4d0:	6974752f 	ldmdbvs	r4!, {r0, r1, r2, r3, r5, r8, sl, ip, sp, lr}^
 4d4:	752f736c 	strvc	r7, [pc, #-876]!	; 170 <g_pfnVectors+0x170>
 4d8:	73747261 	cmnvc	r4, #268435462	; 0x10000006
 4dc:	6f696474 	svcvs	0x00696474
 4e0:	6700632e 	strvs	r6, [r0, -lr, lsr #6]
 4e4:	4863705f 	stmdami	r3!, {r0, r1, r2, r3, r4, r6, ip, sp, lr}^
 4e8:	70007865 	andvc	r7, r0, r5, ror #16
 4ec:	72745363 	rsbsvc	r5, r4, #-1946157055	; 0x8c000001
 4f0:	614c6200 	mrsvs	r6, (UNDEF: 108)
 4f4:	61577473 	cmpvs	r7, r3, ror r4
 4f8:	00524373 	subseq	r4, r2, r3, ror r3
 4fc:	6e695f5f 	mcrvs	15, 3, r5, cr9, cr15, {2}
 500:	5f323374 	svcpl	0x00323374
 504:	69750074 	ldmdbvs	r5!, {r2, r4, r5, r6}^
 508:	64493233 	strbvs	r3, [r9], #-563	; 0xfffffdcd
 50c:	5f5f0078 	svcpl	0x005f0078
 510:	63756e67 	cmnvs	r5, #1648	; 0x670
 514:	5f61765f 	svcpl	0x0061765f
 518:	7473696c 	ldrbtvc	r6, [r3], #-2412	; 0xfffff694
 51c:	52415500 	subpl	r5, r1, #0, 10
 520:	74656754 	strbtvc	r6, [r5], #-1876	; 0xfffff8ac
 524:	5f670063 	svcpl	0x00670063
 528:	32336975 	eorscc	r6, r3, #1916928	; 0x1d4000
 52c:	54524155 	ldrbpl	r4, [r2], #-341	; 0xfffffeab
 530:	65736142 	ldrbvs	r6, [r3, #-322]!	; 0xfffffebe
 534:	33697500 	cmncc	r9, #0, 10
 538:	736f5032 	cmnvc	pc, #50	; 0x32
 53c:	42637000 	rsbmi	r7, r3, #0
 540:	55006675 	strpl	r6, [r0, #-1653]	; 0xfffff98b
 544:	67545241 	ldrbvs	r5, [r4, -r1, asr #4]
 548:	00737465 	rsbseq	r7, r3, r5, ror #8
 54c:	69616761 	stmdbvs	r1!, {r0, r5, r6, r8, r9, sl, sp, lr}^
 550:	6c66006e 	stclvs	0, cr0, [r6], #-440	; 0xfffffe48
 554:	5f687375 	svcpl	0x00687375
 558:	69667872 	stmdbvs	r6!, {r1, r4, r5, r6, fp, ip, sp, lr}^
 55c:	6f006f66 	svcvs	0x00006f66
 560:	73755f6e 	cmnvc	r5, #440	; 0x1b8
 564:	65725f62 	ldrbvs	r5, [r2, #-3938]!	; 0xfffff09e
 568:	5f746573 	svcpl	0x00746573
 56c:	65636572 	strbvs	r6, [r3, #-1394]!	; 0xfffffa8e
 570:	64657669 	strbtvs	r7, [r5], #-1641	; 0xfffff997
 574:	69727700 	ldmdbvs	r2!, {r8, r9, sl, ip, sp, lr}^
 578:	61506574 	cmpvs	r0, r4, ror r5
 57c:	74656b63 	strbtvc	r6, [r5], #-2915	; 0xfffff49d
 580:	61657200 	cmnvs	r5, r0, lsl #4
 584:	61705f64 	cmnvs	r0, r4, ror #30
 588:	74656b63 	strbtvc	r6, [r5], #-2915	; 0xfffff49d
 58c:	42535500 	subsmi	r5, r3, #0, 10
 590:	496e6950 	stmdbmi	lr!, {r4, r6, r8, fp, sp, lr}^
 594:	6974696e 	ldmdbvs	r4!, {r1, r2, r3, r5, r6, r8, fp, sp, lr}^
 598:	7a696c61 	bvc	1a5b724 <_etext+0x1a597d5>
 59c:	72770065 	rsbsvc	r0, r7, #101	; 0x65
 5a0:	54657469 	strbtpl	r7, [r5], #-1129	; 0xfffffb97
 5a4:	46494678 			; <UNDEFINED> instruction: 0x46494678
 5a8:	5355004f 	cmppl	r5, #79	; 0x4f
 5ac:	74654742 	strbtvc	r4, [r5], #-1858	; 0xfffff8be
 5b0:	70646e45 	rsbvc	r6, r4, r5, asr #28
 5b4:	746e696f 	strbtvc	r6, [lr], #-2415	; 0xfffff691
 5b8:	74617453 	strbtvc	r7, [r1], #-1107	; 0xfffffbad
 5bc:	55007375 	strpl	r7, [r0, #-885]	; 0xfffffc8b
 5c0:	6e494253 	mcrvs	2, 2, r4, cr9, cr3, {2}
 5c4:	72726574 	rsbsvc	r6, r2, #116, 10	; 0x1d000000
 5c8:	49747075 	ldmdbmi	r4!, {r0, r2, r4, r5, r6, ip, sp, lr}^
 5cc:	6974696e 	ldmdbvs	r4!, {r1, r2, r3, r5, r6, r8, fp, sp, lr}^
 5d0:	7a696c61 	bvc	1a5b75c <_etext+0x1a5980d>
 5d4:	73750065 	cmnvc	r5, #101	; 0x65
 5d8:	76655f62 	strbtvc	r5, [r5], -r2, ror #30
 5dc:	73746e65 	cmnvc	r4, #1616	; 0x650
 5e0:	5f6e6f00 	svcpl	0x006e6f00
 5e4:	70646e65 	rsbvc	r6, r4, r5, ror #28
 5e8:	746e696f 	strbtvc	r6, [lr], #-2415	; 0xfffff691
 5ec:	6e61685f 	mcrvs	8, 3, r6, cr1, cr15, {2}
 5f0:	00656c64 	rsbeq	r6, r5, r4, ror #24
 5f4:	47425355 	smlsldmi	r5, r2, r5, r3
 5f8:	63527465 	cmpvs	r2, #1694498816	; 0x65000000
 5fc:	74794276 	ldrbtvc	r4, [r9], #-630	; 0xfffffd8a
 600:	55007365 	strpl	r7, [r0, #-869]	; 0xfffffc9b
 604:	455f4253 	ldrbmi	r4, [pc, #-595]	; 3b9 <FaultISR+0xd>
 608:	4f50444e 	svcmi	0x0050444e
 60c:	5f544e49 	svcpl	0x00544e49
 610:	45505954 	ldrbmi	r5, [r0, #-2388]	; 0xfffff6ac
 614:	4e4f435f 	mcrmi	3, 2, r4, cr15, cr15, {2}
 618:	4c4f5254 	sfmmi	f5, 2, [pc], {84}	; 0x54
 61c:	42535500 	subsmi	r5, r3, #0, 10
 620:	69766544 	ldmdbvs	r6!, {r2, r6, r8, sl, sp, lr}^
 624:	6e496563 	cdpvs	5, 4, cr6, cr9, cr3, {3}
 628:	55007469 	strpl	r7, [r0, #-1129]	; 0xfffffb97
 62c:	65444253 	strbvs	r4, [r4, #-595]	; 0xfffffdad
 630:	65636976 	strbvs	r6, [r3, #-2422]!	; 0xfffff68a
 634:	49746547 	ldmdbmi	r4!, {r0, r1, r2, r6, r8, sl, sp, lr}^
 638:	7453746e 	ldrbvc	r7, [r3], #-1134	; 0xfffffb92
 63c:	73757461 	cmnvc	r5, #1627389952	; 0x61000000
 640:	646e6500 	strbtvs	r6, [lr], #-1280	; 0xfffffb00
 644:	6e696f70 	mcrvs	15, 3, r6, cr9, cr0, {3}
 648:	666e4974 			; <UNDEFINED> instruction: 0x666e4974
 64c:	5355006f 	cmppl	r5, #111	; 0x6f
 650:	746e4942 	strbtvc	r4, [lr], #-2370	; 0xfffff6be
 654:	65736552 	ldrbvs	r6, [r3, #-1362]!	; 0xfffffaae
 658:	6e614874 	mcrvs	8, 3, r4, cr1, cr4, {3}
 65c:	72656c64 	rsbvc	r6, r5, #100, 24	; 0x6400
 660:	42535500 	subsmi	r5, r3, #0, 10
 664:	44746553 	ldrbtmi	r6, [r4], #-1363	; 0xfffffaad
 668:	63697665 	cmnvs	r9, #105906176	; 0x6500000
 66c:	72644165 	rsbvc	r4, r4, #1073741849	; 0x40000019
 670:	00737365 	rsbseq	r7, r3, r5, ror #6
 674:	74696e69 	strbtvc	r6, [r9], #-3689	; 0xfffff197
 678:	696c6169 	stmdbvs	ip!, {r0, r3, r5, r6, r8, sp, lr}^
 67c:	635f657a 	cmpvs	pc, #511705088	; 0x1e800000
 680:	0065726f 	rsbeq	r7, r5, pc, ror #4
 684:	6f447369 	svcvs	0x00447369
 688:	656c6275 	strbvs	r6, [ip, #-629]!	; 0xfffffd8b
 68c:	66667542 	strbtvs	r7, [r6], -r2, asr #10
 690:	6e697265 	cdpvs	2, 6, cr7, cr9, cr5, {3}
 694:	6f630067 	svcvs	0x00630067
 698:	6769666e 	strbvs	r6, [r9, -lr, ror #12]!
 69c:	5f657275 	svcpl	0x00657275
 6a0:	655f6e69 	ldrbvs	r6, [pc, #-3689]	; fffff83f <_ebss+0xdffff71f>
 6a4:	6f70646e 	svcvs	0x0070646e
 6a8:	00746e69 	rsbseq	r6, r4, r9, ror #28
 6ac:	666e6f43 	strbtvs	r6, [lr], -r3, asr #30
 6b0:	72756769 	rsbsvc	r6, r5, #27525120	; 0x1a40000
 6b4:	52785465 	rsbspl	r5, r8, #1694498816	; 0x65000000
 6b8:	46494678 			; <UNDEFINED> instruction: 0x46494678
 6bc:	7a69534f 	bvc	1a55400 <_etext+0x1a534b1>
 6c0:	6f630065 	svcvs	0x00630065
 6c4:	6769666e 	strbvs	r6, [r9, -lr, ror #12]!
 6c8:	5f657275 	svcpl	0x00657275
 6cc:	5f74756f 	svcpl	0x0074756f
 6d0:	70646e65 	rsbvc	r6, r4, r5, ror #28
 6d4:	746e696f 	strbtvc	r6, [lr], #-2415	; 0xfffff691
 6d8:	6e6f4300 	cdpvs	3, 6, cr4, cr15, cr0, {0}
 6dc:	75676966 	strbvc	r6, [r7, #-2406]!	; 0xfffff69a
 6e0:	6e456572 	mcrvs	5, 2, r6, cr5, cr2, {3}
 6e4:	696f7064 	stmdbvs	pc!, {r2, r5, r6, ip, sp, lr}^	; <UNPREDICTABLE>
 6e8:	0030746e 	eorseq	r7, r0, lr, ror #8
 6ec:	2e2f2e2e 	cdpcs	14, 2, cr2, cr15, cr14, {1}
 6f0:	72732f2e 	rsbsvc	r2, r3, #46, 30	; 0xb8
 6f4:	72642f63 	rsbvc	r2, r4, #396	; 0x18c
 6f8:	72657669 	rsbvc	r7, r5, #110100480	; 0x6900000
 6fc:	6273752f 	rsbsvs	r7, r3, #197132288	; 0xbc00000
 700:	6273752f 	rsbsvs	r7, r3, #197132288	; 0xbc00000
 704:	72645f64 	rsbvc	r5, r4, #100, 30	; 0x190
 708:	72657669 	rsbvc	r7, r5, #110100480	; 0x6900000
 70c:	4400632e 	strmi	r6, [r0], #-814	; 0xfffffcd2
 710:	6e6f6365 	cdpvs	3, 6, cr6, cr15, cr5, {3}
 714:	75676966 	strbvc	r6, [r7, #-2406]!	; 0xfffff69a
 718:	6e456572 	mcrvs	5, 2, r6, cr5, cr2, {3}
 71c:	696f7064 	stmdbvs	pc!, {r2, r5, r6, ip, sp, lr}^	; <UNPREDICTABLE>
 720:	6f00746e 	svcvs	0x0000746e
 724:	6e695f6e 	cdpvs	15, 6, cr5, cr9, cr14, {3}
 728:	6172745f 	cmnvs	r2, pc, asr r4
 72c:	6566736e 	strbvs	r7, [r6, #-878]!	; 0xfffffc92
 730:	6f635f72 	svcvs	0x00635f72
 734:	656c706d 	strbvs	r7, [ip, #-109]!	; 0xffffff93
 738:	00646574 	rsbeq	r6, r4, r4, ror r5
 73c:	64616572 	strbtvs	r6, [r1], #-1394	; 0xfffffa8e
 740:	6b636150 	blvs	18d8c88 <_etext+0x18d6d39>
 744:	62007465 	andvs	r7, r0, #1694498816	; 0x65000000
 748:	00746e63 	rsbseq	r6, r4, r3, ror #28
 74c:	65636361 	strbvs	r6, [r3, #-865]!	; 0xfffffc9f
 750:	69537373 	ldmdbvs	r3, {r0, r1, r4, r5, r6, r8, r9, ip, sp, lr}^
 754:	6500657a 	strvs	r6, [r0, #-1402]	; 0xfffffa86
 758:	6f70646e 	svcvs	0x0070646e
 75c:	5f746e69 	svcpl	0x00746e69
 760:	5f6c7463 	svcpl	0x006c7463
 764:	74617473 	strbtvc	r7, [r1], #-1139	; 0xfffffb8d
 768:	73007375 	movwvc	r7, #885	; 0x375
 76c:	645f7465 	ldrbvs	r7, [pc], #-1125	; 774 <UARTvprintf+0x27c>
 770:	63697665 	cmnvs	r9, #105906176	; 0x6500000
 774:	64615f65 	strbtvs	r5, [r1], #-3941	; 0xfffff09b
 778:	73657264 	cmnvc	r5, #100, 4	; 0x40000006
 77c:	6c660073 	stclvs	0, cr0, [r6], #-460	; 0xfffffe34
 780:	5f687375 	svcpl	0x00687375
 784:	69667874 	stmdbvs	r6!, {r2, r4, r5, r6, fp, ip, sp, lr}^
 788:	43006f66 	movwmi	r6, #3942	; 0xf66
 78c:	69666e6f 	stmdbvs	r6!, {r0, r1, r2, r3, r5, r6, r9, sl, fp, sp, lr}^
 790:	65727567 	ldrbvs	r7, [r2, #-1383]!	; 0xfffffa99
 794:	4554554f 	ldrbmi	r5, [r4, #-1359]	; 0xfffffab1
 798:	6f70646e 	svcvs	0x0070646e
 79c:	00746e69 	rsbseq	r6, r4, r9, ror #28
 7a0:	44425355 	strbmi	r5, [r2], #-853	; 0xfffffcab
 7a4:	48746e49 	ldmdami	r4!, {r0, r3, r6, r9, sl, fp, sp, lr}^
 7a8:	6c646e61 	stclvs	14, cr6, [r4], #-388	; 0xfffffe7c
 7ac:	6f007265 	svcvs	0x00007265
 7b0:	756f5f6e 	strbvc	r5, [pc, #-3950]!	; fffff84a <_ebss+0xdffff72a>
 7b4:	72745f74 	rsbsvc	r5, r4, #116, 30	; 0x1d0
 7b8:	66736e61 	ldrbtvs	r6, [r3], -r1, ror #28
 7bc:	635f7265 	cmpvs	pc, #1342177286	; 0x50000006
 7c0:	6c706d6f 	ldclvs	13, cr6, [r0], #-444	; 0xfffffe44
 7c4:	64657465 	strbtvs	r7, [r5], #-1125	; 0xfffffb9b
 7c8:	42535500 	subsmi	r5, r3, #0, 10
 7cc:	70646e45 	rsbvc	r6, r4, r5, asr #28
 7d0:	746e696f 	strbtvc	r6, [lr], #-2415	; 0xfffff691
 7d4:	65707954 	ldrbvs	r7, [r0, #-2388]!	; 0xfffff6ac
 7d8:	42535500 	subsmi	r5, r3, #0, 10
 7dc:	65726f43 	ldrbvs	r6, [r2, #-3907]!	; 0xfffff0bd
 7e0:	74696e49 	strbtvc	r6, [r9], #-3657	; 0xfffff1b7
 7e4:	696c6169 	stmdbvs	ip!, {r0, r3, r5, r6, r8, sp, lr}^
 7e8:	5500657a 	strpl	r6, [r0, #-1402]	; 0xfffffa86
 7ec:	455f4253 	ldrbmi	r4, [pc, #-595]	; 5a1 <UARTvprintf+0xa9>
 7f0:	4f50444e 	svcmi	0x0050444e
 7f4:	5f544e49 	svcpl	0x00544e49
 7f8:	45505954 	ldrbmi	r5, [r0, #-2388]	; 0xfffff6ac
 7fc:	4c55425f 	lfmmi	f4, 2, [r5], {95}	; 0x5f
 800:	6567004b 	strbvs	r0, [r7, #-75]!	; 0xffffffb5
 804:	63725f74 	cmnvs	r2, #116, 30	; 0x1d0
 808:	61705f76 	cmnvs	r0, r6, ror pc
 80c:	74656b63 	strbtvc	r6, [r5], #-2915	; 0xfffff49d
 810:	7a69735f 	bvc	1a5d594 <_etext+0x1a5b645>
 814:	53550065 	cmppl	r5, #101	; 0x65
 818:	4e455f42 	cdpmi	15, 4, cr5, cr5, cr2, {2}
 81c:	494f5044 	stmdbmi	pc, {r2, r6, ip, lr}^	; <UNPREDICTABLE>
 820:	545f544e 	ldrbpl	r5, [pc], #-1102	; 828 <UARTvprintf+0x330>
 824:	5f455059 	svcpl	0x00455059
 828:	434f5349 	movtmi	r5, #62281	; 0xf349
 82c:	4e4f5248 	cdpmi	2, 4, cr5, cr15, cr8, {2}
 830:	0053554f 	subseq	r5, r3, pc, asr #10
 834:	73756c46 	cmnvc	r5, #17920	; 0x4600
 838:	46785268 	ldrbtmi	r5, [r8], -r8, ror #4
 83c:	006f6669 	rsbeq	r6, pc, r9, ror #12
 840:	754e5045 	strbvc	r5, [lr, #-69]	; 0xffffffbb
 844:	6f63006d 	svcvs	0x0063006d
 848:	6f72746e 	svcvs	0x0072746e
 84c:	72745f6c 	rsbsvc	r5, r4, #108, 30	; 0x1b0
 850:	66736e61 	ldrbtvs	r6, [r3], -r1, ror #28
 854:	685f7265 	ldmdavs	pc, {r0, r2, r5, r6, r9, ip, sp, lr}^	; <UNPREDICTABLE>
 858:	6c646e61 	stclvs	14, cr6, [r4], #-388	; 0xfffffe7c
 85c:	53550065 	cmppl	r5, #101	; 0x65
 860:	73754242 	cmnvc	r5, #536870916	; 0x20000004
 864:	63736944 	cmnvs	r3, #68, 18	; 0x110000
 868:	656e6e6f 	strbvs	r6, [lr, #-3695]!	; 0xfffff191
 86c:	75007463 	strvc	r7, [r0, #-1123]	; 0xfffffb9d
 870:	53323369 	teqpl	r2, #-1543503871	; 0xa4000001
 874:	75746174 	ldrbvc	r6, [r4, #-372]!	; 0xfffffe8c
 878:	65670073 	strbvs	r0, [r7, #-115]!	; 0xffffff8d
 87c:	6e695f74 	mcrvs	15, 3, r5, cr9, cr4, {3}
 880:	74735f74 	ldrbtvc	r5, [r3], #-3956	; 0xfffff08c
 884:	73757461 	cmnvc	r5, #1627389952	; 0x61000000
 888:	5f6e6f00 	svcpl	0x006e6f00
 88c:	5f627375 	svcpl	0x00627375
 890:	6c6c6f70 	stclvs	15, cr6, [ip], #-448	; 0xfffffe40
 894:	45006465 	strmi	r6, [r0, #-1125]	; 0xfffffb9b
 898:	78614d50 	stmdavc	r1!, {r4, r6, r8, sl, fp, lr}^
 89c:	78527854 	ldmdavc	r2, {r2, r4, r6, fp, ip, sp, lr}^
 8a0:	4f464946 	svcmi	0x00464946
 8a4:	536d6152 	cmnpl	sp, #-2147483628	; 0x80000014
 8a8:	00657a69 	rsbeq	r7, r5, r9, ror #20
 8ac:	78547369 	ldmdavc	r4, {r0, r3, r5, r6, r8, r9, ip, sp, lr}^
 8b0:	70646e45 	rsbvc	r6, r4, r5, asr #28
 8b4:	746e696f 	strbtvc	r6, [lr], #-2415	; 0xfffff691
 8b8:	49706500 	ldmdbmi	r0!, {r8, sl, sp, lr}^
 8bc:	006f666e 	rsbeq	r6, pc, lr, ror #12
 8c0:	73756c46 	cmnvc	r5, #17920	; 0x4600
 8c4:	46785468 	ldrbtmi	r5, [r8], -r8, ror #8
 8c8:	006f6669 	rsbeq	r6, pc, r9, ror #12
 8cc:	45425355 	strbmi	r5, [r2, #-853]	; 0xfffffcab
 8d0:	746e6576 	strbtvc	r6, [lr], #-1398	; 0xfffffa8a
 8d4:	6f430073 	svcvs	0x00430073
 8d8:	6769666e 	strbvs	r6, [r9, -lr, ror #12]!
 8dc:	49657275 	stmdbmi	r5!, {r0, r2, r4, r5, r6, r9, ip, sp, lr}^
 8e0:	646e454e 	strbtvs	r4, [lr], #-1358	; 0xfffffab2
 8e4:	6e696f70 	mcrvs	15, 3, r6, cr9, cr0, {3}
 8e8:	6e6f0074 	mcrvs	0, 3, r0, cr15, cr4, {3}
 8ec:	74756f5f 	ldrbtvc	r6, [r5], #-3935	; 0xfffff0a1
 8f0:	7461645f 	strbtvc	r6, [r1], #-1119	; 0xfffffba1
 8f4:	65725f61 	ldrbvs	r5, [r2, #-3937]!	; 0xfffff09f
 8f8:	76696563 	strbtvc	r6, [r9], -r3, ror #10
 8fc:	75006465 	strvc	r6, [r0, #-1125]	; 0xfffffb9b
 900:	645f6273 	ldrbvs	r6, [pc], #-627	; 908 <UARTprintf+0x8>
 904:	65766972 	ldrbvs	r6, [r6, #-2418]!	; 0xfffff68e
 908:	49460072 	stmdbmi	r6, {r1, r4, r5, r6}^
 90c:	61524f46 	cmpvs	r2, r6, asr #30
 910:	6464416d 	strbtvs	r4, [r4], #-365	; 0xfffffe93
 914:	6e690072 	mcrvs	0, 3, r0, cr9, cr2, {3}
 918:	61697469 	cmnvs	r9, r9, ror #8
 91c:	657a696c 	ldrbvs	r6, [sl, #-2412]!	; 0xfffff694
 920:	6970675f 	ldmdbvs	r0!, {r0, r1, r2, r3, r4, r6, r8, r9, sl, sp, lr}^
 924:	69705f6f 	ldmdbvs	r0!, {r0, r1, r2, r3, r5, r6, r8, r9, sl, fp, ip, lr}^
 928:	7500736e 	strvc	r7, [r0, #-878]	; 0xfffffc92
 92c:	65443869 	strbvs	r3, [r4, #-2153]	; 0xfffff797
 930:	0079616c 	rsbseq	r6, r9, ip, ror #2
 934:	74697277 	strbtvc	r7, [r9], #-631	; 0xfffffd89
 938:	61705f65 	cmnvs	r0, r5, ror #30
 93c:	74656b63 	strbtvc	r6, [r5], #-2915	; 0xfffff49d
 940:	33697500 	cmncc	r9, #0, 10
 944:	746e4932 	strbtvc	r4, [lr], #-2354	; 0xfffff6ce
 948:	74617453 	strbtvc	r7, [r1], #-1107	; 0xfffffbad
 94c:	5f007375 	svcpl	0x00007375
 950:	5f425355 	svcpl	0x00425355
 954:	70646e45 	rsbvc	r6, r4, r5, asr #28
 958:	746e696f 	strbtvc	r6, [lr], #-2415	; 0xfffff691
 95c:	7079545f 	rsbsvc	r5, r9, pc, asr r4
 960:	55005f65 	strpl	r5, [r0, #-3941]	; 0xfffff09b
 964:	455f4253 	ldrbmi	r4, [pc, #-595]	; 719 <UARTvprintf+0x221>
 968:	4f50444e 	svcmi	0x0050444e
 96c:	5f544e49 	svcpl	0x00544e49
 970:	45505954 	ldrbmi	r5, [r0, #-2388]	; 0xfffff6ac
 974:	544e495f 	strbpl	r4, [lr], #-2399	; 0xfffff6a1
 978:	55525245 	ldrbpl	r5, [r2, #-581]	; 0xfffffdbb
 97c:	55005450 	strpl	r5, [r0, #-1104]	; 0xfffffbb0
 980:	75424253 	strbvc	r4, [r2, #-595]	; 0xfffffdad
 984:	6e6f4373 	mcrvs	3, 3, r4, cr15, cr3, {3}
 988:	7463656e 	strbtvc	r6, [r3], #-1390	; 0xfffffa92
 98c:	6c6f7000 	stclvs	0, cr7, [pc], #-0	; 994 <GPIOPadConfigSet+0x48>
 990:	676e696c 	strbvs	r6, [lr, -ip, ror #18]!
 994:	73696400 	cmnvc	r9, #0, 8
 998:	6e6e6f63 	cdpvs	15, 6, cr6, cr14, cr3, {3}
 99c:	00746365 	rsbseq	r6, r4, r5, ror #6
 9a0:	64616572 	strbtvs	r6, [r1], #-1394	; 0xfffffa8e
 9a4:	49467852 	stmdbmi	r6, {r1, r4, r6, fp, ip, sp, lr}^
 9a8:	6d004f46 	stcvs	15, cr4, [r0, #-280]	; 0xfffffee8
 9ac:	61507861 	cmpvs	r0, r1, ror #16
 9b0:	74656b63 	strbtvc	r6, [r5], #-2915	; 0xfffff49d
 9b4:	657a6953 	ldrbvs	r6, [sl, #-2387]!	; 0xfffff6ad
 9b8:	54706500 	ldrbtpl	r6, [r0], #-1280	; 0xfffffb00
 9bc:	00657079 	rsbeq	r7, r5, r9, ror r0
 9c0:	44425355 	strbmi	r5, [r2], #-853	; 0xfffffcab
 9c4:	65766972 	ldrbvs	r6, [r6, #-2418]!	; 0xfffff68e
 9c8:	49770072 	ldmdbmi	r7!, {r1, r4, r5, r6}^
 9cc:	7865646e 	stmdavc	r5!, {r1, r2, r3, r5, r6, sl, sp, lr}^
 9d0:	42535500 	subsmi	r5, r3, #0, 10
 9d4:	616e4544 	cmnvs	lr, r4, asr #10
 9d8:	00656c62 	rsbeq	r6, r5, r2, ror #24
 9dc:	5f627375 	svcpl	0x00627375
 9e0:	69766564 	ldmdbvs	r6!, {r2, r5, r6, r8, sl, sp, lr}^
 9e4:	69006563 	stmdbvs	r0, {r0, r1, r5, r6, r8, sl, sp, lr}
 9e8:	72745f6e 	rsbsvc	r5, r4, #440	; 0x1b8
 9ec:	66736e61 	ldrbtvs	r6, [r3], -r1, ror #28
 9f0:	635f7265 	cmpvs	pc, #1342177286	; 0x50000006
 9f4:	6c706d6f 	ldclvs	13, cr6, [r0], #-444	; 0xfffffe44
 9f8:	64657465 	strbtvs	r7, [r5], #-1125	; 0xfffffb9b
 9fc:	6e61685f 	mcrvs	8, 3, r6, cr1, cr15, {2}
 a00:	72656c64 	rsbvc	r6, r5, #100, 24	; 0x6400
 a04:	42535500 	subsmi	r5, r3, #0, 10
 a08:	63736544 	cmnvs	r3, #68, 10	; 0x11000000
 a0c:	74706972 	ldrbtvc	r6, [r0], #-2418	; 0xfffff68e
 a10:	6400726f 	strvs	r7, [r0], #-623	; 0xfffffd91
 a14:	63697665 	cmnvs	r9, #105906176	; 0x6500000
 a18:	65645f65 	strbvs	r5, [r4, #-3941]!	; 0xfffff09b
 a1c:	69726373 	ldmdbvs	r2!, {r0, r1, r4, r5, r6, r8, r9, sp, lr}^
 a20:	726f7470 	rsbvc	r7, pc, #112, 8	; 0x70000000
 a24:	64636200 	strbtvs	r6, [r3], #-512	; 0xfffffe00
 a28:	69766544 	ldmdbvs	r6!, {r2, r6, r8, sl, sp, lr}^
 a2c:	77006563 	strvc	r6, [r0, -r3, ror #10]
 a30:	756c6156 	strbvc	r6, [ip, #-342]!	; 0xfffffeaa
 a34:	4d690065 	stclmi	0, cr0, [r9, #-404]!	; 0xfffffe6c
 a38:	66756e61 	ldrbtvs	r6, [r5], -r1, ror #28
 a3c:	75746361 	ldrbvc	r6, [r4, #-865]!	; 0xfffffc9f
 a40:	00726572 	rsbseq	r6, r2, r2, ror r5
 a44:	6f725069 	svcvs	0x00725069
 a48:	74637564 	strbtvc	r7, [r3], #-1380	; 0xfffffa9c
 a4c:	50646900 	rsbpl	r6, r4, r0, lsl #18
 a50:	75646f72 	strbvc	r6, [r4, #-3954]!	; 0xfffff08e
 a54:	62007463 	andvs	r7, r0, #1660944384	; 0x63000000
 a58:	7165526d 	cmnvc	r5, sp, ror #4
 a5c:	74736575 	ldrbtvc	r6, [r3], #-1397	; 0xfffffa8b
 a60:	65707954 	ldrbvs	r7, [r0, #-2388]!	; 0xfffff6ac
 a64:	64636200 	strbtvs	r6, [r3], #-512	; 0xfffffe00
 a68:	00425355 	subeq	r5, r2, r5, asr r3
 a6c:	70646e65 	rsbvc	r6, r4, r5, ror #28
 a70:	746e696f 	strbtvc	r6, [lr], #-2415	; 0xfffff691
 a74:	74617453 	strbtvc	r7, [r1], #-1107	; 0xfffffbad
 a78:	62007375 	andvs	r7, r0, #-738197503	; 0xd4000001
 a7c:	69766544 	ldmdbvs	r6!, {r2, r6, r8, sl, sp, lr}^
 a80:	75536563 	ldrbvc	r6, [r3, #-1379]	; 0xfffffa9d
 a84:	616c4362 	cmnvs	ip, r2, ror #6
 a88:	75007373 	strvc	r7, [r0, #-883]	; 0xfffffc8d
 a8c:	6e493233 	mcrvs	2, 2, r3, cr9, cr3, {1}
 a90:	61745374 	cmnvs	r4, r4, ror r3
 a94:	00737574 	rsbseq	r7, r3, r4, ror r5
 a98:	72655369 	rsbvc	r5, r5, #-1543503871	; 0xa4000001
 a9c:	4e6c6169 	powmiez	f6, f4, #1.0
 aa0:	65626d75 	strbvs	r6, [r2, #-3445]!	; 0xfffff28b
 aa4:	5f5f0072 	svcpl	0x005f0072
 aa8:	434e5546 	movtmi	r5, #58694	; 0xe546
 aac:	4e4f4954 			; <UNDEFINED> instruction: 0x4e4f4954
 ab0:	2e005f5f 	mcrcs	15, 0, r5, cr0, cr15, {2}
 ab4:	2e2e2f2e 	cdpcs	15, 2, cr2, cr14, cr14, {1}
 ab8:	6372732f 	cmnvs	r2, #-1140850688	; 0xbc000000
 abc:	6972642f 	ldmdbvs	r2!, {r0, r1, r2, r3, r5, sl, sp, lr}^
 ac0:	2f726576 	svccs	0x00726576
 ac4:	2f627375 	svccs	0x00627375
 ac8:	64627375 	strbtvs	r7, [r2], #-885	; 0xfffffc8b
 acc:	6172665f 	cmnvs	r2, pc, asr r6
 ad0:	6f77656d 	svcvs	0x0077656d
 ad4:	632e6b72 			; <UNDEFINED> instruction: 0x632e6b72
 ad8:	65446200 	strbvs	r6, [r4, #-512]	; 0xfffffe00
 adc:	69726373 	ldmdbvs	r2!, {r0, r1, r4, r5, r6, r8, r9, sp, lr}^
 ae0:	726f7470 	rsbvc	r7, pc, #112, 8	; 0x70000000
 ae4:	65707954 	ldrbvs	r7, [r0, #-2388]!	; 0xfffff6ac
 ae8:	6f727000 	svcvs	0x00727000
 aec:	73736563 	cmnvc	r3, #415236096	; 0x18c00000
 af0:	7165725f 	cmnvc	r5, pc, asr r2
 af4:	74736575 	ldrbtvc	r6, [r3], #-1397	; 0xfffffa8b
 af8:	42535500 	subsmi	r5, r3, #0, 10
 afc:	75716552 	ldrbvc	r6, [r1, #-1362]!	; 0xfffffaae
 b00:	00747365 	rsbseq	r7, r4, r5, ror #6
 b04:	75626564 	strbvc	r6, [r2, #-1380]!	; 0xfffffa9c
 b08:	66754267 	ldrbtvs	r4, [r5], -r7, ror #4
 b0c:	00726566 	rsbseq	r6, r2, r6, ror #10
 b10:	44425355 	strbmi	r5, [r2], #-853	; 0xfffffcab
 b14:	74696e49 	strbtvc	r6, [r9], #-3657	; 0xfffff1b7
 b18:	62737500 	rsbsvs	r7, r3, #0, 10
 b1c:	61685f64 	cmnvs	r8, r4, ror #30
 b20:	656c646e 	strbvs	r6, [ip, #-1134]!	; 0xfffffb92
 b24:	73656400 	cmnvc	r5, #0, 8
 b28:	70697263 	rsbvc	r7, r9, r3, ror #4
 b2c:	5f726f74 	svcpl	0x00726f74
 b30:	65707974 	ldrbvs	r7, [r0, #-2420]!	; 0xfffff68c
 b34:	614d6200 	mrsvs	r6, (UNDEF: 109)
 b38:	63615078 	cmnvs	r1, #120	; 0x78
 b3c:	5374656b 	cmnpl	r4, #448790528	; 0x1ac00000
 b40:	30657a69 	rsbcc	r7, r5, r9, ror #20
 b44:	6f727000 	svcvs	0x00727000
 b48:	73736563 	cmnvc	r3, #415236096	; 0x18c00000
 b4c:	6e6f635f 	mcrvs	3, 3, r6, cr15, cr15, {2}
 b50:	6c6f7274 	sfmvs	f7, 2, [pc], #-464	; 988 <GPIOPadConfigSet+0x3c>
 b54:	6172745f 	cmnvs	r2, pc, asr r4
 b58:	6566736e 	strbvs	r7, [r6, #-878]!	; 0xfffffc92
 b5c:	74735f72 	ldrbtvc	r5, [r3], #-3954	; 0xfffff08e
 b60:	00656761 	rsbeq	r6, r5, r1, ror #14
 b64:	75746573 	ldrbvc	r6, [r4, #-1395]!	; 0xfffffa8d
 b68:	61645f70 	smcvs	17904	; 0x45f0
 b6c:	725f6174 	subsvc	r6, pc, #116, 2
 b70:	69656365 	stmdbvs	r5!, {r0, r2, r5, r6, r8, r9, sp, lr}^
 b74:	5f646576 	svcpl	0x00646576
 b78:	646e6168 	strbtvs	r6, [lr], #-360	; 0xfffffe98
 b7c:	0072656c 	rsbseq	r6, r2, ip, ror #10
 b80:	76654462 	strbtvc	r4, [r5], -r2, ror #8
 b84:	50656369 	rsbpl	r6, r5, r9, ror #6
 b88:	6f746f72 	svcvs	0x00746f72
 b8c:	006c6f63 	rsbeq	r6, ip, r3, ror #30
 b90:	71655262 	cmnvc	r5, r2, ror #4
 b94:	74736575 	ldrbtvc	r6, [r3], #-1397	; 0xfffffa8b
 b98:	6f727000 	svcvs	0x00727000
 b9c:	73736563 	cmnvc	r3, #415236096	; 0x18c00000
 ba0:	6174735f 	cmnvs	r4, pc, asr r3
 ba4:	7261646e 	rsbvc	r6, r1, #1845493760	; 0x6e000000
 ba8:	65645f64 	strbvs	r5, [r4, #-3940]!	; 0xfffff09c
 bac:	65636976 	strbvs	r6, [r3, #-2422]!	; 0xfffff68a
 bb0:	7165725f 	cmnvc	r5, pc, asr r2
 bb4:	74736575 	ldrbtvc	r6, [r3], #-1397	; 0xfffffa8b
 bb8:	754e6200 	strbvc	r6, [lr, #-512]	; 0xfffffe00
 bbc:	6e6f436d 	cdpvs	3, 6, cr4, cr15, cr13, {3}
 bc0:	75676966 	strbvc	r6, [r7, #-2406]!	; 0xfffff69a
 bc4:	69746172 	ldmdbvs	r4!, {r1, r4, r5, r6, r8, sp, lr}^
 bc8:	00736e6f 	rsbseq	r6, r3, pc, ror #28
 bcc:	76654462 	strbtvc	r4, [r5], -r2, ror #8
 bd0:	43656369 	cmnmi	r5, #-1543503871	; 0xa4000001
 bd4:	7373616c 	cmnvc	r3, #108, 2
 bd8:	646e6500 	strbtvs	r6, [lr], #-1280	; 0xfffffb00
 bdc:	6e696f70 	mcrvs	15, 3, r6, cr9, cr0, {3}
 be0:	756e5f74 	strbvc	r5, [lr, #-3956]!	; 0xfffff08c
 be4:	7265626d 	rsbvc	r6, r5, #-805306362	; 0xd0000006
 be8:	62737500 	rsbsvs	r7, r3, #0, 10
 bec:	7365725f 	cmnvc	r5, #-268435451	; 0xf0000005
 bf0:	725f7465 	subsvc	r7, pc, #1694498816	; 0x65000000
 bf4:	69656365 	stmdbvs	r5!, {r0, r2, r5, r6, r8, r9, sp, lr}^
 bf8:	5f646576 	svcpl	0x00646576
 bfc:	646e6168 	strbtvs	r6, [lr], #-360	; 0xfffffe98
 c00:	0072656c 	rsbseq	r6, r2, ip, ror #10
 c04:	6e654c62 	cdpvs	12, 6, cr4, cr5, cr2, {3}
 c08:	00687467 	rsbeq	r7, r8, r7, ror #8
 c0c:	44425355 	strbmi	r5, [r2], #-853	; 0xfffffcab
 c10:	62617369 	rsbvs	r7, r1, #-1543503871	; 0xa4000001
 c14:	5500656c 	strpl	r6, [r0, #-1388]	; 0xfffffa94
 c18:	6e494253 	mcrvs	2, 2, r4, cr9, cr3, {2}
 c1c:	72726574 	rsbsvc	r6, r2, #116, 10	; 0x1d000000
 c20:	53747075 	cmnpl	r4, #117	; 0x75
 c24:	75746174 	ldrbvc	r6, [r4, #-372]!	; 0xfffffe8c
 c28:	6e650073 	mcrvs	0, 3, r0, cr5, cr3, {3}
 c2c:	696f5064 	stmdbvs	pc!, {r2, r5, r6, ip, lr}^	; <UNPREDICTABLE>
 c30:	7954746e 	ldmdbvc	r4, {r1, r2, r3, r5, r6, sl, ip, sp, lr}^
 c34:	64006570 	strvs	r6, [r0], #-1392	; 0xfffffa90
 c38:	72637365 	rsbvc	r7, r3, #-1811939327	; 0x94000001
 c3c:	6f747069 	svcvs	0x00747069
 c40:	656c5f72 	strbvs	r5, [ip, #-3954]!	; 0xfffff08e
 c44:	6874676e 	ldmdavs	r4!, {r1, r2, r3, r5, r6, r8, r9, sl, sp, lr}^
 c48:	654c7700 	strbvs	r7, [ip, #-1792]	; 0xfffff900
 c4c:	6874676e 	ldmdavs	r4!, {r1, r2, r3, r5, r6, r8, r9, sl, sp, lr}^
 c50:	74796200 	ldrbtvc	r6, [r9], #-512	; 0xfffffe00
 c54:	6f635f65 	svcvs	0x00635f65
 c58:	00746e75 	rsbseq	r6, r4, r5, ror lr
 c5c:	67697274 			; <UNDEFINED> instruction: 0x67697274
 c60:	00726567 	rsbseq	r6, r2, r7, ror #10
 c64:	44425355 	strbmi	r5, [r2], #-853	; 0xfffffcab
 c68:	70646e45 	rsbvc	r6, r4, r5, asr #28
 c6c:	746e696f 	strbtvc	r6, [lr], #-2415	; 0xfffff691
 c70:	646e6148 	strbtvs	r6, [lr], #-328	; 0xfffffeb8
 c74:	0072656c 	rsbseq	r6, r2, ip, ror #10
 c78:	65566469 	ldrbvs	r6, [r6, #-1129]	; 0xfffffb97
 c7c:	726f646e 	rsbvc	r6, pc, #1845493760	; 0x6e000000
 c80:	74736300 	ldrbtvc	r6, [r3], #-768	; 0xfffffd00
 c84:	676e6972 			; <UNDEFINED> instruction: 0x676e6972
 c88:	676f6c00 	strbvs	r6, [pc, -r0, lsl #24]!
 c8c:	6265645f 	rsbvs	r6, r5, #1593835520	; 0x5f000000
 c90:	6c006775 	stcvs	7, cr6, [r0], {117}	; 0x75
 c94:	645f676f 	ldrbvs	r6, [pc], #-1903	; c9c <SysCtlClockGet+0x50>
 c98:	67756265 	ldrbvs	r6, [r5, -r5, ror #4]!
 c9c:	7272615f 	rsbsvc	r6, r2, #-1073741801	; 0xc0000017
 ca0:	61007961 	tstvs	r0, r1, ror #18
 ca4:	00736772 	rsbseq	r6, r3, r2, ror r7
 ca8:	5f474f4c 	svcpl	0x00474f4c
 cac:	4556454c 	ldrbmi	r4, [r6, #-1356]	; 0xfffffab4
 cb0:	4e495f4c 	cdpmi	15, 4, cr5, cr9, cr12, {2}
 cb4:	4d524f46 	ldclmi	15, cr4, [r2, #-280]	; 0xfffffee8
 cb8:	4f495441 	svcmi	0x00495441
 cbc:	6f4c004e 	svcvs	0x004c004e
 cc0:	76654c67 	strbtvc	r4, [r5], -r7, ror #24
 cc4:	5f006c65 	svcpl	0x00006c65
 cc8:	5f746567 	svcpl	0x00746567
 ccc:	5f676f6c 	svcpl	0x00676f6c
 cd0:	6576656c 	ldrbvs	r6, [r6, #-1388]!	; 0xfffffa94
 cd4:	74735f6c 	ldrbtvc	r5, [r3], #-3948	; 0xfffff094
 cd8:	676e6972 			; <UNDEFINED> instruction: 0x676e6972
 cdc:	726f6600 	rsbvc	r6, pc, #0, 12
 ce0:	0074616d 	rsbseq	r6, r4, sp, ror #2
 ce4:	5f676f6c 	svcpl	0x00676f6c
 ce8:	6f727265 	svcvs	0x00727265
 cec:	2e2e0072 	mcrcs	0, 1, r0, cr14, cr2, {3}
 cf0:	2f2e2e2f 	svccs	0x002e2e2f
 cf4:	2f637273 	svccs	0x00637273
 cf8:	76697264 	strbtvc	r7, [r9], -r4, ror #4
 cfc:	752f7265 	strvc	r7, [pc, #-613]!	; a9f <GPIOPinTypeComparatorOutput+0xb>
 d00:	6c2f6273 	sfmvs	f6, 4, [pc], #-460	; b3c <SysCtlPeripheralEnable+0x14>
 d04:	645f676f 	ldrbvs	r6, [pc], #-1903	; d0c <SysCtlClockGet+0xc0>
 d08:	67756265 	ldrbvs	r6, [r5, -r5, ror #4]!
 d0c:	6c00632e 	stcvs	3, cr6, [r0], {46}	; 0x2e
 d10:	695f676f 	ldmdbvs	pc, {r0, r1, r2, r3, r5, r6, r8, r9, sl, sp, lr}^	; <UNPREDICTABLE>
 d14:	006f666e 	rsbeq	r6, pc, lr, ror #12
 d18:	5f474f4c 	svcpl	0x00474f4c
 d1c:	4556454c 	ldrbmi	r4, [r6, #-1356]	; 0xfffffab4
 d20:	52455f4c 	subpl	r5, r5, #76, 30	; 0x130
 d24:	00524f52 	subseq	r4, r2, r2, asr pc
 d28:	5f474f4c 	svcpl	0x00474f4c
 d2c:	4556454c 	ldrbmi	r4, [r6, #-1356]	; 0xfffffab4
 d30:	45445f4c 	strbmi	r5, [r4, #-3916]	; 0xfffff0b4
 d34:	00475542 	subeq	r5, r7, r2, asr #10
 d38:	5f676f6c 	svcpl	0x00676f6c
 d3c:	6576656c 	ldrbvs	r6, [r6, #-1388]!	; 0xfffffa94
 d40:	6573006c 	ldrbvs	r0, [r3, #-108]!	; 0xffffff94
 d44:	62654474 	rsbvs	r4, r5, #116, 8	; 0x74000000
 d48:	654c6775 	strbvs	r6, [ip, #-1909]	; 0xfffff88b
 d4c:	006c6576 	rsbeq	r6, ip, r6, ror r5
 d50:	314e5a5f 	cmpcc	lr, pc, asr sl
 d54:	62654434 	rsbvs	r4, r5, #52, 8	; 0x34000000
 d58:	6e496775 	mcrvs	7, 2, r6, cr9, cr5, {3}
 d5c:	66726574 			; <UNDEFINED> instruction: 0x66726574
 d60:	33656361 	cmncc	r5, #-2080374783	; 0x84000001
 d64:	45676f6c 	strbmi	r6, [r7, #-3948]!	; 0xfffff094
 d68:	65443031 	strbvs	r3, [r4, #-49]	; 0xffffffcf
 d6c:	4c677562 	cfstr64mi	mvdx7, [r7], #-392	; 0xfffffe78
 d70:	6c657665 	stclvs	6, cr7, [r5], #-404	; 0xfffffe6c
 d74:	7a634b50 	bvc	18d3abc <_etext+0x18d1b6d>
 d78:	4e5a5f00 	cdpmi	15, 5, cr5, cr10, cr0, {0}
 d7c:	65443431 	strbvs	r3, [r4, #-1073]	; 0xfffffbcf
 d80:	49677562 	stmdbmi	r7!, {r1, r5, r6, r8, sl, ip, sp, lr}^
 d84:	7265746e 	rsbvc	r7, r5, #1845493760	; 0x6e000000
 d88:	65636166 	strbvs	r6, [r3, #-358]!	; 0xfffffe9a
 d8c:	76453443 	strbvc	r3, [r5], -r3, asr #8
 d90:	42454400 	submi	r4, r5, #0, 8
 d94:	575f4755 			; <UNDEFINED> instruction: 0x575f4755
 d98:	70004e52 	andvc	r4, r0, r2, asr lr
 d9c:	6c694663 	stclvs	6, cr4, [r9], #-396	; 0xfffffe74
 da0:	6d616e65 	stclvs	14, cr6, [r1, #-404]!	; 0xfffffe6c
 da4:	45440065 	strbmi	r0, [r4, #-101]	; 0xffffff9b
 da8:	5f475542 	svcpl	0x00475542
 dac:	00525245 	subseq	r5, r2, r5, asr #4
 db0:	75626544 	strbvc	r6, [r2, #-1348]!	; 0xfffffabc
 db4:	746e4967 	strbtvc	r4, [lr], #-2407	; 0xfffff699
 db8:	61667265 	cmnvs	r6, r5, ror #4
 dbc:	5f006563 	svcpl	0x00006563
 dc0:	424f4c47 	submi	r4, pc, #18176	; 0x4700
 dc4:	5f5f4c41 	svcpl	0x005f4c41
 dc8:	5f627573 	svcpl	0x00627573
 dcc:	5f5f5f49 	svcpl	0x005f5f49
 dd0:	6f727265 	svcvs	0x00727265
 dd4:	005f5f72 	subseq	r5, pc, r2, ror pc	; <UNPREDICTABLE>
 dd8:	314e5a5f 	cmpcc	lr, pc, asr sl
 ddc:	62654434 	rsbvs	r4, r5, #52, 8	; 0x34000000
 de0:	6e496775 	mcrvs	7, 2, r6, cr9, cr5, {3}
 de4:	66726574 			; <UNDEFINED> instruction: 0x66726574
 de8:	43656361 	cmnmi	r5, #-2080374783	; 0x84000001
 dec:	00764532 	rsbseq	r4, r6, r2, lsr r5
 df0:	55424544 	strbpl	r4, [r2, #-1348]	; 0xfffffabc
 df4:	564c5f47 	strbpl	r5, [ip], -r7, asr #30
 df8:	45440030 	strbmi	r0, [r4, #-48]	; 0xffffffd0
 dfc:	5f475542 	svcpl	0x00475542
 e00:	0031564c 	eorseq	r5, r1, ip, asr #12
 e04:	55424544 	strbpl	r4, [r2, #-1348]	; 0xfffffabc
 e08:	564c5f47 	strbpl	r5, [ip], -r7, asr #30
 e0c:	5f5f0032 	svcpl	0x005f0032
 e10:	74696e69 	strbtvc	r6, [r9], #-3689	; 0xfffff197
 e14:	696c6169 	stmdbvs	ip!, {r0, r3, r5, r6, r8, sp, lr}^
 e18:	705f657a 	subsvc	r6, pc, sl, ror r5	; <UNPREDICTABLE>
 e1c:	62656400 	rsbvs	r6, r5, #0, 8
 e20:	654c6775 	strbvs	r6, [ip, #-1909]	; 0xfffff88b
 e24:	006c6576 	rsbeq	r6, ip, r6, ror r5
 e28:	55424544 	strbpl	r4, [r2, #-1348]	; 0xfffffabc
 e2c:	4f4c5f47 	svcmi	0x004c5f47
 e30:	5a5f0047 	bpl	17c0f54 <_etext+0x17bf005>
 e34:	4434314e 	ldrtmi	r3, [r4], #-334	; 0xfffffeb2
 e38:	67756265 	ldrbvs	r6, [r5, -r5, ror #4]!
 e3c:	65746e49 	ldrbvs	r6, [r4, #-3657]!	; 0xfffff1b7
 e40:	63616672 	cmnvs	r1, #119537664	; 0x7200000
 e44:	73333165 	teqvc	r3, #1073741849	; 0x40000019
 e48:	65447465 	strbvs	r7, [r4, #-1125]	; 0xfffffb9b
 e4c:	4c677562 	cfstr64mi	mvdx7, [r7], #-392	; 0xfffffe78
 e50:	6c657665 	stclvs	6, cr7, [r5], #-404	; 0xfffffe6c
 e54:	44303145 	ldrtmi	r3, [r0], #-325	; 0xfffffebb
 e58:	67756265 	ldrbvs	r6, [r5, -r5, ror #4]!
 e5c:	6576654c 	ldrbvs	r6, [r6, #-1356]!	; 0xfffffab4
 e60:	7953006c 	ldmdbvc	r3, {r2, r3, r5, r6}^
 e64:	6d657473 	cfstrdvs	mvd7, [r5, #-460]!	; 0xfffffe34
 e68:	75626544 	strbvc	r6, [r2, #-1348]!	; 0xfffffabc
 e6c:	5f5f0067 	svcpl	0x005f0067
 e70:	74617473 	strbtvc	r7, [r1], #-1139	; 0xfffffb8d
 e74:	695f6369 	ldmdbvs	pc, {r0, r3, r5, r6, r8, r9, sp, lr}^	; <UNPREDICTABLE>
 e78:	6974696e 	ldmdbvs	r4!, {r1, r2, r3, r5, r6, r8, fp, sp, lr}^
 e7c:	7a696c61 	bvc	1a5c008 <_etext+0x1a5a0b9>
 e80:	6f697461 	svcvs	0x00697461
 e84:	6e615f6e 	cdpvs	15, 6, cr5, cr1, cr14, {3}
 e88:	65645f64 	strbvs	r5, [r4, #-3940]!	; 0xfffff09c
 e8c:	75727473 	ldrbvc	r7, [r2, #-1139]!	; 0xfffffb8d
 e90:	6f697463 	svcvs	0x00697463
 e94:	00305f6e 	eorseq	r5, r0, lr, ror #30
 e98:	72705f5f 	rsbsvc	r5, r0, #380	; 0x17c
 e9c:	69726f69 	ldmdbvs	r2!, {r0, r3, r5, r6, r8, r9, sl, fp, sp, lr}^
 ea0:	75007974 	strvc	r7, [r0, #-2420]	; 0xfffff68c
 ea4:	4c323369 	ldcmi	3, cr3, [r2], #-420	; 0xfffffe5c
 ea8:	00656e69 	rsbeq	r6, r5, r9, ror #28
 eac:	20554e47 	subscs	r4, r5, r7, asr #28
 eb0:	312b2b43 			; <UNDEFINED> instruction: 0x312b2b43
 eb4:	30312031 	eorscc	r2, r1, r1, lsr r0
 eb8:	312e322e 			; <UNDEFINED> instruction: 0x312e322e
 ebc:	32303220 	eorscc	r3, r0, #32, 4
 ec0:	30313130 	eorscc	r3, r1, r0, lsr r1
 ec4:	72282033 	eorvc	r2, r8, #51	; 0x33
 ec8:	61656c65 	cmnvs	r5, r5, ror #24
 ecc:	20296573 	eorcs	r6, r9, r3, ror r5
 ed0:	68746d2d 	ldmdavs	r4!, {r0, r2, r3, r5, r8, sl, fp, sp, lr}^
 ed4:	20626d75 	rsbcs	r6, r2, r5, ror sp
 ed8:	70636d2d 	rsbvc	r6, r3, sp, lsr #26
 edc:	6f633d75 	svcvs	0x00633d75
 ee0:	78657472 	stmdavc	r5!, {r1, r4, r5, r6, sl, ip, sp, lr}^
 ee4:	20346d2d 	eorscs	r6, r4, sp, lsr #26
 ee8:	70666d2d 	rsbvc	r6, r6, sp, lsr #26
 eec:	70663d75 	rsbvc	r3, r6, r5, ror sp
 ef0:	732d3476 			; <UNDEFINED> instruction: 0x732d3476
 ef4:	31642d70 	smccc	17104	; 0x42d0
 ef8:	6d2d2036 	stcvs	0, cr2, [sp, #-216]!	; 0xffffff28
 efc:	616f6c66 	cmnvs	pc, r6, ror #24
 f00:	62612d74 	rsbvs	r2, r1, #116, 26	; 0x1d00
 f04:	61683d69 	cmnvs	r8, r9, ror #26
 f08:	2d206472 	cfstrscs	mvf6, [r0, #-456]!	; 0xfffffe38
 f0c:	6372616d 	cmnvs	r2, #1073741851	; 0x4000001b
 f10:	72613d68 	rsbvc	r3, r1, #104, 26	; 0x1a00
 f14:	6537766d 	ldrvs	r7, [r7, #-1645]!	; 0xfffff993
 f18:	662b6d2d 	strtvs	r6, [fp], -sp, lsr #26
 f1c:	672d2070 			; <UNDEFINED> instruction: 0x672d2070
 f20:	304f2d20 	subcc	r2, pc, r0, lsr #26
 f24:	74732d20 	ldrbtvc	r2, [r3], #-3360	; 0xfffff2e0
 f28:	2b633d64 	blcs	18d04c0 <_etext+0x18ce571>
 f2c:	2031312b 	eorscs	r3, r1, fp, lsr #2
 f30:	7566662d 	strbvc	r6, [r6, #-1581]!	; 0xfffff9d3
 f34:	6974636e 	ldmdbvs	r4!, {r1, r2, r3, r5, r6, r8, r9, sp, lr}^
 f38:	732d6e6f 			; <UNDEFINED> instruction: 0x732d6e6f
 f3c:	69746365 	ldmdbvs	r4!, {r0, r2, r5, r6, r8, r9, sp, lr}^
 f40:	20736e6f 	rsbscs	r6, r3, pc, ror #28
 f44:	6164662d 	cmnvs	r4, sp, lsr #12
 f48:	732d6174 			; <UNDEFINED> instruction: 0x732d6174
 f4c:	69746365 	ldmdbvs	r4!, {r0, r2, r5, r6, r8, r9, sp, lr}^
 f50:	20736e6f 	rsbscs	r6, r3, pc, ror #28
 f54:	6f6e662d 	svcvs	0x006e662d
 f58:	6378652d 	cmnvs	r8, #188743680	; 0xb400000
 f5c:	69747065 	ldmdbvs	r4!, {r0, r2, r5, r6, ip, sp, lr}^
 f60:	00736e6f 	rsbseq	r6, r3, pc, ror #28
 f64:	73696874 	cmnvc	r9, #116, 16	; 0x740000
 f68:	2f2e2e00 	svccs	0x002e2e00
 f6c:	732f2e2e 			; <UNDEFINED> instruction: 0x732f2e2e
 f70:	642f6372 	strtvs	r6, [pc], #-882	; f78 <USBInterruptInitialize+0x20>
 f74:	65766972 	ldrbvs	r6, [r6, #-2418]!	; 0xfffff68e
 f78:	65642f72 	strbvs	r2, [r4, #-3954]!	; 0xfffff08e
 f7c:	2e677562 	cdpcs	5, 6, cr7, cr7, cr2, {3}
 f80:	00707063 	rsbseq	r7, r0, r3, rrx
 f84:	55424544 	strbpl	r4, [r2, #-1348]	; 0xfffffabc
 f88:	414d5f47 	cmpmi	sp, r7, asr #30
 f8c:	504f5f58 	subpl	r5, pc, r8, asr pc	; <UNPREDICTABLE>
 f90:	Address 0x00000f90 is out of bounds.


Disassembly of section .comment:

00000000 <.comment>:
   0:	3a434347 	bcc	10d0d24 <_etext+0x10cedd5>
   4:	4e472820 	cdpmi	8, 4, cr2, cr7, cr0, {1}
   8:	72412055 	subvc	r2, r1, #85	; 0x55
   c:	6d45206d 	stclvs	0, cr2, [r5, #-436]	; 0xfffffe4c
  10:	64646562 	strbtvs	r6, [r4], #-1378	; 0xfffffa9e
  14:	54206465 	strtpl	r6, [r0], #-1125	; 0xfffffb9b
  18:	636c6f6f 	cmnvs	ip, #444	; 0x1bc
  1c:	6e696168 	powvsez	f6, f1, #0.0
  20:	2d303120 	ldfcss	f3, [r0, #-128]!	; 0xffffff80
  24:	30323032 	eorscc	r3, r2, r2, lsr r0
  28:	2d34712d 	ldfcss	f7, [r4, #-180]!	; 0xffffff4c
  2c:	6f6a616d 	svcvs	0x006a616d
  30:	31202972 			; <UNDEFINED> instruction: 0x31202972
  34:	2e322e30 	mrccs	14, 1, r2, cr2, cr0, {1}
  38:	30322031 	eorscc	r2, r2, r1, lsr r0
  3c:	31313032 	teqcc	r1, r2, lsr r0
  40:	28203330 	stmdacs	r0!, {r4, r5, r8, r9, ip, sp}
  44:	656c6572 	strbvs	r6, [ip, #-1394]!	; 0xfffffa8e
  48:	29657361 	stmdbcs	r5!, {r0, r5, r6, r8, r9, ip, sp, lr}^
	...

Disassembly of section .ARM.attributes:

00000000 <.ARM.attributes>:
   0:	00003141 	andeq	r3, r0, r1, asr #2
   4:	61656100 	cmnvs	r5, r0, lsl #2
   8:	01006962 	tsteq	r0, r2, ror #18
   c:	00000027 	andeq	r0, r0, r7, lsr #32
  10:	2d453705 	stclcs	7, cr3, [r5, #-20]	; 0xffffffec
  14:	0d06004d 	stceq	0, cr0, [r6, #-308]	; 0xfffffecc
  18:	02094d07 	andeq	r4, r9, #448	; 0x1c0
  1c:	0412060a 	ldreq	r0, [r2], #-1546	; 0xfffff9f6
  20:	01150114 	tsteq	r5, r4, lsl r1
  24:	01180317 	tsteq	r8, r7, lsl r3
  28:	011b011a 	tsteq	fp, sl, lsl r1
  2c:	061e011c 			; <UNDEFINED> instruction: 0x061e011c
  30:	Address 0x00000030 is out of bounds.


Disassembly of section .debug_frame:

00000000 <.debug_frame>:
   0:	0000000c 	andeq	r0, r0, ip
   4:	ffffffff 			; <UNDEFINED> instruction: 0xffffffff
   8:	7c020001 	stcvc	0, cr0, [r2], {1}
   c:	000d0c0e 	andeq	r0, sp, lr, lsl #24
  10:	0000001c 	andeq	r0, r0, ip, lsl r0
  14:	00000000 	andeq	r0, r0, r0
  18:	0000026c 	andeq	r0, r0, ip, ror #4
  1c:	0000000e 	andeq	r0, r0, lr
  20:	87040e41 	strhi	r0, [r4, -r1, asr #28]
  24:	070d4101 	streq	r4, [sp, -r1, lsl #2]
  28:	420d0d42 	andmi	r0, sp, #4224	; 0x1080
  2c:	00000ec7 	andeq	r0, r0, r7, asr #29
  30:	0000001c 	andeq	r0, r0, ip, lsl r0
	...
  3c:	0000001c 	andeq	r0, r0, ip, lsl r0
  40:	87040e41 	strhi	r0, [r4, -r1, asr #28]
  44:	070d4101 	streq	r4, [sp, -r1, lsl #2]
  48:	420d0d47 	andmi	r0, sp, #4544	; 0x11c0
  4c:	00000ec7 	andeq	r0, r0, r7, asr #29
  50:	00000018 	andeq	r0, r0, r8, lsl r0
  54:	00000000 	andeq	r0, r0, r0
  58:	0000027c 	andeq	r0, r0, ip, ror r2
  5c:	00000050 	andeq	r0, r0, r0, asr r0
  60:	87080e41 	strhi	r0, [r8, -r1, asr #28]
  64:	41018e02 	tstmi	r1, r2, lsl #28
  68:	0000070d 	andeq	r0, r0, sp, lsl #14
  6c:	00000018 	andeq	r0, r0, r8, lsl r0
	...
  78:	00000014 	andeq	r0, r0, r4, lsl r0
  7c:	87080e41 	strhi	r0, [r8, -r1, asr #28]
  80:	41018e02 	tstmi	r1, r2, lsl #28
  84:	0000070d 	andeq	r0, r0, sp, lsl #14
  88:	0000001c 	andeq	r0, r0, ip, lsl r0
  8c:	00000000 	andeq	r0, r0, r0
  90:	000002cc 	andeq	r0, r0, ip, asr #5
  94:	0000006c 	andeq	r0, r0, ip, rrx
  98:	87080e41 	strhi	r0, [r8, -r1, asr #28]
  9c:	41018e02 	tstmi	r1, r2, lsl #28
  a0:	0d41100e 	stcleq	0, cr1, [r1, #-56]	; 0xffffffc8
  a4:	00000007 	andeq	r0, r0, r7
  a8:	0000000c 	andeq	r0, r0, ip
  ac:	ffffffff 			; <UNDEFINED> instruction: 0xffffffff
  b0:	7c020001 	stcvc	0, cr0, [r2], {1}
  b4:	000d0c0e 	andeq	r0, sp, lr, lsl #24
  b8:	00000020 	andeq	r0, r0, r0, lsr #32
  bc:	000000a8 	andeq	r0, r0, r8, lsr #1
  c0:	00000338 	andeq	r0, r0, r8, lsr r3
  c4:	00000064 	andeq	r0, r0, r4, rrx
  c8:	87080e41 	strhi	r0, [r8, -r1, asr #28]
  cc:	41018e02 	tstmi	r1, r2, lsl #28
  d0:	0d41100e 	stcleq	0, cr1, [r1, #-56]	; 0xffffffc8
  d4:	080e6407 	stmdaeq	lr, {r0, r1, r2, sl, sp, lr}
  d8:	000d0d41 	andeq	r0, sp, r1, asr #26
  dc:	00000014 	andeq	r0, r0, r4, lsl r0
  e0:	000000a8 	andeq	r0, r0, r8, lsr #1
  e4:	000003a4 	andeq	r0, r0, r4, lsr #7
  e8:	00000006 	andeq	r0, r0, r6
  ec:	87040e41 	strhi	r0, [r4, -r1, asr #28]
  f0:	070d4101 	streq	r4, [sp, -r1, lsl #2]
  f4:	00000018 	andeq	r0, r0, r8, lsl r0
  f8:	000000a8 	andeq	r0, r0, r8, lsr #1
  fc:	000003ac 	andeq	r0, r0, ip, lsr #7
 100:	00000024 	andeq	r0, r0, r4, lsr #32
 104:	87080e41 	strhi	r0, [r8, -r1, asr #28]
 108:	41018e02 	tstmi	r1, r2, lsl #28
 10c:	0000070d 	andeq	r0, r0, sp, lsl #14
 110:	00000014 	andeq	r0, r0, r4, lsl r0
 114:	000000a8 	andeq	r0, r0, r8, lsr #1
 118:	000003d0 	ldrdeq	r0, [r0], -r0	; <UNPREDICTABLE>
 11c:	00000006 	andeq	r0, r0, r6
 120:	87040e41 	strhi	r0, [r4, -r1, asr #28]
 124:	070d4101 	streq	r4, [sp, -r1, lsl #2]
 128:	0000000c 	andeq	r0, r0, ip
 12c:	ffffffff 			; <UNDEFINED> instruction: 0xffffffff
 130:	7c020001 	stcvc	0, cr0, [r2], {1}
 134:	000d0c0e 	andeq	r0, sp, lr, lsl #24
 138:	00000020 	andeq	r0, r0, r0, lsr #32
 13c:	00000128 	andeq	r0, r0, r8, lsr #2
 140:	000003d8 	ldrdeq	r0, [r0], -r8
 144:	00000090 	muleq	r0, r0, r0
 148:	87080e41 	strhi	r0, [r8, -r1, asr #28]
 14c:	41018e02 	tstmi	r1, r2, lsl #28
 150:	0d41180e 	stcleq	8, cr1, [r1, #-56]	; 0xffffffc8
 154:	080e7a07 	stmdaeq	lr, {r0, r1, r2, r9, fp, ip, sp, lr}
 158:	000d0d41 	andeq	r0, sp, r1, asr #26
 15c:	00000020 	andeq	r0, r0, r0, lsr #32
 160:	00000128 	andeq	r0, r0, r8, lsr #2
 164:	00000468 	andeq	r0, r0, r8, ror #8
 168:	00000090 	muleq	r0, r0, r0
 16c:	87080e41 	strhi	r0, [r8, -r1, asr #28]
 170:	41018e02 	tstmi	r1, r2, lsl #28
 174:	0d41180e 	stcleq	8, cr1, [r1, #-56]	; 0xffffffc8
 178:	080e7e07 	stmdaeq	lr, {r0, r1, r2, r9, sl, fp, ip, sp, lr}
 17c:	000d0d41 	andeq	r0, sp, r1, asr #26
 180:	00000020 	andeq	r0, r0, r0, lsr #32
 184:	00000128 	andeq	r0, r0, r8, lsr #2
 188:	00000000 	andeq	r0, r0, r0
 18c:	00000114 	andeq	r0, r0, r4, lsl r1
 190:	87080e41 	strhi	r0, [r8, -r1, asr #28]
 194:	41018e02 	tstmi	r1, r2, lsl #28
 198:	0d41180e 	stcleq	8, cr1, [r1, #-56]	; 0xffffffc8
 19c:	0e7a0207 	cdpeq	2, 7, cr0, cr10, cr7, {0}
 1a0:	0d0d4108 	stfeqs	f4, [sp, #-32]	; 0xffffffe0
 1a4:	00000018 	andeq	r0, r0, r8, lsl r0
 1a8:	00000128 	andeq	r0, r0, r8, lsr #2
 1ac:	00000000 	andeq	r0, r0, r0
 1b0:	0000001c 	andeq	r0, r0, ip, lsl r0
 1b4:	87080e41 	strhi	r0, [r8, -r1, asr #28]
 1b8:	41018e02 	tstmi	r1, r2, lsl #28
 1bc:	0000070d 	andeq	r0, r0, sp, lsl #14
 1c0:	00000024 	andeq	r0, r0, r4, lsr #32
 1c4:	00000128 	andeq	r0, r0, r8, lsr #2
 1c8:	000004f8 	strdeq	r0, [r0], -r8
 1cc:	00000408 	andeq	r0, r0, r8, lsl #8
 1d0:	87080e41 	strhi	r0, [r8, -r1, asr #28]
 1d4:	41018e02 	tstmi	r1, r2, lsl #28
 1d8:	0d41400e 	stcleq	0, cr4, [r1, #-56]	; 0xffffffc8
 1dc:	01fb0307 	mvnseq	r0, r7, lsl #6
 1e0:	0d41080e 	stcleq	8, cr0, [r1, #-56]	; 0xffffffc8
 1e4:	0000000d 	andeq	r0, r0, sp
 1e8:	00000038 	andeq	r0, r0, r8, lsr r0
 1ec:	00000128 	andeq	r0, r0, r8, lsr #2
 1f0:	00000900 	andeq	r0, r0, r0, lsl #18
 1f4:	00000024 	andeq	r0, r0, r4, lsr #32
 1f8:	80100e41 	andshi	r0, r0, r1, asr #28
 1fc:	82038104 	andhi	r8, r3, #4, 2
 200:	41018302 	tstmi	r1, r2, lsl #6
 204:	0687180e 	streq	r1, [r7], lr, lsl #16
 208:	0e41058e 	cdpeq	5, 4, cr0, cr1, cr14, {4}
 20c:	070d4120 	streq	r4, [sp, -r0, lsr #2]
 210:	41180e49 	tstmi	r8, r9, asr #28
 214:	ce420d0d 	cdpgt	13, 4, cr0, cr2, cr13, {0}
 218:	41100ec7 	tstmi	r0, r7, asr #29
 21c:	c0c1c2c3 	sbcgt	ip, r1, r3, asr #5
 220:	0000000e 	andeq	r0, r0, lr
 224:	0000000c 	andeq	r0, r0, ip
 228:	ffffffff 			; <UNDEFINED> instruction: 0xffffffff
 22c:	7c020001 	stcvc	0, cr0, [r2], {1}
 230:	000d0c0e 	andeq	r0, sp, lr, lsl #24
 234:	00000024 	andeq	r0, r0, r4, lsr #32
 238:	00000224 	andeq	r0, r0, r4, lsr #4
 23c:	00000e4c 	andeq	r0, r0, ip, asr #28
 240:	000000ac 	andeq	r0, r0, ip, lsr #1
 244:	87040e41 	strhi	r0, [r4, -r1, asr #28]
 248:	100e4101 	andne	r4, lr, r1, lsl #2
 24c:	7e070d41 	cdpvc	13, 0, cr0, cr7, cr1, {2}
 250:	0d41040e 	cfstrdeq	mvd0, [r1, #-56]	; 0xffffffc8
 254:	0ec7420d 	cdpeq	2, 12, cr4, cr7, cr13, {0}
 258:	00000000 	andeq	r0, r0, r0
 25c:	0000001c 	andeq	r0, r0, ip, lsl r0
 260:	00000224 	andeq	r0, r0, r4, lsr #4
 264:	00000ef8 	strdeq	r0, [r0], -r8
 268:	00000020 	andeq	r0, r0, r0, lsr #32
 26c:	87040e41 	strhi	r0, [r4, -r1, asr #28]
 270:	070d4101 	streq	r4, [sp, -r1, lsl #2]
 274:	420d0d49 	andmi	r0, sp, #4672	; 0x1240
 278:	00000ec7 	andeq	r0, r0, r7, asr #29
 27c:	0000001c 	andeq	r0, r0, ip, lsl r0
 280:	00000224 	andeq	r0, r0, r4, lsr #4
 284:	00000f18 	andeq	r0, r0, r8, lsl pc
 288:	00000020 	andeq	r0, r0, r0, lsr #32
 28c:	87040e41 	strhi	r0, [r4, -r1, asr #28]
 290:	070d4101 	streq	r4, [sp, -r1, lsl #2]
 294:	420d0d49 	andmi	r0, sp, #4672	; 0x1240
 298:	00000ec7 	andeq	r0, r0, r7, asr #29
 29c:	00000024 	andeq	r0, r0, r4, lsr #32
 2a0:	00000224 	andeq	r0, r0, r4, lsr #4
 2a4:	00000f38 	andeq	r0, r0, r8, lsr pc
 2a8:	00000020 	andeq	r0, r0, r0, lsr #32
 2ac:	87040e41 	strhi	r0, [r4, -r1, asr #28]
 2b0:	100e4101 	andne	r4, lr, r1, lsl #2
 2b4:	47070d41 	strmi	r0, [r7, -r1, asr #26]
 2b8:	0d41040e 	cfstrdeq	mvd0, [r1, #-56]	; 0xffffffc8
 2bc:	0ec7420d 	cdpeq	2, 12, cr4, cr7, cr13, {0}
 2c0:	00000000 	andeq	r0, r0, r0
 2c4:	0000001c 	andeq	r0, r0, ip, lsl r0
 2c8:	00000224 	andeq	r0, r0, r4, lsr #4
 2cc:	00000f58 	andeq	r0, r0, r8, asr pc
 2d0:	00000054 	andeq	r0, r0, r4, asr r0
 2d4:	87040e41 	strhi	r0, [r4, -r1, asr #28]
 2d8:	070d4101 	streq	r4, [sp, -r1, lsl #2]
 2dc:	420d0d5d 	andmi	r0, sp, #5952	; 0x1740
 2e0:	00000ec7 	andeq	r0, r0, r7, asr #29
 2e4:	00000024 	andeq	r0, r0, r4, lsr #32
 2e8:	00000224 	andeq	r0, r0, r4, lsr #4
 2ec:	00000fac 	andeq	r0, r0, ip, lsr #31
 2f0:	00000090 	muleq	r0, r0, r0
 2f4:	87040e41 	strhi	r0, [r4, -r1, asr #28]
 2f8:	100e4101 	andne	r4, lr, r1, lsl #2
 2fc:	78070d41 	stmdavc	r7, {r0, r6, r8, sl, fp}
 300:	0d41040e 	cfstrdeq	mvd0, [r1, #-56]	; 0xffffffc8
 304:	0ec7420d 	cdpeq	2, 12, cr4, cr7, cr13, {0}
 308:	00000000 	andeq	r0, r0, r0
 30c:	00000024 	andeq	r0, r0, r4, lsr #32
 310:	00000224 	andeq	r0, r0, r4, lsr #4
 314:	0000103c 	andeq	r1, r0, ip, lsr r0
 318:	00000038 	andeq	r0, r0, r8, lsr r0
 31c:	87040e41 	strhi	r0, [r4, -r1, asr #28]
 320:	100e4101 	andne	r4, lr, r1, lsl #2
 324:	52070d41 	andpl	r0, r7, #4160	; 0x1040
 328:	0d41040e 	cfstrdeq	mvd0, [r1, #-56]	; 0xffffffc8
 32c:	0ec7420d 	cdpeq	2, 12, cr4, cr7, cr13, {0}
 330:	00000000 	andeq	r0, r0, r0
 334:	00000024 	andeq	r0, r0, r4, lsr #32
 338:	00000224 	andeq	r0, r0, r4, lsr #4
 33c:	00001074 	andeq	r1, r0, r4, ror r0
 340:	00000034 	andeq	r0, r0, r4, lsr r0
 344:	87040e41 	strhi	r0, [r4, -r1, asr #28]
 348:	100e4101 	andne	r4, lr, r1, lsl #2
 34c:	51070d41 	tstpl	r7, r1, asr #26
 350:	0d41040e 	cfstrdeq	mvd0, [r1, #-56]	; 0xffffffc8
 354:	0ec7420d 	cdpeq	2, 12, cr4, cr7, cr13, {0}
 358:	00000000 	andeq	r0, r0, r0
 35c:	0000001c 	andeq	r0, r0, ip, lsl r0
 360:	00000224 	andeq	r0, r0, r4, lsr #4
 364:	000010a8 	andeq	r1, r0, r8, lsr #1
 368:	00000020 	andeq	r0, r0, r0, lsr #32
 36c:	87040e41 	strhi	r0, [r4, -r1, asr #28]
 370:	070d4101 	streq	r4, [sp, -r1, lsl #2]
 374:	420d0d49 	andmi	r0, sp, #4672	; 0x1240
 378:	00000ec7 	andeq	r0, r0, r7, asr #29
 37c:	00000020 	andeq	r0, r0, r0, lsr #32
 380:	00000224 	andeq	r0, r0, r4, lsr #4
 384:	00000000 	andeq	r0, r0, r0
 388:	00000060 	andeq	r0, r0, r0, rrx
 38c:	87080e41 	strhi	r0, [r8, -r1, asr #28]
 390:	41018e02 	tstmi	r1, r2, lsl #28
 394:	0d41100e 	stcleq	0, cr1, [r1, #-56]	; 0xffffffc8
 398:	080e6707 	stmdaeq	lr, {r0, r1, r2, r8, r9, sl, sp, lr}
 39c:	000d0d41 	andeq	r0, sp, r1, asr #26
 3a0:	0000002c 	andeq	r0, r0, ip, lsr #32
 3a4:	00000224 	andeq	r0, r0, r4, lsr #4
 3a8:	000010c8 	andeq	r1, r0, r8, asr #1
 3ac:	00000060 	andeq	r0, r0, r0, rrx
 3b0:	41100e41 	tstmi	r0, r1, asr #28
 3b4:	0687180e 	streq	r1, [r7], lr, lsl #16
 3b8:	0e41058e 	cdpeq	5, 4, cr0, cr1, cr14, {4}
 3bc:	070c4128 	streq	r4, [ip, -r8, lsr #2]
 3c0:	180e6520 	stmdane	lr, {r5, r8, sl, sp, lr}
 3c4:	420d0d41 	andmi	r0, sp, #4160	; 0x1040
 3c8:	100ec7ce 	andne	ip, lr, lr, asr #15
 3cc:	00000e41 	andeq	r0, r0, r1, asr #28
 3d0:	0000002c 	andeq	r0, r0, ip, lsr #32
 3d4:	00000224 	andeq	r0, r0, r4, lsr #4
 3d8:	00001128 	andeq	r1, r0, r8, lsr #2
 3dc:	00000060 	andeq	r0, r0, r0, rrx
 3e0:	41100e41 	tstmi	r0, r1, asr #28
 3e4:	0687180e 	streq	r1, [r7], lr, lsl #16
 3e8:	0e41058e 	cdpeq	5, 4, cr0, cr1, cr14, {4}
 3ec:	070c4128 	streq	r4, [ip, -r8, lsr #2]
 3f0:	180e6520 	stmdane	lr, {r5, r8, sl, sp, lr}
 3f4:	420d0d41 	andmi	r0, sp, #4160	; 0x1040
 3f8:	100ec7ce 	andne	ip, lr, lr, asr #15
 3fc:	00000e41 	andeq	r0, r0, r1, asr #28
 400:	0000002c 	andeq	r0, r0, ip, lsr #32
 404:	00000224 	andeq	r0, r0, r4, lsr #4
 408:	00001188 	andeq	r1, r0, r8, lsl #3
 40c:	00000140 	andeq	r0, r0, r0, asr #2
 410:	41080e41 	tstmi	r8, r1, asr #28
 414:	0484100e 	streq	r1, [r4], #14
 418:	0e410387 	cdpeq	3, 4, cr0, cr1, cr7, {4}
 41c:	070d4130 	smladxeq	sp, r0, r1, r4
 420:	100e8902 	andne	r8, lr, r2, lsl #18
 424:	410d0d41 	tstmi	sp, r1, asr #26
 428:	080ec4c7 	stmdaeq	lr, {r0, r1, r2, r6, r7, sl, lr, pc}
 42c:	00000e41 	andeq	r0, r0, r1, asr #28
 430:	00000024 	andeq	r0, r0, r4, lsr #32
 434:	00000224 	andeq	r0, r0, r4, lsr #4
 438:	000012c8 	andeq	r1, r0, r8, asr #5
 43c:	00000074 	andeq	r0, r0, r4, ror r0
 440:	87040e41 	strhi	r0, [r4, -r1, asr #28]
 444:	180e4101 	stmdane	lr, {r0, r8, lr}
 448:	70070d41 	andvc	r0, r7, r1, asr #26
 44c:	0d41040e 	cfstrdeq	mvd0, [r1, #-56]	; 0xffffffc8
 450:	0ec7420d 	cdpeq	2, 12, cr4, cr7, cr13, {0}
 454:	00000000 	andeq	r0, r0, r0
 458:	00000024 	andeq	r0, r0, r4, lsr #32
 45c:	00000224 	andeq	r0, r0, r4, lsr #4
 460:	0000133c 	andeq	r1, r0, ip, lsr r3
 464:	0000006c 	andeq	r0, r0, ip, rrx
 468:	87040e41 	strhi	r0, [r4, -r1, asr #28]
 46c:	180e4101 	stmdane	lr, {r0, r8, lr}
 470:	6c070d41 	stcvs	13, cr0, [r7], {65}	; 0x41
 474:	0d41040e 	cfstrdeq	mvd0, [r1, #-56]	; 0xffffffc8
 478:	0ec7420d 	cdpeq	2, 12, cr4, cr7, cr13, {0}
 47c:	00000000 	andeq	r0, r0, r0
 480:	00000020 	andeq	r0, r0, r0, lsr #32
 484:	00000224 	andeq	r0, r0, r4, lsr #4
 488:	000013a8 	andeq	r1, r0, r8, lsr #7
 48c:	0000005c 	andeq	r0, r0, ip, asr r0
 490:	87080e41 	strhi	r0, [r8, -r1, asr #28]
 494:	41018e02 	tstmi	r1, r2, lsl #28
 498:	0d41180e 	stcleq	8, cr1, [r1, #-56]	; 0xffffffc8
 49c:	080e6907 	stmdaeq	lr, {r0, r1, r2, r8, fp, sp, lr}
 4a0:	000d0d41 	andeq	r0, sp, r1, asr #26
 4a4:	00000020 	andeq	r0, r0, r0, lsr #32
 4a8:	00000224 	andeq	r0, r0, r4, lsr #4
 4ac:	00001404 	andeq	r1, r0, r4, lsl #8
 4b0:	0000005c 	andeq	r0, r0, ip, asr r0
 4b4:	87080e41 	strhi	r0, [r8, -r1, asr #28]
 4b8:	41018e02 	tstmi	r1, r2, lsl #28
 4bc:	0d41180e 	stcleq	8, cr1, [r1, #-56]	; 0xffffffc8
 4c0:	080e6907 	stmdaeq	lr, {r0, r1, r2, r8, fp, sp, lr}
 4c4:	000d0d41 	andeq	r0, sp, r1, asr #26
 4c8:	00000020 	andeq	r0, r0, r0, lsr #32
 4cc:	00000224 	andeq	r0, r0, r4, lsr #4
 4d0:	00000000 	andeq	r0, r0, r0
 4d4:	0000002a 	andeq	r0, r0, sl, lsr #32
 4d8:	87080e41 	strhi	r0, [r8, -r1, asr #28]
 4dc:	41018e02 	tstmi	r1, r2, lsl #28
 4e0:	0d41100e 	stcleq	0, cr1, [r1, #-56]	; 0xffffffc8
 4e4:	080e5007 	stmdaeq	lr, {r0, r1, r2, ip, lr}
 4e8:	000d0d41 	andeq	r0, sp, r1, asr #26
 4ec:	00000024 	andeq	r0, r0, r4, lsr #32
 4f0:	00000224 	andeq	r0, r0, r4, lsr #4
 4f4:	00001460 	andeq	r1, r0, r0, ror #8
 4f8:	0000004c 	andeq	r0, r0, ip, asr #32
 4fc:	87040e41 	strhi	r0, [r4, -r1, asr #28]
 500:	100e4101 	andne	r4, lr, r1, lsl #2
 504:	58070d41 	stmdapl	r7, {r0, r6, r8, sl, fp}
 508:	0d41040e 	cfstrdeq	mvd0, [r1, #-56]	; 0xffffffc8
 50c:	0ec7420d 	cdpeq	2, 12, cr4, cr7, cr13, {0}
 510:	00000000 	andeq	r0, r0, r0
 514:	00000024 	andeq	r0, r0, r4, lsr #32
 518:	00000224 	andeq	r0, r0, r4, lsr #4
 51c:	000014ac 	andeq	r1, r0, ip, lsr #9
 520:	00000040 	andeq	r0, r0, r0, asr #32
 524:	87040e41 	strhi	r0, [r4, -r1, asr #28]
 528:	100e4101 	andne	r4, lr, r1, lsl #2
 52c:	55070d41 	strpl	r0, [r7, #-3393]	; 0xfffff2bf
 530:	0d41040e 	cfstrdeq	mvd0, [r1, #-56]	; 0xffffffc8
 534:	0ec7420d 	cdpeq	2, 12, cr4, cr7, cr13, {0}
 538:	00000000 	andeq	r0, r0, r0
 53c:	00000024 	andeq	r0, r0, r4, lsr #32
 540:	00000224 	andeq	r0, r0, r4, lsr #4
 544:	000014ec 	andeq	r1, r0, ip, ror #9
 548:	0000008c 	andeq	r0, r0, ip, lsl #1
 54c:	87040e41 	strhi	r0, [r4, -r1, asr #28]
 550:	100e4101 	andne	r4, lr, r1, lsl #2
 554:	72070d41 	andvc	r0, r7, #4160	; 0x1040
 558:	0d41040e 	cfstrdeq	mvd0, [r1, #-56]	; 0xffffffc8
 55c:	0ec7420d 	cdpeq	2, 12, cr4, cr7, cr13, {0}
 560:	00000000 	andeq	r0, r0, r0
 564:	00000018 	andeq	r0, r0, r8, lsl r0
 568:	00000224 	andeq	r0, r0, r4, lsr #4
 56c:	00001578 	andeq	r1, r0, r8, ror r5
 570:	00000014 	andeq	r0, r0, r4, lsl r0
 574:	87080e41 	strhi	r0, [r8, -r1, asr #28]
 578:	41018e02 	tstmi	r1, r2, lsl #28
 57c:	0000070d 	andeq	r0, r0, sp, lsl #14
 580:	00000020 	andeq	r0, r0, r0, lsr #32
 584:	00000224 	andeq	r0, r0, r4, lsr #4
 588:	0000158c 	andeq	r1, r0, ip, lsl #11
 58c:	0000008c 	andeq	r0, r0, ip, lsl #1
 590:	87080e41 	strhi	r0, [r8, -r1, asr #28]
 594:	41018e02 	tstmi	r1, r2, lsl #28
 598:	0d41100e 	stcleq	0, cr1, [r1, #-56]	; 0xffffffc8
 59c:	080e7f07 	stmdaeq	lr, {r0, r1, r2, r8, r9, sl, fp, ip, sp, lr}
 5a0:	000d0d41 	andeq	r0, sp, r1, asr #26
 5a4:	0000000c 	andeq	r0, r0, ip
 5a8:	ffffffff 			; <UNDEFINED> instruction: 0xffffffff
 5ac:	7c020001 	stcvc	0, cr0, [r2], {1}
 5b0:	000d0c0e 	andeq	r0, sp, lr, lsl #24
 5b4:	00000020 	andeq	r0, r0, r0, lsr #32
 5b8:	000005a4 	andeq	r0, r0, r4, lsr #11
 5bc:	00001618 	andeq	r1, r0, r8, lsl r6
 5c0:	00000030 	andeq	r0, r0, r0, lsr r0
 5c4:	87080e41 	strhi	r0, [r8, -r1, asr #28]
 5c8:	41018e02 	tstmi	r1, r2, lsl #28
 5cc:	0d41100e 	stcleq	0, cr1, [r1, #-56]	; 0xffffffc8
 5d0:	080e4f07 	stmdaeq	lr, {r0, r1, r2, r8, r9, sl, fp, lr}
 5d4:	000d0d41 	andeq	r0, sp, r1, asr #26
 5d8:	00000018 	andeq	r0, r0, r8, lsl r0
 5dc:	000005a4 	andeq	r0, r0, r4, lsr #11
 5e0:	00000000 	andeq	r0, r0, r0
 5e4:	00000014 	andeq	r0, r0, r4, lsl r0
 5e8:	87080e41 	strhi	r0, [r8, -r1, asr #28]
 5ec:	41018e02 	tstmi	r1, r2, lsl #28
 5f0:	0000070d 	andeq	r0, r0, sp, lsl #14
 5f4:	00000018 	andeq	r0, r0, r8, lsl r0
 5f8:	000005a4 	andeq	r0, r0, r4, lsr #11
 5fc:	00000000 	andeq	r0, r0, r0
 600:	00000014 	andeq	r0, r0, r4, lsl r0
 604:	87080e41 	strhi	r0, [r8, -r1, asr #28]
 608:	41018e02 	tstmi	r1, r2, lsl #28
 60c:	0000070d 	andeq	r0, r0, sp, lsl #14
 610:	00000018 	andeq	r0, r0, r8, lsl r0
 614:	000005a4 	andeq	r0, r0, r4, lsr #11
 618:	00001648 	andeq	r1, r0, r8, asr #12
 61c:	00000040 	andeq	r0, r0, r0, asr #32
 620:	87080e41 	strhi	r0, [r8, -r1, asr #28]
 624:	41018e02 	tstmi	r1, r2, lsl #28
 628:	0000070d 	andeq	r0, r0, sp, lsl #14
 62c:	00000020 	andeq	r0, r0, r0, lsr #32
 630:	000005a4 	andeq	r0, r0, r4, lsr #11
 634:	00001688 	andeq	r1, r0, r8, lsl #13
 638:	00000084 	andeq	r0, r0, r4, lsl #1
 63c:	87080e41 	strhi	r0, [r8, -r1, asr #28]
 640:	41018e02 	tstmi	r1, r2, lsl #28
 644:	0d41100e 	stcleq	0, cr1, [r1, #-56]	; 0xffffffc8
 648:	080e7107 	stmdaeq	lr, {r0, r1, r2, r8, ip, sp, lr}
 64c:	000d0d41 	andeq	r0, sp, r1, asr #26
 650:	00000020 	andeq	r0, r0, r0, lsr #32
 654:	000005a4 	andeq	r0, r0, r4, lsr #11
 658:	0000170c 	andeq	r1, r0, ip, lsl #14
 65c:	00000030 	andeq	r0, r0, r0, lsr r0
 660:	87080e41 	strhi	r0, [r8, -r1, asr #28]
 664:	41018e02 	tstmi	r1, r2, lsl #28
 668:	0d41100e 	stcleq	0, cr1, [r1, #-56]	; 0xffffffc8
 66c:	080e5007 	stmdaeq	lr, {r0, r1, r2, ip, lr}
 670:	000d0d41 	andeq	r0, sp, r1, asr #26
 674:	00000020 	andeq	r0, r0, r0, lsr #32
 678:	000005a4 	andeq	r0, r0, r4, lsr #11
 67c:	0000173c 	andeq	r1, r0, ip, lsr r7
 680:	000000e8 	andeq	r0, r0, r8, ror #1
 684:	87080e41 	strhi	r0, [r8, -r1, asr #28]
 688:	41018e02 	tstmi	r1, r2, lsl #28
 68c:	0d41100e 	stcleq	0, cr1, [r1, #-56]	; 0xffffffc8
 690:	0e630207 	cdpeq	2, 6, cr0, cr3, cr7, {0}
 694:	0d0d4108 	stfeqs	f4, [sp, #-32]	; 0xffffffe0
 698:	00000020 	andeq	r0, r0, r0, lsr #32
 69c:	000005a4 	andeq	r0, r0, r4, lsr #11
 6a0:	00001824 	andeq	r1, r0, r4, lsr #16
 6a4:	00000060 	andeq	r0, r0, r0, rrx
 6a8:	87080e41 	strhi	r0, [r8, -r1, asr #28]
 6ac:	41018e02 	tstmi	r1, r2, lsl #28
 6b0:	0d41100e 	stcleq	0, cr1, [r1, #-56]	; 0xffffffc8
 6b4:	080e6207 	stmdaeq	lr, {r0, r1, r2, r9, sp, lr}
 6b8:	000d0d41 	andeq	r0, sp, r1, asr #26
 6bc:	00000020 	andeq	r0, r0, r0, lsr #32
 6c0:	000005a4 	andeq	r0, r0, r4, lsr #11
 6c4:	00001884 	andeq	r1, r0, r4, lsl #17
 6c8:	00000058 	andeq	r0, r0, r8, asr r0
 6cc:	87080e41 	strhi	r0, [r8, -r1, asr #28]
 6d0:	41018e02 	tstmi	r1, r2, lsl #28
 6d4:	0d41100e 	stcleq	0, cr1, [r1, #-56]	; 0xffffffc8
 6d8:	080e6107 	stmdaeq	lr, {r0, r1, r2, r8, sp, lr}
 6dc:	000d0d41 	andeq	r0, sp, r1, asr #26
 6e0:	00000020 	andeq	r0, r0, r0, lsr #32
 6e4:	000005a4 	andeq	r0, r0, r4, lsr #11
 6e8:	000018dc 	ldrdeq	r1, [r0], -ip
 6ec:	000000b0 	strheq	r0, [r0], -r0	; <UNPREDICTABLE>
 6f0:	87080e41 	strhi	r0, [r8, -r1, asr #28]
 6f4:	41018e02 	tstmi	r1, r2, lsl #28
 6f8:	0d41200e 	stcleq	0, cr2, [r1, #-56]	; 0xffffffc8
 6fc:	0e470207 	cdpeq	2, 4, cr0, cr7, cr7, {0}
 700:	0d0d4108 	stfeqs	f4, [sp, #-32]	; 0xffffffe0
 704:	00000020 	andeq	r0, r0, r0, lsr #32
 708:	000005a4 	andeq	r0, r0, r4, lsr #11
 70c:	0000198c 	andeq	r1, r0, ip, lsl #19
 710:	0000002c 	andeq	r0, r0, ip, lsr #32
 714:	87080e41 	strhi	r0, [r8, -r1, asr #28]
 718:	41018e02 	tstmi	r1, r2, lsl #28
 71c:	0d41100e 	stcleq	0, cr1, [r1, #-56]	; 0xffffffc8
 720:	080e4e07 	stmdaeq	lr, {r0, r1, r2, r9, sl, fp, lr}
 724:	000d0d41 	andeq	r0, sp, r1, asr #26
 728:	0000000c 	andeq	r0, r0, ip
 72c:	ffffffff 			; <UNDEFINED> instruction: 0xffffffff
 730:	7c020001 	stcvc	0, cr0, [r2], {1}
 734:	000d0c0e 	andeq	r0, sp, lr, lsl #24
 738:	00000020 	andeq	r0, r0, r0, lsr #32
 73c:	00000728 	andeq	r0, r0, r8, lsr #14
 740:	000019b8 			; <UNDEFINED> instruction: 0x000019b8
 744:	00000054 	andeq	r0, r0, r4, asr r0
 748:	87080e41 	strhi	r0, [r8, -r1, asr #28]
 74c:	41018e02 	tstmi	r1, r2, lsl #28
 750:	0d41200e 	stcleq	0, cr2, [r1, #-56]	; 0xffffffc8
 754:	080e6007 	stmdaeq	lr, {r0, r1, r2, sp, lr}
 758:	000d0d41 	andeq	r0, sp, r1, asr #26
 75c:	00000024 	andeq	r0, r0, r4, lsr #32
 760:	00000728 	andeq	r0, r0, r8, lsr #14
 764:	00001a0c 	andeq	r1, r0, ip, lsl #20
 768:	00000044 	andeq	r0, r0, r4, asr #32
 76c:	87040e41 	strhi	r0, [r4, -r1, asr #28]
 770:	100e4101 	andne	r4, lr, r1, lsl #2
 774:	54070d41 	strpl	r0, [r7], #-3393	; 0xfffff2bf
 778:	0d41040e 	cfstrdeq	mvd0, [r1, #-56]	; 0xffffffc8
 77c:	0ec7420d 	cdpeq	2, 12, cr4, cr7, cr13, {0}
 780:	00000000 	andeq	r0, r0, r0
 784:	00000038 	andeq	r0, r0, r8, lsr r0
 788:	00000728 	andeq	r0, r0, r8, lsr #14
 78c:	00001a50 	andeq	r1, r0, r0, asr sl
 790:	00000044 	andeq	r0, r0, r4, asr #32
 794:	80100e41 	andshi	r0, r0, r1, asr #28
 798:	82038104 	andhi	r8, r3, #4, 2
 79c:	41018302 	tstmi	r1, r2, lsl #6
 7a0:	0687180e 	streq	r1, [r7], lr, lsl #16
 7a4:	0e41058e 	cdpeq	5, 4, cr0, cr1, cr14, {4}
 7a8:	070d4120 	streq	r4, [sp, -r0, lsr #2]
 7ac:	41180e54 	tstmi	r8, r4, asr lr
 7b0:	ce420d0d 	cdpgt	13, 4, cr0, cr2, cr13, {0}
 7b4:	41100ec7 	tstmi	r0, r7, asr #29
 7b8:	c0c1c2c3 	sbcgt	ip, r1, r3, asr #5
 7bc:	0000000e 	andeq	r0, r0, lr
 7c0:	00000038 	andeq	r0, r0, r8, lsr r0
 7c4:	00000728 	andeq	r0, r0, r8, lsr #14
 7c8:	00000000 	andeq	r0, r0, r0
 7cc:	00000044 	andeq	r0, r0, r4, asr #32
 7d0:	80100e41 	andshi	r0, r0, r1, asr #28
 7d4:	82038104 	andhi	r8, r3, #4, 2
 7d8:	41018302 	tstmi	r1, r2, lsl #6
 7dc:	0687180e 	streq	r1, [r7], lr, lsl #16
 7e0:	0e41058e 	cdpeq	5, 4, cr0, cr1, cr14, {4}
 7e4:	070d4120 	streq	r4, [sp, -r0, lsr #2]
 7e8:	41180e54 	tstmi	r8, r4, asr lr
 7ec:	ce420d0d 	cdpgt	13, 4, cr0, cr2, cr13, {0}
 7f0:	41100ec7 	tstmi	r0, r7, asr #29
 7f4:	c0c1c2c3 	sbcgt	ip, r1, r3, asr #5
 7f8:	0000000e 	andeq	r0, r0, lr
 7fc:	00000038 	andeq	r0, r0, r8, lsr r0
 800:	00000728 	andeq	r0, r0, r8, lsr #14
 804:	00001a94 	muleq	r0, r4, sl
 808:	00000044 	andeq	r0, r0, r4, asr #32
 80c:	80100e41 	andshi	r0, r0, r1, asr #28
 810:	82038104 	andhi	r8, r3, #4, 2
 814:	41018302 	tstmi	r1, r2, lsl #6
 818:	0687180e 	streq	r1, [r7], lr, lsl #16
 81c:	0e41058e 	cdpeq	5, 4, cr0, cr1, cr14, {4}
 820:	070d4120 	streq	r4, [sp, -r0, lsr #2]
 824:	41180e54 	tstmi	r8, r4, asr lr
 828:	ce420d0d 	cdpgt	13, 4, cr0, cr2, cr13, {0}
 82c:	41100ec7 	tstmi	r0, r7, asr #29
 830:	c0c1c2c3 	sbcgt	ip, r1, r3, asr #5
 834:	0000000e 	andeq	r0, r0, lr
 838:	0000000c 	andeq	r0, r0, ip
 83c:	ffffffff 			; <UNDEFINED> instruction: 0xffffffff
 840:	7c020001 	stcvc	0, cr0, [r2], {1}
 844:	000d0c0e 	andeq	r0, sp, lr, lsl #24
 848:	00000020 	andeq	r0, r0, r0, lsr #32
 84c:	00000838 	andeq	r0, r0, r8, lsr r8
 850:	00001ad8 	ldrdeq	r1, [r0], -r8
 854:	00000020 	andeq	r0, r0, r0, lsr #32
 858:	87080e41 	strhi	r0, [r8, -r1, asr #28]
 85c:	41018e02 	tstmi	r1, r2, lsl #28
 860:	0d41100e 	stcleq	0, cr1, [r1, #-56]	; 0xffffffc8
 864:	080e4907 	stmdaeq	lr, {r0, r1, r2, r8, fp, lr}
 868:	000d0d41 	andeq	r0, sp, r1, asr #26
 86c:	00000024 	andeq	r0, r0, r4, lsr #32
 870:	00000838 	andeq	r0, r0, r8, lsr r8
 874:	00000000 	andeq	r0, r0, r0
 878:	00000074 	andeq	r0, r0, r4, ror r0
 87c:	87040e41 	strhi	r0, [r4, -r1, asr #28]
 880:	100e4101 	andne	r4, lr, r1, lsl #2
 884:	64070d41 	strvs	r0, [r7], #-3393	; 0xfffff2bf
 888:	0d41040e 	cfstrdeq	mvd0, [r1, #-56]	; 0xffffffc8
 88c:	0ec7420d 	cdpeq	2, 12, cr4, cr7, cr13, {0}
 890:	00000000 	andeq	r0, r0, r0
 894:	00000024 	andeq	r0, r0, r4, lsr #32
 898:	00000838 	andeq	r0, r0, r8, lsr r8
 89c:	00000000 	andeq	r0, r0, r0
 8a0:	0000001c 	andeq	r0, r0, ip, lsl r0
 8a4:	87040e41 	strhi	r0, [r4, -r1, asr #28]
 8a8:	100e4101 	andne	r4, lr, r1, lsl #2
 8ac:	47070d41 	strmi	r0, [r7, -r1, asr #26]
 8b0:	0d41040e 	cfstrdeq	mvd0, [r1, #-56]	; 0xffffffc8
 8b4:	0ec7420d 	cdpeq	2, 12, cr4, cr7, cr13, {0}
 8b8:	00000000 	andeq	r0, r0, r0
 8bc:	00000024 	andeq	r0, r0, r4, lsr #32
 8c0:	00000838 	andeq	r0, r0, r8, lsr r8
 8c4:	00000000 	andeq	r0, r0, r0
 8c8:	00000024 	andeq	r0, r0, r4, lsr #32
 8cc:	87040e41 	strhi	r0, [r4, -r1, asr #28]
 8d0:	100e4101 	andne	r4, lr, r1, lsl #2
 8d4:	4b070d41 	blmi	1c3de0 <_etext+0x1c1e91>
 8d8:	0d41040e 	cfstrdeq	mvd0, [r1, #-56]	; 0xffffffc8
 8dc:	0ec7420d 	cdpeq	2, 12, cr4, cr7, cr13, {0}
 8e0:	00000000 	andeq	r0, r0, r0
 8e4:	00000030 	andeq	r0, r0, r0, lsr r0
 8e8:	00000838 	andeq	r0, r0, r8, lsr r8
 8ec:	00000000 	andeq	r0, r0, r0
 8f0:	00000088 	andeq	r0, r0, r8, lsl #1
 8f4:	82080e41 	andhi	r0, r8, #1040	; 0x410
 8f8:	41018302 	tstmi	r1, r2, lsl #6
 8fc:	0487100e 	streq	r1, [r7], #14
 900:	0e41038e 	cdpeq	3, 4, cr0, cr1, cr14, {4}
 904:	070d4120 	streq	r4, [sp, -r0, lsr #2]
 908:	41100e71 	tstmi	r0, r1, ror lr
 90c:	ce420d0d 	cdpgt	13, 4, cr0, cr2, cr13, {0}
 910:	41080ec7 	smlabtmi	r8, r7, lr, r0
 914:	000ec2c3 	andeq	ip, lr, r3, asr #5
 918:	00000020 	andeq	r0, r0, r0, lsr #32
 91c:	00000838 	andeq	r0, r0, r8, lsr r8
 920:	00000000 	andeq	r0, r0, r0
 924:	0000002c 	andeq	r0, r0, ip, lsr #32
 928:	87080e41 	strhi	r0, [r8, -r1, asr #28]
 92c:	41018e02 	tstmi	r1, r2, lsl #28
 930:	0d41100e 	stcleq	0, cr1, [r1, #-56]	; 0xffffffc8
 934:	080e4f07 	stmdaeq	lr, {r0, r1, r2, r8, r9, sl, fp, lr}
 938:	000d0d41 	andeq	r0, sp, r1, asr #26
 93c:	00000018 	andeq	r0, r0, r8, lsl r0
 940:	00000838 	andeq	r0, r0, r8, lsr r8
 944:	00000000 	andeq	r0, r0, r0
 948:	00000010 	andeq	r0, r0, r0, lsl r0
 94c:	87080e41 	strhi	r0, [r8, -r1, asr #28]
 950:	41018e02 	tstmi	r1, r2, lsl #28
 954:	0000070d 	andeq	r0, r0, sp, lsl #14
