
Build/main.axf:     file format elf32-littlearm


Disassembly of section .text:

00000000 <g_pfnVectors>:
       0:	20000118 	andcs	r0, r0, r8, lsl r1
       4:	00000339 	andeq	r0, r0, r9, lsr r3
       8:	000003a5 	andeq	r0, r0, r5, lsr #7
       c:	000003ad 	andeq	r0, r0, sp, lsr #7
      10:	000003d1 	ldrdeq	r0, [r0], -r1
      14:	000003d1 	ldrdeq	r0, [r0], -r1
      18:	000003d1 	ldrdeq	r0, [r0], -r1
	...
      2c:	000003d1 	ldrdeq	r0, [r0], -r1
      30:	000003d1 	ldrdeq	r0, [r0], -r1
      34:	00000000 	andeq	r0, r0, r0
      38:	000003d1 	ldrdeq	r0, [r0], -r1
      3c:	000003d1 	ldrdeq	r0, [r0], -r1
      40:	000003d1 	ldrdeq	r0, [r0], -r1
      44:	000003d1 	ldrdeq	r0, [r0], -r1
      48:	000003d1 	ldrdeq	r0, [r0], -r1
      4c:	000003d1 	ldrdeq	r0, [r0], -r1
      50:	000003d1 	ldrdeq	r0, [r0], -r1
      54:	0000026d 	andeq	r0, r0, sp, ror #4
      58:	000003d1 	ldrdeq	r0, [r0], -r1
      5c:	000003d1 	ldrdeq	r0, [r0], -r1
      60:	000003d1 	ldrdeq	r0, [r0], -r1
      64:	000003d1 	ldrdeq	r0, [r0], -r1
      68:	000003d1 	ldrdeq	r0, [r0], -r1
      6c:	000003d1 	ldrdeq	r0, [r0], -r1
      70:	000003d1 	ldrdeq	r0, [r0], -r1
      74:	000003d1 	ldrdeq	r0, [r0], -r1
      78:	000003d1 	ldrdeq	r0, [r0], -r1
      7c:	000003d1 	ldrdeq	r0, [r0], -r1
      80:	000003d1 	ldrdeq	r0, [r0], -r1
      84:	000003d1 	ldrdeq	r0, [r0], -r1
      88:	000003d1 	ldrdeq	r0, [r0], -r1
      8c:	000003d1 	ldrdeq	r0, [r0], -r1
      90:	000003d1 	ldrdeq	r0, [r0], -r1
      94:	000003d1 	ldrdeq	r0, [r0], -r1
      98:	000003d1 	ldrdeq	r0, [r0], -r1
      9c:	000003d1 	ldrdeq	r0, [r0], -r1
      a0:	000003d1 	ldrdeq	r0, [r0], -r1
      a4:	000003d1 	ldrdeq	r0, [r0], -r1
      a8:	000003d1 	ldrdeq	r0, [r0], -r1
      ac:	000003d1 	ldrdeq	r0, [r0], -r1
      b0:	000003d1 	ldrdeq	r0, [r0], -r1
      b4:	000003d1 	ldrdeq	r0, [r0], -r1
      b8:	000003d1 	ldrdeq	r0, [r0], -r1
      bc:	000003d1 	ldrdeq	r0, [r0], -r1
      c0:	000003d1 	ldrdeq	r0, [r0], -r1
      c4:	000003d1 	ldrdeq	r0, [r0], -r1
      c8:	000003d1 	ldrdeq	r0, [r0], -r1
      cc:	000003d1 	ldrdeq	r0, [r0], -r1
      d0:	000003d1 	ldrdeq	r0, [r0], -r1
      d4:	000003d1 	ldrdeq	r0, [r0], -r1
      d8:	000003d1 	ldrdeq	r0, [r0], -r1
      dc:	000003d1 	ldrdeq	r0, [r0], -r1
      e0:	000003d1 	ldrdeq	r0, [r0], -r1
      e4:	000003d1 	ldrdeq	r0, [r0], -r1
      e8:	000003d1 	ldrdeq	r0, [r0], -r1
      ec:	000003d1 	ldrdeq	r0, [r0], -r1
      f0:	0000198d 	andeq	r1, r0, sp, lsl #19
      f4:	000003d1 	ldrdeq	r0, [r0], -r1
      f8:	000003d1 	ldrdeq	r0, [r0], -r1
      fc:	000003d1 	ldrdeq	r0, [r0], -r1
     100:	000003d1 	ldrdeq	r0, [r0], -r1
     104:	000003d1 	ldrdeq	r0, [r0], -r1
     108:	000003d1 	ldrdeq	r0, [r0], -r1
     10c:	000003d1 	ldrdeq	r0, [r0], -r1
     110:	000003d1 	ldrdeq	r0, [r0], -r1
     114:	000003d1 	ldrdeq	r0, [r0], -r1
     118:	000003d1 	ldrdeq	r0, [r0], -r1
     11c:	000003d1 	ldrdeq	r0, [r0], -r1
     120:	000003d1 	ldrdeq	r0, [r0], -r1
     124:	000003d1 	ldrdeq	r0, [r0], -r1
     128:	000003d1 	ldrdeq	r0, [r0], -r1
     12c:	000003d1 	ldrdeq	r0, [r0], -r1
     130:	000003d1 	ldrdeq	r0, [r0], -r1
     134:	000003d1 	ldrdeq	r0, [r0], -r1
     138:	000003d1 	ldrdeq	r0, [r0], -r1
     13c:	000003d1 	ldrdeq	r0, [r0], -r1
	...
     150:	000003d1 	ldrdeq	r0, [r0], -r1
     154:	000003d1 	ldrdeq	r0, [r0], -r1
     158:	000003d1 	ldrdeq	r0, [r0], -r1
     15c:	000003d1 	ldrdeq	r0, [r0], -r1
	...
     1b0:	000003d1 	ldrdeq	r0, [r0], -r1
     1b4:	000003d1 	ldrdeq	r0, [r0], -r1
     1b8:	000003d1 	ldrdeq	r0, [r0], -r1
     1bc:	000003d1 	ldrdeq	r0, [r0], -r1
     1c0:	000003d1 	ldrdeq	r0, [r0], -r1
     1c4:	000003d1 	ldrdeq	r0, [r0], -r1
     1c8:	000003d1 	ldrdeq	r0, [r0], -r1
     1cc:	000003d1 	ldrdeq	r0, [r0], -r1
     1d0:	000003d1 	ldrdeq	r0, [r0], -r1
     1d4:	000003d1 	ldrdeq	r0, [r0], -r1
     1d8:	000003d1 	ldrdeq	r0, [r0], -r1
     1dc:	000003d1 	ldrdeq	r0, [r0], -r1
     1e0:	000003d1 	ldrdeq	r0, [r0], -r1
     1e4:	000003d1 	ldrdeq	r0, [r0], -r1
     1e8:	000003d1 	ldrdeq	r0, [r0], -r1
     1ec:	000003d1 	ldrdeq	r0, [r0], -r1
     1f0:	000003d1 	ldrdeq	r0, [r0], -r1
     1f4:	000003d1 	ldrdeq	r0, [r0], -r1
     1f8:	000003d1 	ldrdeq	r0, [r0], -r1
     1fc:	000003d1 	ldrdeq	r0, [r0], -r1
     200:	000003d1 	ldrdeq	r0, [r0], -r1
     204:	000003d1 	ldrdeq	r0, [r0], -r1
     208:	000003d1 	ldrdeq	r0, [r0], -r1
     20c:	00000000 	andeq	r0, r0, r0
     210:	000003d1 	ldrdeq	r0, [r0], -r1
     214:	000003d1 	ldrdeq	r0, [r0], -r1
     218:	000003d1 	ldrdeq	r0, [r0], -r1
     21c:	000003d1 	ldrdeq	r0, [r0], -r1
     220:	000003d1 	ldrdeq	r0, [r0], -r1
     224:	000003d1 	ldrdeq	r0, [r0], -r1
     228:	000003d1 	ldrdeq	r0, [r0], -r1
     22c:	000003d1 	ldrdeq	r0, [r0], -r1
     230:	000003d1 	ldrdeq	r0, [r0], -r1
     234:	000003d1 	ldrdeq	r0, [r0], -r1
     238:	000003d1 	ldrdeq	r0, [r0], -r1
     23c:	000003d1 	ldrdeq	r0, [r0], -r1
     240:	000003d1 	ldrdeq	r0, [r0], -r1
     244:	000003d1 	ldrdeq	r0, [r0], -r1
     248:	000003d1 	ldrdeq	r0, [r0], -r1
     24c:	000003d1 	ldrdeq	r0, [r0], -r1
     250:	000003d1 	ldrdeq	r0, [r0], -r1
     254:	000003d1 	ldrdeq	r0, [r0], -r1
     258:	000003d1 	ldrdeq	r0, [r0], -r1
     25c:	000003d1 	ldrdeq	r0, [r0], -r1
     260:	000003d1 	ldrdeq	r0, [r0], -r1
     264:	000003d1 	ldrdeq	r0, [r0], -r1
     268:	000003d1 	ldrdeq	r0, [r0], -r1

0000026c <UART0IntHandler>:
     26c:	b480      	push	{r7}
     26e:	af00      	add	r7, sp, #0
     270:	bf00      	nop
     272:	46bd      	mov	sp, r7
     274:	f85d 7b04 	ldr.w	r7, [sp], #4
     278:	4770      	bx	lr
	...

0000027c <InitConsole>:
     27c:	b580      	push	{r7, lr}
     27e:	af00      	add	r7, sp, #0
     280:	480e      	ldr	r0, [pc, #56]	; (2bc <InitConsole+0x40>)
     282:	f000 fc51 	bl	b28 <SysCtlPeripheralEnable>
     286:	2001      	movs	r0, #1
     288:	f000 fc12 	bl	ab0 <GPIOPinConfigure>
     28c:	f240 4001 	movw	r0, #1025	; 0x401
     290:	f000 fc0e 	bl	ab0 <GPIOPinConfigure>
     294:	480a      	ldr	r0, [pc, #40]	; (2c0 <InitConsole+0x44>)
     296:	f000 fc47 	bl	b28 <SysCtlPeripheralEnable>
     29a:	2100      	movs	r1, #0
     29c:	4809      	ldr	r0, [pc, #36]	; (2c4 <InitConsole+0x48>)
     29e:	f000 fdcd 	bl	e3c <UARTClockSourceSet>
     2a2:	2103      	movs	r1, #3
     2a4:	f04f 2040 	mov.w	r0, #1073758208	; 0x40004000
     2a8:	f000 fc00 	bl	aac <GPIOPinTypeUART>
     2ac:	4a06      	ldr	r2, [pc, #24]	; (2c8 <InitConsole+0x4c>)
     2ae:	f44f 31e1 	mov.w	r1, #115200	; 0x1c200
     2b2:	2000      	movs	r0, #0
     2b4:	f000 f890 	bl	3d8 <UARTStdioConfig>
     2b8:	bf00      	nop
     2ba:	bd80      	pop	{r7, pc}
     2bc:	f0000800 			; <UNDEFINED> instruction: 0xf0000800
     2c0:	f0001800 			; <UNDEFINED> instruction: 0xf0001800
     2c4:	4000c000 	andmi	ip, r0, r0
     2c8:	02faf080 	rscseq	pc, sl, #128	; 0x80

000002cc <main>:
     2cc:	b580      	push	{r7, lr}
     2ce:	b082      	sub	sp, #8
     2d0:	af00      	add	r7, sp, #0
     2d2:	2300      	movs	r3, #0
     2d4:	607b      	str	r3, [r7, #4]
     2d6:	4813      	ldr	r0, [pc, #76]	; (324 <main+0x58>)
     2d8:	f000 fc3a 	bl	b50 <SysCtlClockSet>
     2dc:	f7ff ffce 	bl	27c <InitConsole>
     2e0:	f000 fcb4 	bl	c4c <SysCtlClockGet>
     2e4:	4603      	mov	r3, r0
     2e6:	4618      	mov	r0, r3
     2e8:	f000 fd62 	bl	db0 <SysTickPeriodSet>
     2ec:	f000 fc02 	bl	af4 <IntMasterEnable>
     2f0:	f000 fd57 	bl	da2 <SysTickIntEnable>
     2f4:	f000 fd4e 	bl	d94 <SysTickEnable>
     2f8:	480b      	ldr	r0, [pc, #44]	; (328 <main+0x5c>)
     2fa:	f001 f98d 	bl	1618 <USBDInit>
     2fe:	480b      	ldr	r0, [pc, #44]	; (32c <main+0x60>)
     300:	f000 fafe 	bl	900 <UARTprintf>
     304:	4b0a      	ldr	r3, [pc, #40]	; (330 <main+0x64>)
     306:	681b      	ldr	r3, [r3, #0]
     308:	687a      	ldr	r2, [r7, #4]
     30a:	429a      	cmp	r2, r3
     30c:	d0fa      	beq.n	304 <main+0x38>
     30e:	4b08      	ldr	r3, [pc, #32]	; (330 <main+0x64>)
     310:	681b      	ldr	r3, [r3, #0]
     312:	4619      	mov	r1, r3
     314:	4807      	ldr	r0, [pc, #28]	; (334 <main+0x68>)
     316:	f000 faf3 	bl	900 <UARTprintf>
     31a:	4b05      	ldr	r3, [pc, #20]	; (330 <main+0x64>)
     31c:	681b      	ldr	r3, [r3, #0]
     31e:	607b      	str	r3, [r7, #4]
     320:	e7f0      	b.n	304 <main+0x38>
     322:	bf00      	nop
     324:	c1000550 	tstgt	r0, r0, asr r5
     328:	20000004 	andcs	r0, r0, r4
     32c:	00001af8 	strdeq	r1, [r0], -r8
     330:	20000000 	andcs	r0, r0, r0
     334:	00001b00 	andeq	r1, r0, r0, lsl #22

00000338 <ResetISR>:
     338:	b580      	push	{r7, lr}
     33a:	b082      	sub	sp, #8
     33c:	af00      	add	r7, sp, #0
     33e:	4b13      	ldr	r3, [pc, #76]	; (38c <zero_loop+0x24>)
     340:	607b      	str	r3, [r7, #4]
     342:	4b13      	ldr	r3, [pc, #76]	; (390 <zero_loop+0x28>)
     344:	603b      	str	r3, [r7, #0]
     346:	e007      	b.n	358 <ResetISR+0x20>
     348:	687a      	ldr	r2, [r7, #4]
     34a:	1d13      	adds	r3, r2, #4
     34c:	607b      	str	r3, [r7, #4]
     34e:	683b      	ldr	r3, [r7, #0]
     350:	1d19      	adds	r1, r3, #4
     352:	6039      	str	r1, [r7, #0]
     354:	6812      	ldr	r2, [r2, #0]
     356:	601a      	str	r2, [r3, #0]
     358:	683b      	ldr	r3, [r7, #0]
     35a:	4a0e      	ldr	r2, [pc, #56]	; (394 <zero_loop+0x2c>)
     35c:	4293      	cmp	r3, r2
     35e:	d3f3      	bcc.n	348 <ResetISR+0x10>
     360:	480e      	ldr	r0, [pc, #56]	; (39c <zero_loop+0x34>)
     362:	490f      	ldr	r1, [pc, #60]	; (3a0 <zero_loop+0x38>)
     364:	f04f 0200 	mov.w	r2, #0

00000368 <zero_loop>:
     368:	4288      	cmp	r0, r1
     36a:	bfb8      	it	lt
     36c:	f840 2b04 	strlt.w	r2, [r0], #4
     370:	dbfa      	blt.n	368 <zero_loop>
     372:	4b09      	ldr	r3, [pc, #36]	; (398 <zero_loop+0x30>)
     374:	681b      	ldr	r3, [r3, #0]
     376:	4a08      	ldr	r2, [pc, #32]	; (398 <zero_loop+0x30>)
     378:	f443 0370 	orr.w	r3, r3, #15728640	; 0xf00000
     37c:	6013      	str	r3, [r2, #0]
     37e:	f7ff ffa5 	bl	2cc <main>
     382:	bf00      	nop
     384:	3708      	adds	r7, #8
     386:	46bd      	mov	sp, r7
     388:	bd80      	pop	{r7, pc}
     38a:	bf00      	nop
     38c:	00001f4f 	andeq	r1, r0, pc, asr #30
     390:	20000000 	andcs	r0, r0, r0
     394:	20000000 	andcs	r0, r0, r0
     398:	e000ed88 	and	lr, r0, r8, lsl #27
     39c:	20000000 	andcs	r0, r0, r0
     3a0:	20000120 	andcs	r0, r0, r0, lsr #2

000003a4 <NmiSR>:
     3a4:	b480      	push	{r7}
     3a6:	af00      	add	r7, sp, #0
     3a8:	e7fe      	b.n	3a8 <NmiSR+0x4>
	...

000003ac <FaultISR>:
     3ac:	b580      	push	{r7, lr}
     3ae:	af00      	add	r7, sp, #0
     3b0:	4b04      	ldr	r3, [pc, #16]	; (3c4 <FaultISR+0x18>)
     3b2:	681b      	ldr	r3, [r3, #0]
     3b4:	4a04      	ldr	r2, [pc, #16]	; (3c8 <FaultISR+0x1c>)
     3b6:	6812      	ldr	r2, [r2, #0]
     3b8:	4619      	mov	r1, r3
     3ba:	4804      	ldr	r0, [pc, #16]	; (3cc <FaultISR+0x20>)
     3bc:	f000 faa0 	bl	900 <UARTprintf>
     3c0:	e7fe      	b.n	3c0 <FaultISR+0x14>
     3c2:	bf00      	nop
     3c4:	e000ed28 	and	lr, r0, r8, lsr #26
     3c8:	e000ed38 	and	lr, r0, r8, lsr sp
     3cc:	00001b1c 	andeq	r1, r0, ip, lsl fp

000003d0 <IntDefaultHandler>:
     3d0:	b480      	push	{r7}
     3d2:	af00      	add	r7, sp, #0
     3d4:	e7fe      	b.n	3d4 <IntDefaultHandler+0x4>
	...

000003d8 <UARTStdioConfig>:
     3d8:	b580      	push	{r7, lr}
     3da:	b084      	sub	sp, #16
     3dc:	af00      	add	r7, sp, #0
     3de:	60f8      	str	r0, [r7, #12]
     3e0:	60b9      	str	r1, [r7, #8]
     3e2:	607a      	str	r2, [r7, #4]
     3e4:	68fb      	ldr	r3, [r7, #12]
     3e6:	2b00      	cmp	r3, #0
     3e8:	d00a      	beq.n	400 <UARTStdioConfig+0x28>
     3ea:	68fb      	ldr	r3, [r7, #12]
     3ec:	2b01      	cmp	r3, #1
     3ee:	d007      	beq.n	400 <UARTStdioConfig+0x28>
     3f0:	68fb      	ldr	r3, [r7, #12]
     3f2:	2b02      	cmp	r3, #2
     3f4:	d004      	beq.n	400 <UARTStdioConfig+0x28>
     3f6:	f240 1153 	movw	r1, #339	; 0x153
     3fa:	4817      	ldr	r0, [pc, #92]	; (458 <UARTStdioConfig+0x80>)
     3fc:	f001 fb6c 	bl	1ad8 <__error__>
     400:	4a16      	ldr	r2, [pc, #88]	; (45c <UARTStdioConfig+0x84>)
     402:	68fb      	ldr	r3, [r7, #12]
     404:	f852 3023 	ldr.w	r3, [r2, r3, lsl #2]
     408:	4618      	mov	r0, r3
     40a:	f000 fb7b 	bl	b04 <SysCtlPeripheralPresent>
     40e:	4603      	mov	r3, r0
     410:	f083 0301 	eor.w	r3, r3, #1
     414:	b2db      	uxtb	r3, r3
     416:	2b00      	cmp	r3, #0
     418:	d119      	bne.n	44e <UARTStdioConfig+0x76>
     41a:	4a11      	ldr	r2, [pc, #68]	; (460 <UARTStdioConfig+0x88>)
     41c:	68fb      	ldr	r3, [r7, #12]
     41e:	f852 3023 	ldr.w	r3, [r2, r3, lsl #2]
     422:	4a10      	ldr	r2, [pc, #64]	; (464 <UARTStdioConfig+0x8c>)
     424:	6013      	str	r3, [r2, #0]
     426:	4a0d      	ldr	r2, [pc, #52]	; (45c <UARTStdioConfig+0x84>)
     428:	68fb      	ldr	r3, [r7, #12]
     42a:	f852 3023 	ldr.w	r3, [r2, r3, lsl #2]
     42e:	4618      	mov	r0, r3
     430:	f000 fb7a 	bl	b28 <SysCtlPeripheralEnable>
     434:	4b0b      	ldr	r3, [pc, #44]	; (464 <UARTStdioConfig+0x8c>)
     436:	6818      	ldr	r0, [r3, #0]
     438:	2360      	movs	r3, #96	; 0x60
     43a:	68ba      	ldr	r2, [r7, #8]
     43c:	6879      	ldr	r1, [r7, #4]
     43e:	f000 fcd5 	bl	dec <UARTConfigSetExpClk>
     442:	4b08      	ldr	r3, [pc, #32]	; (464 <UARTStdioConfig+0x8c>)
     444:	681b      	ldr	r3, [r3, #0]
     446:	4618      	mov	r0, r3
     448:	f000 fcb7 	bl	dba <UARTEnable>
     44c:	e000      	b.n	450 <UARTStdioConfig+0x78>
     44e:	bf00      	nop
     450:	3710      	adds	r7, #16
     452:	46bd      	mov	sp, r7
     454:	bd80      	pop	{r7, pc}
     456:	bf00      	nop
     458:	00001b54 	andeq	r1, r0, r4, asr fp
     45c:	00001b98 	muleq	r0, r8, fp
     460:	00001b8c 	andeq	r1, r0, ip, lsl #23
     464:	20000118 	andcs	r0, r0, r8, lsl r1

00000468 <UARTwrite>:
     468:	b580      	push	{r7, lr}
     46a:	b084      	sub	sp, #16
     46c:	af00      	add	r7, sp, #0
     46e:	6078      	str	r0, [r7, #4]
     470:	6039      	str	r1, [r7, #0]
     472:	4b1f      	ldr	r3, [pc, #124]	; (4f0 <UARTwrite+0x88>)
     474:	681b      	ldr	r3, [r3, #0]
     476:	2b00      	cmp	r3, #0
     478:	d104      	bne.n	484 <UARTwrite+0x1c>
     47a:	f240 2101 	movw	r1, #513	; 0x201
     47e:	481d      	ldr	r0, [pc, #116]	; (4f4 <UARTwrite+0x8c>)
     480:	f001 fb2a 	bl	1ad8 <__error__>
     484:	687b      	ldr	r3, [r7, #4]
     486:	2b00      	cmp	r3, #0
     488:	d104      	bne.n	494 <UARTwrite+0x2c>
     48a:	f240 2102 	movw	r1, #514	; 0x202
     48e:	4819      	ldr	r0, [pc, #100]	; (4f4 <UARTwrite+0x8c>)
     490:	f001 fb22 	bl	1ad8 <__error__>
     494:	2300      	movs	r3, #0
     496:	60fb      	str	r3, [r7, #12]
     498:	e01e      	b.n	4d8 <UARTwrite+0x70>
     49a:	687a      	ldr	r2, [r7, #4]
     49c:	68fb      	ldr	r3, [r7, #12]
     49e:	4413      	add	r3, r2
     4a0:	781b      	ldrb	r3, [r3, #0]
     4a2:	2b0a      	cmp	r3, #10
     4a4:	d106      	bne.n	4b4 <UARTwrite+0x4c>
     4a6:	4b12      	ldr	r3, [pc, #72]	; (4f0 <UARTwrite+0x88>)
     4a8:	681b      	ldr	r3, [r3, #0]
     4aa:	210d      	movs	r1, #13
     4ac:	4618      	mov	r0, r3
     4ae:	f000 fcc0 	bl	e32 <UARTCharPut>
     4b2:	e005      	b.n	4c0 <UARTwrite+0x58>
     4b4:	687a      	ldr	r2, [r7, #4]
     4b6:	68fb      	ldr	r3, [r7, #12]
     4b8:	4413      	add	r3, r2
     4ba:	781b      	ldrb	r3, [r3, #0]
     4bc:	2b00      	cmp	r3, #0
     4be:	d010      	beq.n	4e2 <UARTwrite+0x7a>
     4c0:	4b0b      	ldr	r3, [pc, #44]	; (4f0 <UARTwrite+0x88>)
     4c2:	6818      	ldr	r0, [r3, #0]
     4c4:	687a      	ldr	r2, [r7, #4]
     4c6:	68fb      	ldr	r3, [r7, #12]
     4c8:	4413      	add	r3, r2
     4ca:	781b      	ldrb	r3, [r3, #0]
     4cc:	4619      	mov	r1, r3
     4ce:	f000 fcb0 	bl	e32 <UARTCharPut>
     4d2:	68fb      	ldr	r3, [r7, #12]
     4d4:	3301      	adds	r3, #1
     4d6:	60fb      	str	r3, [r7, #12]
     4d8:	68fa      	ldr	r2, [r7, #12]
     4da:	683b      	ldr	r3, [r7, #0]
     4dc:	429a      	cmp	r2, r3
     4de:	d3dc      	bcc.n	49a <UARTwrite+0x32>
     4e0:	e000      	b.n	4e4 <UARTwrite+0x7c>
     4e2:	bf00      	nop
     4e4:	68fb      	ldr	r3, [r7, #12]
     4e6:	4618      	mov	r0, r3
     4e8:	3710      	adds	r7, #16
     4ea:	46bd      	mov	sp, r7
     4ec:	bd80      	pop	{r7, pc}
     4ee:	bf00      	nop
     4f0:	20000118 	andcs	r0, r0, r8, lsl r1
     4f4:	00001b54 	andeq	r1, r0, r4, asr fp

000004f8 <UARTvprintf>:
     4f8:	b580      	push	{r7, lr}
     4fa:	b08e      	sub	sp, #56	; 0x38
     4fc:	af00      	add	r7, sp, #0
     4fe:	6078      	str	r0, [r7, #4]
     500:	6039      	str	r1, [r7, #0]
     502:	687b      	ldr	r3, [r7, #4]
     504:	2b00      	cmp	r3, #0
     506:	f040 81ed 	bne.w	8e4 <UARTvprintf+0x3ec>
     50a:	f44f 715b 	mov.w	r1, #876	; 0x36c
     50e:	48ae      	ldr	r0, [pc, #696]	; (7c8 <UARTvprintf+0x2d0>)
     510:	f001 fae2 	bl	1ad8 <__error__>
     514:	e1e6      	b.n	8e4 <UARTvprintf+0x3ec>
     516:	2300      	movs	r3, #0
     518:	637b      	str	r3, [r7, #52]	; 0x34
     51a:	e002      	b.n	522 <UARTvprintf+0x2a>
     51c:	6b7b      	ldr	r3, [r7, #52]	; 0x34
     51e:	3301      	adds	r3, #1
     520:	637b      	str	r3, [r7, #52]	; 0x34
     522:	687a      	ldr	r2, [r7, #4]
     524:	6b7b      	ldr	r3, [r7, #52]	; 0x34
     526:	4413      	add	r3, r2
     528:	781b      	ldrb	r3, [r3, #0]
     52a:	2b25      	cmp	r3, #37	; 0x25
     52c:	d005      	beq.n	53a <UARTvprintf+0x42>
     52e:	687a      	ldr	r2, [r7, #4]
     530:	6b7b      	ldr	r3, [r7, #52]	; 0x34
     532:	4413      	add	r3, r2
     534:	781b      	ldrb	r3, [r3, #0]
     536:	2b00      	cmp	r3, #0
     538:	d1f0      	bne.n	51c <UARTvprintf+0x24>
     53a:	6b79      	ldr	r1, [r7, #52]	; 0x34
     53c:	6878      	ldr	r0, [r7, #4]
     53e:	f7ff ff93 	bl	468 <UARTwrite>
     542:	687a      	ldr	r2, [r7, #4]
     544:	6b7b      	ldr	r3, [r7, #52]	; 0x34
     546:	4413      	add	r3, r2
     548:	607b      	str	r3, [r7, #4]
     54a:	687b      	ldr	r3, [r7, #4]
     54c:	781b      	ldrb	r3, [r3, #0]
     54e:	2b25      	cmp	r3, #37	; 0x25
     550:	f040 81c7 	bne.w	8e2 <UARTvprintf+0x3ea>
     554:	687b      	ldr	r3, [r7, #4]
     556:	3301      	adds	r3, #1
     558:	607b      	str	r3, [r7, #4]
     55a:	2300      	movs	r3, #0
     55c:	62fb      	str	r3, [r7, #44]	; 0x2c
     55e:	2320      	movs	r3, #32
     560:	f887 3023 	strb.w	r3, [r7, #35]	; 0x23
     564:	687b      	ldr	r3, [r7, #4]
     566:	1c5a      	adds	r2, r3, #1
     568:	607a      	str	r2, [r7, #4]
     56a:	781b      	ldrb	r3, [r3, #0]
     56c:	3b25      	subs	r3, #37	; 0x25
     56e:	2b53      	cmp	r3, #83	; 0x53
     570:	f200 81b2 	bhi.w	8d8 <UARTvprintf+0x3e0>
     574:	a201      	add	r2, pc, #4	; (adr r2, 57c <UARTvprintf+0x84>)
     576:	f852 f023 	ldr.w	pc, [r2, r3, lsl #2]
     57a:	bf00      	nop
     57c:	000008cb 	andeq	r0, r0, fp, asr #17
     580:	000008d9 	ldrdeq	r0, [r0], -r9
     584:	000008d9 	ldrdeq	r0, [r0], -r9
     588:	000008d9 	ldrdeq	r0, [r0], -r9
     58c:	000008d9 	ldrdeq	r0, [r0], -r9
     590:	000008d9 	ldrdeq	r0, [r0], -r9
     594:	000008d9 	ldrdeq	r0, [r0], -r9
     598:	000008d9 	ldrdeq	r0, [r0], -r9
     59c:	000008d9 	ldrdeq	r0, [r0], -r9
     5a0:	000008d9 	ldrdeq	r0, [r0], -r9
     5a4:	000008d9 	ldrdeq	r0, [r0], -r9
     5a8:	000006cd 	andeq	r0, r0, sp, asr #13
     5ac:	000006cd 	andeq	r0, r0, sp, asr #13
     5b0:	000006cd 	andeq	r0, r0, sp, asr #13
     5b4:	000006cd 	andeq	r0, r0, sp, asr #13
     5b8:	000006cd 	andeq	r0, r0, sp, asr #13
     5bc:	000006cd 	andeq	r0, r0, sp, asr #13
     5c0:	000006cd 	andeq	r0, r0, sp, asr #13
     5c4:	000006cd 	andeq	r0, r0, sp, asr #13
     5c8:	000006cd 	andeq	r0, r0, sp, asr #13
     5cc:	000006cd 	andeq	r0, r0, sp, asr #13
     5d0:	000008d9 	ldrdeq	r0, [r0], -r9
     5d4:	000008d9 	ldrdeq	r0, [r0], -r9
     5d8:	000008d9 	ldrdeq	r0, [r0], -r9
     5dc:	000008d9 	ldrdeq	r0, [r0], -r9
     5e0:	000008d9 	ldrdeq	r0, [r0], -r9
     5e4:	000008d9 	ldrdeq	r0, [r0], -r9
     5e8:	000008d9 	ldrdeq	r0, [r0], -r9
     5ec:	000008d9 	ldrdeq	r0, [r0], -r9
     5f0:	000008d9 	ldrdeq	r0, [r0], -r9
     5f4:	000008d9 	ldrdeq	r0, [r0], -r9
     5f8:	000008d9 	ldrdeq	r0, [r0], -r9
     5fc:	000008d9 	ldrdeq	r0, [r0], -r9
     600:	000008d9 	ldrdeq	r0, [r0], -r9
     604:	000008d9 	ldrdeq	r0, [r0], -r9
     608:	000008d9 	ldrdeq	r0, [r0], -r9
     60c:	000008d9 	ldrdeq	r0, [r0], -r9
     610:	000008d9 	ldrdeq	r0, [r0], -r9
     614:	000008d9 	ldrdeq	r0, [r0], -r9
     618:	000008d9 	ldrdeq	r0, [r0], -r9
     61c:	000008d9 	ldrdeq	r0, [r0], -r9
     620:	000008d9 	ldrdeq	r0, [r0], -r9
     624:	000008d9 	ldrdeq	r0, [r0], -r9
     628:	000008d9 	ldrdeq	r0, [r0], -r9
     62c:	000008d9 	ldrdeq	r0, [r0], -r9
     630:	000008d9 	ldrdeq	r0, [r0], -r9
     634:	000008d9 	ldrdeq	r0, [r0], -r9
     638:	000008d9 	ldrdeq	r0, [r0], -r9
     63c:	000008d9 	ldrdeq	r0, [r0], -r9
     640:	000008d9 	ldrdeq	r0, [r0], -r9
     644:	000008d9 	ldrdeq	r0, [r0], -r9
     648:	000007ad 	andeq	r0, r0, sp, lsr #15
     64c:	000008d9 	ldrdeq	r0, [r0], -r9
     650:	000008d9 	ldrdeq	r0, [r0], -r9
     654:	000008d9 	ldrdeq	r0, [r0], -r9
     658:	000008d9 	ldrdeq	r0, [r0], -r9
     65c:	000008d9 	ldrdeq	r0, [r0], -r9
     660:	000008d9 	ldrdeq	r0, [r0], -r9
     664:	000008d9 	ldrdeq	r0, [r0], -r9
     668:	000008d9 	ldrdeq	r0, [r0], -r9
     66c:	000008d9 	ldrdeq	r0, [r0], -r9
     670:	000008d9 	ldrdeq	r0, [r0], -r9
     674:	00000701 	andeq	r0, r0, r1, lsl #14
     678:	00000719 	andeq	r0, r0, r9, lsl r7
     67c:	000008d9 	ldrdeq	r0, [r0], -r9
     680:	000008d9 	ldrdeq	r0, [r0], -r9
     684:	000008d9 	ldrdeq	r0, [r0], -r9
     688:	000008d9 	ldrdeq	r0, [r0], -r9
     68c:	00000719 	andeq	r0, r0, r9, lsl r7
     690:	000008d9 	ldrdeq	r0, [r0], -r9
     694:	000008d9 	ldrdeq	r0, [r0], -r9
     698:	000008d9 	ldrdeq	r0, [r0], -r9
     69c:	000008d9 	ldrdeq	r0, [r0], -r9
     6a0:	000008d9 	ldrdeq	r0, [r0], -r9
     6a4:	000008d9 	ldrdeq	r0, [r0], -r9
     6a8:	000007ad 	andeq	r0, r0, sp, lsr #15
     6ac:	000008d9 	ldrdeq	r0, [r0], -r9
     6b0:	000008d9 	ldrdeq	r0, [r0], -r9
     6b4:	00000743 	andeq	r0, r0, r3, asr #14
     6b8:	000008d9 	ldrdeq	r0, [r0], -r9
     6bc:	00000795 	muleq	r0, r5, r7
     6c0:	000008d9 	ldrdeq	r0, [r0], -r9
     6c4:	000008d9 	ldrdeq	r0, [r0], -r9
     6c8:	000007ad 	andeq	r0, r0, sp, lsr #15
     6cc:	687b      	ldr	r3, [r7, #4]
     6ce:	3b01      	subs	r3, #1
     6d0:	781b      	ldrb	r3, [r3, #0]
     6d2:	2b30      	cmp	r3, #48	; 0x30
     6d4:	d105      	bne.n	6e2 <UARTvprintf+0x1ea>
     6d6:	6afb      	ldr	r3, [r7, #44]	; 0x2c
     6d8:	2b00      	cmp	r3, #0
     6da:	d102      	bne.n	6e2 <UARTvprintf+0x1ea>
     6dc:	2330      	movs	r3, #48	; 0x30
     6de:	f887 3023 	strb.w	r3, [r7, #35]	; 0x23
     6e2:	6afa      	ldr	r2, [r7, #44]	; 0x2c
     6e4:	4613      	mov	r3, r2
     6e6:	009b      	lsls	r3, r3, #2
     6e8:	4413      	add	r3, r2
     6ea:	005b      	lsls	r3, r3, #1
     6ec:	62fb      	str	r3, [r7, #44]	; 0x2c
     6ee:	687b      	ldr	r3, [r7, #4]
     6f0:	3b01      	subs	r3, #1
     6f2:	781b      	ldrb	r3, [r3, #0]
     6f4:	461a      	mov	r2, r3
     6f6:	6afb      	ldr	r3, [r7, #44]	; 0x2c
     6f8:	4413      	add	r3, r2
     6fa:	3b30      	subs	r3, #48	; 0x30
     6fc:	62fb      	str	r3, [r7, #44]	; 0x2c
     6fe:	e731      	b.n	564 <UARTvprintf+0x6c>
     700:	683b      	ldr	r3, [r7, #0]
     702:	1d1a      	adds	r2, r3, #4
     704:	603a      	str	r2, [r7, #0]
     706:	681b      	ldr	r3, [r3, #0]
     708:	61bb      	str	r3, [r7, #24]
     70a:	f107 0318 	add.w	r3, r7, #24
     70e:	2101      	movs	r1, #1
     710:	4618      	mov	r0, r3
     712:	f7ff fea9 	bl	468 <UARTwrite>
     716:	e0e5      	b.n	8e4 <UARTvprintf+0x3ec>
     718:	683b      	ldr	r3, [r7, #0]
     71a:	1d1a      	adds	r2, r3, #4
     71c:	603a      	str	r2, [r7, #0]
     71e:	681b      	ldr	r3, [r3, #0]
     720:	61bb      	str	r3, [r7, #24]
     722:	2300      	movs	r3, #0
     724:	633b      	str	r3, [r7, #48]	; 0x30
     726:	69bb      	ldr	r3, [r7, #24]
     728:	2b00      	cmp	r3, #0
     72a:	da05      	bge.n	738 <UARTvprintf+0x240>
     72c:	69bb      	ldr	r3, [r7, #24]
     72e:	425b      	negs	r3, r3
     730:	61bb      	str	r3, [r7, #24]
     732:	2301      	movs	r3, #1
     734:	627b      	str	r3, [r7, #36]	; 0x24
     736:	e001      	b.n	73c <UARTvprintf+0x244>
     738:	2300      	movs	r3, #0
     73a:	627b      	str	r3, [r7, #36]	; 0x24
     73c:	230a      	movs	r3, #10
     73e:	62bb      	str	r3, [r7, #40]	; 0x28
     740:	e03f      	b.n	7c2 <UARTvprintf+0x2ca>
     742:	683b      	ldr	r3, [r7, #0]
     744:	1d1a      	adds	r2, r3, #4
     746:	603a      	str	r2, [r7, #0]
     748:	681b      	ldr	r3, [r3, #0]
     74a:	61fb      	str	r3, [r7, #28]
     74c:	2300      	movs	r3, #0
     74e:	637b      	str	r3, [r7, #52]	; 0x34
     750:	e002      	b.n	758 <UARTvprintf+0x260>
     752:	6b7b      	ldr	r3, [r7, #52]	; 0x34
     754:	3301      	adds	r3, #1
     756:	637b      	str	r3, [r7, #52]	; 0x34
     758:	69fa      	ldr	r2, [r7, #28]
     75a:	6b7b      	ldr	r3, [r7, #52]	; 0x34
     75c:	4413      	add	r3, r2
     75e:	781b      	ldrb	r3, [r3, #0]
     760:	2b00      	cmp	r3, #0
     762:	d1f6      	bne.n	752 <UARTvprintf+0x25a>
     764:	6b79      	ldr	r1, [r7, #52]	; 0x34
     766:	69f8      	ldr	r0, [r7, #28]
     768:	f7ff fe7e 	bl	468 <UARTwrite>
     76c:	6afa      	ldr	r2, [r7, #44]	; 0x2c
     76e:	6b7b      	ldr	r3, [r7, #52]	; 0x34
     770:	429a      	cmp	r2, r3
     772:	f240 80b7 	bls.w	8e4 <UARTvprintf+0x3ec>
     776:	6afa      	ldr	r2, [r7, #44]	; 0x2c
     778:	6b7b      	ldr	r3, [r7, #52]	; 0x34
     77a:	1ad3      	subs	r3, r2, r3
     77c:	62fb      	str	r3, [r7, #44]	; 0x2c
     77e:	e003      	b.n	788 <UARTvprintf+0x290>
     780:	2101      	movs	r1, #1
     782:	4812      	ldr	r0, [pc, #72]	; (7cc <UARTvprintf+0x2d4>)
     784:	f7ff fe70 	bl	468 <UARTwrite>
     788:	6afb      	ldr	r3, [r7, #44]	; 0x2c
     78a:	1e5a      	subs	r2, r3, #1
     78c:	62fa      	str	r2, [r7, #44]	; 0x2c
     78e:	2b00      	cmp	r3, #0
     790:	d1f6      	bne.n	780 <UARTvprintf+0x288>
     792:	e0a7      	b.n	8e4 <UARTvprintf+0x3ec>
     794:	683b      	ldr	r3, [r7, #0]
     796:	1d1a      	adds	r2, r3, #4
     798:	603a      	str	r2, [r7, #0]
     79a:	681b      	ldr	r3, [r3, #0]
     79c:	61bb      	str	r3, [r7, #24]
     79e:	2300      	movs	r3, #0
     7a0:	633b      	str	r3, [r7, #48]	; 0x30
     7a2:	230a      	movs	r3, #10
     7a4:	62bb      	str	r3, [r7, #40]	; 0x28
     7a6:	2300      	movs	r3, #0
     7a8:	627b      	str	r3, [r7, #36]	; 0x24
     7aa:	e00a      	b.n	7c2 <UARTvprintf+0x2ca>
     7ac:	683b      	ldr	r3, [r7, #0]
     7ae:	1d1a      	adds	r2, r3, #4
     7b0:	603a      	str	r2, [r7, #0]
     7b2:	681b      	ldr	r3, [r3, #0]
     7b4:	61bb      	str	r3, [r7, #24]
     7b6:	2300      	movs	r3, #0
     7b8:	633b      	str	r3, [r7, #48]	; 0x30
     7ba:	2310      	movs	r3, #16
     7bc:	62bb      	str	r3, [r7, #40]	; 0x28
     7be:	2300      	movs	r3, #0
     7c0:	627b      	str	r3, [r7, #36]	; 0x24
     7c2:	2301      	movs	r3, #1
     7c4:	637b      	str	r3, [r7, #52]	; 0x34
     7c6:	e00b      	b.n	7e0 <UARTvprintf+0x2e8>
     7c8:	00001b54 	andeq	r1, r0, r4, asr fp
     7cc:	00001b80 	andeq	r1, r0, r0, lsl #23
     7d0:	6b7b      	ldr	r3, [r7, #52]	; 0x34
     7d2:	6aba      	ldr	r2, [r7, #40]	; 0x28
     7d4:	fb02 f303 	mul.w	r3, r2, r3
     7d8:	637b      	str	r3, [r7, #52]	; 0x34
     7da:	6afb      	ldr	r3, [r7, #44]	; 0x2c
     7dc:	3b01      	subs	r3, #1
     7de:	62fb      	str	r3, [r7, #44]	; 0x2c
     7e0:	6b7b      	ldr	r3, [r7, #52]	; 0x34
     7e2:	6aba      	ldr	r2, [r7, #40]	; 0x28
     7e4:	fb03 f202 	mul.w	r2, r3, r2
     7e8:	69bb      	ldr	r3, [r7, #24]
     7ea:	429a      	cmp	r2, r3
     7ec:	d809      	bhi.n	802 <UARTvprintf+0x30a>
     7ee:	6b7b      	ldr	r3, [r7, #52]	; 0x34
     7f0:	6aba      	ldr	r2, [r7, #40]	; 0x28
     7f2:	fb03 f202 	mul.w	r2, r3, r2
     7f6:	6abb      	ldr	r3, [r7, #40]	; 0x28
     7f8:	fbb2 f3f3 	udiv	r3, r2, r3
     7fc:	6b7a      	ldr	r2, [r7, #52]	; 0x34
     7fe:	429a      	cmp	r2, r3
     800:	d0e6      	beq.n	7d0 <UARTvprintf+0x2d8>
     802:	6a7b      	ldr	r3, [r7, #36]	; 0x24
     804:	2b00      	cmp	r3, #0
     806:	d002      	beq.n	80e <UARTvprintf+0x316>
     808:	6afb      	ldr	r3, [r7, #44]	; 0x2c
     80a:	3b01      	subs	r3, #1
     80c:	62fb      	str	r3, [r7, #44]	; 0x2c
     80e:	6a7b      	ldr	r3, [r7, #36]	; 0x24
     810:	2b00      	cmp	r3, #0
     812:	d00e      	beq.n	832 <UARTvprintf+0x33a>
     814:	f897 3023 	ldrb.w	r3, [r7, #35]	; 0x23
     818:	2b30      	cmp	r3, #48	; 0x30
     81a:	d10a      	bne.n	832 <UARTvprintf+0x33a>
     81c:	6b3b      	ldr	r3, [r7, #48]	; 0x30
     81e:	1c5a      	adds	r2, r3, #1
     820:	633a      	str	r2, [r7, #48]	; 0x30
     822:	f107 0238 	add.w	r2, r7, #56	; 0x38
     826:	4413      	add	r3, r2
     828:	222d      	movs	r2, #45	; 0x2d
     82a:	f803 2c30 	strb.w	r2, [r3, #-48]
     82e:	2300      	movs	r3, #0
     830:	627b      	str	r3, [r7, #36]	; 0x24
     832:	6afb      	ldr	r3, [r7, #44]	; 0x2c
     834:	2b01      	cmp	r3, #1
     836:	d916      	bls.n	866 <UARTvprintf+0x36e>
     838:	6afb      	ldr	r3, [r7, #44]	; 0x2c
     83a:	2b0f      	cmp	r3, #15
     83c:	d813      	bhi.n	866 <UARTvprintf+0x36e>
     83e:	6afb      	ldr	r3, [r7, #44]	; 0x2c
     840:	3b01      	subs	r3, #1
     842:	62fb      	str	r3, [r7, #44]	; 0x2c
     844:	e00c      	b.n	860 <UARTvprintf+0x368>
     846:	6b3b      	ldr	r3, [r7, #48]	; 0x30
     848:	1c5a      	adds	r2, r3, #1
     84a:	633a      	str	r2, [r7, #48]	; 0x30
     84c:	f107 0238 	add.w	r2, r7, #56	; 0x38
     850:	4413      	add	r3, r2
     852:	f897 2023 	ldrb.w	r2, [r7, #35]	; 0x23
     856:	f803 2c30 	strb.w	r2, [r3, #-48]
     85a:	6afb      	ldr	r3, [r7, #44]	; 0x2c
     85c:	3b01      	subs	r3, #1
     85e:	62fb      	str	r3, [r7, #44]	; 0x2c
     860:	6afb      	ldr	r3, [r7, #44]	; 0x2c
     862:	2b00      	cmp	r3, #0
     864:	d1ef      	bne.n	846 <UARTvprintf+0x34e>
     866:	6a7b      	ldr	r3, [r7, #36]	; 0x24
     868:	2b00      	cmp	r3, #0
     86a:	d024      	beq.n	8b6 <UARTvprintf+0x3be>
     86c:	6b3b      	ldr	r3, [r7, #48]	; 0x30
     86e:	1c5a      	adds	r2, r3, #1
     870:	633a      	str	r2, [r7, #48]	; 0x30
     872:	f107 0238 	add.w	r2, r7, #56	; 0x38
     876:	4413      	add	r3, r2
     878:	222d      	movs	r2, #45	; 0x2d
     87a:	f803 2c30 	strb.w	r2, [r3, #-48]
     87e:	e01a      	b.n	8b6 <UARTvprintf+0x3be>
     880:	481d      	ldr	r0, [pc, #116]	; (8f8 <UARTvprintf+0x400>)
     882:	69ba      	ldr	r2, [r7, #24]
     884:	6b7b      	ldr	r3, [r7, #52]	; 0x34
     886:	fbb2 f3f3 	udiv	r3, r2, r3
     88a:	6aba      	ldr	r2, [r7, #40]	; 0x28
     88c:	fbb3 f2f2 	udiv	r2, r3, r2
     890:	6ab9      	ldr	r1, [r7, #40]	; 0x28
     892:	fb01 f202 	mul.w	r2, r1, r2
     896:	1a9b      	subs	r3, r3, r2
     898:	18c2      	adds	r2, r0, r3
     89a:	6b3b      	ldr	r3, [r7, #48]	; 0x30
     89c:	1c59      	adds	r1, r3, #1
     89e:	6339      	str	r1, [r7, #48]	; 0x30
     8a0:	7812      	ldrb	r2, [r2, #0]
     8a2:	f107 0138 	add.w	r1, r7, #56	; 0x38
     8a6:	440b      	add	r3, r1
     8a8:	f803 2c30 	strb.w	r2, [r3, #-48]
     8ac:	6b7a      	ldr	r2, [r7, #52]	; 0x34
     8ae:	6abb      	ldr	r3, [r7, #40]	; 0x28
     8b0:	fbb2 f3f3 	udiv	r3, r2, r3
     8b4:	637b      	str	r3, [r7, #52]	; 0x34
     8b6:	6b7b      	ldr	r3, [r7, #52]	; 0x34
     8b8:	2b00      	cmp	r3, #0
     8ba:	d1e1      	bne.n	880 <UARTvprintf+0x388>
     8bc:	f107 0308 	add.w	r3, r7, #8
     8c0:	6b39      	ldr	r1, [r7, #48]	; 0x30
     8c2:	4618      	mov	r0, r3
     8c4:	f7ff fdd0 	bl	468 <UARTwrite>
     8c8:	e00c      	b.n	8e4 <UARTvprintf+0x3ec>
     8ca:	687b      	ldr	r3, [r7, #4]
     8cc:	3b01      	subs	r3, #1
     8ce:	2101      	movs	r1, #1
     8d0:	4618      	mov	r0, r3
     8d2:	f7ff fdc9 	bl	468 <UARTwrite>
     8d6:	e005      	b.n	8e4 <UARTvprintf+0x3ec>
     8d8:	2105      	movs	r1, #5
     8da:	4808      	ldr	r0, [pc, #32]	; (8fc <UARTvprintf+0x404>)
     8dc:	f7ff fdc4 	bl	468 <UARTwrite>
     8e0:	e000      	b.n	8e4 <UARTvprintf+0x3ec>
     8e2:	bf00      	nop
     8e4:	687b      	ldr	r3, [r7, #4]
     8e6:	781b      	ldrb	r3, [r3, #0]
     8e8:	2b00      	cmp	r3, #0
     8ea:	f47f ae14 	bne.w	516 <UARTvprintf+0x1e>
     8ee:	bf00      	nop
     8f0:	bf00      	nop
     8f2:	3738      	adds	r7, #56	; 0x38
     8f4:	46bd      	mov	sp, r7
     8f6:	bd80      	pop	{r7, pc}
     8f8:	00001b40 	andeq	r1, r0, r0, asr #22
     8fc:	00001b84 	andeq	r1, r0, r4, lsl #23

00000900 <UARTprintf>:
     900:	b40f      	push	{r0, r1, r2, r3}
     902:	b580      	push	{r7, lr}
     904:	b082      	sub	sp, #8
     906:	af00      	add	r7, sp, #0
     908:	f107 0314 	add.w	r3, r7, #20
     90c:	607b      	str	r3, [r7, #4]
     90e:	6879      	ldr	r1, [r7, #4]
     910:	6938      	ldr	r0, [r7, #16]
     912:	f7ff fdf1 	bl	4f8 <UARTvprintf>
     916:	bf00      	nop
     918:	3708      	adds	r7, #8
     91a:	46bd      	mov	sp, r7
     91c:	e8bd 4080 	ldmia.w	sp!, {r7, lr}
     920:	b004      	add	sp, #16
     922:	4770      	bx	lr

00000924 <GPIODirModeSet>:
     924:	f8d0 3400 	ldr.w	r3, [r0, #1024]	; 0x400
     928:	f012 0f01 	tst.w	r2, #1
     92c:	bf14      	ite	ne
     92e:	430b      	orrne	r3, r1
     930:	438b      	biceq	r3, r1
     932:	f8c0 3400 	str.w	r3, [r0, #1024]	; 0x400
     936:	f8d0 3420 	ldr.w	r3, [r0, #1056]	; 0x420
     93a:	0792      	lsls	r2, r2, #30
     93c:	bf4c      	ite	mi
     93e:	4319      	orrmi	r1, r3
     940:	ea23 0101 	bicpl.w	r1, r3, r1
     944:	f8c0 1420 	str.w	r1, [r0, #1056]	; 0x420
     948:	4770      	bx	lr
	...

0000094c <GPIOPadConfigSet>:
     94c:	b5f0      	push	{r4, r5, r6, r7, lr}
     94e:	4c4e      	ldr	r4, [pc, #312]	; (a88 <GPIOPadConfigSet+0x13c>)
     950:	6825      	ldr	r5, [r4, #0]
     952:	4c4e      	ldr	r4, [pc, #312]	; (a8c <GPIOPadConfigSet+0x140>)
     954:	402c      	ands	r4, r5
     956:	4d4e      	ldr	r5, [pc, #312]	; (a90 <GPIOPadConfigSet+0x144>)
     958:	42ac      	cmp	r4, r5
     95a:	d106      	bne.n	96a <GPIOPadConfigSet+0x1e>
     95c:	07d5      	lsls	r5, r2, #31
     95e:	d421      	bmi.n	9a4 <GPIOPadConfigSet+0x58>
     960:	f8d0 4500 	ldr.w	r4, [r0, #1280]	; 0x500
     964:	ea24 0401 	bic.w	r4, r4, r1
     968:	e01f      	b.n	9aa <GPIOPadConfigSet+0x5e>
     96a:	f3c2 1741 	ubfx	r7, r2, #5, #2
     96e:	2500      	movs	r5, #0
     970:	f04f 0c03 	mov.w	ip, #3
     974:	fa41 f405 	asr.w	r4, r1, r5
     978:	07e4      	lsls	r4, r4, #31
     97a:	d50f      	bpl.n	99c <GPIOPadConfigSet+0x50>
     97c:	f8d0 6fc4 	ldr.w	r6, [r0, #4036]	; 0xfc4
     980:	006c      	lsls	r4, r5, #1
     982:	fa0c fe04 	lsl.w	lr, ip, r4
     986:	ea26 060e 	bic.w	r6, r6, lr
     98a:	f8c0 6fc4 	str.w	r6, [r0, #4036]	; 0xfc4
     98e:	f8d0 6fc4 	ldr.w	r6, [r0, #4036]	; 0xfc4
     992:	fa07 f404 	lsl.w	r4, r7, r4
     996:	4334      	orrs	r4, r6
     998:	f8c0 4fc4 	str.w	r4, [r0, #4036]	; 0xfc4
     99c:	3501      	adds	r5, #1
     99e:	2d08      	cmp	r5, #8
     9a0:	d1e8      	bne.n	974 <GPIOPadConfigSet+0x28>
     9a2:	e7db      	b.n	95c <GPIOPadConfigSet+0x10>
     9a4:	f8d0 4500 	ldr.w	r4, [r0, #1280]	; 0x500
     9a8:	430c      	orrs	r4, r1
     9aa:	f8c0 4500 	str.w	r4, [r0, #1280]	; 0x500
     9ae:	f8d0 4504 	ldr.w	r4, [r0, #1284]	; 0x504
     9b2:	0797      	lsls	r7, r2, #30
     9b4:	bf4c      	ite	mi
     9b6:	430c      	orrmi	r4, r1
     9b8:	438c      	bicpl	r4, r1
     9ba:	f8c0 4504 	str.w	r4, [r0, #1284]	; 0x504
     9be:	f8d0 4508 	ldr.w	r4, [r0, #1288]	; 0x508
     9c2:	0756      	lsls	r6, r2, #29
     9c4:	bf4c      	ite	mi
     9c6:	430c      	orrmi	r4, r1
     9c8:	438c      	bicpl	r4, r1
     9ca:	f8c0 4508 	str.w	r4, [r0, #1288]	; 0x508
     9ce:	f8d0 4518 	ldr.w	r4, [r0, #1304]	; 0x518
     9d2:	0715      	lsls	r5, r2, #28
     9d4:	bf4c      	ite	mi
     9d6:	430c      	orrmi	r4, r1
     9d8:	438c      	bicpl	r4, r1
     9da:	f8c0 4518 	str.w	r4, [r0, #1304]	; 0x518
     9de:	4c2a      	ldr	r4, [pc, #168]	; (a88 <GPIOPadConfigSet+0x13c>)
     9e0:	6825      	ldr	r5, [r4, #0]
     9e2:	4c2a      	ldr	r4, [pc, #168]	; (a8c <GPIOPadConfigSet+0x140>)
     9e4:	402c      	ands	r4, r5
     9e6:	4d2a      	ldr	r5, [pc, #168]	; (a90 <GPIOPadConfigSet+0x144>)
     9e8:	42ac      	cmp	r4, r5
     9ea:	d008      	beq.n	9fe <GPIOPadConfigSet+0xb2>
     9ec:	f012 0f10 	tst.w	r2, #16
     9f0:	f8d0 253c 	ldr.w	r2, [r0, #1340]	; 0x53c
     9f4:	bf14      	ite	ne
     9f6:	430a      	orrne	r2, r1
     9f8:	438a      	biceq	r2, r1
     9fa:	f8c0 253c 	str.w	r2, [r0, #1340]	; 0x53c
     9fe:	f8d0 250c 	ldr.w	r2, [r0, #1292]	; 0x50c
     a02:	07dc      	lsls	r4, r3, #31
     a04:	bf4c      	ite	mi
     a06:	430a      	orrmi	r2, r1
     a08:	438a      	bicpl	r2, r1
     a0a:	f8c0 250c 	str.w	r2, [r0, #1292]	; 0x50c
     a0e:	f8d0 2510 	ldr.w	r2, [r0, #1296]	; 0x510
     a12:	079f      	lsls	r7, r3, #30
     a14:	bf4c      	ite	mi
     a16:	430a      	orrmi	r2, r1
     a18:	438a      	bicpl	r2, r1
     a1a:	f8c0 2510 	str.w	r2, [r0, #1296]	; 0x510
     a1e:	f8d0 2514 	ldr.w	r2, [r0, #1300]	; 0x514
     a22:	075e      	lsls	r6, r3, #29
     a24:	bf4c      	ite	mi
     a26:	430a      	orrmi	r2, r1
     a28:	438a      	bicpl	r2, r1
     a2a:	f8c0 2514 	str.w	r2, [r0, #1300]	; 0x514
     a2e:	f8d0 251c 	ldr.w	r2, [r0, #1308]	; 0x51c
     a32:	071d      	lsls	r5, r3, #28
     a34:	bf4c      	ite	mi
     a36:	430a      	orrmi	r2, r1
     a38:	438a      	bicpl	r2, r1
     a3a:	f8c0 251c 	str.w	r2, [r0, #1308]	; 0x51c
     a3e:	4a12      	ldr	r2, [pc, #72]	; (a88 <GPIOPadConfigSet+0x13c>)
     a40:	6814      	ldr	r4, [r2, #0]
     a42:	4a12      	ldr	r2, [pc, #72]	; (a8c <GPIOPadConfigSet+0x140>)
     a44:	4022      	ands	r2, r4
     a46:	4c12      	ldr	r4, [pc, #72]	; (a90 <GPIOPadConfigSet+0x144>)
     a48:	42a2      	cmp	r2, r4
     a4a:	d010      	beq.n	a6e <GPIOPadConfigSet+0x122>
     a4c:	f8d0 2544 	ldr.w	r2, [r0, #1348]	; 0x544
     a50:	059c      	lsls	r4, r3, #22
     a52:	bf4c      	ite	mi
     a54:	430a      	orrmi	r2, r1
     a56:	438a      	bicpl	r2, r1
     a58:	f8c0 2544 	str.w	r2, [r0, #1348]	; 0x544
     a5c:	f8d0 2540 	ldr.w	r2, [r0, #1344]	; 0x540
     a60:	f413 7f40 	tst.w	r3, #768	; 0x300
     a64:	bf14      	ite	ne
     a66:	430a      	orrne	r2, r1
     a68:	438a      	biceq	r2, r1
     a6a:	f8c0 2540 	str.w	r2, [r0, #1344]	; 0x540
     a6e:	b92b      	cbnz	r3, a7c <GPIOPadConfigSet+0x130>
     a70:	f8d0 3528 	ldr.w	r3, [r0, #1320]	; 0x528
     a74:	4319      	orrs	r1, r3
     a76:	f8c0 1528 	str.w	r1, [r0, #1320]	; 0x528
     a7a:	bdf0      	pop	{r4, r5, r6, r7, pc}
     a7c:	f8d0 3528 	ldr.w	r3, [r0, #1320]	; 0x528
     a80:	ea23 0101 	bic.w	r1, r3, r1
     a84:	e7f7      	b.n	a76 <GPIOPadConfigSet+0x12a>
     a86:	bf00      	nop
     a88:	400fe000 	andmi	lr, pc, r0
     a8c:	70ff0000 	rscsvc	r0, pc, r0
     a90:	10050000 	andne	r0, r5, r0

00000a94 <GPIOPinTypeComparatorOutput>:
     a94:	b510      	push	{r4, lr}
     a96:	2202      	movs	r2, #2
     a98:	460c      	mov	r4, r1
     a9a:	f7ff ff43 	bl	924 <GPIODirModeSet>
     a9e:	4621      	mov	r1, r4
     aa0:	2308      	movs	r3, #8
     aa2:	e8bd 4010 	ldmia.w	sp!, {r4, lr}
     aa6:	2201      	movs	r2, #1
     aa8:	f7ff bf50 	b.w	94c <GPIOPadConfigSet>

00000aac <GPIOPinTypeUART>:
     aac:	f7ff bff2 	b.w	a94 <GPIOPinTypeComparatorOutput>

00000ab0 <GPIOPinConfigure>:
     ab0:	4b0e      	ldr	r3, [pc, #56]	; (aec <GPIOPinConfigure+0x3c>)
     ab2:	f3c0 4107 	ubfx	r1, r0, #16, #8
     ab6:	b510      	push	{r4, lr}
     ab8:	2201      	movs	r2, #1
     aba:	6edc      	ldr	r4, [r3, #108]	; 0x6c
     abc:	408a      	lsls	r2, r1
     abe:	004b      	lsls	r3, r1, #1
     ac0:	4222      	tst	r2, r4
     ac2:	bf18      	it	ne
     ac4:	3301      	addne	r3, #1
     ac6:	4a0a      	ldr	r2, [pc, #40]	; (af0 <GPIOPinConfigure+0x40>)
     ac8:	f852 2023 	ldr.w	r2, [r2, r3, lsl #2]
     acc:	f3c0 2407 	ubfx	r4, r0, #8, #8
     ad0:	f8d2 352c 	ldr.w	r3, [r2, #1324]	; 0x52c
     ad4:	210f      	movs	r1, #15
     ad6:	40a1      	lsls	r1, r4
     ad8:	f000 000f 	and.w	r0, r0, #15
     adc:	ea23 0301 	bic.w	r3, r3, r1
     ae0:	40a0      	lsls	r0, r4
     ae2:	4318      	orrs	r0, r3
     ae4:	f8c2 052c 	str.w	r0, [r2, #1324]	; 0x52c
     ae8:	bd10      	pop	{r4, pc}
     aea:	bf00      	nop
     aec:	400fe000 	andmi	lr, pc, r0
     af0:	00001ba4 	andeq	r1, r0, r4, lsr #23

00000af4 <IntMasterEnable>:
     af4:	b508      	push	{r3, lr}
     af6:	f000 f9a4 	bl	e42 <CPUcpsie>
     afa:	3800      	subs	r0, #0
     afc:	bf18      	it	ne
     afe:	2001      	movne	r0, #1
     b00:	bd08      	pop	{r3, pc}
	...

00000b04 <SysCtlPeripheralPresent>:
     b04:	4b07      	ldr	r3, [pc, #28]	; (b24 <SysCtlPeripheralPresent+0x20>)
     b06:	f3c0 2207 	ubfx	r2, r0, #8, #8
     b0a:	0080      	lsls	r0, r0, #2
     b0c:	4413      	add	r3, r2
     b0e:	f400 707f 	and.w	r0, r0, #1020	; 0x3fc
     b12:	ea40 1043 	orr.w	r0, r0, r3, lsl #5
     b16:	f040 4084 	orr.w	r0, r0, #1107296256	; 0x42000000
     b1a:	6800      	ldr	r0, [r0, #0]
     b1c:	3800      	subs	r0, #0
     b1e:	bf18      	it	ne
     b20:	2001      	movne	r0, #1
     b22:	4770      	bx	lr
     b24:	400fe300 	andmi	lr, pc, r0, lsl #6

00000b28 <SysCtlPeripheralEnable>:
     b28:	4b06      	ldr	r3, [pc, #24]	; (b44 <SysCtlPeripheralEnable+0x1c>)
     b2a:	f3c0 2207 	ubfx	r2, r0, #8, #8
     b2e:	0080      	lsls	r0, r0, #2
     b30:	4413      	add	r3, r2
     b32:	f400 707f 	and.w	r0, r0, #1020	; 0x3fc
     b36:	ea40 1043 	orr.w	r0, r0, r3, lsl #5
     b3a:	f040 4084 	orr.w	r0, r0, #1107296256	; 0x42000000
     b3e:	2301      	movs	r3, #1
     b40:	6003      	str	r3, [r0, #0]
     b42:	4770      	bx	lr
     b44:	400fe600 	andmi	lr, pc, r0, lsl #12

00000b48 <SysCtlDelay>:
     b48:	3801      	subs	r0, #1
     b4a:	f47f affd 	bne.w	b48 <SysCtlDelay>
     b4e:	4770      	bx	lr

00000b50 <SysCtlClockSet>:
     b50:	493a      	ldr	r1, [pc, #232]	; (c3c <SysCtlClockSet+0xec>)
     b52:	b430      	push	{r4, r5}
     b54:	6e0c      	ldr	r4, [r1, #96]	; 0x60
     b56:	6f0b      	ldr	r3, [r1, #112]	; 0x70
     b58:	f424 0280 	bic.w	r2, r4, #4194304	; 0x400000
     b5c:	f443 6500 	orr.w	r5, r3, #2048	; 0x800
     b60:	f442 6200 	orr.w	r2, r2, #2048	; 0x800
     b64:	660a      	str	r2, [r1, #96]	; 0x60
     b66:	670d      	str	r5, [r1, #112]	; 0x70
     b68:	07e5      	lsls	r5, r4, #31
     b6a:	d50d      	bpl.n	b88 <SysCtlClockSet+0x38>
     b6c:	07c4      	lsls	r4, r0, #31
     b6e:	d40b      	bmi.n	b88 <SysCtlClockSet+0x38>
     b70:	f060 0401 	orn	r4, r0, #1
     b74:	4022      	ands	r2, r4
     b76:	f44f 7480 	mov.w	r4, #256	; 0x100
     b7a:	658c      	str	r4, [r1, #88]	; 0x58
     b7c:	660a      	str	r2, [r1, #96]	; 0x60
     b7e:	f44f 2400 	mov.w	r4, #524288	; 0x80000
     b82:	6d0d      	ldr	r5, [r1, #80]	; 0x50
     b84:	05ed      	lsls	r5, r5, #23
     b86:	d555      	bpl.n	c34 <SysCtlClockSet+0xe4>
     b88:	f422 61fe 	bic.w	r1, r2, #2032	; 0x7f0
     b8c:	f400 62fe 	and.w	r2, r0, #2032	; 0x7f0
     b90:	430a      	orrs	r2, r1
     b92:	492b      	ldr	r1, [pc, #172]	; (c40 <SysCtlClockSet+0xf0>)
     b94:	f023 4300 	bic.w	r3, r3, #2147483648	; 0x80000000
     b98:	4001      	ands	r1, r0
     b9a:	f023 0370 	bic.w	r3, r3, #112	; 0x70
     b9e:	430b      	orrs	r3, r1
     ba0:	00c1      	lsls	r1, r0, #3
     ba2:	f001 0140 	and.w	r1, r1, #64	; 0x40
     ba6:	430b      	orrs	r3, r1
     ba8:	4924      	ldr	r1, [pc, #144]	; (c3c <SysCtlClockSet+0xec>)
     baa:	f443 6400 	orr.w	r4, r3, #2048	; 0x800
     bae:	660a      	str	r2, [r1, #96]	; 0x60
     bb0:	f423 5300 	bic.w	r3, r3, #8192	; 0x2000
     bb4:	670c      	str	r4, [r1, #112]	; 0x70
     bb6:	f422 5200 	bic.w	r2, r2, #8192	; 0x2000
     bba:	f400 5400 	and.w	r4, r0, #8192	; 0x2000
     bbe:	4322      	orrs	r2, r4
     bc0:	4323      	orrs	r3, r4
     bc2:	2440      	movs	r4, #64	; 0x40
     bc4:	658c      	str	r4, [r1, #88]	; 0x58
     bc6:	f453 6400 	orrs.w	r4, r3, #2048	; 0x800
     bca:	bf55      	itete	pl
     bcc:	660a      	strpl	r2, [r1, #96]	; 0x60
     bce:	670c      	strmi	r4, [r1, #112]	; 0x70
     bd0:	670c      	strpl	r4, [r1, #112]	; 0x70
     bd2:	660a      	strmi	r2, [r1, #96]	; 0x60
     bd4:	491b      	ldr	r1, [pc, #108]	; (c44 <SysCtlClockSet+0xf4>)
     bd6:	f022 62f8 	bic.w	r2, r2, #130023424	; 0x7c00000
     bda:	4001      	ands	r1, r0
     bdc:	f022 0201 	bic.w	r2, r2, #1
     be0:	f023 53fc 	bic.w	r3, r3, #528482304	; 0x1f800000
     be4:	430a      	orrs	r2, r1
     be6:	f443 6300 	orr.w	r3, r3, #2048	; 0x800
     bea:	f000 51fc 	and.w	r1, r0, #528482304	; 0x1f800000
     bee:	430b      	orrs	r3, r1
     bf0:	0041      	lsls	r1, r0, #1
     bf2:	bf41      	itttt	mi
     bf4:	4914      	ldrmi	r1, [pc, #80]	; (c48 <SysCtlClockSet+0xf8>)
     bf6:	f423 0380 	bicmi.w	r3, r3, #4194304	; 0x400000
     bfa:	4001      	andmi	r1, r0
     bfc:	f442 0280 	orrmi.w	r2, r2, #4194304	; 0x400000
     c00:	bf4c      	ite	mi
     c02:	430b      	orrmi	r3, r1
     c04:	f023 4380 	bicpl.w	r3, r3, #1073741824	; 0x40000000
     c08:	0505      	lsls	r5, r0, #20
     c0a:	d40c      	bmi.n	c26 <SysCtlClockSet+0xd6>
     c0c:	480b      	ldr	r0, [pc, #44]	; (c3c <SysCtlClockSet+0xec>)
     c0e:	f44f 4100 	mov.w	r1, #32768	; 0x8000
     c12:	f8d0 4168 	ldr.w	r4, [r0, #360]	; 0x168
     c16:	07e4      	lsls	r4, r4, #31
     c18:	d401      	bmi.n	c1e <SysCtlClockSet+0xce>
     c1a:	3901      	subs	r1, #1
     c1c:	d1f9      	bne.n	c12 <SysCtlClockSet+0xc2>
     c1e:	f422 6200 	bic.w	r2, r2, #2048	; 0x800
     c22:	f423 6300 	bic.w	r3, r3, #2048	; 0x800
     c26:	4905      	ldr	r1, [pc, #20]	; (c3c <SysCtlClockSet+0xec>)
     c28:	bc30      	pop	{r4, r5}
     c2a:	660a      	str	r2, [r1, #96]	; 0x60
     c2c:	2010      	movs	r0, #16
     c2e:	670b      	str	r3, [r1, #112]	; 0x70
     c30:	f7ff bf8a 	b.w	b48 <SysCtlDelay>
     c34:	3c01      	subs	r4, #1
     c36:	d1a4      	bne.n	b82 <SysCtlClockSet+0x32>
     c38:	bc30      	pop	{r4, r5}
     c3a:	4770      	bx	lr
     c3c:	400fe000 	andmi	lr, pc, r0
     c40:	80000030 	andhi	r0, r0, r0, lsr r0
     c44:	07c00001 	strbeq	r0, [r0, r1]
     c48:	40400000 	submi	r0, r0, r0

00000c4c <SysCtlClockGet>:
     c4c:	4b48      	ldr	r3, [pc, #288]	; (d70 <SysCtlClockGet+0x124>)
     c4e:	6e19      	ldr	r1, [r3, #96]	; 0x60
     c50:	6f1b      	ldr	r3, [r3, #112]	; 0x70
     c52:	2b00      	cmp	r3, #0
     c54:	b570      	push	{r4, r5, r6, lr}
     c56:	da12      	bge.n	c7e <SysCtlClockGet+0x32>
     c58:	f003 0270 	and.w	r2, r3, #112	; 0x70
     c5c:	2a20      	cmp	r2, #32
     c5e:	f000 8082 	beq.w	d66 <SysCtlClockGet+0x11a>
     c62:	d805      	bhi.n	c70 <SysCtlClockGet+0x24>
     c64:	2a00      	cmp	r2, #0
     c66:	d057      	beq.n	d18 <SysCtlClockGet+0xcc>
     c68:	2a10      	cmp	r2, #16
     c6a:	d05f      	beq.n	d2c <SysCtlClockGet+0xe0>
     c6c:	2000      	movs	r0, #0
     c6e:	bd70      	pop	{r4, r5, r6, pc}
     c70:	2a30      	cmp	r2, #48	; 0x30
     c72:	d07a      	beq.n	d6a <SysCtlClockGet+0x11e>
     c74:	2a70      	cmp	r2, #112	; 0x70
     c76:	d1f9      	bne.n	c6c <SysCtlClockGet+0x20>
     c78:	f44f 4000 	mov.w	r0, #32768	; 0x8000
     c7c:	e053      	b.n	d26 <SysCtlClockGet+0xda>
     c7e:	f001 0230 	and.w	r2, r1, #48	; 0x30
     c82:	2a20      	cmp	r2, #32
     c84:	d06d      	beq.n	d62 <SysCtlClockGet+0x116>
     c86:	d842      	bhi.n	d0e <SysCtlClockGet+0xc2>
     c88:	2a00      	cmp	r2, #0
     c8a:	d045      	beq.n	d18 <SysCtlClockGet+0xcc>
     c8c:	2a10      	cmp	r2, #16
     c8e:	d1ed      	bne.n	c6c <SysCtlClockGet+0x20>
     c90:	4838      	ldr	r0, [pc, #224]	; (d74 <SysCtlClockGet+0x128>)
     c92:	f411 6f00 	tst.w	r1, #2048	; 0x800
     c96:	d152      	bne.n	d3e <SysCtlClockGet+0xf2>
     c98:	4d35      	ldr	r5, [pc, #212]	; (d70 <SysCtlClockGet+0x124>)
     c9a:	f8d5 4160 	ldr.w	r4, [r5, #352]	; 0x160
     c9e:	f8d5 2164 	ldr.w	r2, [r5, #356]	; 0x164
     ca2:	f3c2 2604 	ubfx	r6, r2, #8, #5
     ca6:	f002 021f 	and.w	r2, r2, #31
     caa:	3201      	adds	r2, #1
     cac:	fb06 2202 	mla	r2, r6, r2, r2
     cb0:	0052      	lsls	r2, r2, #1
     cb2:	fbb0 f0f2 	udiv	r0, r0, r2
     cb6:	f3c4 0209 	ubfx	r2, r4, #0, #10
     cba:	f3c4 2489 	ubfx	r4, r4, #10, #10
     cbe:	4344      	muls	r4, r0
     cc0:	0aa4      	lsrs	r4, r4, #10
     cc2:	fb00 4002 	mla	r0, r0, r2, r4
     cc6:	692a      	ldr	r2, [r5, #16]
     cc8:	f402 4270 	and.w	r2, r2, #61440	; 0xf000
     ccc:	f5b2 4f80 	cmp.w	r2, #16384	; 0x4000
     cd0:	f441 0180 	orr.w	r1, r1, #4194304	; 0x400000
     cd4:	d036      	beq.n	d44 <SysCtlClockGet+0xf8>
     cd6:	d82b      	bhi.n	d30 <SysCtlClockGet+0xe4>
     cd8:	f5b2 5f00 	cmp.w	r2, #8192	; 0x2000
     cdc:	d034      	beq.n	d48 <SysCtlClockGet+0xfc>
     cde:	f5b2 5f40 	cmp.w	r2, #12288	; 0x3000
     ce2:	4a25      	ldr	r2, [pc, #148]	; (d78 <SysCtlClockGet+0x12c>)
     ce4:	bf18      	it	ne
     ce6:	f04f 32ff 	movne.w	r2, #4294967295
     cea:	024d      	lsls	r5, r1, #9
     cec:	d50b      	bpl.n	d06 <SysCtlClockGet+0xba>
     cee:	2b00      	cmp	r3, #0
     cf0:	da31      	bge.n	d56 <SysCtlClockGet+0x10a>
     cf2:	005c      	lsls	r4, r3, #1
     cf4:	d52c      	bpl.n	d50 <SysCtlClockGet+0x104>
     cf6:	0519      	lsls	r1, r3, #20
     cf8:	d42a      	bmi.n	d50 <SysCtlClockGet+0x104>
     cfa:	0040      	lsls	r0, r0, #1
     cfc:	f3c3 5386 	ubfx	r3, r3, #22, #7
     d00:	3301      	adds	r3, #1
     d02:	fbb0 f0f3 	udiv	r0, r0, r3
     d06:	4290      	cmp	r0, r2
     d08:	bf28      	it	cs
     d0a:	4610      	movcs	r0, r2
     d0c:	e7af      	b.n	c6e <SysCtlClockGet+0x22>
     d0e:	2a30      	cmp	r2, #48	; 0x30
     d10:	d1ac      	bne.n	c6c <SysCtlClockGet+0x20>
     d12:	f247 5030 	movw	r0, #30000	; 0x7530
     d16:	e7bc      	b.n	c92 <SysCtlClockGet+0x46>
     d18:	4a18      	ldr	r2, [pc, #96]	; (d7c <SysCtlClockGet+0x130>)
     d1a:	f3c1 1084 	ubfx	r0, r1, #6, #5
     d1e:	2b00      	cmp	r3, #0
     d20:	f852 0020 	ldr.w	r0, [r2, r0, lsl #2]
     d24:	dab5      	bge.n	c92 <SysCtlClockGet+0x46>
     d26:	f413 6f00 	tst.w	r3, #2048	; 0x800
     d2a:	e7b4      	b.n	c96 <SysCtlClockGet+0x4a>
     d2c:	4811      	ldr	r0, [pc, #68]	; (d74 <SysCtlClockGet+0x128>)
     d2e:	e7fa      	b.n	d26 <SysCtlClockGet+0xda>
     d30:	f5b2 4fe0 	cmp.w	r2, #28672	; 0x7000
     d34:	d00a      	beq.n	d4c <SysCtlClockGet+0x100>
     d36:	f5b2 4f10 	cmp.w	r2, #36864	; 0x9000
     d3a:	4a11      	ldr	r2, [pc, #68]	; (d80 <SysCtlClockGet+0x134>)
     d3c:	e7d2      	b.n	ce4 <SysCtlClockGet+0x98>
     d3e:	f04f 32ff 	mov.w	r2, #4294967295
     d42:	e7d2      	b.n	cea <SysCtlClockGet+0x9e>
     d44:	4a0f      	ldr	r2, [pc, #60]	; (d84 <SysCtlClockGet+0x138>)
     d46:	e7d0      	b.n	cea <SysCtlClockGet+0x9e>
     d48:	4a0f      	ldr	r2, [pc, #60]	; (d88 <SysCtlClockGet+0x13c>)
     d4a:	e7ce      	b.n	cea <SysCtlClockGet+0x9e>
     d4c:	4a0f      	ldr	r2, [pc, #60]	; (d8c <SysCtlClockGet+0x140>)
     d4e:	e7cc      	b.n	cea <SysCtlClockGet+0x9e>
     d50:	f3c3 53c5 	ubfx	r3, r3, #23, #6
     d54:	e7d4      	b.n	d00 <SysCtlClockGet+0xb4>
     d56:	f3c1 51c3 	ubfx	r1, r1, #23, #4
     d5a:	3101      	adds	r1, #1
     d5c:	fbb0 f0f1 	udiv	r0, r0, r1
     d60:	e7d1      	b.n	d06 <SysCtlClockGet+0xba>
     d62:	480b      	ldr	r0, [pc, #44]	; (d90 <SysCtlClockGet+0x144>)
     d64:	e795      	b.n	c92 <SysCtlClockGet+0x46>
     d66:	480a      	ldr	r0, [pc, #40]	; (d90 <SysCtlClockGet+0x144>)
     d68:	e7dd      	b.n	d26 <SysCtlClockGet+0xda>
     d6a:	f247 5030 	movw	r0, #30000	; 0x7530
     d6e:	e7da      	b.n	d26 <SysCtlClockGet+0xda>
     d70:	400fe000 	andmi	lr, pc, r0
     d74:	00f42400 	rscseq	r2, r4, r0, lsl #8
     d78:	02faf080 	rscseq	pc, sl, #128	; 0x80
     d7c:	00001c34 	andeq	r1, r0, r4, lsr ip
     d80:	01312d00 	teqeq	r1, r0, lsl #26
     d84:	02625a00 	rsbeq	r5, r2, #0, 20
     d88:	04c4b400 	strbeq	fp, [r4], #1024	; 0x400
     d8c:	017d7840 	cmneq	sp, r0, asr #16
     d90:	003d0900 	eorseq	r0, sp, r0, lsl #18

00000d94 <SysTickEnable>:
     d94:	f04f 22e0 	mov.w	r2, #3758153728	; 0xe000e000
     d98:	6913      	ldr	r3, [r2, #16]
     d9a:	f043 0305 	orr.w	r3, r3, #5
     d9e:	6113      	str	r3, [r2, #16]
     da0:	4770      	bx	lr

00000da2 <SysTickIntEnable>:
     da2:	f04f 22e0 	mov.w	r2, #3758153728	; 0xe000e000
     da6:	6913      	ldr	r3, [r2, #16]
     da8:	f043 0302 	orr.w	r3, r3, #2
     dac:	6113      	str	r3, [r2, #16]
     dae:	4770      	bx	lr

00000db0 <SysTickPeriodSet>:
     db0:	f04f 23e0 	mov.w	r3, #3758153728	; 0xe000e000
     db4:	3801      	subs	r0, #1
     db6:	6158      	str	r0, [r3, #20]
     db8:	4770      	bx	lr

00000dba <UARTEnable>:
     dba:	6ac3      	ldr	r3, [r0, #44]	; 0x2c
     dbc:	f043 0310 	orr.w	r3, r3, #16
     dc0:	62c3      	str	r3, [r0, #44]	; 0x2c
     dc2:	6b03      	ldr	r3, [r0, #48]	; 0x30
     dc4:	f443 7340 	orr.w	r3, r3, #768	; 0x300
     dc8:	f043 0301 	orr.w	r3, r3, #1
     dcc:	6303      	str	r3, [r0, #48]	; 0x30
     dce:	4770      	bx	lr

00000dd0 <UARTDisable>:
     dd0:	6983      	ldr	r3, [r0, #24]
     dd2:	071b      	lsls	r3, r3, #28
     dd4:	d4fc      	bmi.n	dd0 <UARTDisable>
     dd6:	6ac3      	ldr	r3, [r0, #44]	; 0x2c
     dd8:	f023 0310 	bic.w	r3, r3, #16
     ddc:	62c3      	str	r3, [r0, #44]	; 0x2c
     dde:	6b03      	ldr	r3, [r0, #48]	; 0x30
     de0:	f423 7340 	bic.w	r3, r3, #768	; 0x300
     de4:	f023 0301 	bic.w	r3, r3, #1
     de8:	6303      	str	r3, [r0, #48]	; 0x30
     dea:	4770      	bx	lr

00000dec <UARTConfigSetExpClk>:
     dec:	b570      	push	{r4, r5, r6, lr}
     dee:	461e      	mov	r6, r3
     df0:	f7ff ffee 	bl	dd0 <UARTDisable>
     df4:	6b03      	ldr	r3, [r0, #48]	; 0x30
     df6:	ebb1 1f02 	cmp.w	r1, r2, lsl #4
     dfa:	bf34      	ite	cc
     dfc:	f043 0320 	orrcc.w	r3, r3, #32
     e00:	f023 0320 	biccs.w	r3, r3, #32
     e04:	ea4f 04c1 	mov.w	r4, r1, lsl #3
     e08:	bf38      	it	cc
     e0a:	0852      	lsrcc	r2, r2, #1
     e0c:	fbb4 f1f2 	udiv	r1, r4, r2
     e10:	f101 0101 	add.w	r1, r1, #1
     e14:	bf34      	ite	cc
     e16:	6303      	strcc	r3, [r0, #48]	; 0x30
     e18:	6303      	strcs	r3, [r0, #48]	; 0x30
     e1a:	09cb      	lsrs	r3, r1, #7
     e1c:	6243      	str	r3, [r0, #36]	; 0x24
     e1e:	f3c1 0145 	ubfx	r1, r1, #1, #6
     e22:	2300      	movs	r3, #0
     e24:	6281      	str	r1, [r0, #40]	; 0x28
     e26:	62c6      	str	r6, [r0, #44]	; 0x2c
     e28:	e8bd 4070 	ldmia.w	sp!, {r4, r5, r6, lr}
     e2c:	6183      	str	r3, [r0, #24]
     e2e:	f7ff bfc4 	b.w	dba <UARTEnable>

00000e32 <UARTCharPut>:
     e32:	6983      	ldr	r3, [r0, #24]
     e34:	069b      	lsls	r3, r3, #26
     e36:	d4fc      	bmi.n	e32 <UARTCharPut>
     e38:	6001      	str	r1, [r0, #0]
     e3a:	4770      	bx	lr

00000e3c <UARTClockSourceSet>:
     e3c:	f8c0 1fc8 	str.w	r1, [r0, #4040]	; 0xfc8
     e40:	4770      	bx	lr

00000e42 <CPUcpsie>:
     e42:	f3ef 8010 	mrs	r0, PRIMASK
     e46:	b662      	cpsie	i
     e48:	4770      	bx	lr
	...

00000e4c <USBPinInitialize>:
     e4c:	b480      	push	{r7}
     e4e:	b083      	sub	sp, #12
     e50:	af00      	add	r7, sp, #0
     e52:	4b21      	ldr	r3, [pc, #132]	; (ed8 <USBPinInitialize+0x8c>)
     e54:	681b      	ldr	r3, [r3, #0]
     e56:	4a20      	ldr	r2, [pc, #128]	; (ed8 <USBPinInitialize+0x8c>)
     e58:	f043 0308 	orr.w	r3, r3, #8
     e5c:	6013      	str	r3, [r2, #0]
     e5e:	2300      	movs	r3, #0
     e60:	71fb      	strb	r3, [r7, #7]
     e62:	e004      	b.n	e6e <USBPinInitialize+0x22>
     e64:	79fb      	ldrb	r3, [r7, #7]
     e66:	b2db      	uxtb	r3, r3
     e68:	3301      	adds	r3, #1
     e6a:	b2db      	uxtb	r3, r3
     e6c:	71fb      	strb	r3, [r7, #7]
     e6e:	79fb      	ldrb	r3, [r7, #7]
     e70:	b2db      	uxtb	r3, r3
     e72:	2b0f      	cmp	r3, #15
     e74:	d9f6      	bls.n	e64 <USBPinInitialize+0x18>
     e76:	4b19      	ldr	r3, [pc, #100]	; (edc <USBPinInitialize+0x90>)
     e78:	681b      	ldr	r3, [r3, #0]
     e7a:	4a18      	ldr	r2, [pc, #96]	; (edc <USBPinInitialize+0x90>)
     e7c:	f023 0330 	bic.w	r3, r3, #48	; 0x30
     e80:	6013      	str	r3, [r2, #0]
     e82:	4b17      	ldr	r3, [pc, #92]	; (ee0 <USBPinInitialize+0x94>)
     e84:	681b      	ldr	r3, [r3, #0]
     e86:	4a16      	ldr	r2, [pc, #88]	; (ee0 <USBPinInitialize+0x94>)
     e88:	f043 0330 	orr.w	r3, r3, #48	; 0x30
     e8c:	6013      	str	r3, [r2, #0]
     e8e:	4b15      	ldr	r3, [pc, #84]	; (ee4 <USBPinInitialize+0x98>)
     e90:	681b      	ldr	r3, [r3, #0]
     e92:	4a14      	ldr	r2, [pc, #80]	; (ee4 <USBPinInitialize+0x98>)
     e94:	f423 037f 	bic.w	r3, r3, #16711680	; 0xff0000
     e98:	6013      	str	r3, [r2, #0]
     e9a:	4b13      	ldr	r3, [pc, #76]	; (ee8 <USBPinInitialize+0x9c>)
     e9c:	681b      	ldr	r3, [r3, #0]
     e9e:	4a12      	ldr	r2, [pc, #72]	; (ee8 <USBPinInitialize+0x9c>)
     ea0:	f043 0330 	orr.w	r3, r3, #48	; 0x30
     ea4:	6013      	str	r3, [r2, #0]
     ea6:	4b11      	ldr	r3, [pc, #68]	; (eec <USBPinInitialize+0xa0>)
     ea8:	681b      	ldr	r3, [r3, #0]
     eaa:	4a10      	ldr	r2, [pc, #64]	; (eec <USBPinInitialize+0xa0>)
     eac:	f023 0330 	bic.w	r3, r3, #48	; 0x30
     eb0:	6013      	str	r3, [r2, #0]
     eb2:	4b0f      	ldr	r3, [pc, #60]	; (ef0 <USBPinInitialize+0xa4>)
     eb4:	681b      	ldr	r3, [r3, #0]
     eb6:	4a0e      	ldr	r2, [pc, #56]	; (ef0 <USBPinInitialize+0xa4>)
     eb8:	f023 0330 	bic.w	r3, r3, #48	; 0x30
     ebc:	6013      	str	r3, [r2, #0]
     ebe:	4b0d      	ldr	r3, [pc, #52]	; (ef4 <USBPinInitialize+0xa8>)
     ec0:	681b      	ldr	r3, [r3, #0]
     ec2:	4a0c      	ldr	r2, [pc, #48]	; (ef4 <USBPinInitialize+0xa8>)
     ec4:	f043 0330 	orr.w	r3, r3, #48	; 0x30
     ec8:	6013      	str	r3, [r2, #0]
     eca:	bf00      	nop
     ecc:	370c      	adds	r7, #12
     ece:	46bd      	mov	sp, r7
     ed0:	f85d 7b04 	ldr.w	r7, [sp], #4
     ed4:	4770      	bx	lr
     ed6:	bf00      	nop
     ed8:	400fe608 	andmi	lr, pc, r8, lsl #12
     edc:	40007400 	andmi	r7, r0, r0, lsl #8
     ee0:	40007420 	andmi	r7, r0, r0, lsr #8
     ee4:	4000752c 	andmi	r7, r0, ip, lsr #10
     ee8:	40007500 	andmi	r7, r0, r0, lsl #10
     eec:	40007504 	andmi	r7, r0, r4, lsl #10
     ef0:	40007508 	andmi	r7, r0, r8, lsl #10
     ef4:	40007528 	andmi	r7, r0, r8, lsr #10

00000ef8 <USBBusConnect>:
     ef8:	b480      	push	{r7}
     efa:	af00      	add	r7, sp, #0
     efc:	4b05      	ldr	r3, [pc, #20]	; (f14 <USBBusConnect+0x1c>)
     efe:	781b      	ldrb	r3, [r3, #0]
     f00:	4a04      	ldr	r2, [pc, #16]	; (f14 <USBBusConnect+0x1c>)
     f02:	f043 0340 	orr.w	r3, r3, #64	; 0x40
     f06:	b2db      	uxtb	r3, r3
     f08:	7013      	strb	r3, [r2, #0]
     f0a:	bf00      	nop
     f0c:	46bd      	mov	sp, r7
     f0e:	f85d 7b04 	ldr.w	r7, [sp], #4
     f12:	4770      	bx	lr
     f14:	40050001 	andmi	r0, r5, r1

00000f18 <USBBusDisconnect>:
     f18:	b480      	push	{r7}
     f1a:	af00      	add	r7, sp, #0
     f1c:	4b05      	ldr	r3, [pc, #20]	; (f34 <USBBusDisconnect+0x1c>)
     f1e:	781b      	ldrb	r3, [r3, #0]
     f20:	4a04      	ldr	r2, [pc, #16]	; (f34 <USBBusDisconnect+0x1c>)
     f22:	f023 0340 	bic.w	r3, r3, #64	; 0x40
     f26:	b2db      	uxtb	r3, r3
     f28:	7013      	strb	r3, [r2, #0]
     f2a:	bf00      	nop
     f2c:	46bd      	mov	sp, r7
     f2e:	f85d 7b04 	ldr.w	r7, [sp], #4
     f32:	4770      	bx	lr
     f34:	40050001 	andmi	r0, r5, r1

00000f38 <USBSetDeviceAdress>:
     f38:	b480      	push	{r7}
     f3a:	b083      	sub	sp, #12
     f3c:	af00      	add	r7, sp, #0
     f3e:	4603      	mov	r3, r0
     f40:	71fb      	strb	r3, [r7, #7]
     f42:	4a04      	ldr	r2, [pc, #16]	; (f54 <USBSetDeviceAdress+0x1c>)
     f44:	79fb      	ldrb	r3, [r7, #7]
     f46:	7013      	strb	r3, [r2, #0]
     f48:	bf00      	nop
     f4a:	370c      	adds	r7, #12
     f4c:	46bd      	mov	sp, r7
     f4e:	f85d 7b04 	ldr.w	r7, [sp], #4
     f52:	4770      	bx	lr
     f54:	40050000 	andmi	r0, r5, r0

00000f58 <USBInterruptInitialize>:
     f58:	b480      	push	{r7}
     f5a:	af00      	add	r7, sp, #0
     f5c:	4b0f      	ldr	r3, [pc, #60]	; (f9c <USBInterruptInitialize+0x44>)
     f5e:	781b      	ldrb	r3, [r3, #0]
     f60:	4a0e      	ldr	r2, [pc, #56]	; (f9c <USBInterruptInitialize+0x44>)
     f62:	f043 032f 	orr.w	r3, r3, #47	; 0x2f
     f66:	b2db      	uxtb	r3, r3
     f68:	7013      	strb	r3, [r2, #0]
     f6a:	4b0d      	ldr	r3, [pc, #52]	; (fa0 <USBInterruptInitialize+0x48>)
     f6c:	881b      	ldrh	r3, [r3, #0]
     f6e:	4a0c      	ldr	r2, [pc, #48]	; (fa0 <USBInterruptInitialize+0x48>)
     f70:	f043 0302 	orr.w	r3, r3, #2
     f74:	b29b      	uxth	r3, r3
     f76:	8013      	strh	r3, [r2, #0]
     f78:	4b0a      	ldr	r3, [pc, #40]	; (fa4 <USBInterruptInitialize+0x4c>)
     f7a:	881b      	ldrh	r3, [r3, #0]
     f7c:	4a09      	ldr	r2, [pc, #36]	; (fa4 <USBInterruptInitialize+0x4c>)
     f7e:	f043 0302 	orr.w	r3, r3, #2
     f82:	b29b      	uxth	r3, r3
     f84:	8013      	strh	r3, [r2, #0]
     f86:	4b08      	ldr	r3, [pc, #32]	; (fa8 <USBInterruptInitialize+0x50>)
     f88:	681b      	ldr	r3, [r3, #0]
     f8a:	4a07      	ldr	r2, [pc, #28]	; (fa8 <USBInterruptInitialize+0x50>)
     f8c:	f443 5380 	orr.w	r3, r3, #4096	; 0x1000
     f90:	6013      	str	r3, [r2, #0]
     f92:	bf00      	nop
     f94:	46bd      	mov	sp, r7
     f96:	f85d 7b04 	ldr.w	r7, [sp], #4
     f9a:	4770      	bx	lr
     f9c:	4005000b 	andmi	r0, r5, fp
     fa0:	40050008 	andmi	r0, r5, r8
     fa4:	40050006 	andmi	r0, r5, r6
     fa8:	e000e104 	and	lr, r0, r4, lsl #2

00000fac <USBDeviceInit>:
     fac:	b480      	push	{r7}
     fae:	b083      	sub	sp, #12
     fb0:	af00      	add	r7, sp, #0
     fb2:	4b1e      	ldr	r3, [pc, #120]	; (102c <USBDeviceInit+0x80>)
     fb4:	681b      	ldr	r3, [r3, #0]
     fb6:	4a1d      	ldr	r2, [pc, #116]	; (102c <USBDeviceInit+0x80>)
     fb8:	f423 4380 	bic.w	r3, r3, #16384	; 0x4000
     fbc:	6013      	str	r3, [r2, #0]
     fbe:	4b1c      	ldr	r3, [pc, #112]	; (1030 <USBDeviceInit+0x84>)
     fc0:	681b      	ldr	r3, [r3, #0]
     fc2:	4a1b      	ldr	r2, [pc, #108]	; (1030 <USBDeviceInit+0x84>)
     fc4:	f043 0301 	orr.w	r3, r3, #1
     fc8:	6013      	str	r3, [r2, #0]
     fca:	4b1a      	ldr	r3, [pc, #104]	; (1034 <USBDeviceInit+0x88>)
     fcc:	681b      	ldr	r3, [r3, #0]
     fce:	4a19      	ldr	r2, [pc, #100]	; (1034 <USBDeviceInit+0x88>)
     fd0:	f443 3380 	orr.w	r3, r3, #65536	; 0x10000
     fd4:	6013      	str	r3, [r2, #0]
     fd6:	2300      	movs	r3, #0
     fd8:	71fb      	strb	r3, [r7, #7]
     fda:	e004      	b.n	fe6 <USBDeviceInit+0x3a>
     fdc:	79fb      	ldrb	r3, [r7, #7]
     fde:	b2db      	uxtb	r3, r3
     fe0:	3301      	adds	r3, #1
     fe2:	b2db      	uxtb	r3, r3
     fe4:	71fb      	strb	r3, [r7, #7]
     fe6:	79fb      	ldrb	r3, [r7, #7]
     fe8:	b2db      	uxtb	r3, r3
     fea:	2b0f      	cmp	r3, #15
     fec:	d9f6      	bls.n	fdc <USBDeviceInit+0x30>
     fee:	4b11      	ldr	r3, [pc, #68]	; (1034 <USBDeviceInit+0x88>)
     ff0:	681b      	ldr	r3, [r3, #0]
     ff2:	4a10      	ldr	r2, [pc, #64]	; (1034 <USBDeviceInit+0x88>)
     ff4:	f423 3380 	bic.w	r3, r3, #65536	; 0x10000
     ff8:	6013      	str	r3, [r2, #0]
     ffa:	2300      	movs	r3, #0
     ffc:	71fb      	strb	r3, [r7, #7]
     ffe:	e004      	b.n	100a <USBDeviceInit+0x5e>
    1000:	79fb      	ldrb	r3, [r7, #7]
    1002:	b2db      	uxtb	r3, r3
    1004:	3301      	adds	r3, #1
    1006:	b2db      	uxtb	r3, r3
    1008:	71fb      	strb	r3, [r7, #7]
    100a:	79fb      	ldrb	r3, [r7, #7]
    100c:	b2db      	uxtb	r3, r3
    100e:	2b0f      	cmp	r3, #15
    1010:	d9f6      	bls.n	1000 <USBDeviceInit+0x54>
    1012:	4b09      	ldr	r3, [pc, #36]	; (1038 <USBDeviceInit+0x8c>)
    1014:	681b      	ldr	r3, [r3, #0]
    1016:	4a08      	ldr	r2, [pc, #32]	; (1038 <USBDeviceInit+0x8c>)
    1018:	f043 0303 	orr.w	r3, r3, #3
    101c:	6013      	str	r3, [r2, #0]
    101e:	bf00      	nop
    1020:	370c      	adds	r7, #12
    1022:	46bd      	mov	sp, r7
    1024:	f85d 7b04 	ldr.w	r7, [sp], #4
    1028:	4770      	bx	lr
    102a:	bf00      	nop
    102c:	400fe070 	andmi	lr, pc, r0, ror r0	; <UNPREDICTABLE>
    1030:	400fe628 	andmi	lr, pc, r8, lsr #12
    1034:	400fe048 	andmi	lr, pc, r8, asr #32
    1038:	4005041c 	andmi	r0, r5, ip, lsl r4

0000103c <FlushRxFifo>:
    103c:	b480      	push	{r7}
    103e:	b083      	sub	sp, #12
    1040:	af00      	add	r7, sp, #0
    1042:	6078      	str	r0, [r7, #4]
    1044:	687b      	ldr	r3, [r7, #4]
    1046:	3b01      	subs	r3, #1
    1048:	011a      	lsls	r2, r3, #4
    104a:	4b09      	ldr	r3, [pc, #36]	; (1070 <FlushRxFifo+0x34>)
    104c:	4413      	add	r3, r2
    104e:	781a      	ldrb	r2, [r3, #0]
    1050:	687b      	ldr	r3, [r7, #4]
    1052:	3b01      	subs	r3, #1
    1054:	0119      	lsls	r1, r3, #4
    1056:	4b06      	ldr	r3, [pc, #24]	; (1070 <FlushRxFifo+0x34>)
    1058:	440b      	add	r3, r1
    105a:	f022 0210 	bic.w	r2, r2, #16
    105e:	b2d2      	uxtb	r2, r2
    1060:	701a      	strb	r2, [r3, #0]
    1062:	bf00      	nop
    1064:	370c      	adds	r7, #12
    1066:	46bd      	mov	sp, r7
    1068:	f85d 7b04 	ldr.w	r7, [sp], #4
    106c:	4770      	bx	lr
    106e:	bf00      	nop
    1070:	40050116 	andmi	r0, r5, r6, lsl r1

00001074 <FlushTxFifo>:
    1074:	b480      	push	{r7}
    1076:	b083      	sub	sp, #12
    1078:	af00      	add	r7, sp, #0
    107a:	6078      	str	r0, [r7, #4]
    107c:	687b      	ldr	r3, [r7, #4]
    107e:	f023 0309 	bic.w	r3, r3, #9
    1082:	011a      	lsls	r2, r3, #4
    1084:	4b07      	ldr	r3, [pc, #28]	; (10a4 <FlushTxFifo+0x30>)
    1086:	4413      	add	r3, r2
    1088:	4619      	mov	r1, r3
    108a:	687b      	ldr	r3, [r7, #4]
    108c:	3b01      	subs	r3, #1
    108e:	011a      	lsls	r2, r3, #4
    1090:	4b04      	ldr	r3, [pc, #16]	; (10a4 <FlushTxFifo+0x30>)
    1092:	4413      	add	r3, r2
    1094:	780a      	ldrb	r2, [r1, #0]
    1096:	701a      	strb	r2, [r3, #0]
    1098:	bf00      	nop
    109a:	370c      	adds	r7, #12
    109c:	46bd      	mov	sp, r7
    109e:	f85d 7b04 	ldr.w	r7, [sp], #4
    10a2:	4770      	bx	lr
    10a4:	40050112 	andmi	r0, r5, r2, lsl r1

000010a8 <ConfigureEndpoint0>:
    10a8:	b480      	push	{r7}
    10aa:	af00      	add	r7, sp, #0
    10ac:	4b05      	ldr	r3, [pc, #20]	; (10c4 <ConfigureEndpoint0+0x1c>)
    10ae:	881b      	ldrh	r3, [r3, #0]
    10b0:	4a04      	ldr	r2, [pc, #16]	; (10c4 <ConfigureEndpoint0+0x1c>)
    10b2:	f043 0301 	orr.w	r3, r3, #1
    10b6:	b29b      	uxth	r3, r3
    10b8:	8013      	strh	r3, [r2, #0]
    10ba:	bf00      	nop
    10bc:	46bd      	mov	sp, r7
    10be:	f85d 7b04 	ldr.w	r7, [sp], #4
    10c2:	4770      	bx	lr
    10c4:	40050006 	andmi	r0, r5, r6

000010c8 <ConfigureINEndpoint>:
    10c8:	b084      	sub	sp, #16
    10ca:	b580      	push	{r7, lr}
    10cc:	b084      	sub	sp, #16
    10ce:	af02      	add	r7, sp, #8
    10d0:	6078      	str	r0, [r7, #4]
    10d2:	f107 0014 	add.w	r0, r7, #20
    10d6:	e880 000e 	stmia.w	r0, {r1, r2, r3}
    10da:	687b      	ldr	r3, [r7, #4]
    10dc:	2b00      	cmp	r3, #0
    10de:	d0fc      	beq.n	10da <ConfigureINEndpoint+0x12>
    10e0:	466a      	mov	r2, sp
    10e2:	f107 031c 	add.w	r3, r7, #28
    10e6:	e893 0003 	ldmia.w	r3, {r0, r1}
    10ea:	e882 0003 	stmia.w	r2, {r0, r1}
    10ee:	f107 0314 	add.w	r3, r7, #20
    10f2:	cb0c      	ldmia	r3, {r2, r3}
    10f4:	2101      	movs	r1, #1
    10f6:	6878      	ldr	r0, [r7, #4]
    10f8:	f000 f846 	bl	1188 <ConfigureTxRxFIFOSize>
    10fc:	4b09      	ldr	r3, [pc, #36]	; (1124 <ConfigureINEndpoint+0x5c>)
    10fe:	881b      	ldrh	r3, [r3, #0]
    1100:	b21a      	sxth	r2, r3
    1102:	2101      	movs	r1, #1
    1104:	687b      	ldr	r3, [r7, #4]
    1106:	fa01 f303 	lsl.w	r3, r1, r3
    110a:	b21b      	sxth	r3, r3
    110c:	4313      	orrs	r3, r2
    110e:	b21a      	sxth	r2, r3
    1110:	4b04      	ldr	r3, [pc, #16]	; (1124 <ConfigureINEndpoint+0x5c>)
    1112:	b292      	uxth	r2, r2
    1114:	801a      	strh	r2, [r3, #0]
    1116:	bf00      	nop
    1118:	3708      	adds	r7, #8
    111a:	46bd      	mov	sp, r7
    111c:	e8bd 4080 	ldmia.w	sp!, {r7, lr}
    1120:	b004      	add	sp, #16
    1122:	4770      	bx	lr
    1124:	40050006 	andmi	r0, r5, r6

00001128 <ConfigureOUTEndpoint>:
    1128:	b084      	sub	sp, #16
    112a:	b580      	push	{r7, lr}
    112c:	b084      	sub	sp, #16
    112e:	af02      	add	r7, sp, #8
    1130:	6078      	str	r0, [r7, #4]
    1132:	f107 0014 	add.w	r0, r7, #20
    1136:	e880 000e 	stmia.w	r0, {r1, r2, r3}
    113a:	687b      	ldr	r3, [r7, #4]
    113c:	2b00      	cmp	r3, #0
    113e:	d0fc      	beq.n	113a <ConfigureOUTEndpoint+0x12>
    1140:	466a      	mov	r2, sp
    1142:	f107 031c 	add.w	r3, r7, #28
    1146:	e893 0003 	ldmia.w	r3, {r0, r1}
    114a:	e882 0003 	stmia.w	r2, {r0, r1}
    114e:	f107 0314 	add.w	r3, r7, #20
    1152:	cb0c      	ldmia	r3, {r2, r3}
    1154:	2100      	movs	r1, #0
    1156:	6878      	ldr	r0, [r7, #4]
    1158:	f000 f816 	bl	1188 <ConfigureTxRxFIFOSize>
    115c:	4b09      	ldr	r3, [pc, #36]	; (1184 <ConfigureOUTEndpoint+0x5c>)
    115e:	881b      	ldrh	r3, [r3, #0]
    1160:	b21a      	sxth	r2, r3
    1162:	2101      	movs	r1, #1
    1164:	687b      	ldr	r3, [r7, #4]
    1166:	fa01 f303 	lsl.w	r3, r1, r3
    116a:	b21b      	sxth	r3, r3
    116c:	4313      	orrs	r3, r2
    116e:	b21a      	sxth	r2, r3
    1170:	4b04      	ldr	r3, [pc, #16]	; (1184 <ConfigureOUTEndpoint+0x5c>)
    1172:	b292      	uxth	r2, r2
    1174:	801a      	strh	r2, [r3, #0]
    1176:	bf00      	nop
    1178:	3708      	adds	r7, #8
    117a:	46bd      	mov	sp, r7
    117c:	e8bd 4080 	ldmia.w	sp!, {r7, lr}
    1180:	b004      	add	sp, #16
    1182:	4770      	bx	lr
    1184:	40050008 	andmi	r0, r5, r8

00001188 <ConfigureTxRxFIFOSize>:
    1188:	b082      	sub	sp, #8
    118a:	b490      	push	{r4, r7}
    118c:	b088      	sub	sp, #32
    118e:	af00      	add	r7, sp, #0
    1190:	6078      	str	r0, [r7, #4]
    1192:	f107 0028 	add.w	r0, r7, #40	; 0x28
    1196:	e880 000c 	stmia.w	r0, {r2, r3}
    119a:	460b      	mov	r3, r1
    119c:	70fb      	strb	r3, [r7, #3]
    119e:	f107 040c 	add.w	r4, r7, #12
    11a2:	f107 0328 	add.w	r3, r7, #40	; 0x28
    11a6:	cb0f      	ldmia	r3, {r0, r1, r2, r3}
    11a8:	e884 000f 	stmia.w	r4, {r0, r1, r2, r3}
    11ac:	2300      	movs	r3, #0
    11ae:	61fb      	str	r3, [r7, #28]
    11b0:	bf00      	nop
    11b2:	697b      	ldr	r3, [r7, #20]
    11b4:	f003 0307 	and.w	r3, r3, #7
    11b8:	2b00      	cmp	r3, #0
    11ba:	d1fa      	bne.n	11b2 <ConfigureTxRxFIFOSize+0x2a>
    11bc:	687b      	ldr	r3, [r7, #4]
    11be:	2b00      	cmp	r3, #0
    11c0:	d0fc      	beq.n	11bc <ConfigureTxRxFIFOSize+0x34>
    11c2:	4b3a      	ldr	r3, [pc, #232]	; (12ac <ConfigureTxRxFIFOSize+0x124>)
    11c4:	687a      	ldr	r2, [r7, #4]
    11c6:	b2d2      	uxtb	r2, r2
    11c8:	701a      	strb	r2, [r3, #0]
    11ca:	78fb      	ldrb	r3, [r7, #3]
    11cc:	2b00      	cmp	r3, #0
    11ce:	d00d      	beq.n	11ec <ConfigureTxRxFIFOSize+0x64>
    11d0:	69ba      	ldr	r2, [r7, #24]
    11d2:	4b37      	ldr	r3, [pc, #220]	; (12b0 <ConfigureTxRxFIFOSize+0x128>)
    11d4:	b2d2      	uxtb	r2, r2
    11d6:	701a      	strb	r2, [r3, #0]
    11d8:	697b      	ldr	r3, [r7, #20]
    11da:	2b00      	cmp	r3, #0
    11dc:	da00      	bge.n	11e0 <ConfigureTxRxFIFOSize+0x58>
    11de:	3307      	adds	r3, #7
    11e0:	10db      	asrs	r3, r3, #3
    11e2:	461a      	mov	r2, r3
    11e4:	4b33      	ldr	r3, [pc, #204]	; (12b4 <ConfigureTxRxFIFOSize+0x12c>)
    11e6:	b292      	uxth	r2, r2
    11e8:	801a      	strh	r2, [r3, #0]
    11ea:	e00c      	b.n	1206 <ConfigureTxRxFIFOSize+0x7e>
    11ec:	69ba      	ldr	r2, [r7, #24]
    11ee:	4b32      	ldr	r3, [pc, #200]	; (12b8 <ConfigureTxRxFIFOSize+0x130>)
    11f0:	b2d2      	uxtb	r2, r2
    11f2:	701a      	strb	r2, [r3, #0]
    11f4:	697b      	ldr	r3, [r7, #20]
    11f6:	2b00      	cmp	r3, #0
    11f8:	da00      	bge.n	11fc <ConfigureTxRxFIFOSize+0x74>
    11fa:	3307      	adds	r3, #7
    11fc:	10db      	asrs	r3, r3, #3
    11fe:	461a      	mov	r2, r3
    1200:	4b2e      	ldr	r3, [pc, #184]	; (12bc <ConfigureTxRxFIFOSize+0x134>)
    1202:	b292      	uxth	r2, r2
    1204:	801a      	strh	r2, [r3, #0]
    1206:	69bb      	ldr	r3, [r7, #24]
    1208:	2b08      	cmp	r3, #8
    120a:	d834      	bhi.n	1276 <ConfigureTxRxFIFOSize+0xee>
    120c:	a201      	add	r2, pc, #4	; (adr r2, 1214 <ConfigureTxRxFIFOSize+0x8c>)
    120e:	f852 f023 	ldr.w	pc, [r2, r3, lsl #2]
    1212:	bf00      	nop
    1214:	00001239 	andeq	r1, r0, r9, lsr r2
    1218:	0000123f 	andeq	r1, r0, pc, lsr r2
    121c:	00001245 	andeq	r1, r0, r5, asr #4
    1220:	0000124b 	andeq	r1, r0, fp, asr #4
    1224:	00001251 	andeq	r1, r0, r1, asr r2
    1228:	00001257 	andeq	r1, r0, r7, asr r2
    122c:	0000125f 	andeq	r1, r0, pc, asr r2
    1230:	00001267 	andeq	r1, r0, r7, ror #4
    1234:	0000126f 	andeq	r1, r0, pc, ror #4
    1238:	2308      	movs	r3, #8
    123a:	61fb      	str	r3, [r7, #28]
    123c:	e01c      	b.n	1278 <ConfigureTxRxFIFOSize+0xf0>
    123e:	2310      	movs	r3, #16
    1240:	61fb      	str	r3, [r7, #28]
    1242:	e019      	b.n	1278 <ConfigureTxRxFIFOSize+0xf0>
    1244:	2320      	movs	r3, #32
    1246:	61fb      	str	r3, [r7, #28]
    1248:	e016      	b.n	1278 <ConfigureTxRxFIFOSize+0xf0>
    124a:	2340      	movs	r3, #64	; 0x40
    124c:	61fb      	str	r3, [r7, #28]
    124e:	e013      	b.n	1278 <ConfigureTxRxFIFOSize+0xf0>
    1250:	2380      	movs	r3, #128	; 0x80
    1252:	61fb      	str	r3, [r7, #28]
    1254:	e010      	b.n	1278 <ConfigureTxRxFIFOSize+0xf0>
    1256:	f44f 7380 	mov.w	r3, #256	; 0x100
    125a:	61fb      	str	r3, [r7, #28]
    125c:	e00c      	b.n	1278 <ConfigureTxRxFIFOSize+0xf0>
    125e:	f44f 7300 	mov.w	r3, #512	; 0x200
    1262:	61fb      	str	r3, [r7, #28]
    1264:	e008      	b.n	1278 <ConfigureTxRxFIFOSize+0xf0>
    1266:	f44f 6380 	mov.w	r3, #1024	; 0x400
    126a:	61fb      	str	r3, [r7, #28]
    126c:	e004      	b.n	1278 <ConfigureTxRxFIFOSize+0xf0>
    126e:	f44f 6300 	mov.w	r3, #2048	; 0x800
    1272:	61fb      	str	r3, [r7, #28]
    1274:	e000      	b.n	1278 <ConfigureTxRxFIFOSize+0xf0>
    1276:	e7fe      	b.n	1276 <ConfigureTxRxFIFOSize+0xee>
    1278:	78fb      	ldrb	r3, [r7, #3]
    127a:	2b00      	cmp	r3, #0
    127c:	d007      	beq.n	128e <ConfigureTxRxFIFOSize+0x106>
    127e:	687a      	ldr	r2, [r7, #4]
    1280:	4b0f      	ldr	r3, [pc, #60]	; (12c0 <ConfigureTxRxFIFOSize+0x138>)
    1282:	4413      	add	r3, r2
    1284:	011b      	lsls	r3, r3, #4
    1286:	69fa      	ldr	r2, [r7, #28]
    1288:	b292      	uxth	r2, r2
    128a:	801a      	strh	r2, [r3, #0]
    128c:	e007      	b.n	129e <ConfigureTxRxFIFOSize+0x116>
    128e:	687b      	ldr	r3, [r7, #4]
    1290:	3b01      	subs	r3, #1
    1292:	011a      	lsls	r2, r3, #4
    1294:	4b0b      	ldr	r3, [pc, #44]	; (12c4 <ConfigureTxRxFIFOSize+0x13c>)
    1296:	4413      	add	r3, r2
    1298:	69fa      	ldr	r2, [r7, #28]
    129a:	b292      	uxth	r2, r2
    129c:	801a      	strh	r2, [r3, #0]
    129e:	bf00      	nop
    12a0:	3720      	adds	r7, #32
    12a2:	46bd      	mov	sp, r7
    12a4:	bc90      	pop	{r4, r7}
    12a6:	b002      	add	sp, #8
    12a8:	4770      	bx	lr
    12aa:	bf00      	nop
    12ac:	4005000e 	andmi	r0, r5, lr
    12b0:	40050062 	andmi	r0, r5, r2, rrx
    12b4:	40050064 	andmi	r0, r5, r4, rrx
    12b8:	40050063 	andmi	r0, r5, r3, rrx
    12bc:	40050066 	andmi	r0, r5, r6, rrx
    12c0:	04005010 	streq	r5, [r0], #-16
    12c4:	40050114 	andmi	r0, r5, r4, lsl r1

000012c8 <writeTxFIFO>:
    12c8:	b480      	push	{r7}
    12ca:	b085      	sub	sp, #20
    12cc:	af00      	add	r7, sp, #0
    12ce:	60f8      	str	r0, [r7, #12]
    12d0:	60b9      	str	r1, [r7, #8]
    12d2:	607a      	str	r2, [r7, #4]
    12d4:	68bb      	ldr	r3, [r7, #8]
    12d6:	2b00      	cmp	r3, #0
    12d8:	d0fc      	beq.n	12d4 <writeTxFIFO+0xc>
    12da:	687b      	ldr	r3, [r7, #4]
    12dc:	2b20      	cmp	r3, #32
    12de:	d01b      	beq.n	1318 <writeTxFIFO+0x50>
    12e0:	687b      	ldr	r3, [r7, #4]
    12e2:	2b20      	cmp	r3, #32
    12e4:	d821      	bhi.n	132a <writeTxFIFO+0x62>
    12e6:	687b      	ldr	r3, [r7, #4]
    12e8:	2b08      	cmp	r3, #8
    12ea:	d003      	beq.n	12f4 <writeTxFIFO+0x2c>
    12ec:	687b      	ldr	r3, [r7, #4]
    12ee:	2b10      	cmp	r3, #16
    12f0:	d009      	beq.n	1306 <writeTxFIFO+0x3e>
    12f2:	e01a      	b.n	132a <writeTxFIFO+0x62>
    12f4:	68bb      	ldr	r3, [r7, #8]
    12f6:	6819      	ldr	r1, [r3, #0]
    12f8:	68fa      	ldr	r2, [r7, #12]
    12fa:	4b0f      	ldr	r3, [pc, #60]	; (1338 <writeTxFIFO+0x70>)
    12fc:	4413      	add	r3, r2
    12fe:	009b      	lsls	r3, r3, #2
    1300:	b2ca      	uxtb	r2, r1
    1302:	701a      	strb	r2, [r3, #0]
    1304:	e011      	b.n	132a <writeTxFIFO+0x62>
    1306:	68bb      	ldr	r3, [r7, #8]
    1308:	6819      	ldr	r1, [r3, #0]
    130a:	68fa      	ldr	r2, [r7, #12]
    130c:	4b0a      	ldr	r3, [pc, #40]	; (1338 <writeTxFIFO+0x70>)
    130e:	4413      	add	r3, r2
    1310:	009b      	lsls	r3, r3, #2
    1312:	b28a      	uxth	r2, r1
    1314:	801a      	strh	r2, [r3, #0]
    1316:	e008      	b.n	132a <writeTxFIFO+0x62>
    1318:	68fa      	ldr	r2, [r7, #12]
    131a:	4b07      	ldr	r3, [pc, #28]	; (1338 <writeTxFIFO+0x70>)
    131c:	4413      	add	r3, r2
    131e:	009b      	lsls	r3, r3, #2
    1320:	461a      	mov	r2, r3
    1322:	68bb      	ldr	r3, [r7, #8]
    1324:	681b      	ldr	r3, [r3, #0]
    1326:	6013      	str	r3, [r2, #0]
    1328:	bf00      	nop
    132a:	bf00      	nop
    132c:	3714      	adds	r7, #20
    132e:	46bd      	mov	sp, r7
    1330:	f85d 7b04 	ldr.w	r7, [sp], #4
    1334:	4770      	bx	lr
    1336:	bf00      	nop
    1338:	10014008 	andne	r4, r1, r8

0000133c <readRxFIFO>:
    133c:	b480      	push	{r7}
    133e:	b085      	sub	sp, #20
    1340:	af00      	add	r7, sp, #0
    1342:	60f8      	str	r0, [r7, #12]
    1344:	60b9      	str	r1, [r7, #8]
    1346:	607a      	str	r2, [r7, #4]
    1348:	687b      	ldr	r3, [r7, #4]
    134a:	2b20      	cmp	r3, #32
    134c:	d01b      	beq.n	1386 <readRxFIFO+0x4a>
    134e:	687b      	ldr	r3, [r7, #4]
    1350:	2b20      	cmp	r3, #32
    1352:	d820      	bhi.n	1396 <readRxFIFO+0x5a>
    1354:	687b      	ldr	r3, [r7, #4]
    1356:	2b08      	cmp	r3, #8
    1358:	d003      	beq.n	1362 <readRxFIFO+0x26>
    135a:	687b      	ldr	r3, [r7, #4]
    135c:	2b10      	cmp	r3, #16
    135e:	d009      	beq.n	1374 <readRxFIFO+0x38>
    1360:	e019      	b.n	1396 <readRxFIFO+0x5a>
    1362:	68fa      	ldr	r2, [r7, #12]
    1364:	4b0f      	ldr	r3, [pc, #60]	; (13a4 <readRxFIFO+0x68>)
    1366:	4413      	add	r3, r2
    1368:	009b      	lsls	r3, r3, #2
    136a:	781b      	ldrb	r3, [r3, #0]
    136c:	461a      	mov	r2, r3
    136e:	68bb      	ldr	r3, [r7, #8]
    1370:	601a      	str	r2, [r3, #0]
    1372:	e010      	b.n	1396 <readRxFIFO+0x5a>
    1374:	68fa      	ldr	r2, [r7, #12]
    1376:	4b0b      	ldr	r3, [pc, #44]	; (13a4 <readRxFIFO+0x68>)
    1378:	4413      	add	r3, r2
    137a:	009b      	lsls	r3, r3, #2
    137c:	881b      	ldrh	r3, [r3, #0]
    137e:	461a      	mov	r2, r3
    1380:	68bb      	ldr	r3, [r7, #8]
    1382:	601a      	str	r2, [r3, #0]
    1384:	e007      	b.n	1396 <readRxFIFO+0x5a>
    1386:	68fa      	ldr	r2, [r7, #12]
    1388:	4b06      	ldr	r3, [pc, #24]	; (13a4 <readRxFIFO+0x68>)
    138a:	4413      	add	r3, r2
    138c:	009b      	lsls	r3, r3, #2
    138e:	681a      	ldr	r2, [r3, #0]
    1390:	68bb      	ldr	r3, [r7, #8]
    1392:	601a      	str	r2, [r3, #0]
    1394:	bf00      	nop
    1396:	bf00      	nop
    1398:	3714      	adds	r7, #20
    139a:	46bd      	mov	sp, r7
    139c:	f85d 7b04 	ldr.w	r7, [sp], #4
    13a0:	4770      	bx	lr
    13a2:	bf00      	nop
    13a4:	10014008 	andne	r4, r1, r8

000013a8 <readPacket>:
    13a8:	b580      	push	{r7, lr}
    13aa:	b084      	sub	sp, #16
    13ac:	af00      	add	r7, sp, #0
    13ae:	60f8      	str	r0, [r7, #12]
    13b0:	60b9      	str	r1, [r7, #8]
    13b2:	4613      	mov	r3, r2
    13b4:	80fb      	strh	r3, [r7, #6]
    13b6:	e00b      	b.n	13d0 <readPacket+0x28>
    13b8:	68fb      	ldr	r3, [r7, #12]
    13ba:	2220      	movs	r2, #32
    13bc:	68b9      	ldr	r1, [r7, #8]
    13be:	4618      	mov	r0, r3
    13c0:	f7ff ffbc 	bl	133c <readRxFIFO>
    13c4:	88fb      	ldrh	r3, [r7, #6]
    13c6:	3b04      	subs	r3, #4
    13c8:	80fb      	strh	r3, [r7, #6]
    13ca:	68bb      	ldr	r3, [r7, #8]
    13cc:	3304      	adds	r3, #4
    13ce:	60bb      	str	r3, [r7, #8]
    13d0:	88fb      	ldrh	r3, [r7, #6]
    13d2:	2b03      	cmp	r3, #3
    13d4:	d8f0      	bhi.n	13b8 <readPacket+0x10>
    13d6:	88fb      	ldrh	r3, [r7, #6]
    13d8:	2b00      	cmp	r3, #0
    13da:	d00f      	beq.n	13fc <readPacket+0x54>
    13dc:	e00b      	b.n	13f6 <readPacket+0x4e>
    13de:	68fb      	ldr	r3, [r7, #12]
    13e0:	2208      	movs	r2, #8
    13e2:	68b9      	ldr	r1, [r7, #8]
    13e4:	4618      	mov	r0, r3
    13e6:	f7ff ffa9 	bl	133c <readRxFIFO>
    13ea:	88fb      	ldrh	r3, [r7, #6]
    13ec:	3b01      	subs	r3, #1
    13ee:	80fb      	strh	r3, [r7, #6]
    13f0:	68bb      	ldr	r3, [r7, #8]
    13f2:	3301      	adds	r3, #1
    13f4:	60bb      	str	r3, [r7, #8]
    13f6:	88fb      	ldrh	r3, [r7, #6]
    13f8:	2b00      	cmp	r3, #0
    13fa:	d1f0      	bne.n	13de <readPacket+0x36>
    13fc:	bf00      	nop
    13fe:	3710      	adds	r7, #16
    1400:	46bd      	mov	sp, r7
    1402:	bd80      	pop	{r7, pc}

00001404 <writePacket>:
    1404:	b580      	push	{r7, lr}
    1406:	b084      	sub	sp, #16
    1408:	af00      	add	r7, sp, #0
    140a:	60f8      	str	r0, [r7, #12]
    140c:	60b9      	str	r1, [r7, #8]
    140e:	4613      	mov	r3, r2
    1410:	80fb      	strh	r3, [r7, #6]
    1412:	e00b      	b.n	142c <writePacket+0x28>
    1414:	68fb      	ldr	r3, [r7, #12]
    1416:	2220      	movs	r2, #32
    1418:	68b9      	ldr	r1, [r7, #8]
    141a:	4618      	mov	r0, r3
    141c:	f7ff ff54 	bl	12c8 <writeTxFIFO>
    1420:	88fb      	ldrh	r3, [r7, #6]
    1422:	3b04      	subs	r3, #4
    1424:	80fb      	strh	r3, [r7, #6]
    1426:	68bb      	ldr	r3, [r7, #8]
    1428:	3304      	adds	r3, #4
    142a:	60bb      	str	r3, [r7, #8]
    142c:	88fb      	ldrh	r3, [r7, #6]
    142e:	2b03      	cmp	r3, #3
    1430:	d8f0      	bhi.n	1414 <writePacket+0x10>
    1432:	88fb      	ldrh	r3, [r7, #6]
    1434:	2b00      	cmp	r3, #0
    1436:	d00f      	beq.n	1458 <writePacket+0x54>
    1438:	e00b      	b.n	1452 <writePacket+0x4e>
    143a:	68fb      	ldr	r3, [r7, #12]
    143c:	2208      	movs	r2, #8
    143e:	68b9      	ldr	r1, [r7, #8]
    1440:	4618      	mov	r0, r3
    1442:	f7ff ff41 	bl	12c8 <writeTxFIFO>
    1446:	88fb      	ldrh	r3, [r7, #6]
    1448:	3b01      	subs	r3, #1
    144a:	80fb      	strh	r3, [r7, #6]
    144c:	68bb      	ldr	r3, [r7, #8]
    144e:	3301      	adds	r3, #1
    1450:	60bb      	str	r3, [r7, #8]
    1452:	88fb      	ldrh	r3, [r7, #6]
    1454:	2b00      	cmp	r3, #0
    1456:	d1f0      	bne.n	143a <writePacket+0x36>
    1458:	bf00      	nop
    145a:	3710      	adds	r7, #16
    145c:	46bd      	mov	sp, r7
    145e:	bd80      	pop	{r7, pc}

00001460 <USBDeviceGetIntStatus>:
    1460:	b480      	push	{r7}
    1462:	b083      	sub	sp, #12
    1464:	af00      	add	r7, sp, #0
    1466:	6078      	str	r0, [r7, #4]
    1468:	4b0d      	ldr	r3, [pc, #52]	; (14a0 <USBDeviceGetIntStatus+0x40>)
    146a:	781b      	ldrb	r3, [r3, #0]
    146c:	461a      	mov	r2, r3
    146e:	687b      	ldr	r3, [r7, #4]
    1470:	601a      	str	r2, [r3, #0]
    1472:	687b      	ldr	r3, [r7, #4]
    1474:	681b      	ldr	r3, [r3, #0]
    1476:	4a0b      	ldr	r2, [pc, #44]	; (14a4 <USBDeviceGetIntStatus+0x44>)
    1478:	8812      	ldrh	r2, [r2, #0]
    147a:	0212      	lsls	r2, r2, #8
    147c:	431a      	orrs	r2, r3
    147e:	687b      	ldr	r3, [r7, #4]
    1480:	601a      	str	r2, [r3, #0]
    1482:	687b      	ldr	r3, [r7, #4]
    1484:	681b      	ldr	r3, [r3, #0]
    1486:	4a08      	ldr	r2, [pc, #32]	; (14a8 <USBDeviceGetIntStatus+0x48>)
    1488:	8812      	ldrh	r2, [r2, #0]
    148a:	0412      	lsls	r2, r2, #16
    148c:	431a      	orrs	r2, r3
    148e:	687b      	ldr	r3, [r7, #4]
    1490:	601a      	str	r2, [r3, #0]
    1492:	bf00      	nop
    1494:	370c      	adds	r7, #12
    1496:	46bd      	mov	sp, r7
    1498:	f85d 7b04 	ldr.w	r7, [sp], #4
    149c:	4770      	bx	lr
    149e:	bf00      	nop
    14a0:	4005000a 	andmi	r0, r5, sl
    14a4:	40050002 	andmi	r0, r5, r2
    14a8:	40050004 	andmi	r0, r5, r4

000014ac <USBGetRcvBytes>:
    14ac:	b480      	push	{r7}
    14ae:	b083      	sub	sp, #12
    14b0:	af00      	add	r7, sp, #0
    14b2:	6078      	str	r0, [r7, #4]
    14b4:	6039      	str	r1, [r7, #0]
    14b6:	687b      	ldr	r3, [r7, #4]
    14b8:	2b00      	cmp	r3, #0
    14ba:	d105      	bne.n	14c8 <USBGetRcvBytes+0x1c>
    14bc:	4b09      	ldr	r3, [pc, #36]	; (14e4 <USBGetRcvBytes+0x38>)
    14be:	781b      	ldrb	r3, [r3, #0]
    14c0:	b29a      	uxth	r2, r3
    14c2:	683b      	ldr	r3, [r7, #0]
    14c4:	801a      	strh	r2, [r3, #0]
    14c6:	e007      	b.n	14d8 <USBGetRcvBytes+0x2c>
    14c8:	687b      	ldr	r3, [r7, #4]
    14ca:	3b01      	subs	r3, #1
    14cc:	011a      	lsls	r2, r3, #4
    14ce:	4b06      	ldr	r3, [pc, #24]	; (14e8 <USBGetRcvBytes+0x3c>)
    14d0:	4413      	add	r3, r2
    14d2:	881a      	ldrh	r2, [r3, #0]
    14d4:	683b      	ldr	r3, [r7, #0]
    14d6:	801a      	strh	r2, [r3, #0]
    14d8:	bf00      	nop
    14da:	370c      	adds	r7, #12
    14dc:	46bd      	mov	sp, r7
    14de:	f85d 7b04 	ldr.w	r7, [sp], #4
    14e2:	4770      	bx	lr
    14e4:	40050108 	andmi	r0, r5, r8, lsl #2
    14e8:	40050118 	andmi	r0, r5, r8, lsl r1

000014ec <USBGetEndpointStatus>:
    14ec:	b480      	push	{r7}
    14ee:	b083      	sub	sp, #12
    14f0:	af00      	add	r7, sp, #0
    14f2:	6078      	str	r0, [r7, #4]
    14f4:	6039      	str	r1, [r7, #0]
    14f6:	687b      	ldr	r3, [r7, #4]
    14f8:	2b00      	cmp	r3, #0
    14fa:	d109      	bne.n	1510 <USBGetEndpointStatus+0x24>
    14fc:	4b18      	ldr	r3, [pc, #96]	; (1560 <USBGetEndpointStatus+0x74>)
    14fe:	781b      	ldrb	r3, [r3, #0]
    1500:	021b      	lsls	r3, r3, #8
    1502:	4a18      	ldr	r2, [pc, #96]	; (1564 <USBGetEndpointStatus+0x78>)
    1504:	7812      	ldrb	r2, [r2, #0]
    1506:	4313      	orrs	r3, r2
    1508:	461a      	mov	r2, r3
    150a:	683b      	ldr	r3, [r7, #0]
    150c:	601a      	str	r2, [r3, #0]
    150e:	e020      	b.n	1552 <USBGetEndpointStatus+0x66>
    1510:	687b      	ldr	r3, [r7, #4]
    1512:	3b01      	subs	r3, #1
    1514:	011a      	lsls	r2, r3, #4
    1516:	4b14      	ldr	r3, [pc, #80]	; (1568 <USBGetEndpointStatus+0x7c>)
    1518:	4413      	add	r3, r2
    151a:	781b      	ldrb	r3, [r3, #0]
    151c:	061a      	lsls	r2, r3, #24
    151e:	687b      	ldr	r3, [r7, #4]
    1520:	3b01      	subs	r3, #1
    1522:	0119      	lsls	r1, r3, #4
    1524:	4b11      	ldr	r3, [pc, #68]	; (156c <USBGetEndpointStatus+0x80>)
    1526:	440b      	add	r3, r1
    1528:	781b      	ldrb	r3, [r3, #0]
    152a:	041b      	lsls	r3, r3, #16
    152c:	431a      	orrs	r2, r3
    152e:	687b      	ldr	r3, [r7, #4]
    1530:	3b01      	subs	r3, #1
    1532:	0119      	lsls	r1, r3, #4
    1534:	4b0e      	ldr	r3, [pc, #56]	; (1570 <USBGetEndpointStatus+0x84>)
    1536:	440b      	add	r3, r1
    1538:	781b      	ldrb	r3, [r3, #0]
    153a:	021b      	lsls	r3, r3, #8
    153c:	431a      	orrs	r2, r3
    153e:	687b      	ldr	r3, [r7, #4]
    1540:	3b01      	subs	r3, #1
    1542:	0119      	lsls	r1, r3, #4
    1544:	4b0b      	ldr	r3, [pc, #44]	; (1574 <USBGetEndpointStatus+0x88>)
    1546:	440b      	add	r3, r1
    1548:	781b      	ldrb	r3, [r3, #0]
    154a:	4313      	orrs	r3, r2
    154c:	461a      	mov	r2, r3
    154e:	683b      	ldr	r3, [r7, #0]
    1550:	601a      	str	r2, [r3, #0]
    1552:	bf00      	nop
    1554:	370c      	adds	r7, #12
    1556:	46bd      	mov	sp, r7
    1558:	f85d 7b04 	ldr.w	r7, [sp], #4
    155c:	4770      	bx	lr
    155e:	bf00      	nop
    1560:	40050103 	andmi	r0, r5, r3, lsl #2
    1564:	40050102 	andmi	r0, r5, r2, lsl #2
    1568:	40050113 	andmi	r0, r5, r3, lsl r1
    156c:	40050112 	andmi	r0, r5, r2, lsl r1
    1570:	40050117 	andmi	r0, r5, r7, lsl r1
    1574:	40050116 	andmi	r0, r5, r6, lsl r1

00001578 <USBCoreInitialize>:
    1578:	b580      	push	{r7, lr}
    157a:	af00      	add	r7, sp, #0
    157c:	f7ff fd16 	bl	fac <USBDeviceInit>
    1580:	f7ff fcea 	bl	f58 <USBInterruptInitialize>
    1584:	f7ff fd90 	bl	10a8 <ConfigureEndpoint0>
    1588:	bf00      	nop
    158a:	bd80      	pop	{r7, pc}

0000158c <USBDIntHandler>:
    158c:	b580      	push	{r7, lr}
    158e:	b082      	sub	sp, #8
    1590:	af00      	add	r7, sp, #0
    1592:	6078      	str	r0, [r7, #4]
    1594:	687b      	ldr	r3, [r7, #4]
    1596:	f003 0304 	and.w	r3, r3, #4
    159a:	2b00      	cmp	r3, #0
    159c:	d002      	beq.n	15a4 <USBDIntHandler+0x18>
    159e:	4b1d      	ldr	r3, [pc, #116]	; (1614 <USBDIntHandler+0x88>)
    15a0:	681b      	ldr	r3, [r3, #0]
    15a2:	4798      	blx	r3
    15a4:	687b      	ldr	r3, [r7, #4]
    15a6:	f403 7380 	and.w	r3, r3, #256	; 0x100
    15aa:	2b00      	cmp	r3, #0
    15ac:	d004      	beq.n	15b8 <USBDIntHandler+0x2c>
    15ae:	4b19      	ldr	r3, [pc, #100]	; (1614 <USBDIntHandler+0x88>)
    15b0:	699b      	ldr	r3, [r3, #24]
    15b2:	6879      	ldr	r1, [r7, #4]
    15b4:	2000      	movs	r0, #0
    15b6:	4798      	blx	r3
    15b8:	687b      	ldr	r3, [r7, #4]
    15ba:	0a1a      	lsrs	r2, r3, #8
    15bc:	687b      	ldr	r3, [r7, #4]
    15be:	0c1b      	lsrs	r3, r3, #16
    15c0:	4313      	orrs	r3, r2
    15c2:	f003 0302 	and.w	r3, r3, #2
    15c6:	2b00      	cmp	r3, #0
    15c8:	d004      	beq.n	15d4 <USBDIntHandler+0x48>
    15ca:	4b12      	ldr	r3, [pc, #72]	; (1614 <USBDIntHandler+0x88>)
    15cc:	699b      	ldr	r3, [r3, #24]
    15ce:	6879      	ldr	r1, [r7, #4]
    15d0:	2001      	movs	r0, #1
    15d2:	4798      	blx	r3
    15d4:	687b      	ldr	r3, [r7, #4]
    15d6:	0a1a      	lsrs	r2, r3, #8
    15d8:	687b      	ldr	r3, [r7, #4]
    15da:	0c1b      	lsrs	r3, r3, #16
    15dc:	4313      	orrs	r3, r2
    15de:	f003 0304 	and.w	r3, r3, #4
    15e2:	2b00      	cmp	r3, #0
    15e4:	d004      	beq.n	15f0 <USBDIntHandler+0x64>
    15e6:	4b0b      	ldr	r3, [pc, #44]	; (1614 <USBDIntHandler+0x88>)
    15e8:	699b      	ldr	r3, [r3, #24]
    15ea:	6879      	ldr	r1, [r7, #4]
    15ec:	2002      	movs	r0, #2
    15ee:	4798      	blx	r3
    15f0:	687b      	ldr	r3, [r7, #4]
    15f2:	0a1a      	lsrs	r2, r3, #8
    15f4:	687b      	ldr	r3, [r7, #4]
    15f6:	0c1b      	lsrs	r3, r3, #16
    15f8:	4313      	orrs	r3, r2
    15fa:	f003 0308 	and.w	r3, r3, #8
    15fe:	2b00      	cmp	r3, #0
    1600:	d004      	beq.n	160c <USBDIntHandler+0x80>
    1602:	4b04      	ldr	r3, [pc, #16]	; (1614 <USBDIntHandler+0x88>)
    1604:	699b      	ldr	r3, [r3, #24]
    1606:	6879      	ldr	r1, [r7, #4]
    1608:	2003      	movs	r0, #3
    160a:	4798      	blx	r3
    160c:	bf00      	nop
    160e:	3708      	adds	r7, #8
    1610:	46bd      	mov	sp, r7
    1612:	bd80      	pop	{r7, pc}
    1614:	00001cf0 	strdeq	r1, [r0], -r0

00001618 <USBDInit>:
    1618:	b580      	push	{r7, lr}
    161a:	b082      	sub	sp, #8
    161c:	af00      	add	r7, sp, #0
    161e:	6078      	str	r0, [r7, #4]
    1620:	4b07      	ldr	r3, [pc, #28]	; (1640 <USBDInit+0x28>)
    1622:	685b      	ldr	r3, [r3, #4]
    1624:	4798      	blx	r3
    1626:	4b06      	ldr	r3, [pc, #24]	; (1640 <USBDInit+0x28>)
    1628:	681b      	ldr	r3, [r3, #0]
    162a:	4798      	blx	r3
    162c:	4a05      	ldr	r2, [pc, #20]	; (1644 <USBDInit+0x2c>)
    162e:	687b      	ldr	r3, [r7, #4]
    1630:	6013      	str	r3, [r2, #0]
    1632:	4b03      	ldr	r3, [pc, #12]	; (1640 <USBDInit+0x28>)
    1634:	689b      	ldr	r3, [r3, #8]
    1636:	4798      	blx	r3
    1638:	bf00      	nop
    163a:	3708      	adds	r7, #8
    163c:	46bd      	mov	sp, r7
    163e:	bd80      	pop	{r7, pc}
    1640:	00001ca0 	andeq	r1, r0, r0, lsr #25
    1644:	2000011c 	andcs	r0, r0, ip, lsl r1

00001648 <usb_reset_received_handler>:
    1648:	b580      	push	{r7, lr}
    164a:	af00      	add	r7, sp, #0
    164c:	4b0c      	ldr	r3, [pc, #48]	; (1680 <usb_reset_received_handler+0x38>)
    164e:	681b      	ldr	r3, [r3, #0]
    1650:	2200      	movs	r2, #0
    1652:	611a      	str	r2, [r3, #16]
    1654:	4b0a      	ldr	r3, [pc, #40]	; (1680 <usb_reset_received_handler+0x38>)
    1656:	681b      	ldr	r3, [r3, #0]
    1658:	2200      	movs	r2, #0
    165a:	609a      	str	r2, [r3, #8]
    165c:	4b08      	ldr	r3, [pc, #32]	; (1680 <usb_reset_received_handler+0x38>)
    165e:	681b      	ldr	r3, [r3, #0]
    1660:	2200      	movs	r2, #0
    1662:	709a      	strb	r2, [r3, #2]
    1664:	4b06      	ldr	r3, [pc, #24]	; (1680 <usb_reset_received_handler+0x38>)
    1666:	681b      	ldr	r3, [r3, #0]
    1668:	2200      	movs	r2, #0
    166a:	701a      	strb	r2, [r3, #0]
    166c:	4b04      	ldr	r3, [pc, #16]	; (1680 <usb_reset_received_handler+0x38>)
    166e:	681b      	ldr	r3, [r3, #0]
    1670:	2200      	movs	r2, #0
    1672:	705a      	strb	r2, [r3, #1]
    1674:	4b03      	ldr	r3, [pc, #12]	; (1684 <usb_reset_received_handler+0x3c>)
    1676:	6adb      	ldr	r3, [r3, #44]	; 0x2c
    1678:	2000      	movs	r0, #0
    167a:	4798      	blx	r3
    167c:	bf00      	nop
    167e:	bd80      	pop	{r7, pc}
    1680:	2000011c 	andcs	r0, r0, ip, lsl r1
    1684:	00001ca0 	andeq	r1, r0, r0, lsr #25

00001688 <process_standard_device_request>:
    1688:	b580      	push	{r7, lr}
    168a:	b082      	sub	sp, #8
    168c:	af00      	add	r7, sp, #0
    168e:	4b19      	ldr	r3, [pc, #100]	; (16f4 <process_standard_device_request+0x6c>)
    1690:	681b      	ldr	r3, [r3, #0]
    1692:	685b      	ldr	r3, [r3, #4]
    1694:	607b      	str	r3, [r7, #4]
    1696:	687b      	ldr	r3, [r7, #4]
    1698:	785b      	ldrb	r3, [r3, #1]
    169a:	2b06      	cmp	r3, #6
    169c:	d121      	bne.n	16e2 <process_standard_device_request+0x5a>
    169e:	4816      	ldr	r0, [pc, #88]	; (16f8 <process_standard_device_request+0x70>)
    16a0:	f000 f9d6 	bl	1a50 <log_info>
    16a4:	687b      	ldr	r3, [r7, #4]
    16a6:	885b      	ldrh	r3, [r3, #2]
    16a8:	0a1b      	lsrs	r3, r3, #8
    16aa:	b29b      	uxth	r3, r3
    16ac:	70fb      	strb	r3, [r7, #3]
    16ae:	687b      	ldr	r3, [r7, #4]
    16b0:	88db      	ldrh	r3, [r3, #6]
    16b2:	803b      	strh	r3, [r7, #0]
    16b4:	78fb      	ldrb	r3, [r7, #3]
    16b6:	2b01      	cmp	r3, #1
    16b8:	d117      	bne.n	16ea <process_standard_device_request+0x62>
    16ba:	4810      	ldr	r0, [pc, #64]	; (16fc <process_standard_device_request+0x74>)
    16bc:	f000 f9c8 	bl	1a50 <log_info>
    16c0:	4b0c      	ldr	r3, [pc, #48]	; (16f4 <process_standard_device_request+0x6c>)
    16c2:	681b      	ldr	r3, [r3, #0]
    16c4:	4a0e      	ldr	r2, [pc, #56]	; (1700 <process_standard_device_request+0x78>)
    16c6:	60da      	str	r2, [r3, #12]
    16c8:	4b0a      	ldr	r3, [pc, #40]	; (16f4 <process_standard_device_request+0x6c>)
    16ca:	681b      	ldr	r3, [r3, #0]
    16cc:	883a      	ldrh	r2, [r7, #0]
    16ce:	611a      	str	r2, [r3, #16]
    16d0:	480c      	ldr	r0, [pc, #48]	; (1704 <process_standard_device_request+0x7c>)
    16d2:	f000 f9bd 	bl	1a50 <log_info>
    16d6:	4b07      	ldr	r3, [pc, #28]	; (16f4 <process_standard_device_request+0x6c>)
    16d8:	681b      	ldr	r3, [r3, #0]
    16da:	2202      	movs	r2, #2
    16dc:	705a      	strb	r2, [r3, #1]
    16de:	bf00      	nop
    16e0:	e003      	b.n	16ea <process_standard_device_request+0x62>
    16e2:	4809      	ldr	r0, [pc, #36]	; (1708 <process_standard_device_request+0x80>)
    16e4:	f000 f9b4 	bl	1a50 <log_info>
    16e8:	e000      	b.n	16ec <process_standard_device_request+0x64>
    16ea:	bf00      	nop
    16ec:	bf00      	nop
    16ee:	3708      	adds	r7, #8
    16f0:	46bd      	mov	sp, r7
    16f2:	bd80      	pop	{r7, pc}
    16f4:	2000011c 	andcs	r0, r0, ip, lsl r1
    16f8:	00001d0c 	andeq	r1, r0, ip, lsl #26
    16fc:	00001d38 	andeq	r1, r0, r8, lsr sp
    1700:	00001cdc 	ldrdeq	r1, [r0], -ip
    1704:	00001d54 	andeq	r1, r0, r4, asr sp
    1708:	00001d78 	andeq	r1, r0, r8, ror sp

0000170c <process_request>:
    170c:	b580      	push	{r7, lr}
    170e:	b082      	sub	sp, #8
    1710:	af00      	add	r7, sp, #0
    1712:	4b09      	ldr	r3, [pc, #36]	; (1738 <process_request+0x2c>)
    1714:	681b      	ldr	r3, [r3, #0]
    1716:	685b      	ldr	r3, [r3, #4]
    1718:	607b      	str	r3, [r7, #4]
    171a:	687b      	ldr	r3, [r7, #4]
    171c:	781b      	ldrb	r3, [r3, #0]
    171e:	f003 0363 	and.w	r3, r3, #99	; 0x63
    1722:	2b00      	cmp	r3, #0
    1724:	d102      	bne.n	172c <process_request+0x20>
    1726:	f7ff ffaf 	bl	1688 <process_standard_device_request>
    172a:	e000      	b.n	172e <process_request+0x22>
    172c:	bf00      	nop
    172e:	bf00      	nop
    1730:	3708      	adds	r7, #8
    1732:	46bd      	mov	sp, r7
    1734:	bd80      	pop	{r7, pc}
    1736:	bf00      	nop
    1738:	2000011c 	andcs	r0, r0, ip, lsl r1

0000173c <process_control_transfer_stage>:
    173c:	b580      	push	{r7, lr}
    173e:	b082      	sub	sp, #8
    1740:	af00      	add	r7, sp, #0
    1742:	4b32      	ldr	r3, [pc, #200]	; (180c <process_control_transfer_stage+0xd0>)
    1744:	681b      	ldr	r3, [r3, #0]
    1746:	785b      	ldrb	r3, [r3, #1]
    1748:	2b05      	cmp	r3, #5
    174a:	d858      	bhi.n	17fe <process_control_transfer_stage+0xc2>
    174c:	a201      	add	r2, pc, #4	; (adr r2, 1754 <process_control_transfer_stage+0x18>)
    174e:	f852 f023 	ldr.w	pc, [r2, r3, lsl #2]
    1752:	bf00      	nop
    1754:	000017ff 	strdeq	r1, [r0], -pc	; <UNPREDICTABLE>
    1758:	000017ff 	strdeq	r1, [r0], -pc	; <UNPREDICTABLE>
    175c:	0000176d 	andeq	r1, r0, sp, ror #14
    1760:	000017ff 	strdeq	r1, [r0], -pc	; <UNPREDICTABLE>
    1764:	000017ff 	strdeq	r1, [r0], -pc	; <UNPREDICTABLE>
    1768:	000017f7 	strdeq	r1, [r0], -r7
    176c:	4828      	ldr	r0, [pc, #160]	; (1810 <process_control_transfer_stage+0xd4>)
    176e:	f000 f96f 	bl	1a50 <log_info>
    1772:	2340      	movs	r3, #64	; 0x40
    1774:	461a      	mov	r2, r3
    1776:	4b25      	ldr	r3, [pc, #148]	; (180c <process_control_transfer_stage+0xd0>)
    1778:	681b      	ldr	r3, [r3, #0]
    177a:	691b      	ldr	r3, [r3, #16]
    177c:	4293      	cmp	r3, r2
    177e:	bf28      	it	cs
    1780:	4613      	movcs	r3, r2
    1782:	71fb      	strb	r3, [r7, #7]
    1784:	4b23      	ldr	r3, [pc, #140]	; (1814 <process_control_transfer_stage+0xd8>)
    1786:	6a1b      	ldr	r3, [r3, #32]
    1788:	4a20      	ldr	r2, [pc, #128]	; (180c <process_control_transfer_stage+0xd0>)
    178a:	6812      	ldr	r2, [r2, #0]
    178c:	68d1      	ldr	r1, [r2, #12]
    178e:	79fa      	ldrb	r2, [r7, #7]
    1790:	b292      	uxth	r2, r2
    1792:	2000      	movs	r0, #0
    1794:	4798      	blx	r3
    1796:	4b1d      	ldr	r3, [pc, #116]	; (180c <process_control_transfer_stage+0xd0>)
    1798:	681b      	ldr	r3, [r3, #0]
    179a:	6919      	ldr	r1, [r3, #16]
    179c:	79fa      	ldrb	r2, [r7, #7]
    179e:	4b1b      	ldr	r3, [pc, #108]	; (180c <process_control_transfer_stage+0xd0>)
    17a0:	681b      	ldr	r3, [r3, #0]
    17a2:	1a8a      	subs	r2, r1, r2
    17a4:	611a      	str	r2, [r3, #16]
    17a6:	4b19      	ldr	r3, [pc, #100]	; (180c <process_control_transfer_stage+0xd0>)
    17a8:	681b      	ldr	r3, [r3, #0]
    17aa:	68d9      	ldr	r1, [r3, #12]
    17ac:	79fa      	ldrb	r2, [r7, #7]
    17ae:	4b17      	ldr	r3, [pc, #92]	; (180c <process_control_transfer_stage+0xd0>)
    17b0:	681b      	ldr	r3, [r3, #0]
    17b2:	440a      	add	r2, r1
    17b4:	60da      	str	r2, [r3, #12]
    17b6:	4818      	ldr	r0, [pc, #96]	; (1818 <process_control_transfer_stage+0xdc>)
    17b8:	f000 f94a 	bl	1a50 <log_info>
    17bc:	4b13      	ldr	r3, [pc, #76]	; (180c <process_control_transfer_stage+0xd0>)
    17be:	681b      	ldr	r3, [r3, #0]
    17c0:	2203      	movs	r2, #3
    17c2:	705a      	strb	r2, [r3, #1]
    17c4:	4b11      	ldr	r3, [pc, #68]	; (180c <process_control_transfer_stage+0xd0>)
    17c6:	681b      	ldr	r3, [r3, #0]
    17c8:	691b      	ldr	r3, [r3, #16]
    17ca:	2b00      	cmp	r3, #0
    17cc:	d119      	bne.n	1802 <process_control_transfer_stage+0xc6>
    17ce:	2240      	movs	r2, #64	; 0x40
    17d0:	79fb      	ldrb	r3, [r7, #7]
    17d2:	4293      	cmp	r3, r2
    17d4:	d107      	bne.n	17e6 <process_control_transfer_stage+0xaa>
    17d6:	4811      	ldr	r0, [pc, #68]	; (181c <process_control_transfer_stage+0xe0>)
    17d8:	f000 f93a 	bl	1a50 <log_info>
    17dc:	4b0b      	ldr	r3, [pc, #44]	; (180c <process_control_transfer_stage+0xd0>)
    17de:	681b      	ldr	r3, [r3, #0]
    17e0:	2204      	movs	r2, #4
    17e2:	705a      	strb	r2, [r3, #1]
    17e4:	e00d      	b.n	1802 <process_control_transfer_stage+0xc6>
    17e6:	480e      	ldr	r0, [pc, #56]	; (1820 <process_control_transfer_stage+0xe4>)
    17e8:	f000 f932 	bl	1a50 <log_info>
    17ec:	4b07      	ldr	r3, [pc, #28]	; (180c <process_control_transfer_stage+0xd0>)
    17ee:	681b      	ldr	r3, [r3, #0]
    17f0:	2205      	movs	r2, #5
    17f2:	705a      	strb	r2, [r3, #1]
    17f4:	e005      	b.n	1802 <process_control_transfer_stage+0xc6>
    17f6:	4b05      	ldr	r3, [pc, #20]	; (180c <process_control_transfer_stage+0xd0>)
    17f8:	681b      	ldr	r3, [r3, #0]
    17fa:	2200      	movs	r2, #0
    17fc:	705a      	strb	r2, [r3, #1]
    17fe:	bf00      	nop
    1800:	e000      	b.n	1804 <process_control_transfer_stage+0xc8>
    1802:	bf00      	nop
    1804:	bf00      	nop
    1806:	3708      	adds	r7, #8
    1808:	46bd      	mov	sp, r7
    180a:	bd80      	pop	{r7, pc}
    180c:	2000011c 	andcs	r0, r0, ip, lsl r1
    1810:	00001d8c 	andeq	r1, r0, ip, lsl #27
    1814:	00001ca0 	andeq	r1, r0, r0, lsr #25
    1818:	00001da8 	andeq	r1, r0, r8, lsr #27
    181c:	00001dd4 	ldrdeq	r1, [r0], -r4
    1820:	00001e00 	andeq	r1, r0, r0, lsl #28

00001824 <in_transfer_completed_handler>:
    1824:	b580      	push	{r7, lr}
    1826:	b082      	sub	sp, #8
    1828:	af00      	add	r7, sp, #0
    182a:	6078      	str	r0, [r7, #4]
    182c:	4b11      	ldr	r3, [pc, #68]	; (1874 <in_transfer_completed_handler+0x50>)
    182e:	681b      	ldr	r3, [r3, #0]
    1830:	691b      	ldr	r3, [r3, #16]
    1832:	2b00      	cmp	r3, #0
    1834:	d007      	beq.n	1846 <in_transfer_completed_handler+0x22>
    1836:	4810      	ldr	r0, [pc, #64]	; (1878 <in_transfer_completed_handler+0x54>)
    1838:	f000 f90a 	bl	1a50 <log_info>
    183c:	4b0d      	ldr	r3, [pc, #52]	; (1874 <in_transfer_completed_handler+0x50>)
    183e:	681b      	ldr	r3, [r3, #0]
    1840:	2202      	movs	r2, #2
    1842:	705a      	strb	r2, [r3, #1]
    1844:	e011      	b.n	186a <in_transfer_completed_handler+0x46>
    1846:	4b0b      	ldr	r3, [pc, #44]	; (1874 <in_transfer_completed_handler+0x50>)
    1848:	681b      	ldr	r3, [r3, #0]
    184a:	785b      	ldrb	r3, [r3, #1]
    184c:	2b04      	cmp	r3, #4
    184e:	d10c      	bne.n	186a <in_transfer_completed_handler+0x46>
    1850:	4b0a      	ldr	r3, [pc, #40]	; (187c <in_transfer_completed_handler+0x58>)
    1852:	6a1b      	ldr	r3, [r3, #32]
    1854:	2200      	movs	r2, #0
    1856:	2100      	movs	r1, #0
    1858:	2000      	movs	r0, #0
    185a:	4798      	blx	r3
    185c:	4808      	ldr	r0, [pc, #32]	; (1880 <in_transfer_completed_handler+0x5c>)
    185e:	f000 f8f7 	bl	1a50 <log_info>
    1862:	4b04      	ldr	r3, [pc, #16]	; (1874 <in_transfer_completed_handler+0x50>)
    1864:	681b      	ldr	r3, [r3, #0]
    1866:	2205      	movs	r2, #5
    1868:	705a      	strb	r2, [r3, #1]
    186a:	bf00      	nop
    186c:	3708      	adds	r7, #8
    186e:	46bd      	mov	sp, r7
    1870:	bd80      	pop	{r7, pc}
    1872:	bf00      	nop
    1874:	2000011c 	andcs	r0, r0, ip, lsl r1
    1878:	00001e28 	andeq	r1, r0, r8, lsr #28
    187c:	00001ca0 	andeq	r1, r0, r0, lsr #25
    1880:	00001e00 	andeq	r1, r0, r0, lsl #28

00001884 <setup_data_received_handler>:
    1884:	b580      	push	{r7, lr}
    1886:	b082      	sub	sp, #8
    1888:	af00      	add	r7, sp, #0
    188a:	6078      	str	r0, [r7, #4]
    188c:	460b      	mov	r3, r1
    188e:	807b      	strh	r3, [r7, #2]
    1890:	4b0f      	ldr	r3, [pc, #60]	; (18d0 <setup_data_received_handler+0x4c>)
    1892:	681b      	ldr	r3, [r3, #0]
    1894:	2b00      	cmp	r3, #0
    1896:	d017      	beq.n	18c8 <setup_data_received_handler+0x44>
    1898:	4b0e      	ldr	r3, [pc, #56]	; (18d4 <setup_data_received_handler+0x50>)
    189a:	6a9b      	ldr	r3, [r3, #40]	; 0x28
    189c:	4a0c      	ldr	r2, [pc, #48]	; (18d0 <setup_data_received_handler+0x4c>)
    189e:	6812      	ldr	r2, [r2, #0]
    18a0:	6851      	ldr	r1, [r2, #4]
    18a2:	887a      	ldrh	r2, [r7, #2]
    18a4:	6878      	ldr	r0, [r7, #4]
    18a6:	4798      	blx	r3
    18a8:	4b09      	ldr	r3, [pc, #36]	; (18d0 <setup_data_received_handler+0x4c>)
    18aa:	681b      	ldr	r3, [r3, #0]
    18ac:	685b      	ldr	r3, [r3, #4]
    18ae:	887a      	ldrh	r2, [r7, #2]
    18b0:	4619      	mov	r1, r3
    18b2:	4809      	ldr	r0, [pc, #36]	; (18d8 <setup_data_received_handler+0x54>)
    18b4:	f000 f880 	bl	19b8 <log_debug_array>
    18b8:	f7ff ff28 	bl	170c <process_request>
    18bc:	f7ff ff3e 	bl	173c <process_control_transfer_stage>
    18c0:	2000      	movs	r0, #0
    18c2:	f7ff ffaf 	bl	1824 <in_transfer_completed_handler>
    18c6:	e000      	b.n	18ca <setup_data_received_handler+0x46>
    18c8:	e7fe      	b.n	18c8 <setup_data_received_handler+0x44>
    18ca:	3708      	adds	r7, #8
    18cc:	46bd      	mov	sp, r7
    18ce:	bd80      	pop	{r7, pc}
    18d0:	2000011c 	andcs	r0, r0, ip, lsl r1
    18d4:	00001ca0 	andeq	r1, r0, r0, lsr #25
    18d8:	00001e4c 	andeq	r1, r0, ip, asr #28

000018dc <USBDEndpointHandler>:
    18dc:	b580      	push	{r7, lr}
    18de:	b086      	sub	sp, #24
    18e0:	af00      	add	r7, sp, #0
    18e2:	6078      	str	r0, [r7, #4]
    18e4:	6039      	str	r1, [r7, #0]
    18e6:	2300      	movs	r3, #0
    18e8:	613b      	str	r3, [r7, #16]
    18ea:	2300      	movs	r3, #0
    18ec:	75fb      	strb	r3, [r7, #23]
    18ee:	2300      	movs	r3, #0
    18f0:	81fb      	strh	r3, [r7, #14]
    18f2:	4b20      	ldr	r3, [pc, #128]	; (1974 <USBDEndpointHandler+0x98>)
    18f4:	6a5b      	ldr	r3, [r3, #36]	; 0x24
    18f6:	687a      	ldr	r2, [r7, #4]
    18f8:	f107 0110 	add.w	r1, r7, #16
    18fc:	4610      	mov	r0, r2
    18fe:	4798      	blx	r3
    1900:	4b1c      	ldr	r3, [pc, #112]	; (1974 <USBDEndpointHandler+0x98>)
    1902:	6b1b      	ldr	r3, [r3, #48]	; 0x30
    1904:	f107 020e 	add.w	r2, r7, #14
    1908:	4611      	mov	r1, r2
    190a:	6878      	ldr	r0, [r7, #4]
    190c:	4798      	blx	r3
    190e:	693a      	ldr	r2, [r7, #16]
    1910:	89fb      	ldrh	r3, [r7, #14]
    1912:	6879      	ldr	r1, [r7, #4]
    1914:	4818      	ldr	r0, [pc, #96]	; (1978 <USBDEndpointHandler+0x9c>)
    1916:	f000 f89b 	bl	1a50 <log_info>
    191a:	687b      	ldr	r3, [r7, #4]
    191c:	2b00      	cmp	r3, #0
    191e:	d10a      	bne.n	1936 <USBDEndpointHandler+0x5a>
    1920:	693b      	ldr	r3, [r7, #16]
    1922:	f003 0301 	and.w	r3, r3, #1
    1926:	2b00      	cmp	r3, #0
    1928:	d01f      	beq.n	196a <USBDEndpointHandler+0x8e>
    192a:	4a14      	ldr	r2, [pc, #80]	; (197c <USBDEndpointHandler+0xa0>)
    192c:	89fb      	ldrh	r3, [r7, #14]
    192e:	4619      	mov	r1, r3
    1930:	6878      	ldr	r0, [r7, #4]
    1932:	4790      	blx	r2
    1934:	e019      	b.n	196a <USBDEndpointHandler+0x8e>
    1936:	683b      	ldr	r3, [r7, #0]
    1938:	0a1b      	lsrs	r3, r3, #8
    193a:	b2db      	uxtb	r3, r3
    193c:	2b00      	cmp	r3, #0
    193e:	d005      	beq.n	194c <USBDEndpointHandler+0x70>
    1940:	22bf      	movs	r2, #191	; 0xbf
    1942:	490f      	ldr	r1, [pc, #60]	; (1980 <USBDEndpointHandler+0xa4>)
    1944:	480f      	ldr	r0, [pc, #60]	; (1984 <USBDEndpointHandler+0xa8>)
    1946:	f000 f8a5 	bl	1a94 <log_error>
    194a:	e00f      	b.n	196c <USBDEndpointHandler+0x90>
    194c:	683b      	ldr	r3, [r7, #0]
    194e:	0c1b      	lsrs	r3, r3, #16
    1950:	b2db      	uxtb	r3, r3
    1952:	2b00      	cmp	r3, #0
    1954:	d005      	beq.n	1962 <USBDEndpointHandler+0x86>
    1956:	22c2      	movs	r2, #194	; 0xc2
    1958:	4909      	ldr	r1, [pc, #36]	; (1980 <USBDEndpointHandler+0xa4>)
    195a:	480a      	ldr	r0, [pc, #40]	; (1984 <USBDEndpointHandler+0xa8>)
    195c:	f000 f89a 	bl	1a94 <log_error>
    1960:	e004      	b.n	196c <USBDEndpointHandler+0x90>
    1962:	4809      	ldr	r0, [pc, #36]	; (1988 <USBDEndpointHandler+0xac>)
    1964:	f000 f896 	bl	1a94 <log_error>
    1968:	e000      	b.n	196c <USBDEndpointHandler+0x90>
    196a:	bf00      	nop
    196c:	bf00      	nop
    196e:	3718      	adds	r7, #24
    1970:	46bd      	mov	sp, r7
    1972:	bd80      	pop	{r7, pc}
    1974:	00001ca0 	andeq	r1, r0, r0, lsr #25
    1978:	00001e5c 	andeq	r1, r0, ip, asr lr
    197c:	00001885 	andeq	r1, r0, r5, lsl #17
    1980:	00001eb8 			; <UNDEFINED> instruction: 0x00001eb8
    1984:	00001e98 	muleq	r0, r8, lr
    1988:	00001ea8 	andeq	r1, r0, r8, lsr #29

0000198c <USBInterruptStatus>:
    198c:	b580      	push	{r7, lr}
    198e:	b082      	sub	sp, #8
    1990:	af00      	add	r7, sp, #0
    1992:	2300      	movs	r3, #0
    1994:	607b      	str	r3, [r7, #4]
    1996:	4b07      	ldr	r3, [pc, #28]	; (19b4 <USBInterruptStatus+0x28>)
    1998:	6b9b      	ldr	r3, [r3, #56]	; 0x38
    199a:	1d3a      	adds	r2, r7, #4
    199c:	4610      	mov	r0, r2
    199e:	4798      	blx	r3
    19a0:	4b04      	ldr	r3, [pc, #16]	; (19b4 <USBInterruptStatus+0x28>)
    19a2:	6b5b      	ldr	r3, [r3, #52]	; 0x34
    19a4:	687a      	ldr	r2, [r7, #4]
    19a6:	4610      	mov	r0, r2
    19a8:	4798      	blx	r3
    19aa:	bf00      	nop
    19ac:	3708      	adds	r7, #8
    19ae:	46bd      	mov	sp, r7
    19b0:	bd80      	pop	{r7, pc}
    19b2:	bf00      	nop
    19b4:	00001ca0 	andeq	r1, r0, r0, lsr #25

000019b8 <log_debug_array>:
    19b8:	b580      	push	{r7, lr}
    19ba:	b086      	sub	sp, #24
    19bc:	af00      	add	r7, sp, #0
    19be:	60f8      	str	r0, [r7, #12]
    19c0:	60b9      	str	r1, [r7, #8]
    19c2:	4613      	mov	r3, r2
    19c4:	80fb      	strh	r3, [r7, #6]
    19c6:	2300      	movs	r3, #0
    19c8:	617b      	str	r3, [r7, #20]
    19ca:	68f8      	ldr	r0, [r7, #12]
    19cc:	f7fe ff98 	bl	900 <UARTprintf>
    19d0:	2300      	movs	r3, #0
    19d2:	617b      	str	r3, [r7, #20]
    19d4:	e00a      	b.n	19ec <log_debug_array+0x34>
    19d6:	68ba      	ldr	r2, [r7, #8]
    19d8:	697b      	ldr	r3, [r7, #20]
    19da:	4413      	add	r3, r2
    19dc:	781b      	ldrb	r3, [r3, #0]
    19de:	4619      	mov	r1, r3
    19e0:	4808      	ldr	r0, [pc, #32]	; (1a04 <log_debug_array+0x4c>)
    19e2:	f7fe ff8d 	bl	900 <UARTprintf>
    19e6:	697b      	ldr	r3, [r7, #20]
    19e8:	3301      	adds	r3, #1
    19ea:	617b      	str	r3, [r7, #20]
    19ec:	88fb      	ldrh	r3, [r7, #6]
    19ee:	697a      	ldr	r2, [r7, #20]
    19f0:	429a      	cmp	r2, r3
    19f2:	d3f0      	bcc.n	19d6 <log_debug_array+0x1e>
    19f4:	4804      	ldr	r0, [pc, #16]	; (1a08 <log_debug_array+0x50>)
    19f6:	f7fe ff83 	bl	900 <UARTprintf>
    19fa:	bf00      	nop
    19fc:	3718      	adds	r7, #24
    19fe:	46bd      	mov	sp, r7
    1a00:	bd80      	pop	{r7, pc}
    1a02:	bf00      	nop
    1a04:	00001ecc 	andeq	r1, r0, ip, asr #29
    1a08:	00001ed4 	ldrdeq	r1, [r0], -r4

00001a0c <_get_log_level_string>:
    1a0c:	b480      	push	{r7}
    1a0e:	b083      	sub	sp, #12
    1a10:	af00      	add	r7, sp, #0
    1a12:	4603      	mov	r3, r0
    1a14:	71fb      	strb	r3, [r7, #7]
    1a16:	79fb      	ldrb	r3, [r7, #7]
    1a18:	2b02      	cmp	r3, #2
    1a1a:	d00a      	beq.n	1a32 <_get_log_level_string+0x26>
    1a1c:	2b02      	cmp	r3, #2
    1a1e:	dc0a      	bgt.n	1a36 <_get_log_level_string+0x2a>
    1a20:	2b00      	cmp	r3, #0
    1a22:	d002      	beq.n	1a2a <_get_log_level_string+0x1e>
    1a24:	2b01      	cmp	r3, #1
    1a26:	d002      	beq.n	1a2e <_get_log_level_string+0x22>
    1a28:	e005      	b.n	1a36 <_get_log_level_string+0x2a>
    1a2a:	4b06      	ldr	r3, [pc, #24]	; (1a44 <_get_log_level_string+0x38>)
    1a2c:	e003      	b.n	1a36 <_get_log_level_string+0x2a>
    1a2e:	4b06      	ldr	r3, [pc, #24]	; (1a48 <_get_log_level_string+0x3c>)
    1a30:	e001      	b.n	1a36 <_get_log_level_string+0x2a>
    1a32:	4b06      	ldr	r3, [pc, #24]	; (1a4c <_get_log_level_string+0x40>)
    1a34:	e7ff      	b.n	1a36 <_get_log_level_string+0x2a>
    1a36:	4618      	mov	r0, r3
    1a38:	370c      	adds	r7, #12
    1a3a:	46bd      	mov	sp, r7
    1a3c:	f85d 7b04 	ldr.w	r7, [sp], #4
    1a40:	4770      	bx	lr
    1a42:	bf00      	nop
    1a44:	00001ed8 	ldrdeq	r1, [r0], -r8
    1a48:	00001ee0 	andeq	r1, r0, r0, ror #29
    1a4c:	00001ee8 	andeq	r1, r0, r8, ror #29

00001a50 <log_info>:
    1a50:	b40f      	push	{r0, r1, r2, r3}
    1a52:	b580      	push	{r7, lr}
    1a54:	b082      	sub	sp, #8
    1a56:	af00      	add	r7, sp, #0
    1a58:	f107 0314 	add.w	r3, r7, #20
    1a5c:	607b      	str	r3, [r7, #4]
    1a5e:	2001      	movs	r0, #1
    1a60:	f7ff ffd4 	bl	1a0c <_get_log_level_string>
    1a64:	4603      	mov	r3, r0
    1a66:	4619      	mov	r1, r3
    1a68:	4808      	ldr	r0, [pc, #32]	; (1a8c <log_info+0x3c>)
    1a6a:	f7fe ff49 	bl	900 <UARTprintf>
    1a6e:	6879      	ldr	r1, [r7, #4]
    1a70:	6938      	ldr	r0, [r7, #16]
    1a72:	f7fe fd41 	bl	4f8 <UARTvprintf>
    1a76:	4806      	ldr	r0, [pc, #24]	; (1a90 <log_info+0x40>)
    1a78:	f7fe ff42 	bl	900 <UARTprintf>
    1a7c:	bf00      	nop
    1a7e:	3708      	adds	r7, #8
    1a80:	46bd      	mov	sp, r7
    1a82:	e8bd 4080 	ldmia.w	sp!, {r7, lr}
    1a86:	b004      	add	sp, #16
    1a88:	4770      	bx	lr
    1a8a:	bf00      	nop
    1a8c:	00001ef0 	strdeq	r1, [r0], -r0
    1a90:	00001ed4 	ldrdeq	r1, [r0], -r4

00001a94 <log_error>:
    1a94:	b40f      	push	{r0, r1, r2, r3}
    1a96:	b580      	push	{r7, lr}
    1a98:	b082      	sub	sp, #8
    1a9a:	af00      	add	r7, sp, #0
    1a9c:	f107 0314 	add.w	r3, r7, #20
    1aa0:	607b      	str	r3, [r7, #4]
    1aa2:	2000      	movs	r0, #0
    1aa4:	f7ff ffb2 	bl	1a0c <_get_log_level_string>
    1aa8:	4603      	mov	r3, r0
    1aaa:	4619      	mov	r1, r3
    1aac:	4808      	ldr	r0, [pc, #32]	; (1ad0 <log_error+0x3c>)
    1aae:	f7fe ff27 	bl	900 <UARTprintf>
    1ab2:	6879      	ldr	r1, [r7, #4]
    1ab4:	6938      	ldr	r0, [r7, #16]
    1ab6:	f7fe fd1f 	bl	4f8 <UARTvprintf>
    1aba:	4806      	ldr	r0, [pc, #24]	; (1ad4 <log_error+0x40>)
    1abc:	f7fe ff20 	bl	900 <UARTprintf>
    1ac0:	bf00      	nop
    1ac2:	3708      	adds	r7, #8
    1ac4:	46bd      	mov	sp, r7
    1ac6:	e8bd 4080 	ldmia.w	sp!, {r7, lr}
    1aca:	b004      	add	sp, #16
    1acc:	4770      	bx	lr
    1ace:	bf00      	nop
    1ad0:	00001ef0 	strdeq	r1, [r0], -r0
    1ad4:	00001ed4 	ldrdeq	r1, [r0], -r4

00001ad8 <__error__>:
    1ad8:	b580      	push	{r7, lr}
    1ada:	b082      	sub	sp, #8
    1adc:	af00      	add	r7, sp, #0
    1ade:	6078      	str	r0, [r7, #4]
    1ae0:	6039      	str	r1, [r7, #0]
    1ae2:	683a      	ldr	r2, [r7, #0]
    1ae4:	6879      	ldr	r1, [r7, #4]
    1ae6:	4803      	ldr	r0, [pc, #12]	; (1af4 <__error__+0x1c>)
    1ae8:	f7fe ff0a 	bl	900 <UARTprintf>
    1aec:	bf00      	nop
    1aee:	3708      	adds	r7, #8
    1af0:	46bd      	mov	sp, r7
    1af2:	bd80      	pop	{r7, pc}
    1af4:	00001ef8 	strdeq	r1, [r0], -r8
    1af8:	74736554 	ldrbtvc	r6, [r3], #-1364	; 0xfffffaac
    1afc:	000a3220 	andeq	r3, sl, r0, lsr #4
    1b00:	626d754e 	rsbvs	r7, sp, #327155712	; 0x13800000
    1b04:	6f207265 	svcvs	0x00207265
    1b08:	6e692066 	cdpvs	0, 6, cr2, cr9, cr6, {3}
    1b0c:	72726574 	rsbsvc	r6, r2, #116, 10	; 0x1d000000
    1b10:	73747075 	cmnvc	r4, #117	; 0x75
    1b14:	6425203a 	strtvs	r2, [r5], #-58	; 0xffffffc6
    1b18:	0000000d 	andeq	r0, r0, sp
    1b1c:	4349564e 	movtmi	r5, #38478	; 0x964e
    1b20:	5541465f 	strbpl	r4, [r1, #-1631]	; 0xfffff9a1
    1b24:	535f544c 	cmppl	pc, #76, 8	; 0x4c000000
    1b28:	3d544154 	ldfcce	f4, [r4, #-336]	; 0xfffffeb0
    1b2c:	202c7825 	eorcs	r7, ip, r5, lsr #16
    1b30:	4c554146 	ldfmie	f4, [r5], {70}	; 0x46
    1b34:	44444154 	strbmi	r4, [r4], #-340	; 0xfffffeac
    1b38:	78253d52 	stmdavc	r5!, {r1, r4, r6, r8, sl, fp, ip, sp}
    1b3c:	0000000a 	andeq	r0, r0, sl
    1b40:	33323130 	teqcc	r2, #48, 2
    1b44:	37363534 			; <UNDEFINED> instruction: 0x37363534
    1b48:	62613938 	rsbvs	r3, r1, #56, 18	; 0xe0000
    1b4c:	66656463 	strbtvs	r6, [r5], -r3, ror #8
    1b50:	00000000 	andeq	r0, r0, r0
    1b54:	2e2f2e2e 	cdpcs	14, 2, cr2, cr15, cr14, {1}
    1b58:	69542f2e 	ldmdbvs	r4, {r1, r2, r3, r5, r8, r9, sl, fp, sp}^
    1b5c:	61576176 	cmpvs	r7, r6, ror r1
    1b60:	752f6572 	strvc	r6, [pc, #-1394]!	; 15f6 <USBDIntHandler+0x6a>
    1b64:	736c6974 	cmnvc	ip, #116, 18	; 0x1d0000
    1b68:	7261752f 	rsbvc	r7, r1, #197132288	; 0xbc00000
    1b6c:	64747374 	ldrbtvs	r7, [r4], #-884	; 0xfffffc8c
    1b70:	632e6f69 			; <UNDEFINED> instruction: 0x632e6f69
    1b74:	00000000 	andeq	r0, r0, r0
    1b78:	00082008 	andeq	r2, r8, r8
    1b7c:	00000a0d 	andeq	r0, r0, sp, lsl #20
    1b80:	00000020 	andeq	r0, r0, r0, lsr #32
    1b84:	4f525245 	svcmi	0x00525245
    1b88:	00000052 	andeq	r0, r0, r2, asr r0

00001b8c <g_ui32UARTBase>:
    1b8c:	4000c000 	andmi	ip, r0, r0
    1b90:	4000d000 	andmi	sp, r0, r0
    1b94:	4000e000 	andmi	lr, r0, r0

00001b98 <g_ui32UARTPeriph>:
    1b98:	f0001800 			; <UNDEFINED> instruction: 0xf0001800
    1b9c:	f0001801 			; <UNDEFINED> instruction: 0xf0001801
    1ba0:	f0001802 			; <UNDEFINED> instruction: 0xf0001802

00001ba4 <g_pui32GPIOBaseAddrs>:
    1ba4:	40004000 	andmi	r4, r0, r0
    1ba8:	40058000 	andmi	r8, r5, r0
    1bac:	40005000 	andmi	r5, r0, r0
    1bb0:	40059000 	andmi	r9, r5, r0
    1bb4:	40006000 	andmi	r6, r0, r0
    1bb8:	4005a000 	andmi	sl, r5, r0
    1bbc:	40007000 	andmi	r7, r0, r0
    1bc0:	4005b000 	andmi	fp, r5, r0
    1bc4:	40024000 	andmi	r4, r2, r0
    1bc8:	4005c000 	andmi	ip, r5, r0
    1bcc:	40025000 	andmi	r5, r2, r0
    1bd0:	4005d000 	andmi	sp, r5, r0
    1bd4:	40026000 	andmi	r6, r2, r0
    1bd8:	4005e000 	andmi	lr, r5, r0
    1bdc:	40027000 	andmi	r7, r2, r0
    1be0:	4005f000 	andmi	pc, r5, r0
    1be4:	4003d000 	andmi	sp, r3, r0
    1be8:	40060000 	andmi	r0, r6, r0
    1bec:	40061000 	andmi	r1, r6, r0
    1bf0:	40061000 	andmi	r1, r6, r0
    1bf4:	40062000 	andmi	r2, r6, r0
    1bf8:	40062000 	andmi	r2, r6, r0
    1bfc:	40063000 	andmi	r3, r6, r0
    1c00:	40063000 	andmi	r3, r6, r0
    1c04:	40064000 	andmi	r4, r6, r0
    1c08:	40064000 	andmi	r4, r6, r0
    1c0c:	40065000 	andmi	r5, r6, r0
    1c10:	40065000 	andmi	r5, r6, r0
    1c14:	40066000 	andmi	r6, r6, r0
    1c18:	40066000 	andmi	r6, r6, r0
    1c1c:	40067000 	andmi	r7, r6, r0
    1c20:	40067000 	andmi	r7, r6, r0
    1c24:	40068000 	andmi	r8, r6, r0
    1c28:	40068000 	andmi	r8, r6, r0
    1c2c:	40069000 	andmi	r9, r6, r0
    1c30:	40069000 	andmi	r9, r6, r0

00001c34 <g_pui32Xtals>:
    1c34:	000f4240 	andeq	r4, pc, r0, asr #4
    1c38:	001c2000 	andseq	r2, ip, r0
    1c3c:	001e8480 	andseq	r8, lr, r0, lsl #9
    1c40:	00258000 	eoreq	r8, r5, r0
    1c44:	00369e99 	mlaseq	r6, r9, lr, r9
    1c48:	00384000 	eorseq	r4, r8, r0
    1c4c:	003d0900 	eorseq	r0, sp, r0, lsl #18
    1c50:	003e8000 	eorseq	r8, lr, r0
    1c54:	004b0000 	subeq	r0, fp, r0
    1c58:	004c4b40 	subeq	r4, ip, r0, asr #22
    1c5c:	004e2000 	subeq	r2, lr, r0
    1c60:	005b8d80 	subseq	r8, fp, r0, lsl #27
    1c64:	005dc000 	subseq	ip, sp, r0
    1c68:	00708000 	rsbseq	r8, r0, r0
    1c6c:	007a1200 	rsbseq	r1, sl, r0, lsl #4
    1c70:	007d0000 	rsbseq	r0, sp, r0
    1c74:	00989680 	addseq	r9, r8, r0, lsl #13
    1c78:	00b71b00 	adcseq	r1, r7, r0, lsl #22
    1c7c:	00bb8000 	adcseq	r8, fp, r0
    1c80:	00cee8c0 	sbceq	lr, lr, r0, asr #17
    1c84:	00da7a64 	sbcseq	r7, sl, r4, ror #20
    1c88:	00f42400 	rscseq	r2, r4, r0, lsl #8
    1c8c:	00fa0000 	rscseq	r0, sl, r0
    1c90:	0112a880 	tsteq	r2, r0, lsl #17
    1c94:	01312d00 	teqeq	r1, r0, lsl #26
    1c98:	016e3600 	cmneq	lr, r0, lsl #12
    1c9c:	017d7840 	cmneq	sp, r0, asr #16

00001ca0 <usb_driver>:
    1ca0:	00001579 	andeq	r1, r0, r9, ror r5
    1ca4:	00000e4d 	andeq	r0, r0, sp, asr #28
    1ca8:	00000ef9 	strdeq	r0, [r0], -r9
    1cac:	00000f19 	andeq	r0, r0, r9, lsl pc
    1cb0:	0000103d 	andeq	r1, r0, sp, lsr r0
    1cb4:	00001075 	andeq	r1, r0, r5, ror r0
    1cb8:	000010c9 	andeq	r1, r0, r9, asr #1
    1cbc:	00001129 	andeq	r1, r0, r9, lsr #2
    1cc0:	00001405 	andeq	r1, r0, r5, lsl #8
    1cc4:	000014ed 	andeq	r1, r0, sp, ror #9
    1cc8:	000013a9 	andeq	r1, r0, r9, lsr #7
    1ccc:	00000f39 	andeq	r0, r0, r9, lsr pc
    1cd0:	000014ad 	andeq	r1, r0, sp, lsr #9
    1cd4:	0000158d 	andeq	r1, r0, sp, lsl #11
    1cd8:	00001461 	andeq	r1, r0, r1, ror #8

00001cdc <device_descriptor>:
    1cdc:	02000112 	andeq	r0, r0, #-2147483644	; 0x80000004
    1ce0:	40000000 	andmi	r0, r0, r0
    1ce4:	13aa6666 			; <UNDEFINED> instruction: 0x13aa6666
    1ce8:	00000100 	andeq	r0, r0, r0, lsl #2
    1cec:	00000100 	andeq	r0, r0, r0, lsl #2

00001cf0 <usb_events>:
    1cf0:	00001649 	andeq	r1, r0, r9, asr #12
    1cf4:	00001885 	andeq	r1, r0, r5, lsl #17
    1cf8:	00000000 	andeq	r0, r0, r0
    1cfc:	00001825 	andeq	r1, r0, r5, lsr #16
	...
    1d08:	000018dd 	ldrdeq	r1, [r0], -sp
    1d0c:	6e617453 	mcrvs	4, 3, r7, cr1, cr3, {2}
    1d10:	64726164 	ldrbtvs	r6, [r2], #-356	; 0xfffffe9c
    1d14:	74654720 	strbtvc	r4, [r5], #-1824	; 0xfffff8e0
    1d18:	73654420 	cmnvc	r5, #32, 8	; 0x20000000
    1d1c:	70697263 	rsbvc	r7, r9, r3, ror #4
    1d20:	20726f74 	rsbscs	r6, r2, r4, ror pc
    1d24:	75716572 	ldrbvc	r6, [r1, #-1394]!	; 0xfffffa8e
    1d28:	20747365 	rsbscs	r7, r4, r5, ror #6
    1d2c:	65636572 	strbvs	r6, [r3, #-1394]!	; 0xfffffa8e
    1d30:	64657669 	strbtvs	r7, [r5], #-1641	; 0xfffff997
    1d34:	0000002e 	andeq	r0, r0, lr, lsr #32
    1d38:	6547202d 	strbvs	r2, [r7, #-45]	; 0xffffffd3
    1d3c:	65442074 	strbvs	r2, [r4, #-116]	; 0xffffff8c
    1d40:	65636976 	strbvs	r6, [r3, #-2422]!	; 0xfffff68a
    1d44:	73654420 	cmnvc	r5, #32, 8	; 0x20000000
    1d48:	70697263 	rsbvc	r7, r9, r3, ror #4
    1d4c:	2e726f74 	mrccs	15, 3, r6, cr2, cr4, {3}
    1d50:	00000000 	andeq	r0, r0, r0
    1d54:	74697753 	strbtvc	r7, [r9], #-1875	; 0xfffff8ad
    1d58:	63206863 			; <UNDEFINED> instruction: 0x63206863
    1d5c:	72746e6f 	rsbsvc	r6, r4, #1776	; 0x6f0
    1d60:	73206c6f 			; <UNDEFINED> instruction: 0x73206c6f
    1d64:	65676174 	strbvs	r6, [r7, #-372]!	; 0xfffffe8c
    1d68:	206f7420 	rsbcs	r7, pc, r0, lsr #8
    1d6c:	2d4e4920 	vstrcs.16	s9, [lr, #-64]	; 0xffffffc0	; <UNPREDICTABLE>
    1d70:	41544144 	cmpmi	r4, r4, asr #2
    1d74:	0000002e 	andeq	r0, r0, lr, lsr #32
    1d78:	6568744f 	strbvs	r7, [r8, #-1103]!	; 0xfffffbb1
    1d7c:	65722072 	ldrbvs	r2, [r2, #-114]!	; 0xffffff8e
    1d80:	73657571 	cmnvc	r5, #473956352	; 0x1c400000
    1d84:	54203a74 	strtpl	r3, [r0], #-2676	; 0xfffff58c
    1d88:	004f444f 	subeq	r4, pc, pc, asr #8
    1d8c:	636f7250 	cmnvs	pc, #80, 4
    1d90:	69737365 	ldmdbvs	r3!, {r0, r2, r5, r6, r8, r9, ip, sp, lr}^
    1d94:	4920676e 	stmdbmi	r0!, {r1, r2, r3, r5, r6, r8, r9, sl, sp, lr}
    1d98:	41442d4e 	cmpmi	r4, lr, asr #26
    1d9c:	73204154 			; <UNDEFINED> instruction: 0x73204154
    1da0:	65676174 	strbvs	r6, [r7, #-372]!	; 0xfffffe8c
    1da4:	0000002e 	andeq	r0, r0, lr, lsr #32
    1da8:	74697753 	strbtvc	r7, [r9], #-1875	; 0xfffff8ad
    1dac:	6e696863 	cdpvs	8, 6, cr6, cr9, cr3, {3}
    1db0:	6f632067 	svcvs	0x00632067
    1db4:	6f72746e 	svcvs	0x0072746e
    1db8:	7473206c 	ldrbtvc	r2, [r3], #-108	; 0xffffff94
    1dbc:	20656761 	rsbcs	r6, r5, r1, ror #14
    1dc0:	49206f74 	stmdbmi	r0!, {r2, r4, r5, r6, r8, r9, sl, fp, sp, lr}
    1dc4:	41442d4e 	cmpmi	r4, lr, asr #26
    1dc8:	49204154 	stmdbmi	r0!, {r2, r4, r6, r8, lr}
    1dcc:	2e454c44 	cdpcs	12, 4, cr4, cr5, cr4, {2}
    1dd0:	00000000 	andeq	r0, r0, r0
    1dd4:	74697753 	strbtvc	r7, [r9], #-1875	; 0xfffff8ad
    1dd8:	6e696863 	cdpvs	8, 6, cr6, cr9, cr3, {3}
    1ddc:	6f632067 	svcvs	0x00632067
    1de0:	6f72746e 	svcvs	0x0072746e
    1de4:	7473206c 	ldrbtvc	r2, [r3], #-108	; 0xffffff94
    1de8:	20656761 	rsbcs	r6, r5, r1, ror #14
    1dec:	49206f74 	stmdbmi	r0!, {r2, r4, r5, r6, r8, r9, sl, fp, sp, lr}
    1df0:	41442d4e 	cmpmi	r4, lr, asr #26
    1df4:	5a204154 	bpl	81234c <_etext+0x8103fd>
    1df8:	2e4f5245 	cdpcs	2, 4, cr5, cr15, cr5, {2}
    1dfc:	00000000 	andeq	r0, r0, r0
    1e00:	74697753 	strbtvc	r7, [r9], #-1875	; 0xfffff8ad
    1e04:	6e696863 	cdpvs	8, 6, cr6, cr9, cr3, {3}
    1e08:	6f632067 	svcvs	0x00632067
    1e0c:	6f72746e 	svcvs	0x0072746e
    1e10:	7473206c 	ldrbtvc	r2, [r3], #-108	; 0xffffff94
    1e14:	20656761 	rsbcs	r6, r5, r1, ror #14
    1e18:	4f206f74 	svcmi	0x00206f74
    1e1c:	532d5455 			; <UNDEFINED> instruction: 0x532d5455
    1e20:	55544154 	ldrbpl	r4, [r4, #-340]	; 0xfffffeac
    1e24:	00002e53 	andeq	r2, r0, r3, asr lr
    1e28:	74697753 	strbtvc	r7, [r9], #-1875	; 0xfffff8ad
    1e2c:	6e696863 	cdpvs	8, 6, cr6, cr9, cr3, {3}
    1e30:	6f632067 	svcvs	0x00632067
    1e34:	6f72746e 	svcvs	0x0072746e
    1e38:	7473206c 	ldrbtvc	r2, [r3], #-108	; 0xffffff94
    1e3c:	20656761 	rsbcs	r6, r5, r1, ror #14
    1e40:	49206f74 	stmdbmi	r0!, {r2, r4, r5, r6, r8, r9, sl, fp, sp, lr}
    1e44:	41442d4e 	cmpmi	r4, lr, asr #26
    1e48:	002e4154 	eoreq	r4, lr, r4, asr r1
    1e4c:	55544553 	ldrbpl	r4, [r4, #-1363]	; 0xfffffaad
    1e50:	61642050 	qdsubvs	r2, r0, r4
    1e54:	203a6174 	eorscs	r6, sl, r4, ror r1
    1e58:	00000000 	andeq	r0, r0, r0
    1e5c:	70646e45 	rsbvc	r6, r4, r5, asr #28
    1e60:	746e696f 	strbtvc	r6, [lr], #-2415	; 0xfffff691
    1e64:	6e6f6320 	cdpvs	3, 6, cr6, cr15, cr0, {1}
    1e68:	6c6f7274 	sfmvs	f7, 2, [pc], #-464	; 1ca0 <usb_driver>
    1e6c:	61747320 	cmnvs	r4, r0, lsr #6
    1e70:	20737574 	rsbscs	r7, r3, r4, ror r5
    1e74:	4520666f 	strmi	r6, [r0, #-1647]!	; 0xfffff991
    1e78:	20642550 	rsbcs	r2, r4, r0, asr r5
    1e7c:	30207369 	eorcc	r7, r0, r9, ror #6
    1e80:	20782578 	rsbscs	r2, r8, r8, ror r5
    1e84:	20646e61 	rsbcs	r6, r4, r1, ror #28
    1e88:	6b636170 	blvs	18da450 <_etext+0x18d8501>
    1e8c:	73207465 			; <UNDEFINED> instruction: 0x73207465
    1e90:	3d657a69 	vstmdbcc	r5!, {s15-s119}
    1e94:	002e6425 	eoreq	r6, lr, r5, lsr #8
    1e98:	5d73255b 	cfldr64pl	mvdx2, [r3, #-364]!	; 0xfffffe94
    1e9c:	5d64255b 	cfstr64pl	mvdx2, [r4, #-364]!	; 0xfffffe94
    1ea0:	444f5420 	strbmi	r5, [pc], #-1056	; 1ea8 <usb_events+0x1b8>
    1ea4:	0000004f 	andeq	r0, r0, pc, asr #32
    1ea8:	736c6146 	cmnvc	ip, #-2147483631	; 0x80000011
    1eac:	61632065 	cmnvs	r3, r5, rrx
    1eb0:	21216573 			; <UNDEFINED> instruction: 0x21216573
    1eb4:	00212121 	eoreq	r2, r1, r1, lsr #2

00001eb8 <__FUNCTION__.0>:
    1eb8:	44425355 	strbmi	r5, [r2], #-853	; 0xfffffcab
    1ebc:	70646e45 	rsbvc	r6, r4, r5, asr #28
    1ec0:	746e696f 	strbtvc	r6, [lr], #-2415	; 0xfffff691
    1ec4:	646e6148 	strbtvs	r6, [lr], #-328	; 0xfffffeb8
    1ec8:	0072656c 	rsbseq	r6, r2, ip, ror #10
    1ecc:	78323025 	ldmdavc	r2!, {r0, r2, r5, ip, sp}
    1ed0:	00000020 	andeq	r0, r0, r0, lsr #32
    1ed4:	0000000a 	andeq	r0, r0, sl
    1ed8:	4f525245 	svcmi	0x00525245
    1edc:	00000052 	andeq	r0, r0, r2, asr r0
    1ee0:	4f464e49 	svcmi	0x00464e49
    1ee4:	00000000 	andeq	r0, r0, r0
    1ee8:	55424544 	strbpl	r4, [r2, #-1348]	; 0xfffffabc
    1eec:	00000047 	andeq	r0, r0, r7, asr #32
    1ef0:	5d73255b 	cfldr64pl	mvdx2, [r3, #-364]!	; 0xfffffe94
    1ef4:	00000020 	andeq	r0, r0, r0, lsr #32
    1ef8:	4245445b 	submi	r4, r5, #1526726656	; 0x5b000000
    1efc:	205d4755 	subscs	r4, sp, r5, asr r7
    1f00:	253a7325 	ldrcs	r7, [sl, #-805]!	; 0xfffffcdb
    1f04:	000a0d64 	andeq	r0, sl, r4, ror #26
    1f08:	0030564c 	eorseq	r5, r0, ip, asr #12
    1f0c:	0031564c 	eorseq	r5, r1, ip, asr #12
    1f10:	0032564c 	eorseq	r5, r2, ip, asr #12
    1f14:	00474f4c 	subeq	r4, r7, ip, asr #30
    1f18:	004e5257 	subeq	r5, lr, r7, asr r2
    1f1c:	00525245 	subseq	r5, r2, r5, asr #4
    1f20:	4f525245 	svcmi	0x00525245
    1f24:	454c2052 	strbmi	r2, [ip, #-82]	; 0xffffffae
    1f28:	004c4556 	subeq	r4, ip, r6, asr r5
    1f2c:	5d73255b 	cfldr64pl	mvdx2, [r3, #-364]!	; 0xfffffe94
    1f30:	00000000 	andeq	r0, r0, r0
    1f34:	33335b1b 	teqcc	r3, #27648	; 0x6c00
    1f38:	0000006d 	andeq	r0, r0, sp, rrx
    1f3c:	31335b1b 	teqcc	r3, fp, lsl fp
    1f40:	0000006d 	andeq	r0, r0, sp, rrx
    1f44:	6d305b1b 	fldmdbxvs	r0!, {d5-d17}	;@ Deprecated
    1f48:	00000000 	andeq	r0, r0, r0
    1f4c:	Address 0x00001f4c is out of bounds.

