
Build/main.axf:     file format elf32-littlearm


Disassembly of section .text:

00000000 <g_pfnVectors>:
       0:	20000218 	andcs	r0, r0, r8, lsl r2
       4:	000003b9 			; <UNDEFINED> instruction: 0x000003b9
       8:	00000425 	andeq	r0, r0, r5, lsr #8
       c:	0000042d 	andeq	r0, r0, sp, lsr #8
      10:	00000451 	andeq	r0, r0, r1, asr r4
      14:	00000451 	andeq	r0, r0, r1, asr r4
      18:	00000451 	andeq	r0, r0, r1, asr r4
	...
      2c:	00000451 	andeq	r0, r0, r1, asr r4
      30:	00000451 	andeq	r0, r0, r1, asr r4
      34:	00000000 	andeq	r0, r0, r0
      38:	00000451 	andeq	r0, r0, r1, asr r4
      3c:	00000451 	andeq	r0, r0, r1, asr r4
      40:	00000451 	andeq	r0, r0, r1, asr r4
      44:	00000451 	andeq	r0, r0, r1, asr r4
      48:	00000451 	andeq	r0, r0, r1, asr r4
      4c:	00000451 	andeq	r0, r0, r1, asr r4
      50:	00000451 	andeq	r0, r0, r1, asr r4
      54:	0000026d 	andeq	r0, r0, sp, ror #4
      58:	00000451 	andeq	r0, r0, r1, asr r4
      5c:	00000451 	andeq	r0, r0, r1, asr r4
      60:	00000451 	andeq	r0, r0, r1, asr r4
      64:	00000451 	andeq	r0, r0, r1, asr r4
      68:	00000451 	andeq	r0, r0, r1, asr r4
      6c:	00000451 	andeq	r0, r0, r1, asr r4
      70:	00000451 	andeq	r0, r0, r1, asr r4
      74:	00000451 	andeq	r0, r0, r1, asr r4
      78:	00000451 	andeq	r0, r0, r1, asr r4
      7c:	00000451 	andeq	r0, r0, r1, asr r4
      80:	00000451 	andeq	r0, r0, r1, asr r4
      84:	00000451 	andeq	r0, r0, r1, asr r4
      88:	00000451 	andeq	r0, r0, r1, asr r4
      8c:	00000451 	andeq	r0, r0, r1, asr r4
      90:	00000451 	andeq	r0, r0, r1, asr r4
      94:	00000451 	andeq	r0, r0, r1, asr r4
      98:	00000451 	andeq	r0, r0, r1, asr r4
      9c:	00000451 	andeq	r0, r0, r1, asr r4
      a0:	00000451 	andeq	r0, r0, r1, asr r4
      a4:	00000451 	andeq	r0, r0, r1, asr r4
      a8:	00000451 	andeq	r0, r0, r1, asr r4
      ac:	00000451 	andeq	r0, r0, r1, asr r4
      b0:	00000451 	andeq	r0, r0, r1, asr r4
      b4:	00000451 	andeq	r0, r0, r1, asr r4
      b8:	00000451 	andeq	r0, r0, r1, asr r4
      bc:	00000451 	andeq	r0, r0, r1, asr r4
      c0:	00000451 	andeq	r0, r0, r1, asr r4
      c4:	00000451 	andeq	r0, r0, r1, asr r4
      c8:	00000451 	andeq	r0, r0, r1, asr r4
      cc:	00000451 	andeq	r0, r0, r1, asr r4
      d0:	00000451 	andeq	r0, r0, r1, asr r4
      d4:	00000451 	andeq	r0, r0, r1, asr r4
      d8:	00000451 	andeq	r0, r0, r1, asr r4
      dc:	00000451 	andeq	r0, r0, r1, asr r4
      e0:	00000451 	andeq	r0, r0, r1, asr r4
      e4:	00000451 	andeq	r0, r0, r1, asr r4
      e8:	00000451 	andeq	r0, r0, r1, asr r4
      ec:	00000451 	andeq	r0, r0, r1, asr r4
      f0:	0000027b 	andeq	r0, r0, fp, ror r2
      f4:	00000451 	andeq	r0, r0, r1, asr r4
      f8:	00000451 	andeq	r0, r0, r1, asr r4
      fc:	00000451 	andeq	r0, r0, r1, asr r4
     100:	00000451 	andeq	r0, r0, r1, asr r4
     104:	00000451 	andeq	r0, r0, r1, asr r4
     108:	00000451 	andeq	r0, r0, r1, asr r4
     10c:	00000451 	andeq	r0, r0, r1, asr r4
     110:	00000451 	andeq	r0, r0, r1, asr r4
     114:	00000451 	andeq	r0, r0, r1, asr r4
     118:	00000451 	andeq	r0, r0, r1, asr r4
     11c:	00000451 	andeq	r0, r0, r1, asr r4
     120:	00000451 	andeq	r0, r0, r1, asr r4
     124:	00000451 	andeq	r0, r0, r1, asr r4
     128:	00000451 	andeq	r0, r0, r1, asr r4
     12c:	00000451 	andeq	r0, r0, r1, asr r4
     130:	00000451 	andeq	r0, r0, r1, asr r4
     134:	00000451 	andeq	r0, r0, r1, asr r4
     138:	00000451 	andeq	r0, r0, r1, asr r4
     13c:	00000451 	andeq	r0, r0, r1, asr r4
	...
     150:	00000451 	andeq	r0, r0, r1, asr r4
     154:	00000451 	andeq	r0, r0, r1, asr r4
     158:	00000451 	andeq	r0, r0, r1, asr r4
     15c:	00000451 	andeq	r0, r0, r1, asr r4
	...
     1b0:	00000451 	andeq	r0, r0, r1, asr r4
     1b4:	00000451 	andeq	r0, r0, r1, asr r4
     1b8:	00000451 	andeq	r0, r0, r1, asr r4
     1bc:	00000451 	andeq	r0, r0, r1, asr r4
     1c0:	00000451 	andeq	r0, r0, r1, asr r4
     1c4:	00000451 	andeq	r0, r0, r1, asr r4
     1c8:	00000451 	andeq	r0, r0, r1, asr r4
     1cc:	00000451 	andeq	r0, r0, r1, asr r4
     1d0:	00000451 	andeq	r0, r0, r1, asr r4
     1d4:	00000451 	andeq	r0, r0, r1, asr r4
     1d8:	00000451 	andeq	r0, r0, r1, asr r4
     1dc:	00000451 	andeq	r0, r0, r1, asr r4
     1e0:	00000451 	andeq	r0, r0, r1, asr r4
     1e4:	00000451 	andeq	r0, r0, r1, asr r4
     1e8:	00000451 	andeq	r0, r0, r1, asr r4
     1ec:	00000451 	andeq	r0, r0, r1, asr r4
     1f0:	00000451 	andeq	r0, r0, r1, asr r4
     1f4:	00000451 	andeq	r0, r0, r1, asr r4
     1f8:	00000451 	andeq	r0, r0, r1, asr r4
     1fc:	00000451 	andeq	r0, r0, r1, asr r4
     200:	00000451 	andeq	r0, r0, r1, asr r4
     204:	00000451 	andeq	r0, r0, r1, asr r4
     208:	00000451 	andeq	r0, r0, r1, asr r4
     20c:	00000000 	andeq	r0, r0, r0
     210:	00000451 	andeq	r0, r0, r1, asr r4
     214:	00000451 	andeq	r0, r0, r1, asr r4
     218:	00000451 	andeq	r0, r0, r1, asr r4
     21c:	00000451 	andeq	r0, r0, r1, asr r4
     220:	00000451 	andeq	r0, r0, r1, asr r4
     224:	00000451 	andeq	r0, r0, r1, asr r4
     228:	00000451 	andeq	r0, r0, r1, asr r4
     22c:	00000451 	andeq	r0, r0, r1, asr r4
     230:	00000451 	andeq	r0, r0, r1, asr r4
     234:	00000451 	andeq	r0, r0, r1, asr r4
     238:	00000451 	andeq	r0, r0, r1, asr r4
     23c:	00000451 	andeq	r0, r0, r1, asr r4
     240:	00000451 	andeq	r0, r0, r1, asr r4
     244:	00000451 	andeq	r0, r0, r1, asr r4
     248:	00000451 	andeq	r0, r0, r1, asr r4
     24c:	00000451 	andeq	r0, r0, r1, asr r4
     250:	00000451 	andeq	r0, r0, r1, asr r4
     254:	00000451 	andeq	r0, r0, r1, asr r4
     258:	00000451 	andeq	r0, r0, r1, asr r4
     25c:	00000451 	andeq	r0, r0, r1, asr r4
     260:	00000451 	andeq	r0, r0, r1, asr r4
     264:	00000451 	andeq	r0, r0, r1, asr r4
     268:	00000451 	andeq	r0, r0, r1, asr r4

0000026c <UART0IntHandler>:
     26c:	b480      	push	{r7}
     26e:	af00      	add	r7, sp, #0
     270:	bf00      	nop
     272:	46bd      	mov	sp, r7
     274:	f85d 7b04 	ldr.w	r7, [sp], #4
     278:	4770      	bx	lr

0000027a <USB0IntHandler>:
     27a:	b580      	push	{r7, lr}
     27c:	af00      	add	r7, sp, #0
     27e:	f001 fdc5 	bl	1e0c <USBInterruptStatus>
     282:	bf00      	nop
     284:	bd80      	pop	{r7, pc}
	...

00000288 <InitConsole>:
     288:	b580      	push	{r7, lr}
     28a:	af00      	add	r7, sp, #0
     28c:	4810      	ldr	r0, [pc, #64]	; (2d0 <InitConsole+0x48>)
     28e:	f000 fc99 	bl	bc4 <SysCtlPeripheralEnable>
     292:	2001      	movs	r0, #1
     294:	f000 fc4c 	bl	b30 <GPIOPinConfigure>
     298:	f240 4001 	movw	r0, #1025	; 0x401
     29c:	f000 fc48 	bl	b30 <GPIOPinConfigure>
     2a0:	480c      	ldr	r0, [pc, #48]	; (2d4 <InitConsole+0x4c>)
     2a2:	f000 fc8f 	bl	bc4 <SysCtlPeripheralEnable>
     2a6:	2100      	movs	r1, #0
     2a8:	480b      	ldr	r0, [pc, #44]	; (2d8 <InitConsole+0x50>)
     2aa:	f000 fe15 	bl	ed8 <UARTClockSourceSet>
     2ae:	2103      	movs	r1, #3
     2b0:	f04f 2040 	mov.w	r0, #1073758208	; 0x40004000
     2b4:	f000 fc3a 	bl	b2c <GPIOPinTypeUART>
     2b8:	f000 fd16 	bl	ce8 <SysCtlClockGet>
     2bc:	4603      	mov	r3, r0
     2be:	461a      	mov	r2, r3
     2c0:	f44f 2161 	mov.w	r1, #921600	; 0xe1000
     2c4:	2000      	movs	r0, #0
     2c6:	f000 f8c7 	bl	458 <UARTStdioConfig>
     2ca:	bf00      	nop
     2cc:	bd80      	pop	{r7, pc}
     2ce:	bf00      	nop
     2d0:	f0000800 			; <UNDEFINED> instruction: 0xf0000800
     2d4:	f0001800 			; <UNDEFINED> instruction: 0xf0001800
     2d8:	4000c000 	andmi	ip, r0, r0

000002dc <USBDeviceDataInit>:
     2dc:	b480      	push	{r7}
     2de:	af00      	add	r7, sp, #0
     2e0:	4b0c      	ldr	r3, [pc, #48]	; (314 <USBDeviceDataInit+0x38>)
     2e2:	2200      	movs	r2, #0
     2e4:	701a      	strb	r2, [r3, #0]
     2e6:	4b0b      	ldr	r3, [pc, #44]	; (314 <USBDeviceDataInit+0x38>)
     2e8:	2200      	movs	r2, #0
     2ea:	705a      	strb	r2, [r3, #1]
     2ec:	4b09      	ldr	r3, [pc, #36]	; (314 <USBDeviceDataInit+0x38>)
     2ee:	2200      	movs	r2, #0
     2f0:	709a      	strb	r2, [r3, #2]
     2f2:	4b08      	ldr	r3, [pc, #32]	; (314 <USBDeviceDataInit+0x38>)
     2f4:	2200      	movs	r2, #0
     2f6:	60da      	str	r2, [r3, #12]
     2f8:	4b06      	ldr	r3, [pc, #24]	; (314 <USBDeviceDataInit+0x38>)
     2fa:	4a07      	ldr	r2, [pc, #28]	; (318 <USBDeviceDataInit+0x3c>)
     2fc:	605a      	str	r2, [r3, #4]
     2fe:	4b05      	ldr	r3, [pc, #20]	; (314 <USBDeviceDataInit+0x38>)
     300:	2200      	movs	r2, #0
     302:	611a      	str	r2, [r3, #16]
     304:	4b03      	ldr	r3, [pc, #12]	; (314 <USBDeviceDataInit+0x38>)
     306:	2200      	movs	r2, #0
     308:	609a      	str	r2, [r3, #8]
     30a:	bf00      	nop
     30c:	46bd      	mov	sp, r7
     30e:	f85d 7b04 	ldr.w	r7, [sp], #4
     312:	4770      	bx	lr
     314:	20000004 	andcs	r0, r0, r4
     318:	20000018 	andcs	r0, r0, r8, lsl r0

0000031c <main>:
     31c:	b590      	push	{r4, r7, lr}
     31e:	b083      	sub	sp, #12
     320:	af00      	add	r7, sp, #0
     322:	2300      	movs	r3, #0
     324:	607b      	str	r3, [r7, #4]
     326:	481c      	ldr	r0, [pc, #112]	; (398 <main+0x7c>)
     328:	f000 fc60 	bl	bec <SysCtlClockSet>
     32c:	f7ff ffac 	bl	288 <InitConsole>
     330:	f7ff ffd4 	bl	2dc <USBDeviceDataInit>
     334:	4819      	ldr	r0, [pc, #100]	; (39c <main+0x80>)
     336:	f000 fd89 	bl	e4c <SysTickPeriodSet>
     33a:	f000 fc1b 	bl	b74 <IntMasterEnable>
     33e:	f000 fd7e 	bl	e3e <SysTickIntEnable>
     342:	200f      	movs	r0, #15
     344:	f000 fc1e 	bl	b84 <IntPriorityGet>
     348:	4604      	mov	r4, r0
     34a:	203c      	movs	r0, #60	; 0x3c
     34c:	f000 fc1a 	bl	b84 <IntPriorityGet>
     350:	4603      	mov	r3, r0
     352:	461a      	mov	r2, r3
     354:	4621      	mov	r1, r4
     356:	4812      	ldr	r0, [pc, #72]	; (3a0 <main+0x84>)
     358:	f000 fb12 	bl	980 <UARTprintf>
     35c:	f000 fd68 	bl	e30 <SysTickEnable>
     360:	4810      	ldr	r0, [pc, #64]	; (3a4 <main+0x88>)
     362:	f001 fa43 	bl	17ec <USBDInit>
     366:	4810      	ldr	r0, [pc, #64]	; (3a8 <main+0x8c>)
     368:	f000 fb0a 	bl	980 <UARTprintf>
     36c:	f000 fcbc 	bl	ce8 <SysCtlClockGet>
     370:	4603      	mov	r3, r0
     372:	4619      	mov	r1, r3
     374:	480d      	ldr	r0, [pc, #52]	; (3ac <main+0x90>)
     376:	f000 fb03 	bl	980 <UARTprintf>
     37a:	4b0d      	ldr	r3, [pc, #52]	; (3b0 <main+0x94>)
     37c:	681b      	ldr	r3, [r3, #0]
     37e:	687a      	ldr	r2, [r7, #4]
     380:	429a      	cmp	r2, r3
     382:	d0fa      	beq.n	37a <main+0x5e>
     384:	4b0a      	ldr	r3, [pc, #40]	; (3b0 <main+0x94>)
     386:	681b      	ldr	r3, [r3, #0]
     388:	4619      	mov	r1, r3
     38a:	480a      	ldr	r0, [pc, #40]	; (3b4 <main+0x98>)
     38c:	f000 faf8 	bl	980 <UARTprintf>
     390:	4b07      	ldr	r3, [pc, #28]	; (3b0 <main+0x94>)
     392:	681b      	ldr	r3, [r3, #0]
     394:	607b      	str	r3, [r7, #4]
     396:	e7f0      	b.n	37a <main+0x5e>
     398:	c1000550 	tstgt	r0, r0, asr r5
     39c:	00989680 	addseq	r9, r8, r0, lsl #13
     3a0:	00001f98 	muleq	r0, r8, pc	; <UNPREDICTABLE>
     3a4:	20000004 	andcs	r0, r0, r4
     3a8:	00001fc4 	andeq	r1, r0, r4, asr #31
     3ac:	00001fcc 	andeq	r1, r0, ip, asr #31
     3b0:	20000000 	andcs	r0, r0, r0
     3b4:	00001f7c 	andeq	r1, r0, ip, ror pc

000003b8 <ResetISR>:
     3b8:	b580      	push	{r7, lr}
     3ba:	b082      	sub	sp, #8
     3bc:	af00      	add	r7, sp, #0
     3be:	4b13      	ldr	r3, [pc, #76]	; (40c <zero_loop+0x24>)
     3c0:	607b      	str	r3, [r7, #4]
     3c2:	4b13      	ldr	r3, [pc, #76]	; (410 <zero_loop+0x28>)
     3c4:	603b      	str	r3, [r7, #0]
     3c6:	e007      	b.n	3d8 <ResetISR+0x20>
     3c8:	687a      	ldr	r2, [r7, #4]
     3ca:	1d13      	adds	r3, r2, #4
     3cc:	607b      	str	r3, [r7, #4]
     3ce:	683b      	ldr	r3, [r7, #0]
     3d0:	1d19      	adds	r1, r3, #4
     3d2:	6039      	str	r1, [r7, #0]
     3d4:	6812      	ldr	r2, [r2, #0]
     3d6:	601a      	str	r2, [r3, #0]
     3d8:	683b      	ldr	r3, [r7, #0]
     3da:	4a0e      	ldr	r2, [pc, #56]	; (414 <zero_loop+0x2c>)
     3dc:	4293      	cmp	r3, r2
     3de:	d3f3      	bcc.n	3c8 <ResetISR+0x10>
     3e0:	480e      	ldr	r0, [pc, #56]	; (41c <zero_loop+0x34>)
     3e2:	490f      	ldr	r1, [pc, #60]	; (420 <zero_loop+0x38>)
     3e4:	f04f 0200 	mov.w	r2, #0

000003e8 <zero_loop>:
     3e8:	4288      	cmp	r0, r1
     3ea:	bfb8      	it	lt
     3ec:	f840 2b04 	strlt.w	r2, [r0], #4
     3f0:	dbfa      	blt.n	3e8 <zero_loop>
     3f2:	4b09      	ldr	r3, [pc, #36]	; (418 <zero_loop+0x30>)
     3f4:	681b      	ldr	r3, [r3, #0]
     3f6:	4a08      	ldr	r2, [pc, #32]	; (418 <zero_loop+0x30>)
     3f8:	f443 0370 	orr.w	r3, r3, #15728640	; 0xf00000
     3fc:	6013      	str	r3, [r2, #0]
     3fe:	f7ff ff8d 	bl	31c <main>
     402:	bf00      	nop
     404:	3708      	adds	r7, #8
     406:	46bd      	mov	sp, r7
     408:	bd80      	pop	{r7, pc}
     40a:	bf00      	nop
     40c:	00002733 	andeq	r2, r0, r3, lsr r7
     410:	20000000 	andcs	r0, r0, r0
     414:	20000000 	andcs	r0, r0, r0
     418:	e000ed88 	and	lr, r0, r8, lsl #27
     41c:	20000000 	andcs	r0, r0, r0
     420:	20000220 	andcs	r0, r0, r0, lsr #4

00000424 <NmiSR>:
     424:	b480      	push	{r7}
     426:	af00      	add	r7, sp, #0
     428:	e7fe      	b.n	428 <NmiSR+0x4>
	...

0000042c <FaultISR>:
     42c:	b580      	push	{r7, lr}
     42e:	af00      	add	r7, sp, #0
     430:	4b04      	ldr	r3, [pc, #16]	; (444 <FaultISR+0x18>)
     432:	681b      	ldr	r3, [r3, #0]
     434:	4a04      	ldr	r2, [pc, #16]	; (448 <FaultISR+0x1c>)
     436:	6812      	ldr	r2, [r2, #0]
     438:	4619      	mov	r1, r3
     43a:	4804      	ldr	r0, [pc, #16]	; (44c <FaultISR+0x20>)
     43c:	f000 faa0 	bl	980 <UARTprintf>
     440:	e7fe      	b.n	440 <FaultISR+0x14>
     442:	bf00      	nop
     444:	e000ed28 	and	lr, r0, r8, lsr #26
     448:	e000ed38 	and	lr, r0, r8, lsr sp
     44c:	00001fdc 	ldrdeq	r1, [r0], -ip

00000450 <IntDefaultHandler>:
     450:	b480      	push	{r7}
     452:	af00      	add	r7, sp, #0
     454:	e7fe      	b.n	454 <IntDefaultHandler+0x4>
	...

00000458 <UARTStdioConfig>:
     458:	b580      	push	{r7, lr}
     45a:	b084      	sub	sp, #16
     45c:	af00      	add	r7, sp, #0
     45e:	60f8      	str	r0, [r7, #12]
     460:	60b9      	str	r1, [r7, #8]
     462:	607a      	str	r2, [r7, #4]
     464:	68fb      	ldr	r3, [r7, #12]
     466:	2b00      	cmp	r3, #0
     468:	d00a      	beq.n	480 <UARTStdioConfig+0x28>
     46a:	68fb      	ldr	r3, [r7, #12]
     46c:	2b01      	cmp	r3, #1
     46e:	d007      	beq.n	480 <UARTStdioConfig+0x28>
     470:	68fb      	ldr	r3, [r7, #12]
     472:	2b02      	cmp	r3, #2
     474:	d004      	beq.n	480 <UARTStdioConfig+0x28>
     476:	f240 1153 	movw	r1, #339	; 0x153
     47a:	4817      	ldr	r0, [pc, #92]	; (4d8 <UARTStdioConfig+0x80>)
     47c:	f001 fd6e 	bl	1f5c <__error__>
     480:	4a16      	ldr	r2, [pc, #88]	; (4dc <UARTStdioConfig+0x84>)
     482:	68fb      	ldr	r3, [r7, #12]
     484:	f852 3023 	ldr.w	r3, [r2, r3, lsl #2]
     488:	4618      	mov	r0, r3
     48a:	f000 fb89 	bl	ba0 <SysCtlPeripheralPresent>
     48e:	4603      	mov	r3, r0
     490:	f083 0301 	eor.w	r3, r3, #1
     494:	b2db      	uxtb	r3, r3
     496:	2b00      	cmp	r3, #0
     498:	d119      	bne.n	4ce <UARTStdioConfig+0x76>
     49a:	4a11      	ldr	r2, [pc, #68]	; (4e0 <UARTStdioConfig+0x88>)
     49c:	68fb      	ldr	r3, [r7, #12]
     49e:	f852 3023 	ldr.w	r3, [r2, r3, lsl #2]
     4a2:	4a10      	ldr	r2, [pc, #64]	; (4e4 <UARTStdioConfig+0x8c>)
     4a4:	6013      	str	r3, [r2, #0]
     4a6:	4a0d      	ldr	r2, [pc, #52]	; (4dc <UARTStdioConfig+0x84>)
     4a8:	68fb      	ldr	r3, [r7, #12]
     4aa:	f852 3023 	ldr.w	r3, [r2, r3, lsl #2]
     4ae:	4618      	mov	r0, r3
     4b0:	f000 fb88 	bl	bc4 <SysCtlPeripheralEnable>
     4b4:	4b0b      	ldr	r3, [pc, #44]	; (4e4 <UARTStdioConfig+0x8c>)
     4b6:	6818      	ldr	r0, [r3, #0]
     4b8:	2360      	movs	r3, #96	; 0x60
     4ba:	68ba      	ldr	r2, [r7, #8]
     4bc:	6879      	ldr	r1, [r7, #4]
     4be:	f000 fce3 	bl	e88 <UARTConfigSetExpClk>
     4c2:	4b08      	ldr	r3, [pc, #32]	; (4e4 <UARTStdioConfig+0x8c>)
     4c4:	681b      	ldr	r3, [r3, #0]
     4c6:	4618      	mov	r0, r3
     4c8:	f000 fcc5 	bl	e56 <UARTEnable>
     4cc:	e000      	b.n	4d0 <UARTStdioConfig+0x78>
     4ce:	bf00      	nop
     4d0:	3710      	adds	r7, #16
     4d2:	46bd      	mov	sp, r7
     4d4:	bd80      	pop	{r7, pc}
     4d6:	bf00      	nop
     4d8:	00002014 	andeq	r2, r0, r4, lsl r0
     4dc:	00002058 	andeq	r2, r0, r8, asr r0
     4e0:	0000204c 	andeq	r2, r0, ip, asr #32
     4e4:	20000218 	andcs	r0, r0, r8, lsl r2

000004e8 <UARTwrite>:
     4e8:	b580      	push	{r7, lr}
     4ea:	b084      	sub	sp, #16
     4ec:	af00      	add	r7, sp, #0
     4ee:	6078      	str	r0, [r7, #4]
     4f0:	6039      	str	r1, [r7, #0]
     4f2:	4b1f      	ldr	r3, [pc, #124]	; (570 <UARTwrite+0x88>)
     4f4:	681b      	ldr	r3, [r3, #0]
     4f6:	2b00      	cmp	r3, #0
     4f8:	d104      	bne.n	504 <UARTwrite+0x1c>
     4fa:	f240 2101 	movw	r1, #513	; 0x201
     4fe:	481d      	ldr	r0, [pc, #116]	; (574 <UARTwrite+0x8c>)
     500:	f001 fd2c 	bl	1f5c <__error__>
     504:	687b      	ldr	r3, [r7, #4]
     506:	2b00      	cmp	r3, #0
     508:	d104      	bne.n	514 <UARTwrite+0x2c>
     50a:	f240 2102 	movw	r1, #514	; 0x202
     50e:	4819      	ldr	r0, [pc, #100]	; (574 <UARTwrite+0x8c>)
     510:	f001 fd24 	bl	1f5c <__error__>
     514:	2300      	movs	r3, #0
     516:	60fb      	str	r3, [r7, #12]
     518:	e01e      	b.n	558 <UARTwrite+0x70>
     51a:	687a      	ldr	r2, [r7, #4]
     51c:	68fb      	ldr	r3, [r7, #12]
     51e:	4413      	add	r3, r2
     520:	781b      	ldrb	r3, [r3, #0]
     522:	2b0a      	cmp	r3, #10
     524:	d106      	bne.n	534 <UARTwrite+0x4c>
     526:	4b12      	ldr	r3, [pc, #72]	; (570 <UARTwrite+0x88>)
     528:	681b      	ldr	r3, [r3, #0]
     52a:	210d      	movs	r1, #13
     52c:	4618      	mov	r0, r3
     52e:	f000 fcce 	bl	ece <UARTCharPut>
     532:	e005      	b.n	540 <UARTwrite+0x58>
     534:	687a      	ldr	r2, [r7, #4]
     536:	68fb      	ldr	r3, [r7, #12]
     538:	4413      	add	r3, r2
     53a:	781b      	ldrb	r3, [r3, #0]
     53c:	2b00      	cmp	r3, #0
     53e:	d010      	beq.n	562 <UARTwrite+0x7a>
     540:	4b0b      	ldr	r3, [pc, #44]	; (570 <UARTwrite+0x88>)
     542:	6818      	ldr	r0, [r3, #0]
     544:	687a      	ldr	r2, [r7, #4]
     546:	68fb      	ldr	r3, [r7, #12]
     548:	4413      	add	r3, r2
     54a:	781b      	ldrb	r3, [r3, #0]
     54c:	4619      	mov	r1, r3
     54e:	f000 fcbe 	bl	ece <UARTCharPut>
     552:	68fb      	ldr	r3, [r7, #12]
     554:	3301      	adds	r3, #1
     556:	60fb      	str	r3, [r7, #12]
     558:	68fa      	ldr	r2, [r7, #12]
     55a:	683b      	ldr	r3, [r7, #0]
     55c:	429a      	cmp	r2, r3
     55e:	d3dc      	bcc.n	51a <UARTwrite+0x32>
     560:	e000      	b.n	564 <UARTwrite+0x7c>
     562:	bf00      	nop
     564:	68fb      	ldr	r3, [r7, #12]
     566:	4618      	mov	r0, r3
     568:	3710      	adds	r7, #16
     56a:	46bd      	mov	sp, r7
     56c:	bd80      	pop	{r7, pc}
     56e:	bf00      	nop
     570:	20000218 	andcs	r0, r0, r8, lsl r2
     574:	00002014 	andeq	r2, r0, r4, lsl r0

00000578 <UARTvprintf>:
     578:	b580      	push	{r7, lr}
     57a:	b08e      	sub	sp, #56	; 0x38
     57c:	af00      	add	r7, sp, #0
     57e:	6078      	str	r0, [r7, #4]
     580:	6039      	str	r1, [r7, #0]
     582:	687b      	ldr	r3, [r7, #4]
     584:	2b00      	cmp	r3, #0
     586:	f040 81ed 	bne.w	964 <UARTvprintf+0x3ec>
     58a:	f44f 715b 	mov.w	r1, #876	; 0x36c
     58e:	48ae      	ldr	r0, [pc, #696]	; (848 <UARTvprintf+0x2d0>)
     590:	f001 fce4 	bl	1f5c <__error__>
     594:	e1e6      	b.n	964 <UARTvprintf+0x3ec>
     596:	2300      	movs	r3, #0
     598:	637b      	str	r3, [r7, #52]	; 0x34
     59a:	e002      	b.n	5a2 <UARTvprintf+0x2a>
     59c:	6b7b      	ldr	r3, [r7, #52]	; 0x34
     59e:	3301      	adds	r3, #1
     5a0:	637b      	str	r3, [r7, #52]	; 0x34
     5a2:	687a      	ldr	r2, [r7, #4]
     5a4:	6b7b      	ldr	r3, [r7, #52]	; 0x34
     5a6:	4413      	add	r3, r2
     5a8:	781b      	ldrb	r3, [r3, #0]
     5aa:	2b25      	cmp	r3, #37	; 0x25
     5ac:	d005      	beq.n	5ba <UARTvprintf+0x42>
     5ae:	687a      	ldr	r2, [r7, #4]
     5b0:	6b7b      	ldr	r3, [r7, #52]	; 0x34
     5b2:	4413      	add	r3, r2
     5b4:	781b      	ldrb	r3, [r3, #0]
     5b6:	2b00      	cmp	r3, #0
     5b8:	d1f0      	bne.n	59c <UARTvprintf+0x24>
     5ba:	6b79      	ldr	r1, [r7, #52]	; 0x34
     5bc:	6878      	ldr	r0, [r7, #4]
     5be:	f7ff ff93 	bl	4e8 <UARTwrite>
     5c2:	687a      	ldr	r2, [r7, #4]
     5c4:	6b7b      	ldr	r3, [r7, #52]	; 0x34
     5c6:	4413      	add	r3, r2
     5c8:	607b      	str	r3, [r7, #4]
     5ca:	687b      	ldr	r3, [r7, #4]
     5cc:	781b      	ldrb	r3, [r3, #0]
     5ce:	2b25      	cmp	r3, #37	; 0x25
     5d0:	f040 81c7 	bne.w	962 <UARTvprintf+0x3ea>
     5d4:	687b      	ldr	r3, [r7, #4]
     5d6:	3301      	adds	r3, #1
     5d8:	607b      	str	r3, [r7, #4]
     5da:	2300      	movs	r3, #0
     5dc:	62fb      	str	r3, [r7, #44]	; 0x2c
     5de:	2320      	movs	r3, #32
     5e0:	f887 3023 	strb.w	r3, [r7, #35]	; 0x23
     5e4:	687b      	ldr	r3, [r7, #4]
     5e6:	1c5a      	adds	r2, r3, #1
     5e8:	607a      	str	r2, [r7, #4]
     5ea:	781b      	ldrb	r3, [r3, #0]
     5ec:	3b25      	subs	r3, #37	; 0x25
     5ee:	2b53      	cmp	r3, #83	; 0x53
     5f0:	f200 81b2 	bhi.w	958 <UARTvprintf+0x3e0>
     5f4:	a201      	add	r2, pc, #4	; (adr r2, 5fc <UARTvprintf+0x84>)
     5f6:	f852 f023 	ldr.w	pc, [r2, r3, lsl #2]
     5fa:	bf00      	nop
     5fc:	0000094b 	andeq	r0, r0, fp, asr #18
     600:	00000959 	andeq	r0, r0, r9, asr r9
     604:	00000959 	andeq	r0, r0, r9, asr r9
     608:	00000959 	andeq	r0, r0, r9, asr r9
     60c:	00000959 	andeq	r0, r0, r9, asr r9
     610:	00000959 	andeq	r0, r0, r9, asr r9
     614:	00000959 	andeq	r0, r0, r9, asr r9
     618:	00000959 	andeq	r0, r0, r9, asr r9
     61c:	00000959 	andeq	r0, r0, r9, asr r9
     620:	00000959 	andeq	r0, r0, r9, asr r9
     624:	00000959 	andeq	r0, r0, r9, asr r9
     628:	0000074d 	andeq	r0, r0, sp, asr #14
     62c:	0000074d 	andeq	r0, r0, sp, asr #14
     630:	0000074d 	andeq	r0, r0, sp, asr #14
     634:	0000074d 	andeq	r0, r0, sp, asr #14
     638:	0000074d 	andeq	r0, r0, sp, asr #14
     63c:	0000074d 	andeq	r0, r0, sp, asr #14
     640:	0000074d 	andeq	r0, r0, sp, asr #14
     644:	0000074d 	andeq	r0, r0, sp, asr #14
     648:	0000074d 	andeq	r0, r0, sp, asr #14
     64c:	0000074d 	andeq	r0, r0, sp, asr #14
     650:	00000959 	andeq	r0, r0, r9, asr r9
     654:	00000959 	andeq	r0, r0, r9, asr r9
     658:	00000959 	andeq	r0, r0, r9, asr r9
     65c:	00000959 	andeq	r0, r0, r9, asr r9
     660:	00000959 	andeq	r0, r0, r9, asr r9
     664:	00000959 	andeq	r0, r0, r9, asr r9
     668:	00000959 	andeq	r0, r0, r9, asr r9
     66c:	00000959 	andeq	r0, r0, r9, asr r9
     670:	00000959 	andeq	r0, r0, r9, asr r9
     674:	00000959 	andeq	r0, r0, r9, asr r9
     678:	00000959 	andeq	r0, r0, r9, asr r9
     67c:	00000959 	andeq	r0, r0, r9, asr r9
     680:	00000959 	andeq	r0, r0, r9, asr r9
     684:	00000959 	andeq	r0, r0, r9, asr r9
     688:	00000959 	andeq	r0, r0, r9, asr r9
     68c:	00000959 	andeq	r0, r0, r9, asr r9
     690:	00000959 	andeq	r0, r0, r9, asr r9
     694:	00000959 	andeq	r0, r0, r9, asr r9
     698:	00000959 	andeq	r0, r0, r9, asr r9
     69c:	00000959 	andeq	r0, r0, r9, asr r9
     6a0:	00000959 	andeq	r0, r0, r9, asr r9
     6a4:	00000959 	andeq	r0, r0, r9, asr r9
     6a8:	00000959 	andeq	r0, r0, r9, asr r9
     6ac:	00000959 	andeq	r0, r0, r9, asr r9
     6b0:	00000959 	andeq	r0, r0, r9, asr r9
     6b4:	00000959 	andeq	r0, r0, r9, asr r9
     6b8:	00000959 	andeq	r0, r0, r9, asr r9
     6bc:	00000959 	andeq	r0, r0, r9, asr r9
     6c0:	00000959 	andeq	r0, r0, r9, asr r9
     6c4:	00000959 	andeq	r0, r0, r9, asr r9
     6c8:	0000082d 	andeq	r0, r0, sp, lsr #16
     6cc:	00000959 	andeq	r0, r0, r9, asr r9
     6d0:	00000959 	andeq	r0, r0, r9, asr r9
     6d4:	00000959 	andeq	r0, r0, r9, asr r9
     6d8:	00000959 	andeq	r0, r0, r9, asr r9
     6dc:	00000959 	andeq	r0, r0, r9, asr r9
     6e0:	00000959 	andeq	r0, r0, r9, asr r9
     6e4:	00000959 	andeq	r0, r0, r9, asr r9
     6e8:	00000959 	andeq	r0, r0, r9, asr r9
     6ec:	00000959 	andeq	r0, r0, r9, asr r9
     6f0:	00000959 	andeq	r0, r0, r9, asr r9
     6f4:	00000781 	andeq	r0, r0, r1, lsl #15
     6f8:	00000799 	muleq	r0, r9, r7
     6fc:	00000959 	andeq	r0, r0, r9, asr r9
     700:	00000959 	andeq	r0, r0, r9, asr r9
     704:	00000959 	andeq	r0, r0, r9, asr r9
     708:	00000959 	andeq	r0, r0, r9, asr r9
     70c:	00000799 	muleq	r0, r9, r7
     710:	00000959 	andeq	r0, r0, r9, asr r9
     714:	00000959 	andeq	r0, r0, r9, asr r9
     718:	00000959 	andeq	r0, r0, r9, asr r9
     71c:	00000959 	andeq	r0, r0, r9, asr r9
     720:	00000959 	andeq	r0, r0, r9, asr r9
     724:	00000959 	andeq	r0, r0, r9, asr r9
     728:	0000082d 	andeq	r0, r0, sp, lsr #16
     72c:	00000959 	andeq	r0, r0, r9, asr r9
     730:	00000959 	andeq	r0, r0, r9, asr r9
     734:	000007c3 	andeq	r0, r0, r3, asr #15
     738:	00000959 	andeq	r0, r0, r9, asr r9
     73c:	00000815 	andeq	r0, r0, r5, lsl r8
     740:	00000959 	andeq	r0, r0, r9, asr r9
     744:	00000959 	andeq	r0, r0, r9, asr r9
     748:	0000082d 	andeq	r0, r0, sp, lsr #16
     74c:	687b      	ldr	r3, [r7, #4]
     74e:	3b01      	subs	r3, #1
     750:	781b      	ldrb	r3, [r3, #0]
     752:	2b30      	cmp	r3, #48	; 0x30
     754:	d105      	bne.n	762 <UARTvprintf+0x1ea>
     756:	6afb      	ldr	r3, [r7, #44]	; 0x2c
     758:	2b00      	cmp	r3, #0
     75a:	d102      	bne.n	762 <UARTvprintf+0x1ea>
     75c:	2330      	movs	r3, #48	; 0x30
     75e:	f887 3023 	strb.w	r3, [r7, #35]	; 0x23
     762:	6afa      	ldr	r2, [r7, #44]	; 0x2c
     764:	4613      	mov	r3, r2
     766:	009b      	lsls	r3, r3, #2
     768:	4413      	add	r3, r2
     76a:	005b      	lsls	r3, r3, #1
     76c:	62fb      	str	r3, [r7, #44]	; 0x2c
     76e:	687b      	ldr	r3, [r7, #4]
     770:	3b01      	subs	r3, #1
     772:	781b      	ldrb	r3, [r3, #0]
     774:	461a      	mov	r2, r3
     776:	6afb      	ldr	r3, [r7, #44]	; 0x2c
     778:	4413      	add	r3, r2
     77a:	3b30      	subs	r3, #48	; 0x30
     77c:	62fb      	str	r3, [r7, #44]	; 0x2c
     77e:	e731      	b.n	5e4 <UARTvprintf+0x6c>
     780:	683b      	ldr	r3, [r7, #0]
     782:	1d1a      	adds	r2, r3, #4
     784:	603a      	str	r2, [r7, #0]
     786:	681b      	ldr	r3, [r3, #0]
     788:	61bb      	str	r3, [r7, #24]
     78a:	f107 0318 	add.w	r3, r7, #24
     78e:	2101      	movs	r1, #1
     790:	4618      	mov	r0, r3
     792:	f7ff fea9 	bl	4e8 <UARTwrite>
     796:	e0e5      	b.n	964 <UARTvprintf+0x3ec>
     798:	683b      	ldr	r3, [r7, #0]
     79a:	1d1a      	adds	r2, r3, #4
     79c:	603a      	str	r2, [r7, #0]
     79e:	681b      	ldr	r3, [r3, #0]
     7a0:	61bb      	str	r3, [r7, #24]
     7a2:	2300      	movs	r3, #0
     7a4:	633b      	str	r3, [r7, #48]	; 0x30
     7a6:	69bb      	ldr	r3, [r7, #24]
     7a8:	2b00      	cmp	r3, #0
     7aa:	da05      	bge.n	7b8 <UARTvprintf+0x240>
     7ac:	69bb      	ldr	r3, [r7, #24]
     7ae:	425b      	negs	r3, r3
     7b0:	61bb      	str	r3, [r7, #24]
     7b2:	2301      	movs	r3, #1
     7b4:	627b      	str	r3, [r7, #36]	; 0x24
     7b6:	e001      	b.n	7bc <UARTvprintf+0x244>
     7b8:	2300      	movs	r3, #0
     7ba:	627b      	str	r3, [r7, #36]	; 0x24
     7bc:	230a      	movs	r3, #10
     7be:	62bb      	str	r3, [r7, #40]	; 0x28
     7c0:	e03f      	b.n	842 <UARTvprintf+0x2ca>
     7c2:	683b      	ldr	r3, [r7, #0]
     7c4:	1d1a      	adds	r2, r3, #4
     7c6:	603a      	str	r2, [r7, #0]
     7c8:	681b      	ldr	r3, [r3, #0]
     7ca:	61fb      	str	r3, [r7, #28]
     7cc:	2300      	movs	r3, #0
     7ce:	637b      	str	r3, [r7, #52]	; 0x34
     7d0:	e002      	b.n	7d8 <UARTvprintf+0x260>
     7d2:	6b7b      	ldr	r3, [r7, #52]	; 0x34
     7d4:	3301      	adds	r3, #1
     7d6:	637b      	str	r3, [r7, #52]	; 0x34
     7d8:	69fa      	ldr	r2, [r7, #28]
     7da:	6b7b      	ldr	r3, [r7, #52]	; 0x34
     7dc:	4413      	add	r3, r2
     7de:	781b      	ldrb	r3, [r3, #0]
     7e0:	2b00      	cmp	r3, #0
     7e2:	d1f6      	bne.n	7d2 <UARTvprintf+0x25a>
     7e4:	6b79      	ldr	r1, [r7, #52]	; 0x34
     7e6:	69f8      	ldr	r0, [r7, #28]
     7e8:	f7ff fe7e 	bl	4e8 <UARTwrite>
     7ec:	6afa      	ldr	r2, [r7, #44]	; 0x2c
     7ee:	6b7b      	ldr	r3, [r7, #52]	; 0x34
     7f0:	429a      	cmp	r2, r3
     7f2:	f240 80b7 	bls.w	964 <UARTvprintf+0x3ec>
     7f6:	6afa      	ldr	r2, [r7, #44]	; 0x2c
     7f8:	6b7b      	ldr	r3, [r7, #52]	; 0x34
     7fa:	1ad3      	subs	r3, r2, r3
     7fc:	62fb      	str	r3, [r7, #44]	; 0x2c
     7fe:	e003      	b.n	808 <UARTvprintf+0x290>
     800:	2101      	movs	r1, #1
     802:	4812      	ldr	r0, [pc, #72]	; (84c <UARTvprintf+0x2d4>)
     804:	f7ff fe70 	bl	4e8 <UARTwrite>
     808:	6afb      	ldr	r3, [r7, #44]	; 0x2c
     80a:	1e5a      	subs	r2, r3, #1
     80c:	62fa      	str	r2, [r7, #44]	; 0x2c
     80e:	2b00      	cmp	r3, #0
     810:	d1f6      	bne.n	800 <UARTvprintf+0x288>
     812:	e0a7      	b.n	964 <UARTvprintf+0x3ec>
     814:	683b      	ldr	r3, [r7, #0]
     816:	1d1a      	adds	r2, r3, #4
     818:	603a      	str	r2, [r7, #0]
     81a:	681b      	ldr	r3, [r3, #0]
     81c:	61bb      	str	r3, [r7, #24]
     81e:	2300      	movs	r3, #0
     820:	633b      	str	r3, [r7, #48]	; 0x30
     822:	230a      	movs	r3, #10
     824:	62bb      	str	r3, [r7, #40]	; 0x28
     826:	2300      	movs	r3, #0
     828:	627b      	str	r3, [r7, #36]	; 0x24
     82a:	e00a      	b.n	842 <UARTvprintf+0x2ca>
     82c:	683b      	ldr	r3, [r7, #0]
     82e:	1d1a      	adds	r2, r3, #4
     830:	603a      	str	r2, [r7, #0]
     832:	681b      	ldr	r3, [r3, #0]
     834:	61bb      	str	r3, [r7, #24]
     836:	2300      	movs	r3, #0
     838:	633b      	str	r3, [r7, #48]	; 0x30
     83a:	2310      	movs	r3, #16
     83c:	62bb      	str	r3, [r7, #40]	; 0x28
     83e:	2300      	movs	r3, #0
     840:	627b      	str	r3, [r7, #36]	; 0x24
     842:	2301      	movs	r3, #1
     844:	637b      	str	r3, [r7, #52]	; 0x34
     846:	e00b      	b.n	860 <UARTvprintf+0x2e8>
     848:	00002014 	andeq	r2, r0, r4, lsl r0
     84c:	00002040 	andeq	r2, r0, r0, asr #32
     850:	6b7b      	ldr	r3, [r7, #52]	; 0x34
     852:	6aba      	ldr	r2, [r7, #40]	; 0x28
     854:	fb02 f303 	mul.w	r3, r2, r3
     858:	637b      	str	r3, [r7, #52]	; 0x34
     85a:	6afb      	ldr	r3, [r7, #44]	; 0x2c
     85c:	3b01      	subs	r3, #1
     85e:	62fb      	str	r3, [r7, #44]	; 0x2c
     860:	6b7b      	ldr	r3, [r7, #52]	; 0x34
     862:	6aba      	ldr	r2, [r7, #40]	; 0x28
     864:	fb03 f202 	mul.w	r2, r3, r2
     868:	69bb      	ldr	r3, [r7, #24]
     86a:	429a      	cmp	r2, r3
     86c:	d809      	bhi.n	882 <UARTvprintf+0x30a>
     86e:	6b7b      	ldr	r3, [r7, #52]	; 0x34
     870:	6aba      	ldr	r2, [r7, #40]	; 0x28
     872:	fb03 f202 	mul.w	r2, r3, r2
     876:	6abb      	ldr	r3, [r7, #40]	; 0x28
     878:	fbb2 f3f3 	udiv	r3, r2, r3
     87c:	6b7a      	ldr	r2, [r7, #52]	; 0x34
     87e:	429a      	cmp	r2, r3
     880:	d0e6      	beq.n	850 <UARTvprintf+0x2d8>
     882:	6a7b      	ldr	r3, [r7, #36]	; 0x24
     884:	2b00      	cmp	r3, #0
     886:	d002      	beq.n	88e <UARTvprintf+0x316>
     888:	6afb      	ldr	r3, [r7, #44]	; 0x2c
     88a:	3b01      	subs	r3, #1
     88c:	62fb      	str	r3, [r7, #44]	; 0x2c
     88e:	6a7b      	ldr	r3, [r7, #36]	; 0x24
     890:	2b00      	cmp	r3, #0
     892:	d00e      	beq.n	8b2 <UARTvprintf+0x33a>
     894:	f897 3023 	ldrb.w	r3, [r7, #35]	; 0x23
     898:	2b30      	cmp	r3, #48	; 0x30
     89a:	d10a      	bne.n	8b2 <UARTvprintf+0x33a>
     89c:	6b3b      	ldr	r3, [r7, #48]	; 0x30
     89e:	1c5a      	adds	r2, r3, #1
     8a0:	633a      	str	r2, [r7, #48]	; 0x30
     8a2:	f107 0238 	add.w	r2, r7, #56	; 0x38
     8a6:	4413      	add	r3, r2
     8a8:	222d      	movs	r2, #45	; 0x2d
     8aa:	f803 2c30 	strb.w	r2, [r3, #-48]
     8ae:	2300      	movs	r3, #0
     8b0:	627b      	str	r3, [r7, #36]	; 0x24
     8b2:	6afb      	ldr	r3, [r7, #44]	; 0x2c
     8b4:	2b01      	cmp	r3, #1
     8b6:	d916      	bls.n	8e6 <UARTvprintf+0x36e>
     8b8:	6afb      	ldr	r3, [r7, #44]	; 0x2c
     8ba:	2b0f      	cmp	r3, #15
     8bc:	d813      	bhi.n	8e6 <UARTvprintf+0x36e>
     8be:	6afb      	ldr	r3, [r7, #44]	; 0x2c
     8c0:	3b01      	subs	r3, #1
     8c2:	62fb      	str	r3, [r7, #44]	; 0x2c
     8c4:	e00c      	b.n	8e0 <UARTvprintf+0x368>
     8c6:	6b3b      	ldr	r3, [r7, #48]	; 0x30
     8c8:	1c5a      	adds	r2, r3, #1
     8ca:	633a      	str	r2, [r7, #48]	; 0x30
     8cc:	f107 0238 	add.w	r2, r7, #56	; 0x38
     8d0:	4413      	add	r3, r2
     8d2:	f897 2023 	ldrb.w	r2, [r7, #35]	; 0x23
     8d6:	f803 2c30 	strb.w	r2, [r3, #-48]
     8da:	6afb      	ldr	r3, [r7, #44]	; 0x2c
     8dc:	3b01      	subs	r3, #1
     8de:	62fb      	str	r3, [r7, #44]	; 0x2c
     8e0:	6afb      	ldr	r3, [r7, #44]	; 0x2c
     8e2:	2b00      	cmp	r3, #0
     8e4:	d1ef      	bne.n	8c6 <UARTvprintf+0x34e>
     8e6:	6a7b      	ldr	r3, [r7, #36]	; 0x24
     8e8:	2b00      	cmp	r3, #0
     8ea:	d024      	beq.n	936 <UARTvprintf+0x3be>
     8ec:	6b3b      	ldr	r3, [r7, #48]	; 0x30
     8ee:	1c5a      	adds	r2, r3, #1
     8f0:	633a      	str	r2, [r7, #48]	; 0x30
     8f2:	f107 0238 	add.w	r2, r7, #56	; 0x38
     8f6:	4413      	add	r3, r2
     8f8:	222d      	movs	r2, #45	; 0x2d
     8fa:	f803 2c30 	strb.w	r2, [r3, #-48]
     8fe:	e01a      	b.n	936 <UARTvprintf+0x3be>
     900:	481d      	ldr	r0, [pc, #116]	; (978 <UARTvprintf+0x400>)
     902:	69ba      	ldr	r2, [r7, #24]
     904:	6b7b      	ldr	r3, [r7, #52]	; 0x34
     906:	fbb2 f3f3 	udiv	r3, r2, r3
     90a:	6aba      	ldr	r2, [r7, #40]	; 0x28
     90c:	fbb3 f2f2 	udiv	r2, r3, r2
     910:	6ab9      	ldr	r1, [r7, #40]	; 0x28
     912:	fb01 f202 	mul.w	r2, r1, r2
     916:	1a9b      	subs	r3, r3, r2
     918:	18c2      	adds	r2, r0, r3
     91a:	6b3b      	ldr	r3, [r7, #48]	; 0x30
     91c:	1c59      	adds	r1, r3, #1
     91e:	6339      	str	r1, [r7, #48]	; 0x30
     920:	7812      	ldrb	r2, [r2, #0]
     922:	f107 0138 	add.w	r1, r7, #56	; 0x38
     926:	440b      	add	r3, r1
     928:	f803 2c30 	strb.w	r2, [r3, #-48]
     92c:	6b7a      	ldr	r2, [r7, #52]	; 0x34
     92e:	6abb      	ldr	r3, [r7, #40]	; 0x28
     930:	fbb2 f3f3 	udiv	r3, r2, r3
     934:	637b      	str	r3, [r7, #52]	; 0x34
     936:	6b7b      	ldr	r3, [r7, #52]	; 0x34
     938:	2b00      	cmp	r3, #0
     93a:	d1e1      	bne.n	900 <UARTvprintf+0x388>
     93c:	f107 0308 	add.w	r3, r7, #8
     940:	6b39      	ldr	r1, [r7, #48]	; 0x30
     942:	4618      	mov	r0, r3
     944:	f7ff fdd0 	bl	4e8 <UARTwrite>
     948:	e00c      	b.n	964 <UARTvprintf+0x3ec>
     94a:	687b      	ldr	r3, [r7, #4]
     94c:	3b01      	subs	r3, #1
     94e:	2101      	movs	r1, #1
     950:	4618      	mov	r0, r3
     952:	f7ff fdc9 	bl	4e8 <UARTwrite>
     956:	e005      	b.n	964 <UARTvprintf+0x3ec>
     958:	2105      	movs	r1, #5
     95a:	4808      	ldr	r0, [pc, #32]	; (97c <UARTvprintf+0x404>)
     95c:	f7ff fdc4 	bl	4e8 <UARTwrite>
     960:	e000      	b.n	964 <UARTvprintf+0x3ec>
     962:	bf00      	nop
     964:	687b      	ldr	r3, [r7, #4]
     966:	781b      	ldrb	r3, [r3, #0]
     968:	2b00      	cmp	r3, #0
     96a:	f47f ae14 	bne.w	596 <UARTvprintf+0x1e>
     96e:	bf00      	nop
     970:	bf00      	nop
     972:	3738      	adds	r7, #56	; 0x38
     974:	46bd      	mov	sp, r7
     976:	bd80      	pop	{r7, pc}
     978:	00002000 	andeq	r2, r0, r0
     97c:	00002044 	andeq	r2, r0, r4, asr #32

00000980 <UARTprintf>:
     980:	b40f      	push	{r0, r1, r2, r3}
     982:	b580      	push	{r7, lr}
     984:	b082      	sub	sp, #8
     986:	af00      	add	r7, sp, #0
     988:	f107 0314 	add.w	r3, r7, #20
     98c:	607b      	str	r3, [r7, #4]
     98e:	6879      	ldr	r1, [r7, #4]
     990:	6938      	ldr	r0, [r7, #16]
     992:	f7ff fdf1 	bl	578 <UARTvprintf>
     996:	bf00      	nop
     998:	3708      	adds	r7, #8
     99a:	46bd      	mov	sp, r7
     99c:	e8bd 4080 	ldmia.w	sp!, {r7, lr}
     9a0:	b004      	add	sp, #16
     9a2:	4770      	bx	lr

000009a4 <GPIODirModeSet>:
     9a4:	f8d0 3400 	ldr.w	r3, [r0, #1024]	; 0x400
     9a8:	f012 0f01 	tst.w	r2, #1
     9ac:	bf14      	ite	ne
     9ae:	430b      	orrne	r3, r1
     9b0:	438b      	biceq	r3, r1
     9b2:	f8c0 3400 	str.w	r3, [r0, #1024]	; 0x400
     9b6:	f8d0 3420 	ldr.w	r3, [r0, #1056]	; 0x420
     9ba:	0792      	lsls	r2, r2, #30
     9bc:	bf4c      	ite	mi
     9be:	4319      	orrmi	r1, r3
     9c0:	ea23 0101 	bicpl.w	r1, r3, r1
     9c4:	f8c0 1420 	str.w	r1, [r0, #1056]	; 0x420
     9c8:	4770      	bx	lr
	...

000009cc <GPIOPadConfigSet>:
     9cc:	b5f0      	push	{r4, r5, r6, r7, lr}
     9ce:	4c4e      	ldr	r4, [pc, #312]	; (b08 <GPIOPadConfigSet+0x13c>)
     9d0:	6825      	ldr	r5, [r4, #0]
     9d2:	4c4e      	ldr	r4, [pc, #312]	; (b0c <GPIOPadConfigSet+0x140>)
     9d4:	402c      	ands	r4, r5
     9d6:	4d4e      	ldr	r5, [pc, #312]	; (b10 <GPIOPadConfigSet+0x144>)
     9d8:	42ac      	cmp	r4, r5
     9da:	d106      	bne.n	9ea <GPIOPadConfigSet+0x1e>
     9dc:	07d5      	lsls	r5, r2, #31
     9de:	d421      	bmi.n	a24 <GPIOPadConfigSet+0x58>
     9e0:	f8d0 4500 	ldr.w	r4, [r0, #1280]	; 0x500
     9e4:	ea24 0401 	bic.w	r4, r4, r1
     9e8:	e01f      	b.n	a2a <GPIOPadConfigSet+0x5e>
     9ea:	f3c2 1741 	ubfx	r7, r2, #5, #2
     9ee:	2500      	movs	r5, #0
     9f0:	f04f 0c03 	mov.w	ip, #3
     9f4:	fa41 f405 	asr.w	r4, r1, r5
     9f8:	07e4      	lsls	r4, r4, #31
     9fa:	d50f      	bpl.n	a1c <GPIOPadConfigSet+0x50>
     9fc:	f8d0 6fc4 	ldr.w	r6, [r0, #4036]	; 0xfc4
     a00:	006c      	lsls	r4, r5, #1
     a02:	fa0c fe04 	lsl.w	lr, ip, r4
     a06:	ea26 060e 	bic.w	r6, r6, lr
     a0a:	f8c0 6fc4 	str.w	r6, [r0, #4036]	; 0xfc4
     a0e:	f8d0 6fc4 	ldr.w	r6, [r0, #4036]	; 0xfc4
     a12:	fa07 f404 	lsl.w	r4, r7, r4
     a16:	4334      	orrs	r4, r6
     a18:	f8c0 4fc4 	str.w	r4, [r0, #4036]	; 0xfc4
     a1c:	3501      	adds	r5, #1
     a1e:	2d08      	cmp	r5, #8
     a20:	d1e8      	bne.n	9f4 <GPIOPadConfigSet+0x28>
     a22:	e7db      	b.n	9dc <GPIOPadConfigSet+0x10>
     a24:	f8d0 4500 	ldr.w	r4, [r0, #1280]	; 0x500
     a28:	430c      	orrs	r4, r1
     a2a:	f8c0 4500 	str.w	r4, [r0, #1280]	; 0x500
     a2e:	f8d0 4504 	ldr.w	r4, [r0, #1284]	; 0x504
     a32:	0797      	lsls	r7, r2, #30
     a34:	bf4c      	ite	mi
     a36:	430c      	orrmi	r4, r1
     a38:	438c      	bicpl	r4, r1
     a3a:	f8c0 4504 	str.w	r4, [r0, #1284]	; 0x504
     a3e:	f8d0 4508 	ldr.w	r4, [r0, #1288]	; 0x508
     a42:	0756      	lsls	r6, r2, #29
     a44:	bf4c      	ite	mi
     a46:	430c      	orrmi	r4, r1
     a48:	438c      	bicpl	r4, r1
     a4a:	f8c0 4508 	str.w	r4, [r0, #1288]	; 0x508
     a4e:	f8d0 4518 	ldr.w	r4, [r0, #1304]	; 0x518
     a52:	0715      	lsls	r5, r2, #28
     a54:	bf4c      	ite	mi
     a56:	430c      	orrmi	r4, r1
     a58:	438c      	bicpl	r4, r1
     a5a:	f8c0 4518 	str.w	r4, [r0, #1304]	; 0x518
     a5e:	4c2a      	ldr	r4, [pc, #168]	; (b08 <GPIOPadConfigSet+0x13c>)
     a60:	6825      	ldr	r5, [r4, #0]
     a62:	4c2a      	ldr	r4, [pc, #168]	; (b0c <GPIOPadConfigSet+0x140>)
     a64:	402c      	ands	r4, r5
     a66:	4d2a      	ldr	r5, [pc, #168]	; (b10 <GPIOPadConfigSet+0x144>)
     a68:	42ac      	cmp	r4, r5
     a6a:	d008      	beq.n	a7e <GPIOPadConfigSet+0xb2>
     a6c:	f012 0f10 	tst.w	r2, #16
     a70:	f8d0 253c 	ldr.w	r2, [r0, #1340]	; 0x53c
     a74:	bf14      	ite	ne
     a76:	430a      	orrne	r2, r1
     a78:	438a      	biceq	r2, r1
     a7a:	f8c0 253c 	str.w	r2, [r0, #1340]	; 0x53c
     a7e:	f8d0 250c 	ldr.w	r2, [r0, #1292]	; 0x50c
     a82:	07dc      	lsls	r4, r3, #31
     a84:	bf4c      	ite	mi
     a86:	430a      	orrmi	r2, r1
     a88:	438a      	bicpl	r2, r1
     a8a:	f8c0 250c 	str.w	r2, [r0, #1292]	; 0x50c
     a8e:	f8d0 2510 	ldr.w	r2, [r0, #1296]	; 0x510
     a92:	079f      	lsls	r7, r3, #30
     a94:	bf4c      	ite	mi
     a96:	430a      	orrmi	r2, r1
     a98:	438a      	bicpl	r2, r1
     a9a:	f8c0 2510 	str.w	r2, [r0, #1296]	; 0x510
     a9e:	f8d0 2514 	ldr.w	r2, [r0, #1300]	; 0x514
     aa2:	075e      	lsls	r6, r3, #29
     aa4:	bf4c      	ite	mi
     aa6:	430a      	orrmi	r2, r1
     aa8:	438a      	bicpl	r2, r1
     aaa:	f8c0 2514 	str.w	r2, [r0, #1300]	; 0x514
     aae:	f8d0 251c 	ldr.w	r2, [r0, #1308]	; 0x51c
     ab2:	071d      	lsls	r5, r3, #28
     ab4:	bf4c      	ite	mi
     ab6:	430a      	orrmi	r2, r1
     ab8:	438a      	bicpl	r2, r1
     aba:	f8c0 251c 	str.w	r2, [r0, #1308]	; 0x51c
     abe:	4a12      	ldr	r2, [pc, #72]	; (b08 <GPIOPadConfigSet+0x13c>)
     ac0:	6814      	ldr	r4, [r2, #0]
     ac2:	4a12      	ldr	r2, [pc, #72]	; (b0c <GPIOPadConfigSet+0x140>)
     ac4:	4022      	ands	r2, r4
     ac6:	4c12      	ldr	r4, [pc, #72]	; (b10 <GPIOPadConfigSet+0x144>)
     ac8:	42a2      	cmp	r2, r4
     aca:	d010      	beq.n	aee <GPIOPadConfigSet+0x122>
     acc:	f8d0 2544 	ldr.w	r2, [r0, #1348]	; 0x544
     ad0:	059c      	lsls	r4, r3, #22
     ad2:	bf4c      	ite	mi
     ad4:	430a      	orrmi	r2, r1
     ad6:	438a      	bicpl	r2, r1
     ad8:	f8c0 2544 	str.w	r2, [r0, #1348]	; 0x544
     adc:	f8d0 2540 	ldr.w	r2, [r0, #1344]	; 0x540
     ae0:	f413 7f40 	tst.w	r3, #768	; 0x300
     ae4:	bf14      	ite	ne
     ae6:	430a      	orrne	r2, r1
     ae8:	438a      	biceq	r2, r1
     aea:	f8c0 2540 	str.w	r2, [r0, #1344]	; 0x540
     aee:	b92b      	cbnz	r3, afc <GPIOPadConfigSet+0x130>
     af0:	f8d0 3528 	ldr.w	r3, [r0, #1320]	; 0x528
     af4:	4319      	orrs	r1, r3
     af6:	f8c0 1528 	str.w	r1, [r0, #1320]	; 0x528
     afa:	bdf0      	pop	{r4, r5, r6, r7, pc}
     afc:	f8d0 3528 	ldr.w	r3, [r0, #1320]	; 0x528
     b00:	ea23 0101 	bic.w	r1, r3, r1
     b04:	e7f7      	b.n	af6 <GPIOPadConfigSet+0x12a>
     b06:	bf00      	nop
     b08:	400fe000 	andmi	lr, pc, r0
     b0c:	70ff0000 	rscsvc	r0, pc, r0
     b10:	10050000 	andne	r0, r5, r0

00000b14 <GPIOPinTypeComparatorOutput>:
     b14:	b510      	push	{r4, lr}
     b16:	2202      	movs	r2, #2
     b18:	460c      	mov	r4, r1
     b1a:	f7ff ff43 	bl	9a4 <GPIODirModeSet>
     b1e:	4621      	mov	r1, r4
     b20:	2308      	movs	r3, #8
     b22:	e8bd 4010 	ldmia.w	sp!, {r4, lr}
     b26:	2201      	movs	r2, #1
     b28:	f7ff bf50 	b.w	9cc <GPIOPadConfigSet>

00000b2c <GPIOPinTypeUART>:
     b2c:	f7ff bff2 	b.w	b14 <GPIOPinTypeComparatorOutput>

00000b30 <GPIOPinConfigure>:
     b30:	4b0e      	ldr	r3, [pc, #56]	; (b6c <GPIOPinConfigure+0x3c>)
     b32:	f3c0 4107 	ubfx	r1, r0, #16, #8
     b36:	b510      	push	{r4, lr}
     b38:	2201      	movs	r2, #1
     b3a:	6edc      	ldr	r4, [r3, #108]	; 0x6c
     b3c:	408a      	lsls	r2, r1
     b3e:	004b      	lsls	r3, r1, #1
     b40:	4222      	tst	r2, r4
     b42:	bf18      	it	ne
     b44:	3301      	addne	r3, #1
     b46:	4a0a      	ldr	r2, [pc, #40]	; (b70 <GPIOPinConfigure+0x40>)
     b48:	f852 2023 	ldr.w	r2, [r2, r3, lsl #2]
     b4c:	f3c0 2407 	ubfx	r4, r0, #8, #8
     b50:	f8d2 352c 	ldr.w	r3, [r2, #1324]	; 0x52c
     b54:	210f      	movs	r1, #15
     b56:	40a1      	lsls	r1, r4
     b58:	f000 000f 	and.w	r0, r0, #15
     b5c:	ea23 0301 	bic.w	r3, r3, r1
     b60:	40a0      	lsls	r0, r4
     b62:	4318      	orrs	r0, r3
     b64:	f8c2 052c 	str.w	r0, [r2, #1324]	; 0x52c
     b68:	bd10      	pop	{r4, pc}
     b6a:	bf00      	nop
     b6c:	400fe000 	andmi	lr, pc, r0
     b70:	00002064 	andeq	r2, r0, r4, rrx

00000b74 <IntMasterEnable>:
     b74:	b508      	push	{r3, lr}
     b76:	f000 f9b2 	bl	ede <CPUcpsie>
     b7a:	3800      	subs	r0, #0
     b7c:	bf18      	it	ne
     b7e:	2001      	movne	r0, #1
     b80:	bd08      	pop	{r3, pc}
	...

00000b84 <IntPriorityGet>:
     b84:	0882      	lsrs	r2, r0, #2
     b86:	4b05      	ldr	r3, [pc, #20]	; (b9c <IntPriorityGet+0x18>)
     b88:	f853 3022 	ldr.w	r3, [r3, r2, lsl #2]
     b8c:	f000 0003 	and.w	r0, r0, #3
     b90:	681b      	ldr	r3, [r3, #0]
     b92:	00c0      	lsls	r0, r0, #3
     b94:	fa23 f000 	lsr.w	r0, r3, r0
     b98:	b2c0      	uxtb	r0, r0
     b9a:	4770      	bx	lr
     b9c:	000020f4 	strdeq	r2, [r0], -r4

00000ba0 <SysCtlPeripheralPresent>:
     ba0:	4b07      	ldr	r3, [pc, #28]	; (bc0 <SysCtlPeripheralPresent+0x20>)
     ba2:	f3c0 2207 	ubfx	r2, r0, #8, #8
     ba6:	0080      	lsls	r0, r0, #2
     ba8:	4413      	add	r3, r2
     baa:	f400 707f 	and.w	r0, r0, #1020	; 0x3fc
     bae:	ea40 1043 	orr.w	r0, r0, r3, lsl #5
     bb2:	f040 4084 	orr.w	r0, r0, #1107296256	; 0x42000000
     bb6:	6800      	ldr	r0, [r0, #0]
     bb8:	3800      	subs	r0, #0
     bba:	bf18      	it	ne
     bbc:	2001      	movne	r0, #1
     bbe:	4770      	bx	lr
     bc0:	400fe300 	andmi	lr, pc, r0, lsl #6

00000bc4 <SysCtlPeripheralEnable>:
     bc4:	4b06      	ldr	r3, [pc, #24]	; (be0 <SysCtlPeripheralEnable+0x1c>)
     bc6:	f3c0 2207 	ubfx	r2, r0, #8, #8
     bca:	0080      	lsls	r0, r0, #2
     bcc:	4413      	add	r3, r2
     bce:	f400 707f 	and.w	r0, r0, #1020	; 0x3fc
     bd2:	ea40 1043 	orr.w	r0, r0, r3, lsl #5
     bd6:	f040 4084 	orr.w	r0, r0, #1107296256	; 0x42000000
     bda:	2301      	movs	r3, #1
     bdc:	6003      	str	r3, [r0, #0]
     bde:	4770      	bx	lr
     be0:	400fe600 	andmi	lr, pc, r0, lsl #12

00000be4 <SysCtlDelay>:
     be4:	3801      	subs	r0, #1
     be6:	f47f affd 	bne.w	be4 <SysCtlDelay>
     bea:	4770      	bx	lr

00000bec <SysCtlClockSet>:
     bec:	493a      	ldr	r1, [pc, #232]	; (cd8 <SysCtlClockSet+0xec>)
     bee:	b430      	push	{r4, r5}
     bf0:	6e0c      	ldr	r4, [r1, #96]	; 0x60
     bf2:	6f0b      	ldr	r3, [r1, #112]	; 0x70
     bf4:	f424 0280 	bic.w	r2, r4, #4194304	; 0x400000
     bf8:	f443 6500 	orr.w	r5, r3, #2048	; 0x800
     bfc:	f442 6200 	orr.w	r2, r2, #2048	; 0x800
     c00:	660a      	str	r2, [r1, #96]	; 0x60
     c02:	670d      	str	r5, [r1, #112]	; 0x70
     c04:	07e5      	lsls	r5, r4, #31
     c06:	d50d      	bpl.n	c24 <SysCtlClockSet+0x38>
     c08:	07c4      	lsls	r4, r0, #31
     c0a:	d40b      	bmi.n	c24 <SysCtlClockSet+0x38>
     c0c:	f060 0401 	orn	r4, r0, #1
     c10:	4022      	ands	r2, r4
     c12:	f44f 7480 	mov.w	r4, #256	; 0x100
     c16:	658c      	str	r4, [r1, #88]	; 0x58
     c18:	660a      	str	r2, [r1, #96]	; 0x60
     c1a:	f44f 2400 	mov.w	r4, #524288	; 0x80000
     c1e:	6d0d      	ldr	r5, [r1, #80]	; 0x50
     c20:	05ed      	lsls	r5, r5, #23
     c22:	d555      	bpl.n	cd0 <SysCtlClockSet+0xe4>
     c24:	f422 61fe 	bic.w	r1, r2, #2032	; 0x7f0
     c28:	f400 62fe 	and.w	r2, r0, #2032	; 0x7f0
     c2c:	430a      	orrs	r2, r1
     c2e:	492b      	ldr	r1, [pc, #172]	; (cdc <SysCtlClockSet+0xf0>)
     c30:	f023 4300 	bic.w	r3, r3, #2147483648	; 0x80000000
     c34:	4001      	ands	r1, r0
     c36:	f023 0370 	bic.w	r3, r3, #112	; 0x70
     c3a:	430b      	orrs	r3, r1
     c3c:	00c1      	lsls	r1, r0, #3
     c3e:	f001 0140 	and.w	r1, r1, #64	; 0x40
     c42:	430b      	orrs	r3, r1
     c44:	4924      	ldr	r1, [pc, #144]	; (cd8 <SysCtlClockSet+0xec>)
     c46:	f443 6400 	orr.w	r4, r3, #2048	; 0x800
     c4a:	660a      	str	r2, [r1, #96]	; 0x60
     c4c:	f423 5300 	bic.w	r3, r3, #8192	; 0x2000
     c50:	670c      	str	r4, [r1, #112]	; 0x70
     c52:	f422 5200 	bic.w	r2, r2, #8192	; 0x2000
     c56:	f400 5400 	and.w	r4, r0, #8192	; 0x2000
     c5a:	4322      	orrs	r2, r4
     c5c:	4323      	orrs	r3, r4
     c5e:	2440      	movs	r4, #64	; 0x40
     c60:	658c      	str	r4, [r1, #88]	; 0x58
     c62:	f453 6400 	orrs.w	r4, r3, #2048	; 0x800
     c66:	bf55      	itete	pl
     c68:	660a      	strpl	r2, [r1, #96]	; 0x60
     c6a:	670c      	strmi	r4, [r1, #112]	; 0x70
     c6c:	670c      	strpl	r4, [r1, #112]	; 0x70
     c6e:	660a      	strmi	r2, [r1, #96]	; 0x60
     c70:	491b      	ldr	r1, [pc, #108]	; (ce0 <SysCtlClockSet+0xf4>)
     c72:	f022 62f8 	bic.w	r2, r2, #130023424	; 0x7c00000
     c76:	4001      	ands	r1, r0
     c78:	f022 0201 	bic.w	r2, r2, #1
     c7c:	f023 53fc 	bic.w	r3, r3, #528482304	; 0x1f800000
     c80:	430a      	orrs	r2, r1
     c82:	f443 6300 	orr.w	r3, r3, #2048	; 0x800
     c86:	f000 51fc 	and.w	r1, r0, #528482304	; 0x1f800000
     c8a:	430b      	orrs	r3, r1
     c8c:	0041      	lsls	r1, r0, #1
     c8e:	bf41      	itttt	mi
     c90:	4914      	ldrmi	r1, [pc, #80]	; (ce4 <SysCtlClockSet+0xf8>)
     c92:	f423 0380 	bicmi.w	r3, r3, #4194304	; 0x400000
     c96:	4001      	andmi	r1, r0
     c98:	f442 0280 	orrmi.w	r2, r2, #4194304	; 0x400000
     c9c:	bf4c      	ite	mi
     c9e:	430b      	orrmi	r3, r1
     ca0:	f023 4380 	bicpl.w	r3, r3, #1073741824	; 0x40000000
     ca4:	0505      	lsls	r5, r0, #20
     ca6:	d40c      	bmi.n	cc2 <SysCtlClockSet+0xd6>
     ca8:	480b      	ldr	r0, [pc, #44]	; (cd8 <SysCtlClockSet+0xec>)
     caa:	f44f 4100 	mov.w	r1, #32768	; 0x8000
     cae:	f8d0 4168 	ldr.w	r4, [r0, #360]	; 0x168
     cb2:	07e4      	lsls	r4, r4, #31
     cb4:	d401      	bmi.n	cba <SysCtlClockSet+0xce>
     cb6:	3901      	subs	r1, #1
     cb8:	d1f9      	bne.n	cae <SysCtlClockSet+0xc2>
     cba:	f422 6200 	bic.w	r2, r2, #2048	; 0x800
     cbe:	f423 6300 	bic.w	r3, r3, #2048	; 0x800
     cc2:	4905      	ldr	r1, [pc, #20]	; (cd8 <SysCtlClockSet+0xec>)
     cc4:	bc30      	pop	{r4, r5}
     cc6:	660a      	str	r2, [r1, #96]	; 0x60
     cc8:	2010      	movs	r0, #16
     cca:	670b      	str	r3, [r1, #112]	; 0x70
     ccc:	f7ff bf8a 	b.w	be4 <SysCtlDelay>
     cd0:	3c01      	subs	r4, #1
     cd2:	d1a4      	bne.n	c1e <SysCtlClockSet+0x32>
     cd4:	bc30      	pop	{r4, r5}
     cd6:	4770      	bx	lr
     cd8:	400fe000 	andmi	lr, pc, r0
     cdc:	80000030 	andhi	r0, r0, r0, lsr r0
     ce0:	07c00001 	strbeq	r0, [r0, r1]
     ce4:	40400000 	submi	r0, r0, r0

00000ce8 <SysCtlClockGet>:
     ce8:	4b48      	ldr	r3, [pc, #288]	; (e0c <SysCtlClockGet+0x124>)
     cea:	6e19      	ldr	r1, [r3, #96]	; 0x60
     cec:	6f1b      	ldr	r3, [r3, #112]	; 0x70
     cee:	2b00      	cmp	r3, #0
     cf0:	b570      	push	{r4, r5, r6, lr}
     cf2:	da12      	bge.n	d1a <SysCtlClockGet+0x32>
     cf4:	f003 0270 	and.w	r2, r3, #112	; 0x70
     cf8:	2a20      	cmp	r2, #32
     cfa:	f000 8082 	beq.w	e02 <SysCtlClockGet+0x11a>
     cfe:	d805      	bhi.n	d0c <SysCtlClockGet+0x24>
     d00:	2a00      	cmp	r2, #0
     d02:	d057      	beq.n	db4 <SysCtlClockGet+0xcc>
     d04:	2a10      	cmp	r2, #16
     d06:	d05f      	beq.n	dc8 <SysCtlClockGet+0xe0>
     d08:	2000      	movs	r0, #0
     d0a:	bd70      	pop	{r4, r5, r6, pc}
     d0c:	2a30      	cmp	r2, #48	; 0x30
     d0e:	d07a      	beq.n	e06 <SysCtlClockGet+0x11e>
     d10:	2a70      	cmp	r2, #112	; 0x70
     d12:	d1f9      	bne.n	d08 <SysCtlClockGet+0x20>
     d14:	f44f 4000 	mov.w	r0, #32768	; 0x8000
     d18:	e053      	b.n	dc2 <SysCtlClockGet+0xda>
     d1a:	f001 0230 	and.w	r2, r1, #48	; 0x30
     d1e:	2a20      	cmp	r2, #32
     d20:	d06d      	beq.n	dfe <SysCtlClockGet+0x116>
     d22:	d842      	bhi.n	daa <SysCtlClockGet+0xc2>
     d24:	2a00      	cmp	r2, #0
     d26:	d045      	beq.n	db4 <SysCtlClockGet+0xcc>
     d28:	2a10      	cmp	r2, #16
     d2a:	d1ed      	bne.n	d08 <SysCtlClockGet+0x20>
     d2c:	4838      	ldr	r0, [pc, #224]	; (e10 <SysCtlClockGet+0x128>)
     d2e:	f411 6f00 	tst.w	r1, #2048	; 0x800
     d32:	d152      	bne.n	dda <SysCtlClockGet+0xf2>
     d34:	4d35      	ldr	r5, [pc, #212]	; (e0c <SysCtlClockGet+0x124>)
     d36:	f8d5 4160 	ldr.w	r4, [r5, #352]	; 0x160
     d3a:	f8d5 2164 	ldr.w	r2, [r5, #356]	; 0x164
     d3e:	f3c2 2604 	ubfx	r6, r2, #8, #5
     d42:	f002 021f 	and.w	r2, r2, #31
     d46:	3201      	adds	r2, #1
     d48:	fb06 2202 	mla	r2, r6, r2, r2
     d4c:	0052      	lsls	r2, r2, #1
     d4e:	fbb0 f0f2 	udiv	r0, r0, r2
     d52:	f3c4 0209 	ubfx	r2, r4, #0, #10
     d56:	f3c4 2489 	ubfx	r4, r4, #10, #10
     d5a:	4344      	muls	r4, r0
     d5c:	0aa4      	lsrs	r4, r4, #10
     d5e:	fb00 4002 	mla	r0, r0, r2, r4
     d62:	692a      	ldr	r2, [r5, #16]
     d64:	f402 4270 	and.w	r2, r2, #61440	; 0xf000
     d68:	f5b2 4f80 	cmp.w	r2, #16384	; 0x4000
     d6c:	f441 0180 	orr.w	r1, r1, #4194304	; 0x400000
     d70:	d036      	beq.n	de0 <SysCtlClockGet+0xf8>
     d72:	d82b      	bhi.n	dcc <SysCtlClockGet+0xe4>
     d74:	f5b2 5f00 	cmp.w	r2, #8192	; 0x2000
     d78:	d034      	beq.n	de4 <SysCtlClockGet+0xfc>
     d7a:	f5b2 5f40 	cmp.w	r2, #12288	; 0x3000
     d7e:	4a25      	ldr	r2, [pc, #148]	; (e14 <SysCtlClockGet+0x12c>)
     d80:	bf18      	it	ne
     d82:	f04f 32ff 	movne.w	r2, #4294967295
     d86:	024d      	lsls	r5, r1, #9
     d88:	d50b      	bpl.n	da2 <SysCtlClockGet+0xba>
     d8a:	2b00      	cmp	r3, #0
     d8c:	da31      	bge.n	df2 <SysCtlClockGet+0x10a>
     d8e:	005c      	lsls	r4, r3, #1
     d90:	d52c      	bpl.n	dec <SysCtlClockGet+0x104>
     d92:	0519      	lsls	r1, r3, #20
     d94:	d42a      	bmi.n	dec <SysCtlClockGet+0x104>
     d96:	0040      	lsls	r0, r0, #1
     d98:	f3c3 5386 	ubfx	r3, r3, #22, #7
     d9c:	3301      	adds	r3, #1
     d9e:	fbb0 f0f3 	udiv	r0, r0, r3
     da2:	4290      	cmp	r0, r2
     da4:	bf28      	it	cs
     da6:	4610      	movcs	r0, r2
     da8:	e7af      	b.n	d0a <SysCtlClockGet+0x22>
     daa:	2a30      	cmp	r2, #48	; 0x30
     dac:	d1ac      	bne.n	d08 <SysCtlClockGet+0x20>
     dae:	f247 5030 	movw	r0, #30000	; 0x7530
     db2:	e7bc      	b.n	d2e <SysCtlClockGet+0x46>
     db4:	4a18      	ldr	r2, [pc, #96]	; (e18 <SysCtlClockGet+0x130>)
     db6:	f3c1 1084 	ubfx	r0, r1, #6, #5
     dba:	2b00      	cmp	r3, #0
     dbc:	f852 0020 	ldr.w	r0, [r2, r0, lsl #2]
     dc0:	dab5      	bge.n	d2e <SysCtlClockGet+0x46>
     dc2:	f413 6f00 	tst.w	r3, #2048	; 0x800
     dc6:	e7b4      	b.n	d32 <SysCtlClockGet+0x4a>
     dc8:	4811      	ldr	r0, [pc, #68]	; (e10 <SysCtlClockGet+0x128>)
     dca:	e7fa      	b.n	dc2 <SysCtlClockGet+0xda>
     dcc:	f5b2 4fe0 	cmp.w	r2, #28672	; 0x7000
     dd0:	d00a      	beq.n	de8 <SysCtlClockGet+0x100>
     dd2:	f5b2 4f10 	cmp.w	r2, #36864	; 0x9000
     dd6:	4a11      	ldr	r2, [pc, #68]	; (e1c <SysCtlClockGet+0x134>)
     dd8:	e7d2      	b.n	d80 <SysCtlClockGet+0x98>
     dda:	f04f 32ff 	mov.w	r2, #4294967295
     dde:	e7d2      	b.n	d86 <SysCtlClockGet+0x9e>
     de0:	4a0f      	ldr	r2, [pc, #60]	; (e20 <SysCtlClockGet+0x138>)
     de2:	e7d0      	b.n	d86 <SysCtlClockGet+0x9e>
     de4:	4a0f      	ldr	r2, [pc, #60]	; (e24 <SysCtlClockGet+0x13c>)
     de6:	e7ce      	b.n	d86 <SysCtlClockGet+0x9e>
     de8:	4a0f      	ldr	r2, [pc, #60]	; (e28 <SysCtlClockGet+0x140>)
     dea:	e7cc      	b.n	d86 <SysCtlClockGet+0x9e>
     dec:	f3c3 53c5 	ubfx	r3, r3, #23, #6
     df0:	e7d4      	b.n	d9c <SysCtlClockGet+0xb4>
     df2:	f3c1 51c3 	ubfx	r1, r1, #23, #4
     df6:	3101      	adds	r1, #1
     df8:	fbb0 f0f1 	udiv	r0, r0, r1
     dfc:	e7d1      	b.n	da2 <SysCtlClockGet+0xba>
     dfe:	480b      	ldr	r0, [pc, #44]	; (e2c <SysCtlClockGet+0x144>)
     e00:	e795      	b.n	d2e <SysCtlClockGet+0x46>
     e02:	480a      	ldr	r0, [pc, #40]	; (e2c <SysCtlClockGet+0x144>)
     e04:	e7dd      	b.n	dc2 <SysCtlClockGet+0xda>
     e06:	f247 5030 	movw	r0, #30000	; 0x7530
     e0a:	e7da      	b.n	dc2 <SysCtlClockGet+0xda>
     e0c:	400fe000 	andmi	lr, pc, r0
     e10:	00f42400 	rscseq	r2, r4, r0, lsl #8
     e14:	02faf080 	rscseq	pc, sl, #128	; 0x80
     e18:	00002190 	muleq	r0, r0, r1
     e1c:	01312d00 	teqeq	r1, r0, lsl #26
     e20:	02625a00 	rsbeq	r5, r2, #0, 20
     e24:	04c4b400 	strbeq	fp, [r4], #1024	; 0x400
     e28:	017d7840 	cmneq	sp, r0, asr #16
     e2c:	003d0900 	eorseq	r0, sp, r0, lsl #18

00000e30 <SysTickEnable>:
     e30:	f04f 22e0 	mov.w	r2, #3758153728	; 0xe000e000
     e34:	6913      	ldr	r3, [r2, #16]
     e36:	f043 0305 	orr.w	r3, r3, #5
     e3a:	6113      	str	r3, [r2, #16]
     e3c:	4770      	bx	lr

00000e3e <SysTickIntEnable>:
     e3e:	f04f 22e0 	mov.w	r2, #3758153728	; 0xe000e000
     e42:	6913      	ldr	r3, [r2, #16]
     e44:	f043 0302 	orr.w	r3, r3, #2
     e48:	6113      	str	r3, [r2, #16]
     e4a:	4770      	bx	lr

00000e4c <SysTickPeriodSet>:
     e4c:	f04f 23e0 	mov.w	r3, #3758153728	; 0xe000e000
     e50:	3801      	subs	r0, #1
     e52:	6158      	str	r0, [r3, #20]
     e54:	4770      	bx	lr

00000e56 <UARTEnable>:
     e56:	6ac3      	ldr	r3, [r0, #44]	; 0x2c
     e58:	f043 0310 	orr.w	r3, r3, #16
     e5c:	62c3      	str	r3, [r0, #44]	; 0x2c
     e5e:	6b03      	ldr	r3, [r0, #48]	; 0x30
     e60:	f443 7340 	orr.w	r3, r3, #768	; 0x300
     e64:	f043 0301 	orr.w	r3, r3, #1
     e68:	6303      	str	r3, [r0, #48]	; 0x30
     e6a:	4770      	bx	lr

00000e6c <UARTDisable>:
     e6c:	6983      	ldr	r3, [r0, #24]
     e6e:	071b      	lsls	r3, r3, #28
     e70:	d4fc      	bmi.n	e6c <UARTDisable>
     e72:	6ac3      	ldr	r3, [r0, #44]	; 0x2c
     e74:	f023 0310 	bic.w	r3, r3, #16
     e78:	62c3      	str	r3, [r0, #44]	; 0x2c
     e7a:	6b03      	ldr	r3, [r0, #48]	; 0x30
     e7c:	f423 7340 	bic.w	r3, r3, #768	; 0x300
     e80:	f023 0301 	bic.w	r3, r3, #1
     e84:	6303      	str	r3, [r0, #48]	; 0x30
     e86:	4770      	bx	lr

00000e88 <UARTConfigSetExpClk>:
     e88:	b570      	push	{r4, r5, r6, lr}
     e8a:	461e      	mov	r6, r3
     e8c:	f7ff ffee 	bl	e6c <UARTDisable>
     e90:	6b03      	ldr	r3, [r0, #48]	; 0x30
     e92:	ebb1 1f02 	cmp.w	r1, r2, lsl #4
     e96:	bf34      	ite	cc
     e98:	f043 0320 	orrcc.w	r3, r3, #32
     e9c:	f023 0320 	biccs.w	r3, r3, #32
     ea0:	ea4f 04c1 	mov.w	r4, r1, lsl #3
     ea4:	bf38      	it	cc
     ea6:	0852      	lsrcc	r2, r2, #1
     ea8:	fbb4 f1f2 	udiv	r1, r4, r2
     eac:	f101 0101 	add.w	r1, r1, #1
     eb0:	bf34      	ite	cc
     eb2:	6303      	strcc	r3, [r0, #48]	; 0x30
     eb4:	6303      	strcs	r3, [r0, #48]	; 0x30
     eb6:	09cb      	lsrs	r3, r1, #7
     eb8:	6243      	str	r3, [r0, #36]	; 0x24
     eba:	f3c1 0145 	ubfx	r1, r1, #1, #6
     ebe:	2300      	movs	r3, #0
     ec0:	6281      	str	r1, [r0, #40]	; 0x28
     ec2:	62c6      	str	r6, [r0, #44]	; 0x2c
     ec4:	e8bd 4070 	ldmia.w	sp!, {r4, r5, r6, lr}
     ec8:	6183      	str	r3, [r0, #24]
     eca:	f7ff bfc4 	b.w	e56 <UARTEnable>

00000ece <UARTCharPut>:
     ece:	6983      	ldr	r3, [r0, #24]
     ed0:	069b      	lsls	r3, r3, #26
     ed2:	d4fc      	bmi.n	ece <UARTCharPut>
     ed4:	6001      	str	r1, [r0, #0]
     ed6:	4770      	bx	lr

00000ed8 <UARTClockSourceSet>:
     ed8:	f8c0 1fc8 	str.w	r1, [r0, #4040]	; 0xfc8
     edc:	4770      	bx	lr

00000ede <CPUcpsie>:
     ede:	f3ef 8010 	mrs	r0, PRIMASK
     ee2:	b662      	cpsie	i
     ee4:	4770      	bx	lr
	...

00000ee8 <USBPinInitialize>:
     ee8:	b480      	push	{r7}
     eea:	b083      	sub	sp, #12
     eec:	af00      	add	r7, sp, #0
     eee:	4b21      	ldr	r3, [pc, #132]	; (f74 <USBPinInitialize+0x8c>)
     ef0:	681b      	ldr	r3, [r3, #0]
     ef2:	4a20      	ldr	r2, [pc, #128]	; (f74 <USBPinInitialize+0x8c>)
     ef4:	f043 0308 	orr.w	r3, r3, #8
     ef8:	6013      	str	r3, [r2, #0]
     efa:	2300      	movs	r3, #0
     efc:	71fb      	strb	r3, [r7, #7]
     efe:	e004      	b.n	f0a <USBPinInitialize+0x22>
     f00:	79fb      	ldrb	r3, [r7, #7]
     f02:	b2db      	uxtb	r3, r3
     f04:	3301      	adds	r3, #1
     f06:	b2db      	uxtb	r3, r3
     f08:	71fb      	strb	r3, [r7, #7]
     f0a:	79fb      	ldrb	r3, [r7, #7]
     f0c:	b2db      	uxtb	r3, r3
     f0e:	2b0f      	cmp	r3, #15
     f10:	d9f6      	bls.n	f00 <USBPinInitialize+0x18>
     f12:	4b19      	ldr	r3, [pc, #100]	; (f78 <USBPinInitialize+0x90>)
     f14:	681b      	ldr	r3, [r3, #0]
     f16:	4a18      	ldr	r2, [pc, #96]	; (f78 <USBPinInitialize+0x90>)
     f18:	f023 0330 	bic.w	r3, r3, #48	; 0x30
     f1c:	6013      	str	r3, [r2, #0]
     f1e:	4b17      	ldr	r3, [pc, #92]	; (f7c <USBPinInitialize+0x94>)
     f20:	681b      	ldr	r3, [r3, #0]
     f22:	4a16      	ldr	r2, [pc, #88]	; (f7c <USBPinInitialize+0x94>)
     f24:	f043 0330 	orr.w	r3, r3, #48	; 0x30
     f28:	6013      	str	r3, [r2, #0]
     f2a:	4b15      	ldr	r3, [pc, #84]	; (f80 <USBPinInitialize+0x98>)
     f2c:	681b      	ldr	r3, [r3, #0]
     f2e:	4a14      	ldr	r2, [pc, #80]	; (f80 <USBPinInitialize+0x98>)
     f30:	f423 037f 	bic.w	r3, r3, #16711680	; 0xff0000
     f34:	6013      	str	r3, [r2, #0]
     f36:	4b13      	ldr	r3, [pc, #76]	; (f84 <USBPinInitialize+0x9c>)
     f38:	681b      	ldr	r3, [r3, #0]
     f3a:	4a12      	ldr	r2, [pc, #72]	; (f84 <USBPinInitialize+0x9c>)
     f3c:	f043 0330 	orr.w	r3, r3, #48	; 0x30
     f40:	6013      	str	r3, [r2, #0]
     f42:	4b11      	ldr	r3, [pc, #68]	; (f88 <USBPinInitialize+0xa0>)
     f44:	681b      	ldr	r3, [r3, #0]
     f46:	4a10      	ldr	r2, [pc, #64]	; (f88 <USBPinInitialize+0xa0>)
     f48:	f023 0330 	bic.w	r3, r3, #48	; 0x30
     f4c:	6013      	str	r3, [r2, #0]
     f4e:	4b0f      	ldr	r3, [pc, #60]	; (f8c <USBPinInitialize+0xa4>)
     f50:	681b      	ldr	r3, [r3, #0]
     f52:	4a0e      	ldr	r2, [pc, #56]	; (f8c <USBPinInitialize+0xa4>)
     f54:	f023 0330 	bic.w	r3, r3, #48	; 0x30
     f58:	6013      	str	r3, [r2, #0]
     f5a:	4b0d      	ldr	r3, [pc, #52]	; (f90 <USBPinInitialize+0xa8>)
     f5c:	681b      	ldr	r3, [r3, #0]
     f5e:	4a0c      	ldr	r2, [pc, #48]	; (f90 <USBPinInitialize+0xa8>)
     f60:	f043 0330 	orr.w	r3, r3, #48	; 0x30
     f64:	6013      	str	r3, [r2, #0]
     f66:	bf00      	nop
     f68:	370c      	adds	r7, #12
     f6a:	46bd      	mov	sp, r7
     f6c:	f85d 7b04 	ldr.w	r7, [sp], #4
     f70:	4770      	bx	lr
     f72:	bf00      	nop
     f74:	400fe608 	andmi	lr, pc, r8, lsl #12
     f78:	40007400 	andmi	r7, r0, r0, lsl #8
     f7c:	40007420 	andmi	r7, r0, r0, lsr #8
     f80:	4000752c 	andmi	r7, r0, ip, lsr #10
     f84:	40007500 	andmi	r7, r0, r0, lsl #10
     f88:	40007504 	andmi	r7, r0, r4, lsl #10
     f8c:	40007508 	andmi	r7, r0, r8, lsl #10
     f90:	40007528 	andmi	r7, r0, r8, lsr #10

00000f94 <USBBusConnect>:
     f94:	b480      	push	{r7}
     f96:	af00      	add	r7, sp, #0
     f98:	4b05      	ldr	r3, [pc, #20]	; (fb0 <USBBusConnect+0x1c>)
     f9a:	781b      	ldrb	r3, [r3, #0]
     f9c:	4a04      	ldr	r2, [pc, #16]	; (fb0 <USBBusConnect+0x1c>)
     f9e:	f043 0340 	orr.w	r3, r3, #64	; 0x40
     fa2:	b2db      	uxtb	r3, r3
     fa4:	7013      	strb	r3, [r2, #0]
     fa6:	bf00      	nop
     fa8:	46bd      	mov	sp, r7
     faa:	f85d 7b04 	ldr.w	r7, [sp], #4
     fae:	4770      	bx	lr
     fb0:	40050001 	andmi	r0, r5, r1

00000fb4 <USBBusDisconnect>:
     fb4:	b480      	push	{r7}
     fb6:	af00      	add	r7, sp, #0
     fb8:	4b05      	ldr	r3, [pc, #20]	; (fd0 <USBBusDisconnect+0x1c>)
     fba:	781b      	ldrb	r3, [r3, #0]
     fbc:	4a04      	ldr	r2, [pc, #16]	; (fd0 <USBBusDisconnect+0x1c>)
     fbe:	f023 0340 	bic.w	r3, r3, #64	; 0x40
     fc2:	b2db      	uxtb	r3, r3
     fc4:	7013      	strb	r3, [r2, #0]
     fc6:	bf00      	nop
     fc8:	46bd      	mov	sp, r7
     fca:	f85d 7b04 	ldr.w	r7, [sp], #4
     fce:	4770      	bx	lr
     fd0:	40050001 	andmi	r0, r5, r1

00000fd4 <USBSetDeviceAdress>:
     fd4:	b480      	push	{r7}
     fd6:	b083      	sub	sp, #12
     fd8:	af00      	add	r7, sp, #0
     fda:	4603      	mov	r3, r0
     fdc:	71fb      	strb	r3, [r7, #7]
     fde:	4a04      	ldr	r2, [pc, #16]	; (ff0 <USBSetDeviceAdress+0x1c>)
     fe0:	79fb      	ldrb	r3, [r7, #7]
     fe2:	7013      	strb	r3, [r2, #0]
     fe4:	bf00      	nop
     fe6:	370c      	adds	r7, #12
     fe8:	46bd      	mov	sp, r7
     fea:	f85d 7b04 	ldr.w	r7, [sp], #4
     fee:	4770      	bx	lr
     ff0:	40050000 	andmi	r0, r5, r0

00000ff4 <USBInterruptInitialize>:
     ff4:	b480      	push	{r7}
     ff6:	af00      	add	r7, sp, #0
     ff8:	4b0f      	ldr	r3, [pc, #60]	; (1038 <USBInterruptInitialize+0x44>)
     ffa:	781b      	ldrb	r3, [r3, #0]
     ffc:	4a0e      	ldr	r2, [pc, #56]	; (1038 <USBInterruptInitialize+0x44>)
     ffe:	f043 032f 	orr.w	r3, r3, #47	; 0x2f
    1002:	b2db      	uxtb	r3, r3
    1004:	7013      	strb	r3, [r2, #0]
    1006:	4b0d      	ldr	r3, [pc, #52]	; (103c <USBInterruptInitialize+0x48>)
    1008:	881b      	ldrh	r3, [r3, #0]
    100a:	4a0c      	ldr	r2, [pc, #48]	; (103c <USBInterruptInitialize+0x48>)
    100c:	f043 0302 	orr.w	r3, r3, #2
    1010:	b29b      	uxth	r3, r3
    1012:	8013      	strh	r3, [r2, #0]
    1014:	4b0a      	ldr	r3, [pc, #40]	; (1040 <USBInterruptInitialize+0x4c>)
    1016:	881b      	ldrh	r3, [r3, #0]
    1018:	4a09      	ldr	r2, [pc, #36]	; (1040 <USBInterruptInitialize+0x4c>)
    101a:	f043 0302 	orr.w	r3, r3, #2
    101e:	b29b      	uxth	r3, r3
    1020:	8013      	strh	r3, [r2, #0]
    1022:	4b08      	ldr	r3, [pc, #32]	; (1044 <USBInterruptInitialize+0x50>)
    1024:	681b      	ldr	r3, [r3, #0]
    1026:	4a07      	ldr	r2, [pc, #28]	; (1044 <USBInterruptInitialize+0x50>)
    1028:	f443 5380 	orr.w	r3, r3, #4096	; 0x1000
    102c:	6013      	str	r3, [r2, #0]
    102e:	bf00      	nop
    1030:	46bd      	mov	sp, r7
    1032:	f85d 7b04 	ldr.w	r7, [sp], #4
    1036:	4770      	bx	lr
    1038:	4005000b 	andmi	r0, r5, fp
    103c:	40050008 	andmi	r0, r5, r8
    1040:	40050006 	andmi	r0, r5, r6
    1044:	e000e104 	and	lr, r0, r4, lsl #2

00001048 <USBDeviceInit>:
    1048:	b480      	push	{r7}
    104a:	b083      	sub	sp, #12
    104c:	af00      	add	r7, sp, #0
    104e:	4b1e      	ldr	r3, [pc, #120]	; (10c8 <USBDeviceInit+0x80>)
    1050:	681b      	ldr	r3, [r3, #0]
    1052:	4a1d      	ldr	r2, [pc, #116]	; (10c8 <USBDeviceInit+0x80>)
    1054:	f423 4380 	bic.w	r3, r3, #16384	; 0x4000
    1058:	6013      	str	r3, [r2, #0]
    105a:	4b1c      	ldr	r3, [pc, #112]	; (10cc <USBDeviceInit+0x84>)
    105c:	681b      	ldr	r3, [r3, #0]
    105e:	4a1b      	ldr	r2, [pc, #108]	; (10cc <USBDeviceInit+0x84>)
    1060:	f043 0301 	orr.w	r3, r3, #1
    1064:	6013      	str	r3, [r2, #0]
    1066:	4b1a      	ldr	r3, [pc, #104]	; (10d0 <USBDeviceInit+0x88>)
    1068:	681b      	ldr	r3, [r3, #0]
    106a:	4a19      	ldr	r2, [pc, #100]	; (10d0 <USBDeviceInit+0x88>)
    106c:	f443 3380 	orr.w	r3, r3, #65536	; 0x10000
    1070:	6013      	str	r3, [r2, #0]
    1072:	2300      	movs	r3, #0
    1074:	71fb      	strb	r3, [r7, #7]
    1076:	e004      	b.n	1082 <USBDeviceInit+0x3a>
    1078:	79fb      	ldrb	r3, [r7, #7]
    107a:	b2db      	uxtb	r3, r3
    107c:	3301      	adds	r3, #1
    107e:	b2db      	uxtb	r3, r3
    1080:	71fb      	strb	r3, [r7, #7]
    1082:	79fb      	ldrb	r3, [r7, #7]
    1084:	b2db      	uxtb	r3, r3
    1086:	2b0f      	cmp	r3, #15
    1088:	d9f6      	bls.n	1078 <USBDeviceInit+0x30>
    108a:	4b11      	ldr	r3, [pc, #68]	; (10d0 <USBDeviceInit+0x88>)
    108c:	681b      	ldr	r3, [r3, #0]
    108e:	4a10      	ldr	r2, [pc, #64]	; (10d0 <USBDeviceInit+0x88>)
    1090:	f423 3380 	bic.w	r3, r3, #65536	; 0x10000
    1094:	6013      	str	r3, [r2, #0]
    1096:	2300      	movs	r3, #0
    1098:	71fb      	strb	r3, [r7, #7]
    109a:	e004      	b.n	10a6 <USBDeviceInit+0x5e>
    109c:	79fb      	ldrb	r3, [r7, #7]
    109e:	b2db      	uxtb	r3, r3
    10a0:	3301      	adds	r3, #1
    10a2:	b2db      	uxtb	r3, r3
    10a4:	71fb      	strb	r3, [r7, #7]
    10a6:	79fb      	ldrb	r3, [r7, #7]
    10a8:	b2db      	uxtb	r3, r3
    10aa:	2b0f      	cmp	r3, #15
    10ac:	d9f6      	bls.n	109c <USBDeviceInit+0x54>
    10ae:	4b09      	ldr	r3, [pc, #36]	; (10d4 <USBDeviceInit+0x8c>)
    10b0:	681b      	ldr	r3, [r3, #0]
    10b2:	4a08      	ldr	r2, [pc, #32]	; (10d4 <USBDeviceInit+0x8c>)
    10b4:	f043 0303 	orr.w	r3, r3, #3
    10b8:	6013      	str	r3, [r2, #0]
    10ba:	bf00      	nop
    10bc:	370c      	adds	r7, #12
    10be:	46bd      	mov	sp, r7
    10c0:	f85d 7b04 	ldr.w	r7, [sp], #4
    10c4:	4770      	bx	lr
    10c6:	bf00      	nop
    10c8:	400fe070 	andmi	lr, pc, r0, ror r0	; <UNPREDICTABLE>
    10cc:	400fe628 	andmi	lr, pc, r8, lsr #12
    10d0:	400fe048 	andmi	lr, pc, r8, asr #32
    10d4:	4005041c 	andmi	r0, r5, ip, lsl r4

000010d8 <FlushRxFifo>:
    10d8:	b480      	push	{r7}
    10da:	b083      	sub	sp, #12
    10dc:	af00      	add	r7, sp, #0
    10de:	6078      	str	r0, [r7, #4]
    10e0:	687b      	ldr	r3, [r7, #4]
    10e2:	3b01      	subs	r3, #1
    10e4:	011a      	lsls	r2, r3, #4
    10e6:	4b09      	ldr	r3, [pc, #36]	; (110c <FlushRxFifo+0x34>)
    10e8:	4413      	add	r3, r2
    10ea:	781a      	ldrb	r2, [r3, #0]
    10ec:	687b      	ldr	r3, [r7, #4]
    10ee:	3b01      	subs	r3, #1
    10f0:	0119      	lsls	r1, r3, #4
    10f2:	4b06      	ldr	r3, [pc, #24]	; (110c <FlushRxFifo+0x34>)
    10f4:	440b      	add	r3, r1
    10f6:	f022 0210 	bic.w	r2, r2, #16
    10fa:	b2d2      	uxtb	r2, r2
    10fc:	701a      	strb	r2, [r3, #0]
    10fe:	bf00      	nop
    1100:	370c      	adds	r7, #12
    1102:	46bd      	mov	sp, r7
    1104:	f85d 7b04 	ldr.w	r7, [sp], #4
    1108:	4770      	bx	lr
    110a:	bf00      	nop
    110c:	40050116 	andmi	r0, r5, r6, lsl r1

00001110 <FlushTxFifo>:
    1110:	b480      	push	{r7}
    1112:	b083      	sub	sp, #12
    1114:	af00      	add	r7, sp, #0
    1116:	6078      	str	r0, [r7, #4]
    1118:	687b      	ldr	r3, [r7, #4]
    111a:	f023 0309 	bic.w	r3, r3, #9
    111e:	011a      	lsls	r2, r3, #4
    1120:	4b07      	ldr	r3, [pc, #28]	; (1140 <FlushTxFifo+0x30>)
    1122:	4413      	add	r3, r2
    1124:	4619      	mov	r1, r3
    1126:	687b      	ldr	r3, [r7, #4]
    1128:	3b01      	subs	r3, #1
    112a:	011a      	lsls	r2, r3, #4
    112c:	4b04      	ldr	r3, [pc, #16]	; (1140 <FlushTxFifo+0x30>)
    112e:	4413      	add	r3, r2
    1130:	780a      	ldrb	r2, [r1, #0]
    1132:	701a      	strb	r2, [r3, #0]
    1134:	bf00      	nop
    1136:	370c      	adds	r7, #12
    1138:	46bd      	mov	sp, r7
    113a:	f85d 7b04 	ldr.w	r7, [sp], #4
    113e:	4770      	bx	lr
    1140:	40050112 	andmi	r0, r5, r2, lsl r1

00001144 <ConfigureEndpoint0>:
    1144:	b480      	push	{r7}
    1146:	af00      	add	r7, sp, #0
    1148:	4b05      	ldr	r3, [pc, #20]	; (1160 <ConfigureEndpoint0+0x1c>)
    114a:	881b      	ldrh	r3, [r3, #0]
    114c:	4a04      	ldr	r2, [pc, #16]	; (1160 <ConfigureEndpoint0+0x1c>)
    114e:	f043 0301 	orr.w	r3, r3, #1
    1152:	b29b      	uxth	r3, r3
    1154:	8013      	strh	r3, [r2, #0]
    1156:	bf00      	nop
    1158:	46bd      	mov	sp, r7
    115a:	f85d 7b04 	ldr.w	r7, [sp], #4
    115e:	4770      	bx	lr
    1160:	40050006 	andmi	r0, r5, r6

00001164 <ConfigureINEndpoint>:
    1164:	b084      	sub	sp, #16
    1166:	b580      	push	{r7, lr}
    1168:	b084      	sub	sp, #16
    116a:	af02      	add	r7, sp, #8
    116c:	6078      	str	r0, [r7, #4]
    116e:	f107 0014 	add.w	r0, r7, #20
    1172:	e880 000e 	stmia.w	r0, {r1, r2, r3}
    1176:	687b      	ldr	r3, [r7, #4]
    1178:	2b00      	cmp	r3, #0
    117a:	d0fc      	beq.n	1176 <ConfigureINEndpoint+0x12>
    117c:	466a      	mov	r2, sp
    117e:	f107 031c 	add.w	r3, r7, #28
    1182:	e893 0003 	ldmia.w	r3, {r0, r1}
    1186:	e882 0003 	stmia.w	r2, {r0, r1}
    118a:	f107 0314 	add.w	r3, r7, #20
    118e:	cb0c      	ldmia	r3, {r2, r3}
    1190:	2101      	movs	r1, #1
    1192:	6878      	ldr	r0, [r7, #4]
    1194:	f000 f846 	bl	1224 <ConfigureTxRxFIFOSize>
    1198:	4b09      	ldr	r3, [pc, #36]	; (11c0 <ConfigureINEndpoint+0x5c>)
    119a:	881b      	ldrh	r3, [r3, #0]
    119c:	b21a      	sxth	r2, r3
    119e:	2101      	movs	r1, #1
    11a0:	687b      	ldr	r3, [r7, #4]
    11a2:	fa01 f303 	lsl.w	r3, r1, r3
    11a6:	b21b      	sxth	r3, r3
    11a8:	4313      	orrs	r3, r2
    11aa:	b21a      	sxth	r2, r3
    11ac:	4b04      	ldr	r3, [pc, #16]	; (11c0 <ConfigureINEndpoint+0x5c>)
    11ae:	b292      	uxth	r2, r2
    11b0:	801a      	strh	r2, [r3, #0]
    11b2:	bf00      	nop
    11b4:	3708      	adds	r7, #8
    11b6:	46bd      	mov	sp, r7
    11b8:	e8bd 4080 	ldmia.w	sp!, {r7, lr}
    11bc:	b004      	add	sp, #16
    11be:	4770      	bx	lr
    11c0:	40050006 	andmi	r0, r5, r6

000011c4 <ConfigureOUTEndpoint>:
    11c4:	b084      	sub	sp, #16
    11c6:	b580      	push	{r7, lr}
    11c8:	b084      	sub	sp, #16
    11ca:	af02      	add	r7, sp, #8
    11cc:	6078      	str	r0, [r7, #4]
    11ce:	f107 0014 	add.w	r0, r7, #20
    11d2:	e880 000e 	stmia.w	r0, {r1, r2, r3}
    11d6:	687b      	ldr	r3, [r7, #4]
    11d8:	2b00      	cmp	r3, #0
    11da:	d0fc      	beq.n	11d6 <ConfigureOUTEndpoint+0x12>
    11dc:	466a      	mov	r2, sp
    11de:	f107 031c 	add.w	r3, r7, #28
    11e2:	e893 0003 	ldmia.w	r3, {r0, r1}
    11e6:	e882 0003 	stmia.w	r2, {r0, r1}
    11ea:	f107 0314 	add.w	r3, r7, #20
    11ee:	cb0c      	ldmia	r3, {r2, r3}
    11f0:	2100      	movs	r1, #0
    11f2:	6878      	ldr	r0, [r7, #4]
    11f4:	f000 f816 	bl	1224 <ConfigureTxRxFIFOSize>
    11f8:	4b09      	ldr	r3, [pc, #36]	; (1220 <ConfigureOUTEndpoint+0x5c>)
    11fa:	881b      	ldrh	r3, [r3, #0]
    11fc:	b21a      	sxth	r2, r3
    11fe:	2101      	movs	r1, #1
    1200:	687b      	ldr	r3, [r7, #4]
    1202:	fa01 f303 	lsl.w	r3, r1, r3
    1206:	b21b      	sxth	r3, r3
    1208:	4313      	orrs	r3, r2
    120a:	b21a      	sxth	r2, r3
    120c:	4b04      	ldr	r3, [pc, #16]	; (1220 <ConfigureOUTEndpoint+0x5c>)
    120e:	b292      	uxth	r2, r2
    1210:	801a      	strh	r2, [r3, #0]
    1212:	bf00      	nop
    1214:	3708      	adds	r7, #8
    1216:	46bd      	mov	sp, r7
    1218:	e8bd 4080 	ldmia.w	sp!, {r7, lr}
    121c:	b004      	add	sp, #16
    121e:	4770      	bx	lr
    1220:	40050008 	andmi	r0, r5, r8

00001224 <ConfigureTxRxFIFOSize>:
    1224:	b082      	sub	sp, #8
    1226:	b490      	push	{r4, r7}
    1228:	b088      	sub	sp, #32
    122a:	af00      	add	r7, sp, #0
    122c:	6078      	str	r0, [r7, #4]
    122e:	f107 0028 	add.w	r0, r7, #40	; 0x28
    1232:	e880 000c 	stmia.w	r0, {r2, r3}
    1236:	460b      	mov	r3, r1
    1238:	70fb      	strb	r3, [r7, #3]
    123a:	f107 040c 	add.w	r4, r7, #12
    123e:	f107 0328 	add.w	r3, r7, #40	; 0x28
    1242:	cb0f      	ldmia	r3, {r0, r1, r2, r3}
    1244:	e884 000f 	stmia.w	r4, {r0, r1, r2, r3}
    1248:	2300      	movs	r3, #0
    124a:	61fb      	str	r3, [r7, #28]
    124c:	bf00      	nop
    124e:	697b      	ldr	r3, [r7, #20]
    1250:	f003 0307 	and.w	r3, r3, #7
    1254:	2b00      	cmp	r3, #0
    1256:	d1fa      	bne.n	124e <ConfigureTxRxFIFOSize+0x2a>
    1258:	687b      	ldr	r3, [r7, #4]
    125a:	2b00      	cmp	r3, #0
    125c:	d0fc      	beq.n	1258 <ConfigureTxRxFIFOSize+0x34>
    125e:	4b3a      	ldr	r3, [pc, #232]	; (1348 <ConfigureTxRxFIFOSize+0x124>)
    1260:	687a      	ldr	r2, [r7, #4]
    1262:	b2d2      	uxtb	r2, r2
    1264:	701a      	strb	r2, [r3, #0]
    1266:	78fb      	ldrb	r3, [r7, #3]
    1268:	2b00      	cmp	r3, #0
    126a:	d00d      	beq.n	1288 <ConfigureTxRxFIFOSize+0x64>
    126c:	69ba      	ldr	r2, [r7, #24]
    126e:	4b37      	ldr	r3, [pc, #220]	; (134c <ConfigureTxRxFIFOSize+0x128>)
    1270:	b2d2      	uxtb	r2, r2
    1272:	701a      	strb	r2, [r3, #0]
    1274:	697b      	ldr	r3, [r7, #20]
    1276:	2b00      	cmp	r3, #0
    1278:	da00      	bge.n	127c <ConfigureTxRxFIFOSize+0x58>
    127a:	3307      	adds	r3, #7
    127c:	10db      	asrs	r3, r3, #3
    127e:	461a      	mov	r2, r3
    1280:	4b33      	ldr	r3, [pc, #204]	; (1350 <ConfigureTxRxFIFOSize+0x12c>)
    1282:	b292      	uxth	r2, r2
    1284:	801a      	strh	r2, [r3, #0]
    1286:	e00c      	b.n	12a2 <ConfigureTxRxFIFOSize+0x7e>
    1288:	69ba      	ldr	r2, [r7, #24]
    128a:	4b32      	ldr	r3, [pc, #200]	; (1354 <ConfigureTxRxFIFOSize+0x130>)
    128c:	b2d2      	uxtb	r2, r2
    128e:	701a      	strb	r2, [r3, #0]
    1290:	697b      	ldr	r3, [r7, #20]
    1292:	2b00      	cmp	r3, #0
    1294:	da00      	bge.n	1298 <ConfigureTxRxFIFOSize+0x74>
    1296:	3307      	adds	r3, #7
    1298:	10db      	asrs	r3, r3, #3
    129a:	461a      	mov	r2, r3
    129c:	4b2e      	ldr	r3, [pc, #184]	; (1358 <ConfigureTxRxFIFOSize+0x134>)
    129e:	b292      	uxth	r2, r2
    12a0:	801a      	strh	r2, [r3, #0]
    12a2:	69bb      	ldr	r3, [r7, #24]
    12a4:	2b08      	cmp	r3, #8
    12a6:	d834      	bhi.n	1312 <ConfigureTxRxFIFOSize+0xee>
    12a8:	a201      	add	r2, pc, #4	; (adr r2, 12b0 <ConfigureTxRxFIFOSize+0x8c>)
    12aa:	f852 f023 	ldr.w	pc, [r2, r3, lsl #2]
    12ae:	bf00      	nop
    12b0:	000012d5 	ldrdeq	r1, [r0], -r5
    12b4:	000012db 	ldrdeq	r1, [r0], -fp
    12b8:	000012e1 	andeq	r1, r0, r1, ror #5
    12bc:	000012e7 	andeq	r1, r0, r7, ror #5
    12c0:	000012ed 	andeq	r1, r0, sp, ror #5
    12c4:	000012f3 	strdeq	r1, [r0], -r3
    12c8:	000012fb 	strdeq	r1, [r0], -fp
    12cc:	00001303 	andeq	r1, r0, r3, lsl #6
    12d0:	0000130b 	andeq	r1, r0, fp, lsl #6
    12d4:	2308      	movs	r3, #8
    12d6:	61fb      	str	r3, [r7, #28]
    12d8:	e01c      	b.n	1314 <ConfigureTxRxFIFOSize+0xf0>
    12da:	2310      	movs	r3, #16
    12dc:	61fb      	str	r3, [r7, #28]
    12de:	e019      	b.n	1314 <ConfigureTxRxFIFOSize+0xf0>
    12e0:	2320      	movs	r3, #32
    12e2:	61fb      	str	r3, [r7, #28]
    12e4:	e016      	b.n	1314 <ConfigureTxRxFIFOSize+0xf0>
    12e6:	2340      	movs	r3, #64	; 0x40
    12e8:	61fb      	str	r3, [r7, #28]
    12ea:	e013      	b.n	1314 <ConfigureTxRxFIFOSize+0xf0>
    12ec:	2380      	movs	r3, #128	; 0x80
    12ee:	61fb      	str	r3, [r7, #28]
    12f0:	e010      	b.n	1314 <ConfigureTxRxFIFOSize+0xf0>
    12f2:	f44f 7380 	mov.w	r3, #256	; 0x100
    12f6:	61fb      	str	r3, [r7, #28]
    12f8:	e00c      	b.n	1314 <ConfigureTxRxFIFOSize+0xf0>
    12fa:	f44f 7300 	mov.w	r3, #512	; 0x200
    12fe:	61fb      	str	r3, [r7, #28]
    1300:	e008      	b.n	1314 <ConfigureTxRxFIFOSize+0xf0>
    1302:	f44f 6380 	mov.w	r3, #1024	; 0x400
    1306:	61fb      	str	r3, [r7, #28]
    1308:	e004      	b.n	1314 <ConfigureTxRxFIFOSize+0xf0>
    130a:	f44f 6300 	mov.w	r3, #2048	; 0x800
    130e:	61fb      	str	r3, [r7, #28]
    1310:	e000      	b.n	1314 <ConfigureTxRxFIFOSize+0xf0>
    1312:	e7fe      	b.n	1312 <ConfigureTxRxFIFOSize+0xee>
    1314:	78fb      	ldrb	r3, [r7, #3]
    1316:	2b00      	cmp	r3, #0
    1318:	d007      	beq.n	132a <ConfigureTxRxFIFOSize+0x106>
    131a:	687a      	ldr	r2, [r7, #4]
    131c:	4b0f      	ldr	r3, [pc, #60]	; (135c <ConfigureTxRxFIFOSize+0x138>)
    131e:	4413      	add	r3, r2
    1320:	011b      	lsls	r3, r3, #4
    1322:	69fa      	ldr	r2, [r7, #28]
    1324:	b292      	uxth	r2, r2
    1326:	801a      	strh	r2, [r3, #0]
    1328:	e007      	b.n	133a <ConfigureTxRxFIFOSize+0x116>
    132a:	687b      	ldr	r3, [r7, #4]
    132c:	3b01      	subs	r3, #1
    132e:	011a      	lsls	r2, r3, #4
    1330:	4b0b      	ldr	r3, [pc, #44]	; (1360 <ConfigureTxRxFIFOSize+0x13c>)
    1332:	4413      	add	r3, r2
    1334:	69fa      	ldr	r2, [r7, #28]
    1336:	b292      	uxth	r2, r2
    1338:	801a      	strh	r2, [r3, #0]
    133a:	bf00      	nop
    133c:	3720      	adds	r7, #32
    133e:	46bd      	mov	sp, r7
    1340:	bc90      	pop	{r4, r7}
    1342:	b002      	add	sp, #8
    1344:	4770      	bx	lr
    1346:	bf00      	nop
    1348:	4005000e 	andmi	r0, r5, lr
    134c:	40050062 	andmi	r0, r5, r2, rrx
    1350:	40050064 	andmi	r0, r5, r4, rrx
    1354:	40050063 	andmi	r0, r5, r3, rrx
    1358:	40050066 	andmi	r0, r5, r6, rrx
    135c:	04005010 	streq	r5, [r0], #-16
    1360:	40050114 	andmi	r0, r5, r4, lsl r1

00001364 <writeTxFIFO>:
    1364:	b480      	push	{r7}
    1366:	b085      	sub	sp, #20
    1368:	af00      	add	r7, sp, #0
    136a:	60f8      	str	r0, [r7, #12]
    136c:	60b9      	str	r1, [r7, #8]
    136e:	607a      	str	r2, [r7, #4]
    1370:	68bb      	ldr	r3, [r7, #8]
    1372:	2b00      	cmp	r3, #0
    1374:	d0fc      	beq.n	1370 <writeTxFIFO+0xc>
    1376:	687b      	ldr	r3, [r7, #4]
    1378:	2b20      	cmp	r3, #32
    137a:	d01b      	beq.n	13b4 <writeTxFIFO+0x50>
    137c:	687b      	ldr	r3, [r7, #4]
    137e:	2b20      	cmp	r3, #32
    1380:	d821      	bhi.n	13c6 <writeTxFIFO+0x62>
    1382:	687b      	ldr	r3, [r7, #4]
    1384:	2b08      	cmp	r3, #8
    1386:	d003      	beq.n	1390 <writeTxFIFO+0x2c>
    1388:	687b      	ldr	r3, [r7, #4]
    138a:	2b10      	cmp	r3, #16
    138c:	d009      	beq.n	13a2 <writeTxFIFO+0x3e>
    138e:	e01a      	b.n	13c6 <writeTxFIFO+0x62>
    1390:	68bb      	ldr	r3, [r7, #8]
    1392:	6819      	ldr	r1, [r3, #0]
    1394:	68fa      	ldr	r2, [r7, #12]
    1396:	4b0f      	ldr	r3, [pc, #60]	; (13d4 <writeTxFIFO+0x70>)
    1398:	4413      	add	r3, r2
    139a:	009b      	lsls	r3, r3, #2
    139c:	b2ca      	uxtb	r2, r1
    139e:	701a      	strb	r2, [r3, #0]
    13a0:	e011      	b.n	13c6 <writeTxFIFO+0x62>
    13a2:	68bb      	ldr	r3, [r7, #8]
    13a4:	6819      	ldr	r1, [r3, #0]
    13a6:	68fa      	ldr	r2, [r7, #12]
    13a8:	4b0a      	ldr	r3, [pc, #40]	; (13d4 <writeTxFIFO+0x70>)
    13aa:	4413      	add	r3, r2
    13ac:	009b      	lsls	r3, r3, #2
    13ae:	b28a      	uxth	r2, r1
    13b0:	801a      	strh	r2, [r3, #0]
    13b2:	e008      	b.n	13c6 <writeTxFIFO+0x62>
    13b4:	68fa      	ldr	r2, [r7, #12]
    13b6:	4b07      	ldr	r3, [pc, #28]	; (13d4 <writeTxFIFO+0x70>)
    13b8:	4413      	add	r3, r2
    13ba:	009b      	lsls	r3, r3, #2
    13bc:	461a      	mov	r2, r3
    13be:	68bb      	ldr	r3, [r7, #8]
    13c0:	681b      	ldr	r3, [r3, #0]
    13c2:	6013      	str	r3, [r2, #0]
    13c4:	bf00      	nop
    13c6:	bf00      	nop
    13c8:	3714      	adds	r7, #20
    13ca:	46bd      	mov	sp, r7
    13cc:	f85d 7b04 	ldr.w	r7, [sp], #4
    13d0:	4770      	bx	lr
    13d2:	bf00      	nop
    13d4:	10014008 	andne	r4, r1, r8

000013d8 <readRxFIFO>:
    13d8:	b480      	push	{r7}
    13da:	b085      	sub	sp, #20
    13dc:	af00      	add	r7, sp, #0
    13de:	60f8      	str	r0, [r7, #12]
    13e0:	60b9      	str	r1, [r7, #8]
    13e2:	607a      	str	r2, [r7, #4]
    13e4:	687b      	ldr	r3, [r7, #4]
    13e6:	2b20      	cmp	r3, #32
    13e8:	d01b      	beq.n	1422 <readRxFIFO+0x4a>
    13ea:	687b      	ldr	r3, [r7, #4]
    13ec:	2b20      	cmp	r3, #32
    13ee:	d820      	bhi.n	1432 <readRxFIFO+0x5a>
    13f0:	687b      	ldr	r3, [r7, #4]
    13f2:	2b08      	cmp	r3, #8
    13f4:	d003      	beq.n	13fe <readRxFIFO+0x26>
    13f6:	687b      	ldr	r3, [r7, #4]
    13f8:	2b10      	cmp	r3, #16
    13fa:	d009      	beq.n	1410 <readRxFIFO+0x38>
    13fc:	e019      	b.n	1432 <readRxFIFO+0x5a>
    13fe:	68fa      	ldr	r2, [r7, #12]
    1400:	4b0f      	ldr	r3, [pc, #60]	; (1440 <readRxFIFO+0x68>)
    1402:	4413      	add	r3, r2
    1404:	009b      	lsls	r3, r3, #2
    1406:	781b      	ldrb	r3, [r3, #0]
    1408:	461a      	mov	r2, r3
    140a:	68bb      	ldr	r3, [r7, #8]
    140c:	601a      	str	r2, [r3, #0]
    140e:	e010      	b.n	1432 <readRxFIFO+0x5a>
    1410:	68fa      	ldr	r2, [r7, #12]
    1412:	4b0b      	ldr	r3, [pc, #44]	; (1440 <readRxFIFO+0x68>)
    1414:	4413      	add	r3, r2
    1416:	009b      	lsls	r3, r3, #2
    1418:	881b      	ldrh	r3, [r3, #0]
    141a:	461a      	mov	r2, r3
    141c:	68bb      	ldr	r3, [r7, #8]
    141e:	601a      	str	r2, [r3, #0]
    1420:	e007      	b.n	1432 <readRxFIFO+0x5a>
    1422:	68fa      	ldr	r2, [r7, #12]
    1424:	4b06      	ldr	r3, [pc, #24]	; (1440 <readRxFIFO+0x68>)
    1426:	4413      	add	r3, r2
    1428:	009b      	lsls	r3, r3, #2
    142a:	681a      	ldr	r2, [r3, #0]
    142c:	68bb      	ldr	r3, [r7, #8]
    142e:	601a      	str	r2, [r3, #0]
    1430:	bf00      	nop
    1432:	bf00      	nop
    1434:	3714      	adds	r7, #20
    1436:	46bd      	mov	sp, r7
    1438:	f85d 7b04 	ldr.w	r7, [sp], #4
    143c:	4770      	bx	lr
    143e:	bf00      	nop
    1440:	10014008 	andne	r4, r1, r8

00001444 <readPacket>:
    1444:	b580      	push	{r7, lr}
    1446:	b084      	sub	sp, #16
    1448:	af00      	add	r7, sp, #0
    144a:	60f8      	str	r0, [r7, #12]
    144c:	60b9      	str	r1, [r7, #8]
    144e:	4613      	mov	r3, r2
    1450:	80fb      	strh	r3, [r7, #6]
    1452:	e00b      	b.n	146c <readPacket+0x28>
    1454:	68fb      	ldr	r3, [r7, #12]
    1456:	2220      	movs	r2, #32
    1458:	68b9      	ldr	r1, [r7, #8]
    145a:	4618      	mov	r0, r3
    145c:	f7ff ffbc 	bl	13d8 <readRxFIFO>
    1460:	88fb      	ldrh	r3, [r7, #6]
    1462:	3b04      	subs	r3, #4
    1464:	80fb      	strh	r3, [r7, #6]
    1466:	68bb      	ldr	r3, [r7, #8]
    1468:	3304      	adds	r3, #4
    146a:	60bb      	str	r3, [r7, #8]
    146c:	88fb      	ldrh	r3, [r7, #6]
    146e:	2b03      	cmp	r3, #3
    1470:	d8f0      	bhi.n	1454 <readPacket+0x10>
    1472:	88fb      	ldrh	r3, [r7, #6]
    1474:	2b00      	cmp	r3, #0
    1476:	d00f      	beq.n	1498 <readPacket+0x54>
    1478:	e00b      	b.n	1492 <readPacket+0x4e>
    147a:	68fb      	ldr	r3, [r7, #12]
    147c:	2208      	movs	r2, #8
    147e:	68b9      	ldr	r1, [r7, #8]
    1480:	4618      	mov	r0, r3
    1482:	f7ff ffa9 	bl	13d8 <readRxFIFO>
    1486:	88fb      	ldrh	r3, [r7, #6]
    1488:	3b01      	subs	r3, #1
    148a:	80fb      	strh	r3, [r7, #6]
    148c:	68bb      	ldr	r3, [r7, #8]
    148e:	3301      	adds	r3, #1
    1490:	60bb      	str	r3, [r7, #8]
    1492:	88fb      	ldrh	r3, [r7, #6]
    1494:	2b00      	cmp	r3, #0
    1496:	d1f0      	bne.n	147a <readPacket+0x36>
    1498:	bf00      	nop
    149a:	3710      	adds	r7, #16
    149c:	46bd      	mov	sp, r7
    149e:	bd80      	pop	{r7, pc}

000014a0 <writePacket>:
    14a0:	b580      	push	{r7, lr}
    14a2:	b084      	sub	sp, #16
    14a4:	af00      	add	r7, sp, #0
    14a6:	60f8      	str	r0, [r7, #12]
    14a8:	60b9      	str	r1, [r7, #8]
    14aa:	4613      	mov	r3, r2
    14ac:	80fb      	strh	r3, [r7, #6]
    14ae:	e00b      	b.n	14c8 <writePacket+0x28>
    14b0:	68fb      	ldr	r3, [r7, #12]
    14b2:	2220      	movs	r2, #32
    14b4:	68b9      	ldr	r1, [r7, #8]
    14b6:	4618      	mov	r0, r3
    14b8:	f7ff ff54 	bl	1364 <writeTxFIFO>
    14bc:	88fb      	ldrh	r3, [r7, #6]
    14be:	3b04      	subs	r3, #4
    14c0:	80fb      	strh	r3, [r7, #6]
    14c2:	68bb      	ldr	r3, [r7, #8]
    14c4:	3304      	adds	r3, #4
    14c6:	60bb      	str	r3, [r7, #8]
    14c8:	88fb      	ldrh	r3, [r7, #6]
    14ca:	2b03      	cmp	r3, #3
    14cc:	d8f0      	bhi.n	14b0 <writePacket+0x10>
    14ce:	88fb      	ldrh	r3, [r7, #6]
    14d0:	2b00      	cmp	r3, #0
    14d2:	d00f      	beq.n	14f4 <writePacket+0x54>
    14d4:	e00b      	b.n	14ee <writePacket+0x4e>
    14d6:	68fb      	ldr	r3, [r7, #12]
    14d8:	2208      	movs	r2, #8
    14da:	68b9      	ldr	r1, [r7, #8]
    14dc:	4618      	mov	r0, r3
    14de:	f7ff ff41 	bl	1364 <writeTxFIFO>
    14e2:	88fb      	ldrh	r3, [r7, #6]
    14e4:	3b01      	subs	r3, #1
    14e6:	80fb      	strh	r3, [r7, #6]
    14e8:	68bb      	ldr	r3, [r7, #8]
    14ea:	3301      	adds	r3, #1
    14ec:	60bb      	str	r3, [r7, #8]
    14ee:	88fb      	ldrh	r3, [r7, #6]
    14f0:	2b00      	cmp	r3, #0
    14f2:	d1f0      	bne.n	14d6 <writePacket+0x36>
    14f4:	bf00      	nop
    14f6:	3710      	adds	r7, #16
    14f8:	46bd      	mov	sp, r7
    14fa:	bd80      	pop	{r7, pc}

000014fc <USBDeviceGetIntStatus>:
    14fc:	b480      	push	{r7}
    14fe:	b083      	sub	sp, #12
    1500:	af00      	add	r7, sp, #0
    1502:	6078      	str	r0, [r7, #4]
    1504:	4b0d      	ldr	r3, [pc, #52]	; (153c <USBDeviceGetIntStatus+0x40>)
    1506:	781b      	ldrb	r3, [r3, #0]
    1508:	461a      	mov	r2, r3
    150a:	687b      	ldr	r3, [r7, #4]
    150c:	601a      	str	r2, [r3, #0]
    150e:	687b      	ldr	r3, [r7, #4]
    1510:	681b      	ldr	r3, [r3, #0]
    1512:	4a0b      	ldr	r2, [pc, #44]	; (1540 <USBDeviceGetIntStatus+0x44>)
    1514:	8812      	ldrh	r2, [r2, #0]
    1516:	0212      	lsls	r2, r2, #8
    1518:	431a      	orrs	r2, r3
    151a:	687b      	ldr	r3, [r7, #4]
    151c:	601a      	str	r2, [r3, #0]
    151e:	687b      	ldr	r3, [r7, #4]
    1520:	681b      	ldr	r3, [r3, #0]
    1522:	4a08      	ldr	r2, [pc, #32]	; (1544 <USBDeviceGetIntStatus+0x48>)
    1524:	8812      	ldrh	r2, [r2, #0]
    1526:	0412      	lsls	r2, r2, #16
    1528:	431a      	orrs	r2, r3
    152a:	687b      	ldr	r3, [r7, #4]
    152c:	601a      	str	r2, [r3, #0]
    152e:	bf00      	nop
    1530:	370c      	adds	r7, #12
    1532:	46bd      	mov	sp, r7
    1534:	f85d 7b04 	ldr.w	r7, [sp], #4
    1538:	4770      	bx	lr
    153a:	bf00      	nop
    153c:	4005000a 	andmi	r0, r5, sl
    1540:	40050002 	andmi	r0, r5, r2
    1544:	40050004 	andmi	r0, r5, r4

00001548 <USBGetRcvBytes>:
    1548:	b480      	push	{r7}
    154a:	b083      	sub	sp, #12
    154c:	af00      	add	r7, sp, #0
    154e:	6078      	str	r0, [r7, #4]
    1550:	6039      	str	r1, [r7, #0]
    1552:	687b      	ldr	r3, [r7, #4]
    1554:	2b00      	cmp	r3, #0
    1556:	d105      	bne.n	1564 <USBGetRcvBytes+0x1c>
    1558:	4b09      	ldr	r3, [pc, #36]	; (1580 <USBGetRcvBytes+0x38>)
    155a:	781b      	ldrb	r3, [r3, #0]
    155c:	b29a      	uxth	r2, r3
    155e:	683b      	ldr	r3, [r7, #0]
    1560:	801a      	strh	r2, [r3, #0]
    1562:	e007      	b.n	1574 <USBGetRcvBytes+0x2c>
    1564:	687b      	ldr	r3, [r7, #4]
    1566:	3b01      	subs	r3, #1
    1568:	011a      	lsls	r2, r3, #4
    156a:	4b06      	ldr	r3, [pc, #24]	; (1584 <USBGetRcvBytes+0x3c>)
    156c:	4413      	add	r3, r2
    156e:	881a      	ldrh	r2, [r3, #0]
    1570:	683b      	ldr	r3, [r7, #0]
    1572:	801a      	strh	r2, [r3, #0]
    1574:	bf00      	nop
    1576:	370c      	adds	r7, #12
    1578:	46bd      	mov	sp, r7
    157a:	f85d 7b04 	ldr.w	r7, [sp], #4
    157e:	4770      	bx	lr
    1580:	40050108 	andmi	r0, r5, r8, lsl #2
    1584:	40050118 	andmi	r0, r5, r8, lsl r1

00001588 <USBGetEndpointStatus>:
    1588:	b480      	push	{r7}
    158a:	b083      	sub	sp, #12
    158c:	af00      	add	r7, sp, #0
    158e:	6078      	str	r0, [r7, #4]
    1590:	6039      	str	r1, [r7, #0]
    1592:	687b      	ldr	r3, [r7, #4]
    1594:	2b00      	cmp	r3, #0
    1596:	d109      	bne.n	15ac <USBGetEndpointStatus+0x24>
    1598:	4b18      	ldr	r3, [pc, #96]	; (15fc <USBGetEndpointStatus+0x74>)
    159a:	781b      	ldrb	r3, [r3, #0]
    159c:	021b      	lsls	r3, r3, #8
    159e:	4a18      	ldr	r2, [pc, #96]	; (1600 <USBGetEndpointStatus+0x78>)
    15a0:	7812      	ldrb	r2, [r2, #0]
    15a2:	4313      	orrs	r3, r2
    15a4:	461a      	mov	r2, r3
    15a6:	683b      	ldr	r3, [r7, #0]
    15a8:	601a      	str	r2, [r3, #0]
    15aa:	e020      	b.n	15ee <USBGetEndpointStatus+0x66>
    15ac:	687b      	ldr	r3, [r7, #4]
    15ae:	3b01      	subs	r3, #1
    15b0:	011a      	lsls	r2, r3, #4
    15b2:	4b14      	ldr	r3, [pc, #80]	; (1604 <USBGetEndpointStatus+0x7c>)
    15b4:	4413      	add	r3, r2
    15b6:	781b      	ldrb	r3, [r3, #0]
    15b8:	061a      	lsls	r2, r3, #24
    15ba:	687b      	ldr	r3, [r7, #4]
    15bc:	3b01      	subs	r3, #1
    15be:	0119      	lsls	r1, r3, #4
    15c0:	4b11      	ldr	r3, [pc, #68]	; (1608 <USBGetEndpointStatus+0x80>)
    15c2:	440b      	add	r3, r1
    15c4:	781b      	ldrb	r3, [r3, #0]
    15c6:	041b      	lsls	r3, r3, #16
    15c8:	431a      	orrs	r2, r3
    15ca:	687b      	ldr	r3, [r7, #4]
    15cc:	3b01      	subs	r3, #1
    15ce:	0119      	lsls	r1, r3, #4
    15d0:	4b0e      	ldr	r3, [pc, #56]	; (160c <USBGetEndpointStatus+0x84>)
    15d2:	440b      	add	r3, r1
    15d4:	781b      	ldrb	r3, [r3, #0]
    15d6:	021b      	lsls	r3, r3, #8
    15d8:	431a      	orrs	r2, r3
    15da:	687b      	ldr	r3, [r7, #4]
    15dc:	3b01      	subs	r3, #1
    15de:	0119      	lsls	r1, r3, #4
    15e0:	4b0b      	ldr	r3, [pc, #44]	; (1610 <USBGetEndpointStatus+0x88>)
    15e2:	440b      	add	r3, r1
    15e4:	781b      	ldrb	r3, [r3, #0]
    15e6:	4313      	orrs	r3, r2
    15e8:	461a      	mov	r2, r3
    15ea:	683b      	ldr	r3, [r7, #0]
    15ec:	601a      	str	r2, [r3, #0]
    15ee:	bf00      	nop
    15f0:	370c      	adds	r7, #12
    15f2:	46bd      	mov	sp, r7
    15f4:	f85d 7b04 	ldr.w	r7, [sp], #4
    15f8:	4770      	bx	lr
    15fa:	bf00      	nop
    15fc:	40050103 	andmi	r0, r5, r3, lsl #2
    1600:	40050102 	andmi	r0, r5, r2, lsl #2
    1604:	40050113 	andmi	r0, r5, r3, lsl r1
    1608:	40050112 	andmi	r0, r5, r2, lsl r1
    160c:	40050117 	andmi	r0, r5, r7, lsl r1
    1610:	40050116 	andmi	r0, r5, r6, lsl r1

00001614 <USBCoreInitialize>:
    1614:	b580      	push	{r7, lr}
    1616:	af00      	add	r7, sp, #0
    1618:	f7ff fd16 	bl	1048 <USBDeviceInit>
    161c:	f7ff fcea 	bl	ff4 <USBInterruptInitialize>
    1620:	f7ff fd90 	bl	1144 <ConfigureEndpoint0>
    1624:	bf00      	nop
    1626:	bd80      	pop	{r7, pc}

00001628 <USBIntFlagClear>:
    1628:	b480      	push	{r7}
    162a:	b083      	sub	sp, #12
    162c:	af00      	add	r7, sp, #0
    162e:	6078      	str	r0, [r7, #4]
    1630:	6039      	str	r1, [r7, #0]
    1632:	bf00      	nop
    1634:	370c      	adds	r7, #12
    1636:	46bd      	mov	sp, r7
    1638:	f85d 7b04 	ldr.w	r7, [sp], #4
    163c:	4770      	bx	lr
	...

00001640 <USBEndpointSend>:
    1640:	b480      	push	{r7}
    1642:	b085      	sub	sp, #20
    1644:	af00      	add	r7, sp, #0
    1646:	6078      	str	r0, [r7, #4]
    1648:	6039      	str	r1, [r7, #0]
    164a:	2300      	movs	r3, #0
    164c:	81fb      	strh	r3, [r7, #14]
    164e:	687b      	ldr	r3, [r7, #4]
    1650:	2b00      	cmp	r3, #0
    1652:	d120      	bne.n	1696 <USBEndpointSend+0x56>
    1654:	4b26      	ldr	r3, [pc, #152]	; (16f0 <USBEndpointSend+0xb0>)
    1656:	781b      	ldrb	r3, [r3, #0]
    1658:	021b      	lsls	r3, r3, #8
    165a:	b21a      	sxth	r2, r3
    165c:	4b25      	ldr	r3, [pc, #148]	; (16f4 <USBEndpointSend+0xb4>)
    165e:	781b      	ldrb	r3, [r3, #0]
    1660:	b21b      	sxth	r3, r3
    1662:	4313      	orrs	r3, r2
    1664:	b21b      	sxth	r3, r3
    1666:	81fb      	strh	r3, [r7, #14]
    1668:	89fb      	ldrh	r3, [r7, #14]
    166a:	f003 0302 	and.w	r3, r3, #2
    166e:	2b00      	cmp	r3, #0
    1670:	d001      	beq.n	1676 <USBEndpointSend+0x36>
    1672:	2301      	movs	r3, #1
    1674:	e036      	b.n	16e4 <USBEndpointSend+0xa4>
    1676:	89fb      	ldrh	r3, [r7, #14]
    1678:	f043 0302 	orr.w	r3, r3, #2
    167c:	81fb      	strh	r3, [r7, #14]
    167e:	683b      	ldr	r3, [r7, #0]
    1680:	2b00      	cmp	r3, #0
    1682:	d003      	beq.n	168c <USBEndpointSend+0x4c>
    1684:	89fb      	ldrh	r3, [r7, #14]
    1686:	f043 0308 	orr.w	r3, r3, #8
    168a:	81fb      	strh	r3, [r7, #14]
    168c:	4b19      	ldr	r3, [pc, #100]	; (16f4 <USBEndpointSend+0xb4>)
    168e:	89fa      	ldrh	r2, [r7, #14]
    1690:	b2d2      	uxtb	r2, r2
    1692:	701a      	strb	r2, [r3, #0]
    1694:	e025      	b.n	16e2 <USBEndpointSend+0xa2>
    1696:	687b      	ldr	r3, [r7, #4]
    1698:	3b01      	subs	r3, #1
    169a:	011a      	lsls	r2, r3, #4
    169c:	4b16      	ldr	r3, [pc, #88]	; (16f8 <USBEndpointSend+0xb8>)
    169e:	4413      	add	r3, r2
    16a0:	781b      	ldrb	r3, [r3, #0]
    16a2:	021b      	lsls	r3, r3, #8
    16a4:	b21a      	sxth	r2, r3
    16a6:	687b      	ldr	r3, [r7, #4]
    16a8:	3b01      	subs	r3, #1
    16aa:	0119      	lsls	r1, r3, #4
    16ac:	4b13      	ldr	r3, [pc, #76]	; (16fc <USBEndpointSend+0xbc>)
    16ae:	440b      	add	r3, r1
    16b0:	781b      	ldrb	r3, [r3, #0]
    16b2:	b21b      	sxth	r3, r3
    16b4:	4313      	orrs	r3, r2
    16b6:	b21b      	sxth	r3, r3
    16b8:	81fb      	strh	r3, [r7, #14]
    16ba:	89fb      	ldrh	r3, [r7, #14]
    16bc:	f403 7380 	and.w	r3, r3, #256	; 0x100
    16c0:	b29b      	uxth	r3, r3
    16c2:	2b00      	cmp	r3, #0
    16c4:	d001      	beq.n	16ca <USBEndpointSend+0x8a>
    16c6:	2301      	movs	r3, #1
    16c8:	e00c      	b.n	16e4 <USBEndpointSend+0xa4>
    16ca:	89fb      	ldrh	r3, [r7, #14]
    16cc:	f043 0301 	orr.w	r3, r3, #1
    16d0:	81fb      	strh	r3, [r7, #14]
    16d2:	687b      	ldr	r3, [r7, #4]
    16d4:	3b01      	subs	r3, #1
    16d6:	011a      	lsls	r2, r3, #4
    16d8:	4b08      	ldr	r3, [pc, #32]	; (16fc <USBEndpointSend+0xbc>)
    16da:	4413      	add	r3, r2
    16dc:	89fa      	ldrh	r2, [r7, #14]
    16de:	b2d2      	uxtb	r2, r2
    16e0:	701a      	strb	r2, [r3, #0]
    16e2:	2300      	movs	r3, #0
    16e4:	4618      	mov	r0, r3
    16e6:	3714      	adds	r7, #20
    16e8:	46bd      	mov	sp, r7
    16ea:	f85d 7b04 	ldr.w	r7, [sp], #4
    16ee:	4770      	bx	lr
    16f0:	40050103 	andmi	r0, r5, r3, lsl #2
    16f4:	40050102 	andmi	r0, r5, r2, lsl #2
    16f8:	40050113 	andmi	r0, r5, r3, lsl r1
    16fc:	40050112 	andmi	r0, r5, r2, lsl r1

00001700 <USBEndpointAck>:
    1700:	b480      	push	{r7}
    1702:	b083      	sub	sp, #12
    1704:	af00      	add	r7, sp, #0
    1706:	6078      	str	r0, [r7, #4]
    1708:	6039      	str	r1, [r7, #0]
    170a:	687b      	ldr	r3, [r7, #4]
    170c:	2b00      	cmp	r3, #0
    170e:	d10e      	bne.n	172e <USBEndpointAck+0x2e>
    1710:	4b11      	ldr	r3, [pc, #68]	; (1758 <USBEndpointAck+0x58>)
    1712:	781b      	ldrb	r3, [r3, #0]
    1714:	b25b      	sxtb	r3, r3
    1716:	683a      	ldr	r2, [r7, #0]
    1718:	2a00      	cmp	r2, #0
    171a:	d001      	beq.n	1720 <USBEndpointAck+0x20>
    171c:	2248      	movs	r2, #72	; 0x48
    171e:	e000      	b.n	1722 <USBEndpointAck+0x22>
    1720:	2240      	movs	r2, #64	; 0x40
    1722:	4313      	orrs	r3, r2
    1724:	b25a      	sxtb	r2, r3
    1726:	4b0c      	ldr	r3, [pc, #48]	; (1758 <USBEndpointAck+0x58>)
    1728:	b2d2      	uxtb	r2, r2
    172a:	701a      	strb	r2, [r3, #0]
    172c:	e00e      	b.n	174c <USBEndpointAck+0x4c>
    172e:	687b      	ldr	r3, [r7, #4]
    1730:	3b01      	subs	r3, #1
    1732:	011a      	lsls	r2, r3, #4
    1734:	4b09      	ldr	r3, [pc, #36]	; (175c <USBEndpointAck+0x5c>)
    1736:	4413      	add	r3, r2
    1738:	781a      	ldrb	r2, [r3, #0]
    173a:	687b      	ldr	r3, [r7, #4]
    173c:	3b01      	subs	r3, #1
    173e:	0119      	lsls	r1, r3, #4
    1740:	4b06      	ldr	r3, [pc, #24]	; (175c <USBEndpointAck+0x5c>)
    1742:	440b      	add	r3, r1
    1744:	f022 0201 	bic.w	r2, r2, #1
    1748:	b2d2      	uxtb	r2, r2
    174a:	701a      	strb	r2, [r3, #0]
    174c:	bf00      	nop
    174e:	370c      	adds	r7, #12
    1750:	46bd      	mov	sp, r7
    1752:	f85d 7b04 	ldr.w	r7, [sp], #4
    1756:	4770      	bx	lr
    1758:	40050102 	andmi	r0, r5, r2, lsl #2
    175c:	40050116 	andmi	r0, r5, r6, lsl r1

00001760 <USBDIntHandler>:
    1760:	b580      	push	{r7, lr}
    1762:	b082      	sub	sp, #8
    1764:	af00      	add	r7, sp, #0
    1766:	6078      	str	r0, [r7, #4]
    1768:	687b      	ldr	r3, [r7, #4]
    176a:	f003 0304 	and.w	r3, r3, #4
    176e:	2b00      	cmp	r3, #0
    1770:	d002      	beq.n	1778 <USBDIntHandler+0x18>
    1772:	4b1d      	ldr	r3, [pc, #116]	; (17e8 <USBDIntHandler+0x88>)
    1774:	681b      	ldr	r3, [r3, #0]
    1776:	4798      	blx	r3
    1778:	687b      	ldr	r3, [r7, #4]
    177a:	f403 7380 	and.w	r3, r3, #256	; 0x100
    177e:	2b00      	cmp	r3, #0
    1780:	d004      	beq.n	178c <USBDIntHandler+0x2c>
    1782:	4b19      	ldr	r3, [pc, #100]	; (17e8 <USBDIntHandler+0x88>)
    1784:	699b      	ldr	r3, [r3, #24]
    1786:	6879      	ldr	r1, [r7, #4]
    1788:	2000      	movs	r0, #0
    178a:	4798      	blx	r3
    178c:	687b      	ldr	r3, [r7, #4]
    178e:	0a1a      	lsrs	r2, r3, #8
    1790:	687b      	ldr	r3, [r7, #4]
    1792:	0c1b      	lsrs	r3, r3, #16
    1794:	4313      	orrs	r3, r2
    1796:	f003 0302 	and.w	r3, r3, #2
    179a:	2b00      	cmp	r3, #0
    179c:	d004      	beq.n	17a8 <USBDIntHandler+0x48>
    179e:	4b12      	ldr	r3, [pc, #72]	; (17e8 <USBDIntHandler+0x88>)
    17a0:	699b      	ldr	r3, [r3, #24]
    17a2:	6879      	ldr	r1, [r7, #4]
    17a4:	2001      	movs	r0, #1
    17a6:	4798      	blx	r3
    17a8:	687b      	ldr	r3, [r7, #4]
    17aa:	0a1a      	lsrs	r2, r3, #8
    17ac:	687b      	ldr	r3, [r7, #4]
    17ae:	0c1b      	lsrs	r3, r3, #16
    17b0:	4313      	orrs	r3, r2
    17b2:	f003 0304 	and.w	r3, r3, #4
    17b6:	2b00      	cmp	r3, #0
    17b8:	d004      	beq.n	17c4 <USBDIntHandler+0x64>
    17ba:	4b0b      	ldr	r3, [pc, #44]	; (17e8 <USBDIntHandler+0x88>)
    17bc:	699b      	ldr	r3, [r3, #24]
    17be:	6879      	ldr	r1, [r7, #4]
    17c0:	2002      	movs	r0, #2
    17c2:	4798      	blx	r3
    17c4:	687b      	ldr	r3, [r7, #4]
    17c6:	0a1a      	lsrs	r2, r3, #8
    17c8:	687b      	ldr	r3, [r7, #4]
    17ca:	0c1b      	lsrs	r3, r3, #16
    17cc:	4313      	orrs	r3, r2
    17ce:	f003 0308 	and.w	r3, r3, #8
    17d2:	2b00      	cmp	r3, #0
    17d4:	d004      	beq.n	17e0 <USBDIntHandler+0x80>
    17d6:	4b04      	ldr	r3, [pc, #16]	; (17e8 <USBDIntHandler+0x88>)
    17d8:	699b      	ldr	r3, [r3, #24]
    17da:	6879      	ldr	r1, [r7, #4]
    17dc:	2003      	movs	r0, #3
    17de:	4798      	blx	r3
    17e0:	bf00      	nop
    17e2:	3708      	adds	r7, #8
    17e4:	46bd      	mov	sp, r7
    17e6:	bd80      	pop	{r7, pc}
    17e8:	00002258 	andeq	r2, r0, r8, asr r2

000017ec <USBDInit>:
    17ec:	b580      	push	{r7, lr}
    17ee:	b082      	sub	sp, #8
    17f0:	af00      	add	r7, sp, #0
    17f2:	6078      	str	r0, [r7, #4]
    17f4:	4b07      	ldr	r3, [pc, #28]	; (1814 <USBDInit+0x28>)
    17f6:	685b      	ldr	r3, [r3, #4]
    17f8:	4798      	blx	r3
    17fa:	4b06      	ldr	r3, [pc, #24]	; (1814 <USBDInit+0x28>)
    17fc:	681b      	ldr	r3, [r3, #0]
    17fe:	4798      	blx	r3
    1800:	4a05      	ldr	r2, [pc, #20]	; (1818 <USBDInit+0x2c>)
    1802:	687b      	ldr	r3, [r7, #4]
    1804:	6013      	str	r3, [r2, #0]
    1806:	4b03      	ldr	r3, [pc, #12]	; (1814 <USBDInit+0x28>)
    1808:	689b      	ldr	r3, [r3, #8]
    180a:	4798      	blx	r3
    180c:	bf00      	nop
    180e:	3708      	adds	r7, #8
    1810:	46bd      	mov	sp, r7
    1812:	bd80      	pop	{r7, pc}
    1814:	000021fc 	strdeq	r2, [r0], -ip
    1818:	2000021c 	andcs	r0, r0, ip, lsl r2

0000181c <logging_request_info>:
    181c:	b580      	push	{r7, lr}
    181e:	b082      	sub	sp, #8
    1820:	af00      	add	r7, sp, #0
    1822:	4b5d      	ldr	r3, [pc, #372]	; (1998 <logging_request_info+0x17c>)
    1824:	681b      	ldr	r3, [r3, #0]
    1826:	685b      	ldr	r3, [r3, #4]
    1828:	607b      	str	r3, [r7, #4]
    182a:	687b      	ldr	r3, [r7, #4]
    182c:	781b      	ldrb	r3, [r3, #0]
    182e:	f023 037f 	bic.w	r3, r3, #127	; 0x7f
    1832:	70fb      	strb	r3, [r7, #3]
    1834:	687b      	ldr	r3, [r7, #4]
    1836:	781b      	ldrb	r3, [r3, #0]
    1838:	f003 0360 	and.w	r3, r3, #96	; 0x60
    183c:	70bb      	strb	r3, [r7, #2]
    183e:	687b      	ldr	r3, [r7, #4]
    1840:	781b      	ldrb	r3, [r3, #0]
    1842:	f003 0303 	and.w	r3, r3, #3
    1846:	707b      	strb	r3, [r7, #1]
    1848:	4854      	ldr	r0, [pc, #336]	; (199c <logging_request_info+0x180>)
    184a:	f000 fb43 	bl	1ed4 <log_info>
    184e:	78fb      	ldrb	r3, [r7, #3]
    1850:	2b00      	cmp	r3, #0
    1852:	d001      	beq.n	1858 <logging_request_info+0x3c>
    1854:	4b52      	ldr	r3, [pc, #328]	; (19a0 <logging_request_info+0x184>)
    1856:	e000      	b.n	185a <logging_request_info+0x3e>
    1858:	4b52      	ldr	r3, [pc, #328]	; (19a4 <logging_request_info+0x188>)
    185a:	4619      	mov	r1, r3
    185c:	4852      	ldr	r0, [pc, #328]	; (19a8 <logging_request_info+0x18c>)
    185e:	f000 fb39 	bl	1ed4 <log_info>
    1862:	78bb      	ldrb	r3, [r7, #2]
    1864:	2b00      	cmp	r3, #0
    1866:	d00b      	beq.n	1880 <logging_request_info+0x64>
    1868:	78bb      	ldrb	r3, [r7, #2]
    186a:	2b20      	cmp	r3, #32
    186c:	d006      	beq.n	187c <logging_request_info+0x60>
    186e:	78bb      	ldrb	r3, [r7, #2]
    1870:	2b40      	cmp	r3, #64	; 0x40
    1872:	d101      	bne.n	1878 <logging_request_info+0x5c>
    1874:	4b4d      	ldr	r3, [pc, #308]	; (19ac <logging_request_info+0x190>)
    1876:	e004      	b.n	1882 <logging_request_info+0x66>
    1878:	4b4d      	ldr	r3, [pc, #308]	; (19b0 <logging_request_info+0x194>)
    187a:	e002      	b.n	1882 <logging_request_info+0x66>
    187c:	4b4d      	ldr	r3, [pc, #308]	; (19b4 <logging_request_info+0x198>)
    187e:	e000      	b.n	1882 <logging_request_info+0x66>
    1880:	4b4d      	ldr	r3, [pc, #308]	; (19b8 <logging_request_info+0x19c>)
    1882:	4619      	mov	r1, r3
    1884:	484d      	ldr	r0, [pc, #308]	; (19bc <logging_request_info+0x1a0>)
    1886:	f000 fb25 	bl	1ed4 <log_info>
    188a:	787b      	ldrb	r3, [r7, #1]
    188c:	2b00      	cmp	r3, #0
    188e:	d010      	beq.n	18b2 <logging_request_info+0x96>
    1890:	787b      	ldrb	r3, [r7, #1]
    1892:	2b01      	cmp	r3, #1
    1894:	d00b      	beq.n	18ae <logging_request_info+0x92>
    1896:	787b      	ldrb	r3, [r7, #1]
    1898:	2b02      	cmp	r3, #2
    189a:	d006      	beq.n	18aa <logging_request_info+0x8e>
    189c:	787b      	ldrb	r3, [r7, #1]
    189e:	2b03      	cmp	r3, #3
    18a0:	d101      	bne.n	18a6 <logging_request_info+0x8a>
    18a2:	4b47      	ldr	r3, [pc, #284]	; (19c0 <logging_request_info+0x1a4>)
    18a4:	e006      	b.n	18b4 <logging_request_info+0x98>
    18a6:	4b42      	ldr	r3, [pc, #264]	; (19b0 <logging_request_info+0x194>)
    18a8:	e004      	b.n	18b4 <logging_request_info+0x98>
    18aa:	4b46      	ldr	r3, [pc, #280]	; (19c4 <logging_request_info+0x1a8>)
    18ac:	e002      	b.n	18b4 <logging_request_info+0x98>
    18ae:	4b46      	ldr	r3, [pc, #280]	; (19c8 <logging_request_info+0x1ac>)
    18b0:	e000      	b.n	18b4 <logging_request_info+0x98>
    18b2:	4b46      	ldr	r3, [pc, #280]	; (19cc <logging_request_info+0x1b0>)
    18b4:	4619      	mov	r1, r3
    18b6:	4846      	ldr	r0, [pc, #280]	; (19d0 <logging_request_info+0x1b4>)
    18b8:	f000 fb0c 	bl	1ed4 <log_info>
    18bc:	4845      	ldr	r0, [pc, #276]	; (19d4 <logging_request_info+0x1b8>)
    18be:	f000 fb09 	bl	1ed4 <log_info>
    18c2:	687b      	ldr	r3, [r7, #4]
    18c4:	785b      	ldrb	r3, [r3, #1]
    18c6:	2b0c      	cmp	r3, #12
    18c8:	d848      	bhi.n	195c <logging_request_info+0x140>
    18ca:	a201      	add	r2, pc, #4	; (adr r2, 18d0 <logging_request_info+0xb4>)
    18cc:	f852 f023 	ldr.w	pc, [r2, r3, lsl #2]
    18d0:	00001905 	andeq	r1, r0, r5, lsl #18
    18d4:	0000190d 	andeq	r1, r0, sp, lsl #18
    18d8:	0000195d 	andeq	r1, r0, sp, asr r9
    18dc:	00001915 	andeq	r1, r0, r5, lsl r9
    18e0:	0000195d 	andeq	r1, r0, sp, asr r9
    18e4:	0000191d 	andeq	r1, r0, sp, lsl r9
    18e8:	00001925 	andeq	r1, r0, r5, lsr #18
    18ec:	0000192d 	andeq	r1, r0, sp, lsr #18
    18f0:	00001935 	andeq	r1, r0, r5, lsr r9
    18f4:	0000193d 	andeq	r1, r0, sp, lsr r9
    18f8:	00001945 	andeq	r1, r0, r5, asr #18
    18fc:	0000194d 	andeq	r1, r0, sp, asr #18
    1900:	00001955 	andeq	r1, r0, r5, asr r9
    1904:	4834      	ldr	r0, [pc, #208]	; (19d8 <logging_request_info+0x1bc>)
    1906:	f000 fae5 	bl	1ed4 <log_info>
    190a:	e02f      	b.n	196c <logging_request_info+0x150>
    190c:	4833      	ldr	r0, [pc, #204]	; (19dc <logging_request_info+0x1c0>)
    190e:	f000 fae1 	bl	1ed4 <log_info>
    1912:	e02b      	b.n	196c <logging_request_info+0x150>
    1914:	4832      	ldr	r0, [pc, #200]	; (19e0 <logging_request_info+0x1c4>)
    1916:	f000 fadd 	bl	1ed4 <log_info>
    191a:	e027      	b.n	196c <logging_request_info+0x150>
    191c:	4831      	ldr	r0, [pc, #196]	; (19e4 <logging_request_info+0x1c8>)
    191e:	f000 fad9 	bl	1ed4 <log_info>
    1922:	e023      	b.n	196c <logging_request_info+0x150>
    1924:	4830      	ldr	r0, [pc, #192]	; (19e8 <logging_request_info+0x1cc>)
    1926:	f000 fad5 	bl	1ed4 <log_info>
    192a:	e01f      	b.n	196c <logging_request_info+0x150>
    192c:	482f      	ldr	r0, [pc, #188]	; (19ec <logging_request_info+0x1d0>)
    192e:	f000 fad1 	bl	1ed4 <log_info>
    1932:	e01b      	b.n	196c <logging_request_info+0x150>
    1934:	482e      	ldr	r0, [pc, #184]	; (19f0 <logging_request_info+0x1d4>)
    1936:	f000 facd 	bl	1ed4 <log_info>
    193a:	e017      	b.n	196c <logging_request_info+0x150>
    193c:	482d      	ldr	r0, [pc, #180]	; (19f4 <logging_request_info+0x1d8>)
    193e:	f000 fac9 	bl	1ed4 <log_info>
    1942:	e013      	b.n	196c <logging_request_info+0x150>
    1944:	482c      	ldr	r0, [pc, #176]	; (19f8 <logging_request_info+0x1dc>)
    1946:	f000 fac5 	bl	1ed4 <log_info>
    194a:	e00f      	b.n	196c <logging_request_info+0x150>
    194c:	482b      	ldr	r0, [pc, #172]	; (19fc <logging_request_info+0x1e0>)
    194e:	f000 fac1 	bl	1ed4 <log_info>
    1952:	e00b      	b.n	196c <logging_request_info+0x150>
    1954:	482a      	ldr	r0, [pc, #168]	; (1a00 <logging_request_info+0x1e4>)
    1956:	f000 fabd 	bl	1ed4 <log_info>
    195a:	e007      	b.n	196c <logging_request_info+0x150>
    195c:	687b      	ldr	r3, [r7, #4]
    195e:	785b      	ldrb	r3, [r3, #1]
    1960:	461a      	mov	r2, r3
    1962:	2158      	movs	r1, #88	; 0x58
    1964:	4827      	ldr	r0, [pc, #156]	; (1a04 <logging_request_info+0x1e8>)
    1966:	f000 fad7 	bl	1f18 <_log_error>
    196a:	bf00      	nop
    196c:	687b      	ldr	r3, [r7, #4]
    196e:	885b      	ldrh	r3, [r3, #2]
    1970:	4619      	mov	r1, r3
    1972:	4825      	ldr	r0, [pc, #148]	; (1a08 <logging_request_info+0x1ec>)
    1974:	f000 faae 	bl	1ed4 <log_info>
    1978:	687b      	ldr	r3, [r7, #4]
    197a:	889b      	ldrh	r3, [r3, #4]
    197c:	4619      	mov	r1, r3
    197e:	4823      	ldr	r0, [pc, #140]	; (1a0c <logging_request_info+0x1f0>)
    1980:	f000 faa8 	bl	1ed4 <log_info>
    1984:	687b      	ldr	r3, [r7, #4]
    1986:	88db      	ldrh	r3, [r3, #6]
    1988:	4619      	mov	r1, r3
    198a:	4821      	ldr	r0, [pc, #132]	; (1a10 <logging_request_info+0x1f4>)
    198c:	f000 faa2 	bl	1ed4 <log_info>
    1990:	bf00      	nop
    1992:	3708      	adds	r7, #8
    1994:	46bd      	mov	sp, r7
    1996:	bd80      	pop	{r7, pc}
    1998:	2000021c 	andcs	r0, r0, ip, lsl r2
    199c:	00002274 	andeq	r2, r0, r4, ror r2
    19a0:	00002288 	andeq	r2, r0, r8, lsl #5
    19a4:	00002298 	muleq	r0, r8, r2
    19a8:	000022a8 	andeq	r2, r0, r8, lsr #5
    19ac:	000022bc 			; <UNDEFINED> instruction: 0x000022bc
    19b0:	000022c4 	andeq	r2, r0, r4, asr #5
    19b4:	000022d0 	ldrdeq	r2, [r0], -r0
    19b8:	000022d8 	ldrdeq	r2, [r0], -r8
    19bc:	000022e4 	andeq	r2, r0, r4, ror #5
    19c0:	000022f4 	strdeq	r2, [r0], -r4
    19c4:	000022fc 	strdeq	r2, [r0], -ip
    19c8:	00002308 	andeq	r2, r0, r8, lsl #6
    19cc:	00002314 	andeq	r2, r0, r4, lsl r3
    19d0:	0000231c 	andeq	r2, r0, ip, lsl r3
    19d4:	00002330 	andeq	r2, r0, r0, lsr r3
    19d8:	00002340 	andeq	r2, r0, r0, asr #6
    19dc:	00002350 	andeq	r2, r0, r0, asr r3
    19e0:	00002364 	andeq	r2, r0, r4, ror #6
    19e4:	00002374 	andeq	r2, r0, r4, ror r3
    19e8:	00002384 	andeq	r2, r0, r4, lsl #7
    19ec:	00002398 	muleq	r0, r8, r3
    19f0:	000023ac 	andeq	r2, r0, ip, lsr #7
    19f4:	000023bc 			; <UNDEFINED> instruction: 0x000023bc
    19f8:	000023cc 	andeq	r2, r0, ip, asr #7
    19fc:	000023e0 	andeq	r2, r0, r0, ror #7
    1a00:	000023f4 	strdeq	r2, [r0], -r4
    1a04:	00002404 	andeq	r2, r0, r4, lsl #8
    1a08:	0000242c 	andeq	r2, r0, ip, lsr #8
    1a0c:	0000243c 	andeq	r2, r0, ip, lsr r4
    1a10:	0000244c 	andeq	r2, r0, ip, asr #8

00001a14 <usb_reset_received_handler>:
    1a14:	b580      	push	{r7, lr}
    1a16:	af00      	add	r7, sp, #0
    1a18:	480e      	ldr	r0, [pc, #56]	; (1a54 <usb_reset_received_handler+0x40>)
    1a1a:	f000 fa5b 	bl	1ed4 <log_info>
    1a1e:	4b0e      	ldr	r3, [pc, #56]	; (1a58 <usb_reset_received_handler+0x44>)
    1a20:	681b      	ldr	r3, [r3, #0]
    1a22:	2200      	movs	r2, #0
    1a24:	611a      	str	r2, [r3, #16]
    1a26:	4b0c      	ldr	r3, [pc, #48]	; (1a58 <usb_reset_received_handler+0x44>)
    1a28:	681b      	ldr	r3, [r3, #0]
    1a2a:	2200      	movs	r2, #0
    1a2c:	609a      	str	r2, [r3, #8]
    1a2e:	4b0a      	ldr	r3, [pc, #40]	; (1a58 <usb_reset_received_handler+0x44>)
    1a30:	681b      	ldr	r3, [r3, #0]
    1a32:	2200      	movs	r2, #0
    1a34:	709a      	strb	r2, [r3, #2]
    1a36:	4b08      	ldr	r3, [pc, #32]	; (1a58 <usb_reset_received_handler+0x44>)
    1a38:	681b      	ldr	r3, [r3, #0]
    1a3a:	2200      	movs	r2, #0
    1a3c:	701a      	strb	r2, [r3, #0]
    1a3e:	4b06      	ldr	r3, [pc, #24]	; (1a58 <usb_reset_received_handler+0x44>)
    1a40:	681b      	ldr	r3, [r3, #0]
    1a42:	2200      	movs	r2, #0
    1a44:	705a      	strb	r2, [r3, #1]
    1a46:	4b05      	ldr	r3, [pc, #20]	; (1a5c <usb_reset_received_handler+0x48>)
    1a48:	6b9b      	ldr	r3, [r3, #56]	; 0x38
    1a4a:	2000      	movs	r0, #0
    1a4c:	4798      	blx	r3
    1a4e:	bf00      	nop
    1a50:	bd80      	pop	{r7, pc}
    1a52:	bf00      	nop
    1a54:	0000245c 	andeq	r2, r0, ip, asr r4
    1a58:	2000021c 	andcs	r0, r0, ip, lsl r2
    1a5c:	000021fc 	strdeq	r2, [r0], -ip

00001a60 <process_standard_device_request>:
    1a60:	b580      	push	{r7, lr}
    1a62:	b084      	sub	sp, #16
    1a64:	af00      	add	r7, sp, #0
    1a66:	4b26      	ldr	r3, [pc, #152]	; (1b00 <process_standard_device_request+0xa0>)
    1a68:	681b      	ldr	r3, [r3, #0]
    1a6a:	685b      	ldr	r3, [r3, #4]
    1a6c:	60fb      	str	r3, [r7, #12]
    1a6e:	68fb      	ldr	r3, [r7, #12]
    1a70:	785b      	ldrb	r3, [r3, #1]
    1a72:	2b05      	cmp	r3, #5
    1a74:	d028      	beq.n	1ac8 <process_standard_device_request+0x68>
    1a76:	2b06      	cmp	r3, #6
    1a78:	d138      	bne.n	1aec <process_standard_device_request+0x8c>
    1a7a:	4b22      	ldr	r3, [pc, #136]	; (1b04 <process_standard_device_request+0xa4>)
    1a7c:	6b1b      	ldr	r3, [r3, #48]	; 0x30
    1a7e:	2100      	movs	r1, #0
    1a80:	2000      	movs	r0, #0
    1a82:	4798      	blx	r3
    1a84:	4820      	ldr	r0, [pc, #128]	; (1b08 <process_standard_device_request+0xa8>)
    1a86:	f000 fa25 	bl	1ed4 <log_info>
    1a8a:	68fb      	ldr	r3, [r7, #12]
    1a8c:	885b      	ldrh	r3, [r3, #2]
    1a8e:	0a1b      	lsrs	r3, r3, #8
    1a90:	b29b      	uxth	r3, r3
    1a92:	72fb      	strb	r3, [r7, #11]
    1a94:	68fb      	ldr	r3, [r7, #12]
    1a96:	88db      	ldrh	r3, [r3, #6]
    1a98:	813b      	strh	r3, [r7, #8]
    1a9a:	7afb      	ldrb	r3, [r7, #11]
    1a9c:	2b01      	cmp	r3, #1
    1a9e:	d129      	bne.n	1af4 <process_standard_device_request+0x94>
    1aa0:	481a      	ldr	r0, [pc, #104]	; (1b0c <process_standard_device_request+0xac>)
    1aa2:	f000 fa17 	bl	1ed4 <log_info>
    1aa6:	4b16      	ldr	r3, [pc, #88]	; (1b00 <process_standard_device_request+0xa0>)
    1aa8:	681b      	ldr	r3, [r3, #0]
    1aaa:	4a19      	ldr	r2, [pc, #100]	; (1b10 <process_standard_device_request+0xb0>)
    1aac:	60da      	str	r2, [r3, #12]
    1aae:	4b14      	ldr	r3, [pc, #80]	; (1b00 <process_standard_device_request+0xa0>)
    1ab0:	681b      	ldr	r3, [r3, #0]
    1ab2:	893a      	ldrh	r2, [r7, #8]
    1ab4:	611a      	str	r2, [r3, #16]
    1ab6:	4817      	ldr	r0, [pc, #92]	; (1b14 <process_standard_device_request+0xb4>)
    1ab8:	f000 fa0c 	bl	1ed4 <log_info>
    1abc:	4b10      	ldr	r3, [pc, #64]	; (1b00 <process_standard_device_request+0xa0>)
    1abe:	681b      	ldr	r3, [r3, #0]
    1ac0:	2202      	movs	r2, #2
    1ac2:	705a      	strb	r2, [r3, #1]
    1ac4:	bf00      	nop
    1ac6:	e015      	b.n	1af4 <process_standard_device_request+0x94>
    1ac8:	4b0e      	ldr	r3, [pc, #56]	; (1b04 <process_standard_device_request+0xa4>)
    1aca:	6b1b      	ldr	r3, [r3, #48]	; 0x30
    1acc:	2101      	movs	r1, #1
    1ace:	2000      	movs	r0, #0
    1ad0:	4798      	blx	r3
    1ad2:	4811      	ldr	r0, [pc, #68]	; (1b18 <process_standard_device_request+0xb8>)
    1ad4:	f000 f9fe 	bl	1ed4 <log_info>
    1ad8:	68fb      	ldr	r3, [r7, #12]
    1ada:	885b      	ldrh	r3, [r3, #2]
    1adc:	80fb      	strh	r3, [r7, #6]
    1ade:	4b09      	ldr	r3, [pc, #36]	; (1b04 <process_standard_device_request+0xa4>)
    1ae0:	6b9b      	ldr	r3, [r3, #56]	; 0x38
    1ae2:	88fa      	ldrh	r2, [r7, #6]
    1ae4:	b2d2      	uxtb	r2, r2
    1ae6:	4610      	mov	r0, r2
    1ae8:	4798      	blx	r3
    1aea:	e004      	b.n	1af6 <process_standard_device_request+0x96>
    1aec:	480b      	ldr	r0, [pc, #44]	; (1b1c <process_standard_device_request+0xbc>)
    1aee:	f000 f9f1 	bl	1ed4 <log_info>
    1af2:	e000      	b.n	1af6 <process_standard_device_request+0x96>
    1af4:	bf00      	nop
    1af6:	bf00      	nop
    1af8:	3710      	adds	r7, #16
    1afa:	46bd      	mov	sp, r7
    1afc:	bd80      	pop	{r7, pc}
    1afe:	bf00      	nop
    1b00:	2000021c 	andcs	r0, r0, ip, lsl r2
    1b04:	000021fc 	strdeq	r2, [r0], -ip
    1b08:	00002474 	andeq	r2, r0, r4, ror r4
    1b0c:	000024a0 	andeq	r2, r0, r0, lsr #9
    1b10:	00002244 	andeq	r2, r0, r4, asr #4
    1b14:	000024bc 			; <UNDEFINED> instruction: 0x000024bc
    1b18:	000024e0 	andeq	r2, r0, r0, ror #9
    1b1c:	00002508 	andeq	r2, r0, r8, lsl #10

00001b20 <process_request>:
    1b20:	b580      	push	{r7, lr}
    1b22:	b082      	sub	sp, #8
    1b24:	af00      	add	r7, sp, #0
    1b26:	4b0a      	ldr	r3, [pc, #40]	; (1b50 <process_request+0x30>)
    1b28:	681b      	ldr	r3, [r3, #0]
    1b2a:	685b      	ldr	r3, [r3, #4]
    1b2c:	607b      	str	r3, [r7, #4]
    1b2e:	f7ff fe75 	bl	181c <logging_request_info>
    1b32:	687b      	ldr	r3, [r7, #4]
    1b34:	781b      	ldrb	r3, [r3, #0]
    1b36:	f003 0363 	and.w	r3, r3, #99	; 0x63
    1b3a:	2b00      	cmp	r3, #0
    1b3c:	d102      	bne.n	1b44 <process_request+0x24>
    1b3e:	f7ff ff8f 	bl	1a60 <process_standard_device_request>
    1b42:	e000      	b.n	1b46 <process_request+0x26>
    1b44:	bf00      	nop
    1b46:	bf00      	nop
    1b48:	3708      	adds	r7, #8
    1b4a:	46bd      	mov	sp, r7
    1b4c:	bd80      	pop	{r7, pc}
    1b4e:	bf00      	nop
    1b50:	2000021c 	andcs	r0, r0, ip, lsl r2

00001b54 <process_control_transfer_stage>:
    1b54:	b580      	push	{r7, lr}
    1b56:	b082      	sub	sp, #8
    1b58:	af00      	add	r7, sp, #0
    1b5a:	4b4d      	ldr	r3, [pc, #308]	; (1c90 <process_control_transfer_stage+0x13c>)
    1b5c:	681b      	ldr	r3, [r3, #0]
    1b5e:	785b      	ldrb	r3, [r3, #1]
    1b60:	2b05      	cmp	r3, #5
    1b62:	f200 808d 	bhi.w	1c80 <process_control_transfer_stage+0x12c>
    1b66:	a201      	add	r2, pc, #4	; (adr r2, 1b6c <process_control_transfer_stage+0x18>)
    1b68:	f852 f023 	ldr.w	pc, [r2, r3, lsl #2]
    1b6c:	00001c81 	andeq	r1, r0, r1, lsl #25
    1b70:	00001c81 	andeq	r1, r0, r1, lsl #25
    1b74:	00001b85 	andeq	r1, r0, r5, lsl #23
    1b78:	00001c43 	andeq	r1, r0, r3, asr #24
    1b7c:	00001c81 	andeq	r1, r0, r1, lsl #25
    1b80:	00001c79 	andeq	r1, r0, r9, ror ip
    1b84:	4843      	ldr	r0, [pc, #268]	; (1c94 <process_control_transfer_stage+0x140>)
    1b86:	f000 f9a5 	bl	1ed4 <log_info>
    1b8a:	2340      	movs	r3, #64	; 0x40
    1b8c:	461a      	mov	r2, r3
    1b8e:	4b40      	ldr	r3, [pc, #256]	; (1c90 <process_control_transfer_stage+0x13c>)
    1b90:	681b      	ldr	r3, [r3, #0]
    1b92:	691b      	ldr	r3, [r3, #16]
    1b94:	4293      	cmp	r3, r2
    1b96:	bf28      	it	cs
    1b98:	4613      	movcs	r3, r2
    1b9a:	71fb      	strb	r3, [r7, #7]
    1b9c:	4b3e      	ldr	r3, [pc, #248]	; (1c98 <process_control_transfer_stage+0x144>)
    1b9e:	6a5b      	ldr	r3, [r3, #36]	; 0x24
    1ba0:	4a3b      	ldr	r2, [pc, #236]	; (1c90 <process_control_transfer_stage+0x13c>)
    1ba2:	6812      	ldr	r2, [r2, #0]
    1ba4:	68d1      	ldr	r1, [r2, #12]
    1ba6:	79fa      	ldrb	r2, [r7, #7]
    1ba8:	b292      	uxth	r2, r2
    1baa:	2000      	movs	r0, #0
    1bac:	4798      	blx	r3
    1bae:	4b38      	ldr	r3, [pc, #224]	; (1c90 <process_control_transfer_stage+0x13c>)
    1bb0:	681b      	ldr	r3, [r3, #0]
    1bb2:	6919      	ldr	r1, [r3, #16]
    1bb4:	79fa      	ldrb	r2, [r7, #7]
    1bb6:	4b36      	ldr	r3, [pc, #216]	; (1c90 <process_control_transfer_stage+0x13c>)
    1bb8:	681b      	ldr	r3, [r3, #0]
    1bba:	1a8a      	subs	r2, r1, r2
    1bbc:	611a      	str	r2, [r3, #16]
    1bbe:	4b34      	ldr	r3, [pc, #208]	; (1c90 <process_control_transfer_stage+0x13c>)
    1bc0:	681b      	ldr	r3, [r3, #0]
    1bc2:	68d9      	ldr	r1, [r3, #12]
    1bc4:	79fa      	ldrb	r2, [r7, #7]
    1bc6:	4b32      	ldr	r3, [pc, #200]	; (1c90 <process_control_transfer_stage+0x13c>)
    1bc8:	681b      	ldr	r3, [r3, #0]
    1bca:	440a      	add	r2, r1
    1bcc:	60da      	str	r2, [r3, #12]
    1bce:	4833      	ldr	r0, [pc, #204]	; (1c9c <process_control_transfer_stage+0x148>)
    1bd0:	f000 f980 	bl	1ed4 <log_info>
    1bd4:	4b2e      	ldr	r3, [pc, #184]	; (1c90 <process_control_transfer_stage+0x13c>)
    1bd6:	681b      	ldr	r3, [r3, #0]
    1bd8:	2203      	movs	r2, #3
    1bda:	705a      	strb	r2, [r3, #1]
    1bdc:	4b2c      	ldr	r3, [pc, #176]	; (1c90 <process_control_transfer_stage+0x13c>)
    1bde:	681b      	ldr	r3, [r3, #0]
    1be0:	691b      	ldr	r3, [r3, #16]
    1be2:	2b00      	cmp	r3, #0
    1be4:	d14e      	bne.n	1c84 <process_control_transfer_stage+0x130>
    1be6:	2240      	movs	r2, #64	; 0x40
    1be8:	79fb      	ldrb	r3, [r7, #7]
    1bea:	4293      	cmp	r3, r2
    1bec:	d114      	bne.n	1c18 <process_control_transfer_stage+0xc4>
    1bee:	4b2a      	ldr	r3, [pc, #168]	; (1c98 <process_control_transfer_stage+0x144>)
    1bf0:	6adb      	ldr	r3, [r3, #44]	; 0x2c
    1bf2:	2100      	movs	r1, #0
    1bf4:	2000      	movs	r0, #0
    1bf6:	4798      	blx	r3
    1bf8:	4603      	mov	r3, r0
    1bfa:	2b00      	cmp	r3, #0
    1bfc:	d004      	beq.n	1c08 <process_control_transfer_stage+0xb4>
    1bfe:	22ac      	movs	r2, #172	; 0xac
    1c00:	21ac      	movs	r1, #172	; 0xac
    1c02:	4827      	ldr	r0, [pc, #156]	; (1ca0 <process_control_transfer_stage+0x14c>)
    1c04:	f000 f988 	bl	1f18 <_log_error>
    1c08:	4826      	ldr	r0, [pc, #152]	; (1ca4 <process_control_transfer_stage+0x150>)
    1c0a:	f000 f963 	bl	1ed4 <log_info>
    1c0e:	4b20      	ldr	r3, [pc, #128]	; (1c90 <process_control_transfer_stage+0x13c>)
    1c10:	681b      	ldr	r3, [r3, #0]
    1c12:	2204      	movs	r2, #4
    1c14:	705a      	strb	r2, [r3, #1]
    1c16:	e035      	b.n	1c84 <process_control_transfer_stage+0x130>
    1c18:	4b1f      	ldr	r3, [pc, #124]	; (1c98 <process_control_transfer_stage+0x144>)
    1c1a:	6adb      	ldr	r3, [r3, #44]	; 0x2c
    1c1c:	2101      	movs	r1, #1
    1c1e:	2000      	movs	r0, #0
    1c20:	4798      	blx	r3
    1c22:	4603      	mov	r3, r0
    1c24:	2b01      	cmp	r3, #1
    1c26:	d104      	bne.n	1c32 <process_control_transfer_stage+0xde>
    1c28:	22b4      	movs	r2, #180	; 0xb4
    1c2a:	21b4      	movs	r1, #180	; 0xb4
    1c2c:	481c      	ldr	r0, [pc, #112]	; (1ca0 <process_control_transfer_stage+0x14c>)
    1c2e:	f000 f973 	bl	1f18 <_log_error>
    1c32:	481d      	ldr	r0, [pc, #116]	; (1ca8 <process_control_transfer_stage+0x154>)
    1c34:	f000 f94e 	bl	1ed4 <log_info>
    1c38:	4b15      	ldr	r3, [pc, #84]	; (1c90 <process_control_transfer_stage+0x13c>)
    1c3a:	681b      	ldr	r3, [r3, #0]
    1c3c:	2205      	movs	r2, #5
    1c3e:	705a      	strb	r2, [r3, #1]
    1c40:	e020      	b.n	1c84 <process_control_transfer_stage+0x130>
    1c42:	4b15      	ldr	r3, [pc, #84]	; (1c98 <process_control_transfer_stage+0x144>)
    1c44:	6a5b      	ldr	r3, [r3, #36]	; 0x24
    1c46:	2200      	movs	r2, #0
    1c48:	2100      	movs	r1, #0
    1c4a:	2000      	movs	r0, #0
    1c4c:	4798      	blx	r3
    1c4e:	4b12      	ldr	r3, [pc, #72]	; (1c98 <process_control_transfer_stage+0x144>)
    1c50:	6adb      	ldr	r3, [r3, #44]	; 0x2c
    1c52:	2101      	movs	r1, #1
    1c54:	2000      	movs	r0, #0
    1c56:	4798      	blx	r3
    1c58:	4603      	mov	r3, r0
    1c5a:	2b01      	cmp	r3, #1
    1c5c:	d104      	bne.n	1c68 <process_control_transfer_stage+0x114>
    1c5e:	22c1      	movs	r2, #193	; 0xc1
    1c60:	21c1      	movs	r1, #193	; 0xc1
    1c62:	480f      	ldr	r0, [pc, #60]	; (1ca0 <process_control_transfer_stage+0x14c>)
    1c64:	f000 f958 	bl	1f18 <_log_error>
    1c68:	480f      	ldr	r0, [pc, #60]	; (1ca8 <process_control_transfer_stage+0x154>)
    1c6a:	f000 f933 	bl	1ed4 <log_info>
    1c6e:	4b08      	ldr	r3, [pc, #32]	; (1c90 <process_control_transfer_stage+0x13c>)
    1c70:	681b      	ldr	r3, [r3, #0]
    1c72:	2205      	movs	r2, #5
    1c74:	705a      	strb	r2, [r3, #1]
    1c76:	e006      	b.n	1c86 <process_control_transfer_stage+0x132>
    1c78:	4b05      	ldr	r3, [pc, #20]	; (1c90 <process_control_transfer_stage+0x13c>)
    1c7a:	681b      	ldr	r3, [r3, #0]
    1c7c:	2200      	movs	r2, #0
    1c7e:	705a      	strb	r2, [r3, #1]
    1c80:	bf00      	nop
    1c82:	e000      	b.n	1c86 <process_control_transfer_stage+0x132>
    1c84:	bf00      	nop
    1c86:	bf00      	nop
    1c88:	3708      	adds	r7, #8
    1c8a:	46bd      	mov	sp, r7
    1c8c:	bd80      	pop	{r7, pc}
    1c8e:	bf00      	nop
    1c90:	2000021c 	andcs	r0, r0, ip, lsl r2
    1c94:	0000251c 	andeq	r2, r0, ip, lsl r5
    1c98:	000021fc 	strdeq	r2, [r0], -ip
    1c9c:	00002538 	andeq	r2, r0, r8, lsr r5
    1ca0:	00002564 	andeq	r2, r0, r4, ror #10
    1ca4:	00002594 	muleq	r0, r4, r5
    1ca8:	000025c0 	andeq	r2, r0, r0, asr #11

00001cac <in_transfer_completed_handler>:
    1cac:	b580      	push	{r7, lr}
    1cae:	b082      	sub	sp, #8
    1cb0:	af00      	add	r7, sp, #0
    1cb2:	6078      	str	r0, [r7, #4]
    1cb4:	4b07      	ldr	r3, [pc, #28]	; (1cd4 <in_transfer_completed_handler+0x28>)
    1cb6:	681b      	ldr	r3, [r3, #0]
    1cb8:	691b      	ldr	r3, [r3, #16]
    1cba:	2b00      	cmp	r3, #0
    1cbc:	d006      	beq.n	1ccc <in_transfer_completed_handler+0x20>
    1cbe:	4806      	ldr	r0, [pc, #24]	; (1cd8 <in_transfer_completed_handler+0x2c>)
    1cc0:	f000 f908 	bl	1ed4 <log_info>
    1cc4:	4b03      	ldr	r3, [pc, #12]	; (1cd4 <in_transfer_completed_handler+0x28>)
    1cc6:	681b      	ldr	r3, [r3, #0]
    1cc8:	2202      	movs	r2, #2
    1cca:	705a      	strb	r2, [r3, #1]
    1ccc:	bf00      	nop
    1cce:	3708      	adds	r7, #8
    1cd0:	46bd      	mov	sp, r7
    1cd2:	bd80      	pop	{r7, pc}
    1cd4:	2000021c 	andcs	r0, r0, ip, lsl r2
    1cd8:	000025e8 	andeq	r2, r0, r8, ror #11

00001cdc <setup_data_received_handler>:
    1cdc:	b580      	push	{r7, lr}
    1cde:	b082      	sub	sp, #8
    1ce0:	af00      	add	r7, sp, #0
    1ce2:	6078      	str	r0, [r7, #4]
    1ce4:	460b      	mov	r3, r1
    1ce6:	807b      	strh	r3, [r7, #2]
    1ce8:	4b0f      	ldr	r3, [pc, #60]	; (1d28 <setup_data_received_handler+0x4c>)
    1cea:	681b      	ldr	r3, [r3, #0]
    1cec:	2b00      	cmp	r3, #0
    1cee:	d017      	beq.n	1d20 <setup_data_received_handler+0x44>
    1cf0:	4b0e      	ldr	r3, [pc, #56]	; (1d2c <setup_data_received_handler+0x50>)
    1cf2:	6a9b      	ldr	r3, [r3, #40]	; 0x28
    1cf4:	4a0c      	ldr	r2, [pc, #48]	; (1d28 <setup_data_received_handler+0x4c>)
    1cf6:	6812      	ldr	r2, [r2, #0]
    1cf8:	6851      	ldr	r1, [r2, #4]
    1cfa:	887a      	ldrh	r2, [r7, #2]
    1cfc:	6878      	ldr	r0, [r7, #4]
    1cfe:	4798      	blx	r3
    1d00:	4b09      	ldr	r3, [pc, #36]	; (1d28 <setup_data_received_handler+0x4c>)
    1d02:	681b      	ldr	r3, [r3, #0]
    1d04:	685b      	ldr	r3, [r3, #4]
    1d06:	887a      	ldrh	r2, [r7, #2]
    1d08:	4619      	mov	r1, r3
    1d0a:	4809      	ldr	r0, [pc, #36]	; (1d30 <setup_data_received_handler+0x54>)
    1d0c:	f000 f894 	bl	1e38 <log_debug_array>
    1d10:	f7ff ff06 	bl	1b20 <process_request>
    1d14:	f7ff ff1e 	bl	1b54 <process_control_transfer_stage>
    1d18:	2000      	movs	r0, #0
    1d1a:	f7ff ffc7 	bl	1cac <in_transfer_completed_handler>
    1d1e:	e000      	b.n	1d22 <setup_data_received_handler+0x46>
    1d20:	e7fe      	b.n	1d20 <setup_data_received_handler+0x44>
    1d22:	3708      	adds	r7, #8
    1d24:	46bd      	mov	sp, r7
    1d26:	bd80      	pop	{r7, pc}
    1d28:	2000021c 	andcs	r0, r0, ip, lsl r2
    1d2c:	000021fc 	strdeq	r2, [r0], -ip
    1d30:	0000260c 	andeq	r2, r0, ip, lsl #12

00001d34 <USBDEndpointHandler>:
    1d34:	b580      	push	{r7, lr}
    1d36:	b086      	sub	sp, #24
    1d38:	af00      	add	r7, sp, #0
    1d3a:	6078      	str	r0, [r7, #4]
    1d3c:	6039      	str	r1, [r7, #0]
    1d3e:	2300      	movs	r3, #0
    1d40:	613b      	str	r3, [r7, #16]
    1d42:	2300      	movs	r3, #0
    1d44:	75fb      	strb	r3, [r7, #23]
    1d46:	2300      	movs	r3, #0
    1d48:	81fb      	strh	r3, [r7, #14]
    1d4a:	4b29      	ldr	r3, [pc, #164]	; (1df0 <USBDEndpointHandler+0xbc>)
    1d4c:	6b5b      	ldr	r3, [r3, #52]	; 0x34
    1d4e:	687a      	ldr	r2, [r7, #4]
    1d50:	f107 0110 	add.w	r1, r7, #16
    1d54:	4610      	mov	r0, r2
    1d56:	4798      	blx	r3
    1d58:	4b25      	ldr	r3, [pc, #148]	; (1df0 <USBDEndpointHandler+0xbc>)
    1d5a:	6bdb      	ldr	r3, [r3, #60]	; 0x3c
    1d5c:	f107 020e 	add.w	r2, r7, #14
    1d60:	4611      	mov	r1, r2
    1d62:	6878      	ldr	r0, [r7, #4]
    1d64:	4798      	blx	r3
    1d66:	693a      	ldr	r2, [r7, #16]
    1d68:	89fb      	ldrh	r3, [r7, #14]
    1d6a:	6879      	ldr	r1, [r7, #4]
    1d6c:	4821      	ldr	r0, [pc, #132]	; (1df4 <USBDEndpointHandler+0xc0>)
    1d6e:	f000 f8b1 	bl	1ed4 <log_info>
    1d72:	687b      	ldr	r3, [r7, #4]
    1d74:	2b00      	cmp	r3, #0
    1d76:	d10a      	bne.n	1d8e <USBDEndpointHandler+0x5a>
    1d78:	693b      	ldr	r3, [r7, #16]
    1d7a:	f003 0301 	and.w	r3, r3, #1
    1d7e:	2b00      	cmp	r3, #0
    1d80:	d027      	beq.n	1dd2 <USBDEndpointHandler+0x9e>
    1d82:	4a1d      	ldr	r2, [pc, #116]	; (1df8 <USBDEndpointHandler+0xc4>)
    1d84:	89fb      	ldrh	r3, [r7, #14]
    1d86:	4619      	mov	r1, r3
    1d88:	6878      	ldr	r0, [r7, #4]
    1d8a:	4790      	blx	r2
    1d8c:	e021      	b.n	1dd2 <USBDEndpointHandler+0x9e>
    1d8e:	683b      	ldr	r3, [r7, #0]
    1d90:	0a1b      	lsrs	r3, r3, #8
    1d92:	b2db      	uxtb	r3, r3
    1d94:	2b00      	cmp	r3, #0
    1d96:	d008      	beq.n	1daa <USBDEndpointHandler+0x76>
    1d98:	f240 1319 	movw	r3, #281	; 0x119
    1d9c:	4a17      	ldr	r2, [pc, #92]	; (1dfc <USBDEndpointHandler+0xc8>)
    1d9e:	f240 1119 	movw	r1, #281	; 0x119
    1da2:	4817      	ldr	r0, [pc, #92]	; (1e00 <USBDEndpointHandler+0xcc>)
    1da4:	f000 f8b8 	bl	1f18 <_log_error>
    1da8:	e014      	b.n	1dd4 <USBDEndpointHandler+0xa0>
    1daa:	683b      	ldr	r3, [r7, #0]
    1dac:	0c1b      	lsrs	r3, r3, #16
    1dae:	b2db      	uxtb	r3, r3
    1db0:	2b00      	cmp	r3, #0
    1db2:	d008      	beq.n	1dc6 <USBDEndpointHandler+0x92>
    1db4:	f44f 738e 	mov.w	r3, #284	; 0x11c
    1db8:	4a10      	ldr	r2, [pc, #64]	; (1dfc <USBDEndpointHandler+0xc8>)
    1dba:	f44f 718e 	mov.w	r1, #284	; 0x11c
    1dbe:	4810      	ldr	r0, [pc, #64]	; (1e00 <USBDEndpointHandler+0xcc>)
    1dc0:	f000 f8aa 	bl	1f18 <_log_error>
    1dc4:	e006      	b.n	1dd4 <USBDEndpointHandler+0xa0>
    1dc6:	f240 111f 	movw	r1, #287	; 0x11f
    1dca:	480e      	ldr	r0, [pc, #56]	; (1e04 <USBDEndpointHandler+0xd0>)
    1dcc:	f000 f8a4 	bl	1f18 <_log_error>
    1dd0:	e000      	b.n	1dd4 <USBDEndpointHandler+0xa0>
    1dd2:	bf00      	nop
    1dd4:	480c      	ldr	r0, [pc, #48]	; (1e08 <USBDEndpointHandler+0xd4>)
    1dd6:	f000 f87d 	bl	1ed4 <log_info>
    1dda:	4b05      	ldr	r3, [pc, #20]	; (1df0 <USBDEndpointHandler+0xbc>)
    1ddc:	699b      	ldr	r3, [r3, #24]
    1dde:	687a      	ldr	r2, [r7, #4]
    1de0:	6939      	ldr	r1, [r7, #16]
    1de2:	4610      	mov	r0, r2
    1de4:	4798      	blx	r3
    1de6:	bf00      	nop
    1de8:	3718      	adds	r7, #24
    1dea:	46bd      	mov	sp, r7
    1dec:	bd80      	pop	{r7, pc}
    1dee:	bf00      	nop
    1df0:	000021fc 	strdeq	r2, [r0], -ip
    1df4:	0000261c 	andeq	r2, r0, ip, lsl r6
    1df8:	00001cdd 	ldrdeq	r1, [r0], -sp
    1dfc:	00002694 	muleq	r0, r4, r6
    1e00:	00002658 	andeq	r2, r0, r8, asr r6
    1e04:	0000266c 	andeq	r2, r0, ip, ror #12
    1e08:	00002680 	andeq	r2, r0, r0, lsl #13

00001e0c <USBInterruptStatus>:
    1e0c:	b580      	push	{r7, lr}
    1e0e:	b082      	sub	sp, #8
    1e10:	af00      	add	r7, sp, #0
    1e12:	2300      	movs	r3, #0
    1e14:	607b      	str	r3, [r7, #4]
    1e16:	4b07      	ldr	r3, [pc, #28]	; (1e34 <USBInterruptStatus+0x28>)
    1e18:	6c5b      	ldr	r3, [r3, #68]	; 0x44
    1e1a:	1d3a      	adds	r2, r7, #4
    1e1c:	4610      	mov	r0, r2
    1e1e:	4798      	blx	r3
    1e20:	4b04      	ldr	r3, [pc, #16]	; (1e34 <USBInterruptStatus+0x28>)
    1e22:	6c1b      	ldr	r3, [r3, #64]	; 0x40
    1e24:	687a      	ldr	r2, [r7, #4]
    1e26:	4610      	mov	r0, r2
    1e28:	4798      	blx	r3
    1e2a:	bf00      	nop
    1e2c:	3708      	adds	r7, #8
    1e2e:	46bd      	mov	sp, r7
    1e30:	bd80      	pop	{r7, pc}
    1e32:	bf00      	nop
    1e34:	000021fc 	strdeq	r2, [r0], -ip

00001e38 <log_debug_array>:
    1e38:	b580      	push	{r7, lr}
    1e3a:	b086      	sub	sp, #24
    1e3c:	af00      	add	r7, sp, #0
    1e3e:	60f8      	str	r0, [r7, #12]
    1e40:	60b9      	str	r1, [r7, #8]
    1e42:	4613      	mov	r3, r2
    1e44:	80fb      	strh	r3, [r7, #6]
    1e46:	2300      	movs	r3, #0
    1e48:	617b      	str	r3, [r7, #20]
    1e4a:	68f8      	ldr	r0, [r7, #12]
    1e4c:	f7fe fd98 	bl	980 <UARTprintf>
    1e50:	2300      	movs	r3, #0
    1e52:	617b      	str	r3, [r7, #20]
    1e54:	e00a      	b.n	1e6c <log_debug_array+0x34>
    1e56:	68ba      	ldr	r2, [r7, #8]
    1e58:	697b      	ldr	r3, [r7, #20]
    1e5a:	4413      	add	r3, r2
    1e5c:	781b      	ldrb	r3, [r3, #0]
    1e5e:	4619      	mov	r1, r3
    1e60:	4808      	ldr	r0, [pc, #32]	; (1e84 <log_debug_array+0x4c>)
    1e62:	f7fe fd8d 	bl	980 <UARTprintf>
    1e66:	697b      	ldr	r3, [r7, #20]
    1e68:	3301      	adds	r3, #1
    1e6a:	617b      	str	r3, [r7, #20]
    1e6c:	88fb      	ldrh	r3, [r7, #6]
    1e6e:	697a      	ldr	r2, [r7, #20]
    1e70:	429a      	cmp	r2, r3
    1e72:	d3f0      	bcc.n	1e56 <log_debug_array+0x1e>
    1e74:	4804      	ldr	r0, [pc, #16]	; (1e88 <log_debug_array+0x50>)
    1e76:	f7fe fd83 	bl	980 <UARTprintf>
    1e7a:	bf00      	nop
    1e7c:	3718      	adds	r7, #24
    1e7e:	46bd      	mov	sp, r7
    1e80:	bd80      	pop	{r7, pc}
    1e82:	bf00      	nop
    1e84:	000026a8 	andeq	r2, r0, r8, lsr #13
    1e88:	000026b0 			; <UNDEFINED> instruction: 0x000026b0

00001e8c <_get_log_level_string>:
    1e8c:	b480      	push	{r7}
    1e8e:	b083      	sub	sp, #12
    1e90:	af00      	add	r7, sp, #0
    1e92:	4603      	mov	r3, r0
    1e94:	71fb      	strb	r3, [r7, #7]
    1e96:	79fb      	ldrb	r3, [r7, #7]
    1e98:	2b02      	cmp	r3, #2
    1e9a:	d00a      	beq.n	1eb2 <_get_log_level_string+0x26>
    1e9c:	2b02      	cmp	r3, #2
    1e9e:	dc0a      	bgt.n	1eb6 <_get_log_level_string+0x2a>
    1ea0:	2b00      	cmp	r3, #0
    1ea2:	d002      	beq.n	1eaa <_get_log_level_string+0x1e>
    1ea4:	2b01      	cmp	r3, #1
    1ea6:	d002      	beq.n	1eae <_get_log_level_string+0x22>
    1ea8:	e005      	b.n	1eb6 <_get_log_level_string+0x2a>
    1eaa:	4b06      	ldr	r3, [pc, #24]	; (1ec4 <_get_log_level_string+0x38>)
    1eac:	e004      	b.n	1eb8 <_get_log_level_string+0x2c>
    1eae:	4b06      	ldr	r3, [pc, #24]	; (1ec8 <_get_log_level_string+0x3c>)
    1eb0:	e002      	b.n	1eb8 <_get_log_level_string+0x2c>
    1eb2:	4b06      	ldr	r3, [pc, #24]	; (1ecc <_get_log_level_string+0x40>)
    1eb4:	e000      	b.n	1eb8 <_get_log_level_string+0x2c>
    1eb6:	4b06      	ldr	r3, [pc, #24]	; (1ed0 <_get_log_level_string+0x44>)
    1eb8:	4618      	mov	r0, r3
    1eba:	370c      	adds	r7, #12
    1ebc:	46bd      	mov	sp, r7
    1ebe:	f85d 7b04 	ldr.w	r7, [sp], #4
    1ec2:	4770      	bx	lr
    1ec4:	000026b4 			; <UNDEFINED> instruction: 0x000026b4
    1ec8:	000026bc 			; <UNDEFINED> instruction: 0x000026bc
    1ecc:	000026c4 	andeq	r2, r0, r4, asr #13
    1ed0:	000026cc 	andeq	r2, r0, ip, asr #13

00001ed4 <log_info>:
    1ed4:	b40f      	push	{r0, r1, r2, r3}
    1ed6:	b580      	push	{r7, lr}
    1ed8:	b082      	sub	sp, #8
    1eda:	af00      	add	r7, sp, #0
    1edc:	f107 0314 	add.w	r3, r7, #20
    1ee0:	607b      	str	r3, [r7, #4]
    1ee2:	2001      	movs	r0, #1
    1ee4:	f7ff ffd2 	bl	1e8c <_get_log_level_string>
    1ee8:	4603      	mov	r3, r0
    1eea:	4619      	mov	r1, r3
    1eec:	4808      	ldr	r0, [pc, #32]	; (1f10 <log_info+0x3c>)
    1eee:	f7fe fd47 	bl	980 <UARTprintf>
    1ef2:	6879      	ldr	r1, [r7, #4]
    1ef4:	6938      	ldr	r0, [r7, #16]
    1ef6:	f7fe fb3f 	bl	578 <UARTvprintf>
    1efa:	4806      	ldr	r0, [pc, #24]	; (1f14 <log_info+0x40>)
    1efc:	f7fe fd40 	bl	980 <UARTprintf>
    1f00:	bf00      	nop
    1f02:	3708      	adds	r7, #8
    1f04:	46bd      	mov	sp, r7
    1f06:	e8bd 4080 	ldmia.w	sp!, {r7, lr}
    1f0a:	b004      	add	sp, #16
    1f0c:	4770      	bx	lr
    1f0e:	bf00      	nop
    1f10:	000026d4 	ldrdeq	r2, [r0], -r4
    1f14:	000026b0 			; <UNDEFINED> instruction: 0x000026b0

00001f18 <_log_error>:
    1f18:	b40f      	push	{r0, r1, r2, r3}
    1f1a:	b580      	push	{r7, lr}
    1f1c:	b082      	sub	sp, #8
    1f1e:	af00      	add	r7, sp, #0
    1f20:	f107 0314 	add.w	r3, r7, #20
    1f24:	607b      	str	r3, [r7, #4]
    1f26:	2000      	movs	r0, #0
    1f28:	f7ff ffb0 	bl	1e8c <_get_log_level_string>
    1f2c:	4603      	mov	r3, r0
    1f2e:	4619      	mov	r1, r3
    1f30:	4808      	ldr	r0, [pc, #32]	; (1f54 <_log_error+0x3c>)
    1f32:	f7fe fd25 	bl	980 <UARTprintf>
    1f36:	6879      	ldr	r1, [r7, #4]
    1f38:	6938      	ldr	r0, [r7, #16]
    1f3a:	f7fe fb1d 	bl	578 <UARTvprintf>
    1f3e:	4806      	ldr	r0, [pc, #24]	; (1f58 <_log_error+0x40>)
    1f40:	f7fe fd1e 	bl	980 <UARTprintf>
    1f44:	bf00      	nop
    1f46:	3708      	adds	r7, #8
    1f48:	46bd      	mov	sp, r7
    1f4a:	e8bd 4080 	ldmia.w	sp!, {r7, lr}
    1f4e:	b004      	add	sp, #16
    1f50:	4770      	bx	lr
    1f52:	bf00      	nop
    1f54:	000026d4 	ldrdeq	r2, [r0], -r4
    1f58:	000026b0 			; <UNDEFINED> instruction: 0x000026b0

00001f5c <__error__>:
    1f5c:	b580      	push	{r7, lr}
    1f5e:	b082      	sub	sp, #8
    1f60:	af00      	add	r7, sp, #0
    1f62:	6078      	str	r0, [r7, #4]
    1f64:	6039      	str	r1, [r7, #0]
    1f66:	683a      	ldr	r2, [r7, #0]
    1f68:	6879      	ldr	r1, [r7, #4]
    1f6a:	4803      	ldr	r0, [pc, #12]	; (1f78 <__error__+0x1c>)
    1f6c:	f7fe fd08 	bl	980 <UARTprintf>
    1f70:	bf00      	nop
    1f72:	3708      	adds	r7, #8
    1f74:	46bd      	mov	sp, r7
    1f76:	bd80      	pop	{r7, pc}
    1f78:	000026dc 	ldrdeq	r2, [r0], -ip
    1f7c:	626d754e 	rsbvs	r7, sp, #327155712	; 0x13800000
    1f80:	6f207265 	svcvs	0x00207265
    1f84:	6e692066 	cdpvs	0, 6, cr2, cr9, cr6, {3}
    1f88:	72726574 	rsbsvc	r6, r2, #116, 10	; 0x1d000000
    1f8c:	73747075 	cmnvc	r4, #117	; 0x75
    1f90:	6425203a 	strtvs	r2, [r5], #-58	; 0xffffffc6
    1f94:	0000000d 	andeq	r0, r0, sp
    1f98:	65746e49 	ldrbvs	r6, [r4, #-3657]!	; 0xfffff1b7
    1f9c:	70757272 	rsbsvc	r7, r5, r2, ror r2
    1fa0:	72702074 	rsbsvc	r2, r0, #116	; 0x74
    1fa4:	69726f69 	ldmdbvs	r2!, {r0, r3, r5, r6, r8, r9, sl, fp, sp, lr}^
    1fa8:	53207974 			; <UNDEFINED> instruction: 0x53207974
    1fac:	69747379 	ldmdbvs	r4!, {r0, r3, r4, r5, r6, r8, r9, ip, sp, lr}^
    1fb0:	3d206b63 	fstmdbxcc	r0!, {d6-d54}	;@ Deprecated
    1fb4:	20642520 	rsbcs	r2, r4, r0, lsr #10
    1fb8:	20425355 	subcs	r5, r2, r5, asr r3
    1fbc:	6425203d 	strtvs	r2, [r5], #-61	; 0xffffffc3
    1fc0:	00000a0d 	andeq	r0, r0, sp, lsl #20
    1fc4:	74736554 	ldrbtvc	r6, [r3], #-1364	; 0xfffffaac
    1fc8:	000a3220 	andeq	r3, sl, r0, lsr #4
    1fcc:	63737953 	cmnvs	r3, #1359872	; 0x14c000
    1fd0:	6b636f6c 	blvs	18ddd88 <_etext+0x18db655>
    1fd4:	25203d20 	strcs	r3, [r0, #-3360]!	; 0xfffff2e0
    1fd8:	000a0d64 	andeq	r0, sl, r4, ror #26
    1fdc:	4349564e 	movtmi	r5, #38478	; 0x964e
    1fe0:	5541465f 	strbpl	r4, [r1, #-1631]	; 0xfffff9a1
    1fe4:	535f544c 	cmppl	pc, #76, 8	; 0x4c000000
    1fe8:	3d544154 	ldfcce	f4, [r4, #-336]	; 0xfffffeb0
    1fec:	202c7825 	eorcs	r7, ip, r5, lsr #16
    1ff0:	4c554146 	ldfmie	f4, [r5], {70}	; 0x46
    1ff4:	44444154 	strbmi	r4, [r4], #-340	; 0xfffffeac
    1ff8:	78253d52 	stmdavc	r5!, {r1, r4, r6, r8, sl, fp, ip, sp}
    1ffc:	0000000a 	andeq	r0, r0, sl
    2000:	33323130 	teqcc	r2, #48, 2
    2004:	37363534 			; <UNDEFINED> instruction: 0x37363534
    2008:	62613938 	rsbvs	r3, r1, #56, 18	; 0xe0000
    200c:	66656463 	strbtvs	r6, [r5], -r3, ror #8
    2010:	00000000 	andeq	r0, r0, r0
    2014:	2e2f2e2e 	cdpcs	14, 2, cr2, cr15, cr14, {1}
    2018:	69542f2e 	ldmdbvs	r4, {r1, r2, r3, r5, r8, r9, sl, fp, sp}^
    201c:	61576176 	cmpvs	r7, r6, ror r1
    2020:	752f6572 	strvc	r6, [pc, #-1394]!	; 1ab6 <process_standard_device_request+0x56>
    2024:	736c6974 	cmnvc	ip, #116, 18	; 0x1d0000
    2028:	7261752f 	rsbvc	r7, r1, #197132288	; 0xbc00000
    202c:	64747374 	ldrbtvs	r7, [r4], #-884	; 0xfffffc8c
    2030:	632e6f69 			; <UNDEFINED> instruction: 0x632e6f69
    2034:	00000000 	andeq	r0, r0, r0
    2038:	00082008 	andeq	r2, r8, r8
    203c:	00000a0d 	andeq	r0, r0, sp, lsl #20
    2040:	00000020 	andeq	r0, r0, r0, lsr #32
    2044:	4f525245 	svcmi	0x00525245
    2048:	00000052 	andeq	r0, r0, r2, asr r0

0000204c <g_ui32UARTBase>:
    204c:	4000c000 	andmi	ip, r0, r0
    2050:	4000d000 	andmi	sp, r0, r0
    2054:	4000e000 	andmi	lr, r0, r0

00002058 <g_ui32UARTPeriph>:
    2058:	f0001800 			; <UNDEFINED> instruction: 0xf0001800
    205c:	f0001801 			; <UNDEFINED> instruction: 0xf0001801
    2060:	f0001802 			; <UNDEFINED> instruction: 0xf0001802

00002064 <g_pui32GPIOBaseAddrs>:
    2064:	40004000 	andmi	r4, r0, r0
    2068:	40058000 	andmi	r8, r5, r0
    206c:	40005000 	andmi	r5, r0, r0
    2070:	40059000 	andmi	r9, r5, r0
    2074:	40006000 	andmi	r6, r0, r0
    2078:	4005a000 	andmi	sl, r5, r0
    207c:	40007000 	andmi	r7, r0, r0
    2080:	4005b000 	andmi	fp, r5, r0
    2084:	40024000 	andmi	r4, r2, r0
    2088:	4005c000 	andmi	ip, r5, r0
    208c:	40025000 	andmi	r5, r2, r0
    2090:	4005d000 	andmi	sp, r5, r0
    2094:	40026000 	andmi	r6, r2, r0
    2098:	4005e000 	andmi	lr, r5, r0
    209c:	40027000 	andmi	r7, r2, r0
    20a0:	4005f000 	andmi	pc, r5, r0
    20a4:	4003d000 	andmi	sp, r3, r0
    20a8:	40060000 	andmi	r0, r6, r0
    20ac:	40061000 	andmi	r1, r6, r0
    20b0:	40061000 	andmi	r1, r6, r0
    20b4:	40062000 	andmi	r2, r6, r0
    20b8:	40062000 	andmi	r2, r6, r0
    20bc:	40063000 	andmi	r3, r6, r0
    20c0:	40063000 	andmi	r3, r6, r0
    20c4:	40064000 	andmi	r4, r6, r0
    20c8:	40064000 	andmi	r4, r6, r0
    20cc:	40065000 	andmi	r5, r6, r0
    20d0:	40065000 	andmi	r5, r6, r0
    20d4:	40066000 	andmi	r6, r6, r0
    20d8:	40066000 	andmi	r6, r6, r0
    20dc:	40067000 	andmi	r7, r6, r0
    20e0:	40067000 	andmi	r7, r6, r0
    20e4:	40068000 	andmi	r8, r6, r0
    20e8:	40068000 	andmi	r8, r6, r0
    20ec:	40069000 	andmi	r9, r6, r0
    20f0:	40069000 	andmi	r9, r6, r0

000020f4 <g_pui32Regs>:
    20f4:	00000000 	andeq	r0, r0, r0
    20f8:	e000ed18 	and	lr, r0, r8, lsl sp
    20fc:	e000ed1c 	and	lr, r0, ip, lsl sp
    2100:	e000ed20 	and	lr, r0, r0, lsr #26
    2104:	e000e400 	and	lr, r0, r0, lsl #8
    2108:	e000e404 	and	lr, r0, r4, lsl #8
    210c:	e000e408 	and	lr, r0, r8, lsl #8
    2110:	e000e40c 	and	lr, r0, ip, lsl #8
    2114:	e000e410 	and	lr, r0, r0, lsl r4
    2118:	e000e414 	and	lr, r0, r4, lsl r4
    211c:	e000e418 	and	lr, r0, r8, lsl r4
    2120:	e000e41c 	and	lr, r0, ip, lsl r4
    2124:	e000e420 	and	lr, r0, r0, lsr #8
    2128:	e000e424 	and	lr, r0, r4, lsr #8
    212c:	e000e428 	and	lr, r0, r8, lsr #8
    2130:	e000e42c 	and	lr, r0, ip, lsr #8
    2134:	e000e430 	and	lr, r0, r0, lsr r4
    2138:	e000e434 	and	lr, r0, r4, lsr r4
    213c:	e000e438 	and	lr, r0, r8, lsr r4
    2140:	e000e43c 	and	lr, r0, ip, lsr r4
    2144:	e000e440 	and	lr, r0, r0, asr #8
    2148:	e000e444 	and	lr, r0, r4, asr #8
    214c:	e000e448 	and	lr, r0, r8, asr #8
    2150:	e000e44c 	and	lr, r0, ip, asr #8
    2154:	e000e450 	and	lr, r0, r0, asr r4
    2158:	e000e454 	and	lr, r0, r4, asr r4
    215c:	e000e458 	and	lr, r0, r8, asr r4
    2160:	e000e45c 	and	lr, r0, ip, asr r4
    2164:	e000e460 	and	lr, r0, r0, ror #8
    2168:	e000e464 	and	lr, r0, r4, ror #8
    216c:	e000e468 	and	lr, r0, r8, ror #8
    2170:	e000e46c 	and	lr, r0, ip, ror #8
    2174:	e000e470 	and	lr, r0, r0, ror r4
    2178:	e000e474 	and	lr, r0, r4, ror r4
    217c:	e000e478 	and	lr, r0, r8, ror r4
    2180:	e000e47c 	and	lr, r0, ip, ror r4
    2184:	e000e480 	and	lr, r0, r0, lsl #9
    2188:	e000e484 	and	lr, r0, r4, lsl #9
    218c:	e000e488 	and	lr, r0, r8, lsl #9

00002190 <g_pui32Xtals>:
    2190:	000f4240 	andeq	r4, pc, r0, asr #4
    2194:	001c2000 	andseq	r2, ip, r0
    2198:	001e8480 	andseq	r8, lr, r0, lsl #9
    219c:	00258000 	eoreq	r8, r5, r0
    21a0:	00369e99 	mlaseq	r6, r9, lr, r9
    21a4:	00384000 	eorseq	r4, r8, r0
    21a8:	003d0900 	eorseq	r0, sp, r0, lsl #18
    21ac:	003e8000 	eorseq	r8, lr, r0
    21b0:	004b0000 	subeq	r0, fp, r0
    21b4:	004c4b40 	subeq	r4, ip, r0, asr #22
    21b8:	004e2000 	subeq	r2, lr, r0
    21bc:	005b8d80 	subseq	r8, fp, r0, lsl #27
    21c0:	005dc000 	subseq	ip, sp, r0
    21c4:	00708000 	rsbseq	r8, r0, r0
    21c8:	007a1200 	rsbseq	r1, sl, r0, lsl #4
    21cc:	007d0000 	rsbseq	r0, sp, r0
    21d0:	00989680 	addseq	r9, r8, r0, lsl #13
    21d4:	00b71b00 	adcseq	r1, r7, r0, lsl #22
    21d8:	00bb8000 	adcseq	r8, fp, r0
    21dc:	00cee8c0 	sbceq	lr, lr, r0, asr #17
    21e0:	00da7a64 	sbcseq	r7, sl, r4, ror #20
    21e4:	00f42400 	rscseq	r2, r4, r0, lsl #8
    21e8:	00fa0000 	rscseq	r0, sl, r0
    21ec:	0112a880 	tsteq	r2, r0, lsl #17
    21f0:	01312d00 	teqeq	r1, r0, lsl #26
    21f4:	016e3600 	cmneq	lr, r0, lsl #12
    21f8:	017d7840 	cmneq	sp, r0, asr #16

000021fc <usb_driver>:
    21fc:	00001615 	andeq	r1, r0, r5, lsl r6
    2200:	00000ee9 	andeq	r0, r0, r9, ror #29
    2204:	00000f95 	muleq	r0, r5, pc	; <UNPREDICTABLE>
    2208:	00000fb5 			; <UNDEFINED> instruction: 0x00000fb5
    220c:	000010d9 	ldrdeq	r1, [r0], -r9
    2210:	00001111 	andeq	r1, r0, r1, lsl r1
    2214:	00001629 	andeq	r1, r0, r9, lsr #12
    2218:	00001165 	andeq	r1, r0, r5, ror #2
    221c:	000011c5 	andeq	r1, r0, r5, asr #3
    2220:	000014a1 	andeq	r1, r0, r1, lsr #9
    2224:	00001445 	andeq	r1, r0, r5, asr #8
    2228:	00001641 	andeq	r1, r0, r1, asr #12
    222c:	00001701 	andeq	r1, r0, r1, lsl #14
    2230:	00001589 	andeq	r1, r0, r9, lsl #11
    2234:	00000fd5 	ldrdeq	r0, [r0], -r5
    2238:	00001549 	andeq	r1, r0, r9, asr #10
    223c:	00001761 	andeq	r1, r0, r1, ror #14
    2240:	000014fd 	strdeq	r1, [r0], -sp

00002244 <device_descriptor>:
    2244:	02000112 	andeq	r0, r0, #-2147483644	; 0x80000004
    2248:	40000000 	andmi	r0, r0, r0
    224c:	13aa6666 			; <UNDEFINED> instruction: 0x13aa6666
    2250:	00000100 	andeq	r0, r0, r0, lsl #2
    2254:	00000100 	andeq	r0, r0, r0, lsl #2

00002258 <usb_events>:
    2258:	00001a15 	andeq	r1, r0, r5, lsl sl
    225c:	00001cdd 	ldrdeq	r1, [r0], -sp
    2260:	00000000 	andeq	r0, r0, r0
    2264:	00001cad 	andeq	r1, r0, sp, lsr #25
	...
    2270:	00001d35 	andeq	r1, r0, r5, lsr sp
    2274:	65526d62 	ldrbvs	r6, [r2, #-3426]	; 0xfffff29e
    2278:	73657571 	cmnvc	r5, #473956352	; 0x1c400000
    227c:	70795474 	rsbsvc	r5, r9, r4, ror r4
    2280:	6e692065 	cdpvs	0, 6, cr2, cr9, cr5, {3}
    2284:	003a6f66 	eorseq	r6, sl, r6, ror #30
    2288:	69766544 	ldmdbvs	r6!, {r2, r6, r8, sl, sp, lr}^
    228c:	74206563 	strtvc	r6, [r0], #-1379	; 0xfffffa9d
    2290:	6f48206f 	svcvs	0x0048206f
    2294:	00007473 	andeq	r7, r0, r3, ror r4
    2298:	74736f48 	ldrbtvc	r6, [r3], #-3912	; 0xfffff0b8
    229c:	206f7420 	rsbcs	r7, pc, r0, lsr #8
    22a0:	69766544 	ldmdbvs	r6!, {r2, r6, r8, sl, sp, lr}^
    22a4:	00006563 	andeq	r6, r0, r3, ror #10
    22a8:	20202020 	eorcs	r2, r0, r0, lsr #32
    22ac:	65726944 	ldrbvs	r6, [r2, #-2372]!	; 0xfffff6bc
    22b0:	6f697463 	svcvs	0x00697463
    22b4:	25203a6e 	strcs	r3, [r0, #-2670]!	; 0xfffff592
    22b8:	00000073 	andeq	r0, r0, r3, ror r0
    22bc:	646e6556 	strbtvs	r6, [lr], #-1366	; 0xfffffaaa
    22c0:	0000726f 	andeq	r7, r0, pc, ror #4
    22c4:	65736552 	ldrbvs	r6, [r3, #-1362]!	; 0xfffffaae
    22c8:	64657672 	strbtvs	r7, [r5], #-1650	; 0xfffff98e
    22cc:	00212121 	eoreq	r2, r1, r1, lsr #2
    22d0:	73616c43 	cmnvc	r1, #17152	; 0x4300
    22d4:	00000073 	andeq	r0, r0, r3, ror r0
    22d8:	6e617453 	mcrvs	4, 3, r7, cr1, cr3, {2}
    22dc:	64726164 	ldrbtvs	r6, [r2], #-356	; 0xfffffe9c
    22e0:	00000000 	andeq	r0, r0, r0
    22e4:	20202020 	eorcs	r2, r0, r0, lsr #32
    22e8:	65707954 	ldrbvs	r7, [r0, #-2388]!	; 0xfffff6ac
    22ec:	7325203a 			; <UNDEFINED> instruction: 0x7325203a
    22f0:	00000000 	andeq	r0, r0, r0
    22f4:	6568744f 	strbvs	r7, [r8, #-1103]!	; 0xfffffbb1
    22f8:	00000072 	andeq	r0, r0, r2, ror r0
    22fc:	70646e45 	rsbvc	r6, r4, r5, asr #28
    2300:	746e696f 	strbtvc	r6, [lr], #-2415	; 0xfffff691
    2304:	00000000 	andeq	r0, r0, r0
    2308:	65746e49 	ldrbvs	r6, [r4, #-3657]!	; 0xfffff1b7
    230c:	63616672 	cmnvs	r1, #119537664	; 0x7200000
    2310:	00000065 	andeq	r0, r0, r5, rrx
    2314:	69766544 	ldmdbvs	r6!, {r2, r6, r8, sl, sp, lr}^
    2318:	00006563 	andeq	r6, r0, r3, ror #10
    231c:	20202020 	eorcs	r2, r0, r0, lsr #32
    2320:	69636552 	stmdbvs	r3!, {r1, r4, r6, r8, sl, sp, lr}^
    2324:	6e656970 			; <UNDEFINED> instruction: 0x6e656970
    2328:	25203a74 	strcs	r3, [r0, #-2676]!	; 0xfffff58c
    232c:	00000073 	andeq	r0, r0, r3, ror r0
    2330:	71655262 	cmnvc	r5, r2, ror #4
    2334:	74736575 	ldrbtvc	r6, [r3], #-1397	; 0xfffffa8b
    2338:	666e6920 	strbtvs	r6, [lr], -r0, lsr #18
    233c:	00203a6f 	eoreq	r3, r0, pc, ror #20
    2340:	20202020 	eorcs	r2, r0, r0, lsr #32
    2344:	5f544547 	svcpl	0x00544547
    2348:	54415453 	strbpl	r5, [r1], #-1107	; 0xfffffbad
    234c:	00005355 	andeq	r5, r0, r5, asr r3
    2350:	20202020 	eorcs	r2, r0, r0, lsr #32
    2354:	41454c43 	cmpmi	r5, r3, asr #24
    2358:	45465f52 	strbmi	r5, [r6, #-3922]	; 0xfffff0ae
    235c:	52555441 	subspl	r5, r5, #1090519040	; 0x41000000
    2360:	00000045 	andeq	r0, r0, r5, asr #32
    2364:	20202020 	eorcs	r2, r0, r0, lsr #32
    2368:	5f544553 	svcpl	0x00544553
    236c:	54414546 	strbpl	r4, [r1], #-1350	; 0xfffffaba
    2370:	00455255 	subeq	r5, r5, r5, asr r2
    2374:	20202020 	eorcs	r2, r0, r0, lsr #32
    2378:	5f544553 	svcpl	0x00544553
    237c:	52444441 	subpl	r4, r4, #1090519040	; 0x41000000
    2380:	00535345 	subseq	r5, r3, r5, asr #6
    2384:	20202020 	eorcs	r2, r0, r0, lsr #32
    2388:	5f544547 	svcpl	0x00544547
    238c:	43534544 	cmpmi	r3, #68, 10	; 0x11000000
    2390:	54504952 	ldrbpl	r4, [r0], #-2386	; 0xfffff6ae
    2394:	0000524f 	andeq	r5, r0, pc, asr #4
    2398:	20202020 	eorcs	r2, r0, r0, lsr #32
    239c:	5f544553 	svcpl	0x00544553
    23a0:	43534544 	cmpmi	r3, #68, 10	; 0x11000000
    23a4:	54504952 	ldrbpl	r4, [r0], #-2386	; 0xfffff6ae
    23a8:	0000524f 	andeq	r5, r0, pc, asr #4
    23ac:	20202020 	eorcs	r2, r0, r0, lsr #32
    23b0:	5f544547 	svcpl	0x00544547
    23b4:	464e4f43 	strbmi	r4, [lr], -r3, asr #30
    23b8:	00004749 	andeq	r4, r0, r9, asr #14
    23bc:	20202020 	eorcs	r2, r0, r0, lsr #32
    23c0:	5f544553 	svcpl	0x00544553
    23c4:	464e4f43 	strbmi	r4, [lr], -r3, asr #30
    23c8:	00004749 	andeq	r4, r0, r9, asr #14
    23cc:	20202020 	eorcs	r2, r0, r0, lsr #32
    23d0:	5f544547 	svcpl	0x00544547
    23d4:	45544e49 	ldrbmi	r4, [r4, #-3657]	; 0xfffff1b7
    23d8:	43414652 	movtmi	r4, #5714	; 0x1652
    23dc:	00000045 	andeq	r0, r0, r5, asr #32
    23e0:	20202020 	eorcs	r2, r0, r0, lsr #32
    23e4:	5f544553 	svcpl	0x00544553
    23e8:	45544e49 	ldrbmi	r4, [r4, #-3657]	; 0xfffff1b7
    23ec:	43414652 	movtmi	r4, #5714	; 0x1652
    23f0:	00000045 	andeq	r0, r0, r5, asr #32
    23f4:	20202020 	eorcs	r2, r0, r0, lsr #32
    23f8:	434e5953 	movtmi	r5, #59731	; 0xe953
    23fc:	52465f48 	subpl	r5, r6, #72, 30	; 0x120
    2400:	00454d41 	subeq	r4, r5, r1, asr #26
    2404:	5d64255b 	cfstr64pl	mvdx2, [r4, #-364]!	; 0xfffffe94
    2408:	20202020 	eorcs	r2, r0, r0, lsr #32
    240c:	6f727245 	svcvs	0x00727245
    2410:	52622072 	rsbpl	r2, r2, #114	; 0x72
    2414:	65757165 	ldrbvs	r7, [r5, #-357]!	; 0xfffffe9b
    2418:	76207473 			; <UNDEFINED> instruction: 0x76207473
    241c:	65756c61 	ldrbvs	r6, [r5, #-3169]!	; 0xfffff39f
    2420:	32302520 	eorscc	r2, r0, #32, 10	; 0x8000000
    2424:	21212178 			; <UNDEFINED> instruction: 0x21212178
    2428:	00000000 	andeq	r0, r0, r0
    242c:	6c615677 	stclvs	6, cr5, [r1], #-476	; 0xfffffe24
    2430:	20206575 	eorcs	r6, r0, r5, ror r5
    2434:	3025203a 	eorcc	r2, r5, sl, lsr r0
    2438:	00005832 	andeq	r5, r0, r2, lsr r8
    243c:	646e4977 	strbtvs	r4, [lr], #-2423	; 0xfffff689
    2440:	20207865 	eorcs	r7, r0, r5, ror #16
    2444:	3025203a 	eorcc	r2, r5, sl, lsr r0
    2448:	00005832 	andeq	r5, r0, r2, lsr r8
    244c:	654c7777 	strbvs	r7, [ip, #-1911]	; 0xfffff889
    2450:	6874676e 	ldmdavs	r4!, {r1, r2, r3, r5, r6, r8, r9, sl, sp, lr}^
    2454:	3025203a 	eorcc	r2, r5, sl, lsr r0
    2458:	00005832 	andeq	r5, r0, r2, lsr r8
    245c:	20425355 	subcs	r5, r2, r5, asr r3
    2460:	65736552 	ldrbvs	r6, [r3, #-1362]!	; 0xfffffaae
    2464:	65732074 	ldrbvs	r2, [r3, #-116]!	; 0xffffff8c
    2468:	61682074 	smcvs	33284	; 0x8204
    246c:	696c646e 	stmdbvs	ip!, {r1, r2, r3, r5, r6, sl, sp, lr}^
    2470:	0021676e 	eoreq	r6, r1, lr, ror #14
    2474:	6e617453 	mcrvs	4, 3, r7, cr1, cr3, {2}
    2478:	64726164 	ldrbtvs	r6, [r2], #-356	; 0xfffffe9c
    247c:	74654720 	strbtvc	r4, [r5], #-1824	; 0xfffff8e0
    2480:	73654420 	cmnvc	r5, #32, 8	; 0x20000000
    2484:	70697263 	rsbvc	r7, r9, r3, ror #4
    2488:	20726f74 	rsbscs	r6, r2, r4, ror pc
    248c:	75716572 	ldrbvc	r6, [r1, #-1394]!	; 0xfffffa8e
    2490:	20747365 	rsbscs	r7, r4, r5, ror #6
    2494:	65636572 	strbvs	r6, [r3, #-1394]!	; 0xfffffa8e
    2498:	64657669 	strbtvs	r7, [r5], #-1641	; 0xfffff997
    249c:	0000002e 	andeq	r0, r0, lr, lsr #32
    24a0:	6547202d 	strbvs	r2, [r7, #-45]	; 0xffffffd3
    24a4:	65442074 	strbvs	r2, [r4, #-116]	; 0xffffff8c
    24a8:	65636976 	strbvs	r6, [r3, #-2422]!	; 0xfffff68a
    24ac:	73654420 	cmnvc	r5, #32, 8	; 0x20000000
    24b0:	70697263 	rsbvc	r7, r9, r3, ror #4
    24b4:	2e726f74 	mrccs	15, 3, r6, cr2, cr4, {3}
    24b8:	00000000 	andeq	r0, r0, r0
    24bc:	74697753 	strbtvc	r7, [r9], #-1875	; 0xfffff8ad
    24c0:	63206863 			; <UNDEFINED> instruction: 0x63206863
    24c4:	72746e6f 	rsbsvc	r6, r4, #1776	; 0x6f0
    24c8:	73206c6f 			; <UNDEFINED> instruction: 0x73206c6f
    24cc:	65676174 	strbvs	r6, [r7, #-372]!	; 0xfffffe8c
    24d0:	206f7420 	rsbcs	r7, pc, r0, lsr #8
    24d4:	2d4e4920 	vstrcs.16	s9, [lr, #-64]	; 0xffffffc0	; <UNPREDICTABLE>
    24d8:	41544144 	cmpmi	r4, r4, asr #2
    24dc:	0000002e 	andeq	r0, r0, lr, lsr #32
    24e0:	6e617453 	mcrvs	4, 3, r7, cr1, cr3, {2}
    24e4:	64726164 	ldrbtvs	r6, [r2], #-356	; 0xfffffe9c
    24e8:	74655320 	strbtvc	r5, [r5], #-800	; 0xfffffce0
    24ec:	64644120 	strbtvs	r4, [r4], #-288	; 0xfffffee0
    24f0:	73736572 	cmnvc	r3, #478150656	; 0x1c800000
    24f4:	71657220 	cmnvc	r5, r0, lsr #4
    24f8:	74736575 	ldrbtvc	r6, [r3], #-1397	; 0xfffffa8b
    24fc:	63657220 	cmnvs	r5, #32, 4
    2500:	65766965 	ldrbvs	r6, [r6, #-2405]!	; 0xfffff69b
    2504:	00002e64 	andeq	r2, r0, r4, ror #28
    2508:	6568744f 	strbvs	r7, [r8, #-1103]!	; 0xfffffbb1
    250c:	65722072 	ldrbvs	r2, [r2, #-114]!	; 0xffffff8e
    2510:	73657571 	cmnvc	r5, #473956352	; 0x1c400000
    2514:	54203a74 	strtpl	r3, [r0], #-2676	; 0xfffff58c
    2518:	004f444f 	subeq	r4, pc, pc, asr #8
    251c:	636f7250 	cmnvs	pc, #80, 4
    2520:	69737365 	ldmdbvs	r3!, {r0, r2, r5, r6, r8, r9, ip, sp, lr}^
    2524:	4920676e 	stmdbmi	r0!, {r1, r2, r3, r5, r6, r8, r9, sl, sp, lr}
    2528:	41442d4e 	cmpmi	r4, lr, asr #26
    252c:	73204154 			; <UNDEFINED> instruction: 0x73204154
    2530:	65676174 	strbvs	r6, [r7, #-372]!	; 0xfffffe8c
    2534:	0000002e 	andeq	r0, r0, lr, lsr #32
    2538:	74697753 	strbtvc	r7, [r9], #-1875	; 0xfffff8ad
    253c:	6e696863 	cdpvs	8, 6, cr6, cr9, cr3, {3}
    2540:	6f632067 	svcvs	0x00632067
    2544:	6f72746e 	svcvs	0x0072746e
    2548:	7473206c 	ldrbtvc	r2, [r3], #-108	; 0xffffff94
    254c:	20656761 	rsbcs	r6, r5, r1, ror #14
    2550:	49206f74 	stmdbmi	r0!, {r2, r4, r5, r6, r8, r9, sl, fp, sp, lr}
    2554:	41442d4e 	cmpmi	r4, lr, asr #26
    2558:	49204154 	stmdbmi	r0!, {r2, r4, r6, r8, lr}
    255c:	2e454c44 	cdpcs	12, 4, cr4, cr5, cr4, {2}
    2560:	00000000 	andeq	r0, r0, r0
    2564:	5d64255b 	cfstr64pl	mvdx2, [r4, #-364]!	; 0xfffffe94
    2568:	5d64255b 	cfstr64pl	mvdx2, [r4, #-364]!	; 0xfffffe94
    256c:	70646e45 	rsbvc	r6, r4, r5, asr #28
    2570:	746e696f 	strbtvc	r6, [lr], #-2415	; 0xfffff691
    2574:	20736920 	rsbscs	r6, r3, r0, lsr #18
    2578:	65726c61 	ldrbvs	r6, [r2, #-3169]!	; 0xfffff39f
    257c:	20796461 	rsbscs	r6, r9, r1, ror #8
    2580:	74206e69 	strtvc	r6, [r0], #-3689	; 0xfffff197
    2584:	736e6172 	cmnvc	lr, #-2147483620	; 0x8000001c
    2588:	7474696d 	ldrbtvc	r6, [r4], #-2413	; 0xfffff693
    258c:	21676e69 	cmncs	r7, r9, ror #28
    2590:	00002121 	andeq	r2, r0, r1, lsr #2
    2594:	74697753 	strbtvc	r7, [r9], #-1875	; 0xfffff8ad
    2598:	6e696863 	cdpvs	8, 6, cr6, cr9, cr3, {3}
    259c:	6f632067 	svcvs	0x00632067
    25a0:	6f72746e 	svcvs	0x0072746e
    25a4:	7473206c 	ldrbtvc	r2, [r3], #-108	; 0xffffff94
    25a8:	20656761 	rsbcs	r6, r5, r1, ror #14
    25ac:	49206f74 	stmdbmi	r0!, {r2, r4, r5, r6, r8, r9, sl, fp, sp, lr}
    25b0:	41442d4e 	cmpmi	r4, lr, asr #26
    25b4:	5a204154 	bpl	812b0c <_etext+0x8103d9>
    25b8:	2e4f5245 	cdpcs	2, 4, cr5, cr15, cr5, {2}
    25bc:	00000000 	andeq	r0, r0, r0
    25c0:	74697753 	strbtvc	r7, [r9], #-1875	; 0xfffff8ad
    25c4:	6e696863 	cdpvs	8, 6, cr6, cr9, cr3, {3}
    25c8:	6f632067 	svcvs	0x00632067
    25cc:	6f72746e 	svcvs	0x0072746e
    25d0:	7473206c 	ldrbtvc	r2, [r3], #-108	; 0xffffff94
    25d4:	20656761 	rsbcs	r6, r5, r1, ror #14
    25d8:	4f206f74 	svcmi	0x00206f74
    25dc:	532d5455 			; <UNDEFINED> instruction: 0x532d5455
    25e0:	55544154 	ldrbpl	r4, [r4, #-340]	; 0xfffffeac
    25e4:	00002e53 	andeq	r2, r0, r3, asr lr
    25e8:	74697753 	strbtvc	r7, [r9], #-1875	; 0xfffff8ad
    25ec:	6e696863 	cdpvs	8, 6, cr6, cr9, cr3, {3}
    25f0:	6f632067 	svcvs	0x00632067
    25f4:	6f72746e 	svcvs	0x0072746e
    25f8:	7473206c 	ldrbtvc	r2, [r3], #-108	; 0xffffff94
    25fc:	20656761 	rsbcs	r6, r5, r1, ror #14
    2600:	49206f74 	stmdbmi	r0!, {r2, r4, r5, r6, r8, r9, sl, fp, sp, lr}
    2604:	41442d4e 	cmpmi	r4, lr, asr #26
    2608:	002e4154 	eoreq	r4, lr, r4, asr r1
    260c:	55544553 	ldrbpl	r4, [r4, #-1363]	; 0xfffffaad
    2610:	61642050 	qdsubvs	r2, r0, r4
    2614:	203a6174 	eorscs	r6, sl, r4, ror r1
    2618:	00000000 	andeq	r0, r0, r0
    261c:	70646e45 	rsbvc	r6, r4, r5, asr #28
    2620:	746e696f 	strbtvc	r6, [lr], #-2415	; 0xfffff691
    2624:	6e6f6320 	cdpvs	3, 6, cr6, cr15, cr0, {1}
    2628:	6c6f7274 	sfmvs	f7, 2, [pc], #-464	; 2460 <usb_events+0x208>
    262c:	61747320 	cmnvs	r4, r0, lsr #6
    2630:	20737574 	rsbscs	r7, r3, r4, ror r5
    2634:	4520666f 	strmi	r6, [r0, #-1647]!	; 0xfffff991
    2638:	20642550 	rsbcs	r2, r4, r0, asr r5
    263c:	30207369 	eorcc	r7, r0, r9, ror #6
    2640:	20782578 	rsbscs	r2, r8, r8, ror r5
    2644:	20646e61 	rsbcs	r6, r4, r1, ror #28
    2648:	6b636170 	blvs	18dac10 <_etext+0x18d84dd>
    264c:	73207465 			; <UNDEFINED> instruction: 0x73207465
    2650:	3d657a69 	vstmdbcc	r5!, {s15-s119}
    2654:	002e6425 	eoreq	r6, lr, r5, lsr #8
    2658:	5d64255b 	cfstr64pl	mvdx2, [r4, #-364]!	; 0xfffffe94
    265c:	5d73255b 	cfldr64pl	mvdx2, [r3, #-364]!	; 0xfffffe94
    2660:	5d64255b 	cfstr64pl	mvdx2, [r4, #-364]!	; 0xfffffe94
    2664:	444f5420 	strbmi	r5, [pc], #-1056	; 266c <usb_events+0x414>
    2668:	0000004f 	andeq	r0, r0, pc, asr #32
    266c:	5d64255b 	cfstr64pl	mvdx2, [r4, #-364]!	; 0xfffffe94
    2670:	736c6146 	cmnvc	ip, #-2147483631	; 0x80000011
    2674:	61632065 	cmnvs	r3, r5, rrx
    2678:	21216573 			; <UNDEFINED> instruction: 0x21216573
    267c:	00212121 	eoreq	r2, r1, r1, lsr #2
    2680:	61656c43 	cmnvs	r5, r3, asr #24
    2684:	50452072 	subpl	r2, r5, r2, ror r0
    2688:	746e4920 	strbtvc	r4, [lr], #-2336	; 0xfffff6e0
    268c:	616c6620 	cmnvs	ip, r0, lsr #12
    2690:	00000067 	andeq	r0, r0, r7, rrx

00002694 <__FUNCTION__.0>:
    2694:	44425355 	strbmi	r5, [r2], #-853	; 0xfffffcab
    2698:	70646e45 	rsbvc	r6, r4, r5, asr #28
    269c:	746e696f 	strbtvc	r6, [lr], #-2415	; 0xfffff691
    26a0:	646e6148 	strbtvs	r6, [lr], #-328	; 0xfffffeb8
    26a4:	0072656c 	rsbseq	r6, r2, ip, ror #10
    26a8:	78323025 	ldmdavc	r2!, {r0, r2, r5, ip, sp}
    26ac:	00000020 	andeq	r0, r0, r0, lsr #32
    26b0:	0000000a 	andeq	r0, r0, sl
    26b4:	4f525245 	svcmi	0x00525245
    26b8:	00000052 	andeq	r0, r0, r2, asr r0
    26bc:	4f464e49 	svcmi	0x00464e49
    26c0:	00000000 	andeq	r0, r0, r0
    26c4:	55424544 	strbpl	r4, [r2, #-1348]	; 0xfffffabc
    26c8:	00000047 	andeq	r0, r0, r7, asr #32
    26cc:	41464544 	cmpmi	r6, r4, asr #10
    26d0:	00544c55 	subseq	r4, r4, r5, asr ip
    26d4:	5d73255b 	cfldr64pl	mvdx2, [r3, #-364]!	; 0xfffffe94
    26d8:	00000020 	andeq	r0, r0, r0, lsr #32
    26dc:	4245445b 	submi	r4, r5, #1526726656	; 0x5b000000
    26e0:	205d4755 	subscs	r4, sp, r5, asr r7
    26e4:	253a7325 	ldrcs	r7, [sl, #-805]!	; 0xfffffcdb
    26e8:	000a0d64 	andeq	r0, sl, r4, ror #26
    26ec:	0030564c 	eorseq	r5, r0, ip, asr #12
    26f0:	0031564c 	eorseq	r5, r1, ip, asr #12
    26f4:	0032564c 	eorseq	r5, r2, ip, asr #12
    26f8:	00474f4c 	subeq	r4, r7, ip, asr #30
    26fc:	004e5257 	subeq	r5, lr, r7, asr r2
    2700:	00525245 	subseq	r5, r2, r5, asr #4
    2704:	4f525245 	svcmi	0x00525245
    2708:	454c2052 	strbmi	r2, [ip, #-82]	; 0xffffffae
    270c:	004c4556 	subeq	r4, ip, r6, asr r5
    2710:	5d73255b 	cfldr64pl	mvdx2, [r3, #-364]!	; 0xfffffe94
    2714:	00000000 	andeq	r0, r0, r0
    2718:	33335b1b 	teqcc	r3, #27648	; 0x6c00
    271c:	0000006d 	andeq	r0, r0, sp, rrx
    2720:	31335b1b 	teqcc	r3, fp, lsl fp
    2724:	0000006d 	andeq	r0, r0, sp, rrx
    2728:	6d305b1b 	fldmdbxvs	r0!, {d5-d17}	;@ Deprecated
    272c:	00000000 	andeq	r0, r0, r0
    2730:	Address 0x00002730 is out of bounds.


Disassembly of section .bss:

20000000 <g_ui32Counter>:
20000000:	00000000 	andeq	r0, r0, r0

20000004 <usbdevice>:
	...

20000018 <usbOUT>:
	...

20000118 <pulStack>:
	...

20000218 <g_ui32Base>:
20000218:	00000000 	andeq	r0, r0, r0

2000021c <usbd_handle>:
2000021c:	00000000 	andeq	r0, r0, r0

Disassembly of section .debug_info:

00000000 <.debug_info>:
       0:	000002b4 			; <UNDEFINED> instruction: 0x000002b4
       4:	00000004 	andeq	r0, r0, r4
       8:	01040000 	mrseq	r0, (UNDEF: 4)
       c:	0000011b 	andeq	r0, r0, fp, lsl r1
      10:	00031a0c 	andeq	r1, r3, ip, lsl #20
      14:	00039200 	andeq	r9, r3, r0, lsl #4
	...
      24:	06010200 	streq	r0, [r1], -r0, lsl #4
      28:	000001c1 	andeq	r0, r0, r1, asr #3
      2c:	00001403 	andeq	r1, r0, r3, lsl #8
      30:	182b0200 	stmdane	fp!, {r9}
      34:	00000038 	andeq	r0, r0, r8, lsr r0
      38:	bf080102 	svclt	0x00080102
      3c:	02000001 	andeq	r0, r0, #1
      40:	03480502 	movteq	r0, #34050	; 0x8502
      44:	02020000 	andeq	r0, r2, #0
      48:	0001f707 	andeq	pc, r1, r7, lsl #14
      4c:	05040200 	streq	r0, [r4, #-512]	; 0xfffffe00
      50:	00000311 	andeq	r0, r0, r1, lsl r3
      54:	00025003 	andeq	r5, r2, r3
      58:	194f0200 	stmdbne	pc, {r9}^	; <UNPREDICTABLE>
      5c:	00000060 	andeq	r0, r0, r0, rrx
      60:	8e070402 	cdphi	4, 0, cr0, cr7, cr2, {0}
      64:	02000002 	andeq	r0, r0, #2
      68:	030c0508 	movweq	r0, #50440	; 0xc508
      6c:	08020000 	stmdaeq	r2, {}	; <UNPREDICTABLE>
      70:	00028907 	andeq	r8, r2, r7, lsl #18
      74:	05040400 	streq	r0, [r4, #-1024]	; 0xfffffc00
      78:	00746e69 	rsbseq	r6, r4, r9, ror #28
      7c:	93070402 	movwls	r0, #29698	; 0x7402
      80:	03000002 	movweq	r0, #2
      84:	00000016 	andeq	r0, r0, r6, lsl r0
      88:	2c131803 	ldccs	8, cr1, [r3], {3}
      8c:	03000000 	movweq	r0, #0
      90:	00000252 	andeq	r0, r0, r2, asr r2
      94:	54143003 	ldrpl	r3, [r4], #-3
      98:	05000000 	streq	r0, [r0, #-0]
      9c:	0000008f 	andeq	r0, r0, pc, lsl #1
      a0:	38010706 	stmdacc	r1, {r1, r2, r8, r9, sl}
      a4:	04000000 	streq	r0, [r0], #-0
      a8:	00c70e77 	sbceq	r0, r7, r7, ror lr
      ac:	3a070000 	bcc	1c00b4 <_etext+0x1bd981>
      b0:	00000000 	andeq	r0, r0, r0
      b4:	0000e607 	andeq	lr, r0, r7, lsl #12
      b8:	34070100 	strcc	r0, [r7], #-256	; 0xffffff00
      bc:	02000002 	andeq	r0, r0, #2
      c0:	00032107 	andeq	r2, r3, r7, lsl #2
      c4:	03000300 	movweq	r0, #768	; 0x300
      c8:	0000001e 	andeq	r0, r0, lr, lsl r0
      cc:	a0037c04 	andge	r7, r3, r4, lsl #24
      d0:	06000000 	streq	r0, [r0], -r0
      d4:	00380107 	eorseq	r0, r8, r7, lsl #2
      d8:	7e040000 	cdpvc	0, 0, cr0, cr4, cr0, {0}
      dc:	00010c0e 	andeq	r0, r1, lr, lsl #24
      e0:	020a0700 	andeq	r0, sl, #0, 14
      e4:	07000000 	streq	r0, [r0, -r0]
      e8:	000002ca 	andeq	r0, r0, sl, asr #5
      ec:	00530701 	subseq	r0, r3, r1, lsl #14
      f0:	07020000 	streq	r0, [r2, -r0]
      f4:	0000006d 	andeq	r0, r0, sp, rrx
      f8:	00c70703 	sbceq	r0, r7, r3, lsl #14
      fc:	07040000 	streq	r0, [r4, -r0]
     100:	000002ef 	andeq	r0, r0, pc, ror #5
     104:	02ae0705 	adceq	r0, lr, #1310720	; 0x140000
     108:	00060000 	andeq	r0, r6, r0
     10c:	0001cd03 	andeq	ip, r1, r3, lsl #26
     110:	03860400 	orreq	r0, r6, #0, 8
     114:	000000d3 	ldrdeq	r0, [r0], -r3
     118:	7d020102 	stfvcs	f0, [r2, #-8]
     11c:	08000003 	stmdaeq	r0, {r0, r1}
     120:	00012504 	andeq	r2, r1, r4, lsl #10
     124:	140a0900 	strne	r0, [sl], #-2304	; 0xfffff700
     128:	8b090a05 	blhi	242944 <_etext+0x240211>
     12c:	0b000001 	bleq	138 <g_pfnVectors+0x138>
     130:	000000a9 	andeq	r0, r0, r9, lsr #1
     134:	c7140b05 	ldrgt	r0, [r4, -r5, lsl #22]
     138:	00000000 	andeq	r0, r0, r0
     13c:	000c030b 	andeq	r0, ip, fp, lsl #6
     140:	1d0c0500 	cfstr32ne	mvfx0, [ip, #-0]
     144:	0000010c 	andeq	r0, r0, ip, lsl #2
     148:	00000b01 	andeq	r0, r0, r1, lsl #22
     14c:	0d050000 	stceq	0, cr0, [r5, #-0]
     150:	00003813 	andeq	r3, r0, r3, lsl r8
     154:	830b0200 	movwhi	r0, #45568	; 0xb200
     158:	05000003 	streq	r0, [r0, #-3]
     15c:	011f110e 	tsteq	pc, lr, lsl #2
     160:	0b040000 	bleq	100168 <_etext+0xfda35>
     164:	0000008c 	andeq	r0, r0, ip, lsl #1
     168:	7c120f05 	ldcvc	15, cr0, [r2], {5}
     16c:	08000000 	stmdaeq	r0, {}	; <UNPREDICTABLE>
     170:	0002a00b 	andeq	sl, r2, fp
     174:	11100500 	tstne	r0, r0, lsl #10
     178:	0000011f 	andeq	r0, r0, pc, lsl r1
     17c:	002d0b0c 	eoreq	r0, sp, ip, lsl #22
     180:	11050000 	mrsne	r0, (UNDEF: 5)
     184:	00007c12 	andeq	r7, r0, r2, lsl ip
     188:	03001000 	movweq	r1, #0
     18c:	0000027a 	andeq	r0, r0, sl, ror r2
     190:	26031205 	strcs	r1, [r3], -r5, lsl #4
     194:	0c000001 	stceq	0, cr0, [r0], {1}
     198:	0000025b 	andeq	r0, r0, fp, asr r2
     19c:	9b132101 	blls	4c85a8 <_etext+0x4c5e75>
     1a0:	05000000 	streq	r0, [r0, #-0]
     1a4:	00000003 	andeq	r0, r0, r3
     1a8:	02e50c20 	rsceq	r0, r5, #32, 24	; 0x2000
     1ac:	44010000 	strmi	r0, [r1], #-0
     1b0:	00018b0b 	andeq	r8, r1, fp, lsl #22
     1b4:	04030500 	streq	r0, [r3], #-1280	; 0xfffffb00
     1b8:	0d200000 	stceq	0, cr0, [r0, #-0]
     1bc:	00000083 	andeq	r0, r0, r3, lsl #1
     1c0:	000001cb 	andeq	r0, r0, fp, asr #3
     1c4:	00007c0e 	andeq	r7, r0, lr, lsl #24
     1c8:	0c00ff00 	stceq	15, cr15, [r0], {-0}
     1cc:	00000359 	andeq	r0, r0, r9, asr r3
     1d0:	bb094501 	bllt	2515dc <_etext+0x24eea9>
     1d4:	05000001 	streq	r0, [r0, #-1]
     1d8:	00000003 	andeq	r0, r0, r3
     1dc:	03520c00 	cmpeq	r2, #0, 24
     1e0:	46010000 	strmi	r0, [r1], -r0
     1e4:	0001bb09 	andeq	fp, r1, r9, lsl #22
     1e8:	18030500 	stmdane	r3, {r8, sl}
     1ec:	0f200000 	svceq	0x00200000
     1f0:	00000284 	andeq	r0, r0, r4, lsl #5
     1f4:	75055301 	strvc	r5, [r5, #-769]	; 0xfffffcff
     1f8:	1c000000 	stcne	0, cr0, [r0], {-0}
     1fc:	9c000003 	stcls	0, cr0, [r0], {3}
     200:	01000000 	mrseq	r0, (UNDEF: 0)
     204:	00024b9c 	muleq	r2, ip, fp
     208:	036f1000 	cmneq	pc, #0
     20c:	55010000 	strpl	r0, [r1, #-0]
     210:	00008f0e 	andeq	r8, r0, lr, lsl #30
     214:	6c910200 	lfmvs	f0, 4, [r1], {0}
     218:	0000b611 	andeq	fp, r0, r1, lsl r6
     21c:	055b0100 	ldrbeq	r0, [fp, #-256]	; 0xffffff00
     220:	00000075 	andeq	r0, r0, r5, ror r0
     224:	0000022a 	andeq	r0, r0, sl, lsr #4
     228:	69110012 	ldmdbvs	r1, {r1, r4}
     22c:	01000002 	tsteq	r0, r2
     230:	00750564 	rsbseq	r0, r5, r4, ror #10
     234:	023c0000 	eorseq	r0, ip, #0
     238:	00120000 	andseq	r0, r2, r0
     23c:	00010113 	andeq	r0, r1, r3, lsl r1
     240:	056c0100 	strbeq	r0, [ip, #-256]!	; 0xffffff00
     244:	00000075 	andeq	r0, r0, r5, ror r0
     248:	14000012 	strne	r0, [r0], #-18	; 0xffffffee
     24c:	00000222 	andeq	r0, r0, r2, lsr #4
     250:	dc064801 	stcle	8, cr4, [r6], {1}
     254:	40000002 	andmi	r0, r0, r2
     258:	01000000 	mrseq	r0, (UNDEF: 0)
     25c:	010f159c 			; <UNDEFINED> instruction: 0x010f159c
     260:	3f010000 	svccc	0x00010000
     264:	00000001 	andeq	r0, r0, r1
     268:	00001400 	andeq	r1, r0, r0, lsl #8
     26c:	169c0100 	ldrne	r0, [ip], r0, lsl #2
     270:	0000033c 	andeq	r0, r0, ip, lsr r3
     274:	88013301 	stmdahi	r1, {r0, r8, r9, ip, sp}
     278:	54000002 	strpl	r0, [r0], #-2
     27c:	01000000 	mrseq	r0, (UNDEF: 0)
     280:	009a159c 	umullseq	r1, sl, ip, r5
     284:	2e010000 	cdpcs	0, 0, cr0, cr1, cr0, {0}
     288:	00027a01 	andeq	r7, r2, r1, lsl #20
     28c:	00000c00 	andeq	r0, r0, r0, lsl #24
     290:	159c0100 	ldrne	r0, [ip, #256]	; 0x100
     294:	000001e5 	andeq	r0, r0, r5, ror #3
     298:	00012401 	andeq	r2, r1, r1, lsl #8
     29c:	28000000 	stmdacs	r0, {}	; <UNPREDICTABLE>
     2a0:	01000000 	mrseq	r0, (UNDEF: 0)
     2a4:	035f149c 	cmpeq	pc, #156, 8	; 0x9c000000
     2a8:	1e010000 	cdpne	0, 0, cr0, cr1, cr0, {0}
     2ac:	00026c06 	andeq	r6, r2, r6, lsl #24
     2b0:	00000e00 	andeq	r0, r0, r0, lsl #28
     2b4:	009c0100 	addseq	r0, ip, r0, lsl #2
     2b8:	00000174 	andeq	r0, r0, r4, ror r1
     2bc:	01550004 	cmpeq	r5, r4
     2c0:	01040000 	mrseq	r0, (UNDEF: 4)
     2c4:	0000011b 	andeq	r0, r0, fp, lsl r1
     2c8:	0003d40c 	andeq	sp, r3, ip, lsl #8
     2cc:	00039200 	andeq	r9, r3, r0, lsl #4
     2d0:	00004000 	andeq	r4, r0, r0
     2d4:	00000000 	andeq	r0, r0, r0
     2d8:	0001d600 	andeq	sp, r1, r0, lsl #12
     2dc:	06010200 	streq	r0, [r1], -r0, lsl #4
     2e0:	000001c1 	andeq	r0, r0, r1, asr #3
     2e4:	bf080102 	svclt	0x00080102
     2e8:	02000001 	andeq	r0, r0, #1
     2ec:	03480502 	movteq	r0, #34050	; 0x8502
     2f0:	02020000 	andeq	r0, r2, #0
     2f4:	0001f707 	andeq	pc, r1, r7, lsl #14
     2f8:	05040200 	streq	r0, [r4, #-512]	; 0xfffffe00
     2fc:	00000311 	andeq	r0, r0, r1, lsl r3
     300:	00025003 	andeq	r5, r2, r3
     304:	194f0200 	stmdbne	pc, {r9}^	; <UNPREDICTABLE>
     308:	00000054 	andeq	r0, r0, r4, asr r0
     30c:	8e070402 	cdphi	4, 0, cr0, cr7, cr2, {0}
     310:	02000002 	andeq	r0, r0, #2
     314:	030c0508 	movweq	r0, #50440	; 0xc508
     318:	08020000 	stmdaeq	r2, {}	; <UNPREDICTABLE>
     31c:	00028907 	andeq	r8, r2, r7, lsl #18
     320:	05040400 	streq	r0, [r4, #-1024]	; 0xfffffc00
     324:	00746e69 	rsbseq	r6, r4, r9, ror #28
     328:	93070402 	movwls	r0, #29698	; 0x7402
     32c:	03000002 	movweq	r0, #2
     330:	00000252 	andeq	r0, r0, r2, asr r2
     334:	48143003 	ldmdami	r4, {r0, r1, ip, sp}
     338:	05000000 	streq	r0, [r0, #-0]
     33c:	00008e04 	andeq	r8, r0, r4, lsl #28
     340:	00830600 	addeq	r0, r3, r0, lsl #12
     344:	02070000 	andeq	r0, r7, #0
     348:	01c80801 	biceq	r0, r8, r1, lsl #16
     34c:	54080000 	strpl	r0, [r8], #-0
     350:	a6000000 	strge	r0, [r0], -r0
     354:	09000000 	stmdbeq	r0, {}	; <UNPREDICTABLE>
     358:	00000070 	andeq	r0, r0, r0, ror r0
     35c:	b50a003f 	strlt	r0, [sl, #-63]	; 0xffffffc1
     360:	01000003 	tsteq	r0, r3
     364:	00961637 	addseq	r1, r6, r7, lsr r6
     368:	03050000 	movweq	r0, #20480	; 0x5000
     36c:	20000118 	andcs	r0, r0, r8, lsl r1
     370:	00008908 	andeq	r8, r0, r8, lsl #18
     374:	0000c800 	andeq	ip, r0, r0, lsl #16
     378:	00700900 	rsbseq	r0, r0, r0, lsl #18
     37c:	009a0000 	addseq	r0, sl, r0
     380:	0000b806 	andeq	fp, r0, r6, lsl #16
     384:	03fd0b00 	mvnseq	r0, #0, 22
     388:	40010000 	andmi	r0, r1, r0
     38c:	0000c80f 	andeq	ip, r0, pc, lsl #16
     390:	00030500 	andeq	r0, r3, r0, lsl #10
     394:	0c000000 	stceq	0, cr0, [r0], {-0}
     398:	000003c6 	andeq	r0, r0, r6, asr #7
     39c:	5416e701 	ldrpl	lr, [r6], #-1793	; 0xfffff8ff
     3a0:	0c000000 	stceq	0, cr0, [r0], {-0}
     3a4:	000006dc 	ldrdeq	r0, [r0], -ip
     3a8:	5416e801 	ldrpl	lr, [r6], #-2049	; 0xfffff7ff
     3ac:	0c000000 	stceq	0, cr0, [r0], {-0}
     3b0:	000003cd 	andeq	r0, r0, sp, asr #7
     3b4:	5416e901 	ldrpl	lr, [r6], #-2305	; 0xfffff6ff
     3b8:	0d000000 	stceq	0, cr0, [r0, #-0]
     3bc:	000003e2 	andeq	r0, r0, r2, ror #7
     3c0:	01015301 	tsteq	r1, r1, lsl #6
     3c4:	00000450 	andeq	r0, r0, r0, asr r4
     3c8:	00000006 	andeq	r0, r0, r6
     3cc:	f40e9c01 			; <UNDEFINED> instruction: 0xf40e9c01
     3d0:	01000003 	tsteq	r0, r3
     3d4:	2c010140 	stfcss	f0, [r1], {64}	; 0x40
     3d8:	24000004 	strcs	r0, [r0], #-4
     3dc:	01000000 	mrseq	r0, (UNDEF: 0)
     3e0:	041a0d9c 	ldreq	r0, [sl], #-3484	; 0xfffff264
     3e4:	2e010000 	cdpcs	0, 0, cr0, cr1, cr0, {0}
     3e8:	04240101 	strteq	r0, [r4], #-257	; 0xfffffeff
     3ec:	00060000 	andeq	r0, r6, r0
     3f0:	9c010000 	stcls	0, cr0, [r1], {-0}
     3f4:	0004110f 	andeq	r1, r4, pc, lsl #2
     3f8:	01f80100 	mvnseq	r0, r0, lsl #2
     3fc:	000003b8 			; <UNDEFINED> instruction: 0x000003b8
     400:	00000064 	andeq	r0, r0, r4, rrx
     404:	01719c01 	cmneq	r1, r1, lsl #24
     408:	0a0a0000 	beq	280410 <_etext+0x27dcdd>
     40c:	01000004 	tsteq	r0, r4
     410:	017114fa 	ldrsheq	r1, [r1, #-74]!	; 0xffffffb6
     414:	91020000 	mrsls	r0, (UNDEF: 2)
     418:	03be0a74 			; <UNDEFINED> instruction: 0x03be0a74
     41c:	fa010000 	blx	40424 <_etext+0x3dcf1>
     420:	0001711d 	andeq	r7, r1, sp, lsl r1
     424:	70910200 	addsvc	r0, r1, r0, lsl #4
     428:	54040500 	strpl	r0, [r4], #-1280	; 0xfffffb00
     42c:	00000000 	andeq	r0, r0, r0
     430:	000003a1 	andeq	r0, r0, r1, lsr #7
     434:	023a0004 	eorseq	r0, sl, #4
     438:	01040000 	mrseq	r0, (UNDEF: 4)
     43c:	0000011b 	andeq	r0, r0, fp, lsl r1
     440:	0004f40c 	andeq	pc, r4, ip, lsl #8
     444:	00039200 	andeq	r9, r3, r0, lsl #4
     448:	00006800 	andeq	r6, r0, r0, lsl #16
     44c:	00000000 	andeq	r0, r0, r0
     450:	00033900 	andeq	r3, r3, r0, lsl #18
     454:	04d60200 	ldrbeq	r0, [r6], #512	; 0x200
     458:	29020000 	stmdbcs	r2, {}	; <UNPREDICTABLE>
     45c:	00003117 	andeq	r3, r0, r7, lsl r1
     460:	06010300 	streq	r0, [r1], -r0, lsl #6
     464:	000001c1 	andeq	r0, r0, r1, asr #3
     468:	bf080103 	svclt	0x00080103
     46c:	03000001 	movweq	r0, #1
     470:	03480502 	movteq	r0, #34050	; 0x8502
     474:	02030000 	andeq	r0, r3, #0
     478:	0001f707 	andeq	pc, r1, r7, lsl #14
     47c:	052e0200 	streq	r0, [lr, #-512]!	; 0xfffffe00
     480:	4d020000 	stcmi	0, cr0, [r2, #-0]
     484:	00005918 	andeq	r5, r0, r8, lsl r9
     488:	05040300 	streq	r0, [r4, #-768]	; 0xfffffd00
     48c:	00000311 	andeq	r0, r0, r1, lsl r3
     490:	00025002 	andeq	r5, r2, r2
     494:	194f0200 	stmdbne	pc, {r9}^	; <UNPREDICTABLE>
     498:	0000006c 	andeq	r0, r0, ip, rrx
     49c:	8e070403 	cdphi	4, 0, cr0, cr7, cr3, {0}
     4a0:	03000002 	movweq	r0, #2
     4a4:	030c0508 	movweq	r0, #50440	; 0xc508
     4a8:	08030000 	stmdaeq	r3, {}	; <UNPREDICTABLE>
     4ac:	00028907 	andeq	r8, r2, r7, lsl #18
     4b0:	05040400 	streq	r0, [r4, #-1024]	; 0xfffffc00
     4b4:	00746e69 	rsbseq	r6, r4, r9, ror #28
     4b8:	93070403 	movwls	r0, #29699	; 0x7403
     4bc:	02000002 	andeq	r0, r0, #2
     4c0:	000004d8 	ldrdeq	r0, [r0], -r8
     4c4:	25121403 	ldrcs	r1, [r2, #-1027]	; 0xfffffbfd
     4c8:	02000000 	andeq	r0, r0, #0
     4cc:	00000530 	andeq	r0, r0, r0, lsr r5
     4d0:	4d132c03 	ldcmi	12, cr2, [r3, #-12]
     4d4:	02000000 	andeq	r0, r0, #0
     4d8:	00000252 	andeq	r0, r0, r2, asr r2
     4dc:	60143003 	andsvs	r3, r4, r3
     4e0:	05000000 	streq	r0, [r0, #-0]
     4e4:	000000a7 	andeq	r0, r0, r7, lsr #1
     4e8:	00054002 	andeq	r4, r5, r2
     4ec:	1b280400 	blne	a014f4 <_etext+0x9fedc1>
     4f0:	000000c4 	andeq	r0, r0, r4, asr #1
     4f4:	00048f06 	andeq	r8, r4, r6, lsl #30
     4f8:	00050400 	andeq	r0, r5, r0, lsl #8
     4fc:	000000db 	ldrdeq	r0, [r0], -fp
     500:	0004df07 	andeq	sp, r4, r7, lsl #30
     504:	0000db00 	andeq	sp, r0, r0, lsl #22
     508:	08000000 	stmdaeq	r0, {}	; <UNPREDICTABLE>
     50c:	04910204 	ldreq	r0, [r1], #516	; 0x204
     510:	63040000 	movwvs	r0, #16384	; 0x4000
     514:	0000b818 	andeq	fp, r0, r8, lsl r8
     518:	04990900 	ldreq	r0, [r9], #2304	; 0x900
     51c:	7e010000 	cdpvc	0, 0, cr0, cr1, cr0, {0}
     520:	0000a711 	andeq	sl, r0, r1, lsl r7
     524:	18030500 	stmdane	r3, {r8, sl}
     528:	09200002 	stmdbeq	r0!, {r1}
     52c:	00000515 	andeq	r0, r0, r5, lsl r5
     530:	131b8601 	tstne	fp, #1048576	; 0x100000
     534:	05000001 	streq	r0, [r0, #-1]
     538:	00000003 	andeq	r0, r0, r3
     53c:	1f040a00 	svcne	0x00040a00
     540:	05000001 	streq	r0, [r0, #-1]
     544:	0000010d 	andeq	r0, r0, sp, lsl #2
     548:	c8080103 	stmdagt	r8, {r0, r1, r8}
     54c:	05000001 	streq	r0, [r0, #-1]
     550:	00000118 	andeq	r0, r0, r8, lsl r1
     554:	0000b30b 	andeq	fp, r0, fp, lsl #6
     558:	00013400 	andeq	r3, r1, r0, lsl #8
     55c:	00880c00 	addeq	r0, r8, r0, lsl #24
     560:	00020000 	andeq	r0, r2, r0
     564:	00012405 	andeq	r2, r1, r5, lsl #8
     568:	05580900 	ldrbeq	r0, [r8, #-2304]	; 0xfffff700
     56c:	8d010000 	stchi	0, cr0, [r1, #-0]
     570:	00013417 	andeq	r3, r1, r7, lsl r4
     574:	4c030500 	cfstr32mi	mvfx0, [r3], {-0}
     578:	09000020 	stmdbeq	r0, {r5}
     57c:	0000045c 	andeq	r0, r0, ip, asr r4
     580:	3417aa01 	ldrcc	sl, [r7], #-2561	; 0xfffff5ff
     584:	05000001 	streq	r0, [r0, #-1]
     588:	00205803 	eoreq	r5, r0, r3, lsl #16
     58c:	04be0d00 	ldrteq	r0, [lr], #3328	; 0xd00
     590:	14010000 	strne	r0, [r1], #-0
     594:	09800105 	stmibeq	r0, {r0, r2, r8}
     598:	00240000 	eoreq	r0, r4, r0
     59c:	9c010000 	stcls	0, cr0, [r1], {-0}
     5a0:	00000196 	muleq	r0, r6, r1
     5a4:	0004300e 	andeq	r3, r4, lr
     5a8:	05140100 	ldreq	r0, [r4, #-256]	; 0xffffff00
     5ac:	00010d18 	andeq	r0, r1, r8, lsl sp
     5b0:	70910200 	addsvc	r0, r1, r0, lsl #4
     5b4:	0420100f 	strteq	r1, [r0], #-15
     5b8:	16010000 	strne	r0, [r1], -r0
     5bc:	00dd0d05 	sbcseq	r0, sp, r5, lsl #26
     5c0:	91020000 	mrsls	r0, (UNDEF: 2)
     5c4:	a40d0064 	strge	r0, [sp], #-100	; 0xffffff9c
     5c8:	01000004 	tsteq	r0, r4
     5cc:	78010364 	stmdavc	r1, {r2, r5, r6, r8, r9}
     5d0:	08000005 	stmdaeq	r0, {r0, r2}
     5d4:	01000004 	tsteq	r0, r4
     5d8:	0002789c 	muleq	r2, ip, r8
     5dc:	04300e00 	ldrteq	r0, [r0], #-3584	; 0xfffff200
     5e0:	64010000 	strvs	r0, [r1], #-0
     5e4:	010d1903 	tsteq	sp, r3, lsl #18
     5e8:	91020000 	mrsls	r0, (UNDEF: 2)
     5ec:	04200e44 	strteq	r0, [r0], #-3652	; 0xfffff1bc
     5f0:	64010000 	strvs	r0, [r1], #-0
     5f4:	00dd2b03 	sbcseq	r2, sp, r3, lsl #22
     5f8:	91020000 	mrsls	r0, (UNDEF: 2)
     5fc:	05381040 	ldreq	r1, [r8, #-64]!	; 0xffffffc0
     600:	66010000 	strvs	r0, [r1], -r0
     604:	00a70e03 	adceq	r0, r7, r3, lsl #28
     608:	91020000 	mrsls	r0, (UNDEF: 2)
     60c:	04391074 	ldrteq	r1, [r9], #-116	; 0xffffff8c
     610:	66010000 	strvs	r0, [r1], -r0
     614:	00a71703 	adceq	r1, r7, r3, lsl #14
     618:	91020000 	mrsls	r0, (UNDEF: 2)
     61c:	05671058 	strbeq	r1, [r7, #-88]!	; 0xffffffa8
     620:	66010000 	strvs	r0, [r1], -r0
     624:	00a72203 	adceq	r2, r7, r3, lsl #4
     628:	91020000 	mrsls	r0, (UNDEF: 2)
     62c:	04521070 	ldrbeq	r1, [r2], #-112	; 0xffffff90
     630:	66010000 	strvs	r0, [r1], -r0
     634:	00a72b03 	adceq	r2, r7, r3, lsl #22
     638:	91020000 	mrsls	r0, (UNDEF: 2)
     63c:	049b106c 	ldreq	r1, [fp], #108	; 0x6c
     640:	66010000 	strvs	r0, [r1], -r0
     644:	00a73603 	adceq	r3, r7, r3, lsl #12
     648:	91020000 	mrsls	r0, (UNDEF: 2)
     64c:	04b61068 	ldrteq	r1, [r6], #104	; 0x68
     650:	66010000 	strvs	r0, [r1], -r0
     654:	00a74003 	adceq	r4, r7, r3
     658:	91020000 	mrsls	r0, (UNDEF: 2)
     65c:	051d1064 	ldreq	r1, [sp, #-100]	; 0xffffff9c
     660:	67010000 	strvs	r0, [r1, -r0]
     664:	02780b03 	rsbseq	r0, r8, #3072	; 0xc00
     668:	91020000 	mrsls	r0, (UNDEF: 2)
     66c:	056f105c 	strbeq	r1, [pc, #-92]!	; 618 <UARTvprintf+0xa0>
     670:	67010000 	strvs	r0, [r1, -r0]
     674:	027e1203 	rsbseq	r1, lr, #805306368	; 0x30000000
     678:	91020000 	mrsls	r0, (UNDEF: 2)
     67c:	046d1048 	strbteq	r1, [sp], #-72	; 0xffffffb8
     680:	67010000 	strvs	r0, [r1, -r0]
     684:	01181d03 	tsteq	r8, r3, lsl #26
     688:	91020000 	mrsls	r0, (UNDEF: 2)
     68c:	057e1163 	ldrbeq	r1, [lr, #-355]!	; 0xfffffe9d
     690:	9c010000 	stcls	0, cr0, [r1], {-0}
     694:	05e40103 	strbeq	r0, [r4, #259]!	; 0x103
     698:	e4110000 	ldr	r0, [r1], #-0
     69c:	01000004 	tsteq	r0, r4
     6a0:	4201047a 	andmi	r0, r1, #2046820352	; 0x7a000000
     6a4:	00000008 	andeq	r0, r0, r8
     6a8:	0118040a 	tsteq	r8, sl, lsl #8
     6ac:	180b0000 	stmdane	fp, {}	; <UNPREDICTABLE>
     6b0:	8e000001 	cdphi	0, 0, cr0, cr0, cr1, {0}
     6b4:	0c000002 	stceq	0, cr0, [r0], {2}
     6b8:	00000088 	andeq	r0, r0, r8, lsl #1
     6bc:	4f12000f 	svcmi	0x0012000f
     6c0:	01000005 	tsteq	r0, r5
     6c4:	3801031a 	stmdacc	r1, {r1, r3, r4, r8, r9}
     6c8:	00000000 	andeq	r0, r0, r0
     6cc:	1c000000 	stcne	0, cr0, [r0], {-0}
     6d0:	01000000 	mrseq	r0, (UNDEF: 0)
     6d4:	0575139c 	ldrbeq	r1, [r5, #-924]!	; 0xfffffc64
     6d8:	41010000 	mrsmi	r0, (UNDEF: 1)
     6dc:	00810102 	addeq	r0, r1, r2, lsl #2
     6e0:	00000000 	andeq	r0, r0, r0
     6e4:	01140000 	tsteq	r4, r0
     6e8:	9c010000 	stcls	0, cr0, [r1], {-0}
     6ec:	00000314 	andeq	r0, r0, r4, lsl r3
     6f0:	00056f0e 	andeq	r6, r5, lr, lsl #30
     6f4:	02410100 	subeq	r0, r1, #0, 2
     6f8:	00027810 	andeq	r7, r2, r0, lsl r8
     6fc:	6c910200 	lfmvs	f0, 4, [r1], {0}
     700:	0004ec0e 	andeq	lr, r4, lr, lsl #24
     704:	02410100 	subeq	r0, r1, #0, 2
     708:	0000a720 	andeq	sl, r0, r0, lsr #14
     70c:	68910200 	ldmvs	r1, {r9}
     710:	00045210 	andeq	r5, r4, r0, lsl r2
     714:	028b0100 	addeq	r0, fp, #0, 2
     718:	0000a70e 	andeq	sl, r0, lr, lsl #14
     71c:	74910200 	ldrvc	r0, [r1], #512	; 0x200
     720:	0004b010 	andeq	fp, r4, r0, lsl r0
     724:	028c0100 	addeq	r0, ip, #0, 2
     728:	00008f0c 	andeq	r8, r0, ip, lsl #30
     72c:	73910200 	orrsvc	r0, r1, #0, 4
     730:	00052310 	andeq	r2, r5, r0, lsl r3
     734:	028d0100 	addeq	r0, sp, #0, 2
     738:	00008f13 	andeq	r8, r0, r3, lsl pc
     73c:	00030500 	andeq	r0, r3, r0, lsl #10
     740:	00000000 	andeq	r0, r0, r0
     744:	00044813 	andeq	r4, r4, r3, lsl r8
     748:	01b40100 			; <UNDEFINED> instruction: 0x01b40100
     74c:	00008101 	andeq	r8, r0, r1, lsl #2
     750:	0004e800 	andeq	lr, r4, r0, lsl #16
     754:	00009000 	andeq	r9, r0, r0
     758:	609c0100 	addsvs	r0, ip, r0, lsl #2
     75c:	0e000003 	cdpeq	0, 0, cr0, cr0, cr3, {0}
     760:	0000056f 	andeq	r0, r0, pc, ror #10
     764:	1701b401 	strne	fp, [r1, -r1, lsl #8]
     768:	0000010d 	andeq	r0, r0, sp, lsl #2
     76c:	0e6c9102 	lgneqe	f1, f2
     770:	000004ec 	andeq	r0, r0, ip, ror #9
     774:	2701b401 	strcs	fp, [r1, -r1, lsl #8]
     778:	000000a7 	andeq	r0, r0, r7, lsr #1
     77c:	10689102 	rsbne	r9, r8, r2, lsl #2
     780:	00000443 	andeq	r0, r0, r3, asr #8
     784:	1201fc01 	andne	pc, r1, #256	; 0x100
     788:	00000088 	andeq	r0, r0, r8, lsl #1
     78c:	00749102 	rsbseq	r9, r4, r2, lsl #2
     790:	00047314 	andeq	r7, r4, r4, lsl r3
     794:	014e0100 	mrseq	r0, (UNDEF: 94)
     798:	00045801 	andeq	r5, r4, r1, lsl #16
     79c:	00009000 	andeq	r9, r0, r0
     7a0:	0e9c0100 	fmleqe	f0, f4, f0
     7a4:	00000483 	andeq	r0, r0, r3, lsl #9
     7a8:	1a014e01 	bne	53fb4 <_etext+0x51881>
     7ac:	000000a7 	andeq	r0, r0, r7, lsr #1
     7b0:	0e749102 	expeqs	f1, f2
     7b4:	00000427 	andeq	r0, r0, r7, lsr #8
     7b8:	30014e01 	andcc	r4, r1, r1, lsl #28
     7bc:	000000a7 	andeq	r0, r0, r7, lsr #1
     7c0:	0e709102 	expeqs	f1, f2
     7c4:	000004c9 	andeq	r0, r0, r9, asr #9
     7c8:	43014e01 	movwmi	r4, #7681	; 0x1e01
     7cc:	000000a7 	andeq	r0, r0, r7, lsr #1
     7d0:	006c9102 	rsbeq	r9, ip, r2, lsl #2
     7d4:	00086900 	andeq	r6, r8, r0, lsl #18
     7d8:	6f000400 	svcvs	0x00000400
     7dc:	04000003 	streq	r0, [r0], #-3
     7e0:	00011b01 	andeq	r1, r1, r1, lsl #22
     7e4:	07580c00 	ldrbeq	r0, [r8, -r0, lsl #24]
     7e8:	03920000 	orrseq	r0, r2, #0
     7ec:	00a00000 	adceq	r0, r0, r0
     7f0:	00000000 	andeq	r0, r0, r0
     7f4:	07f50000 	ldrbeq	r0, [r5, r0]!
     7f8:	e2020000 	and	r0, r2, #0
     7fc:	07000009 	streq	r0, [r0, -r9]
     800:	00005001 	andeq	r5, r0, r1
     804:	0e090200 	cdpeq	2, 0, cr0, cr9, cr0, {0}
     808:	00000050 	andeq	r0, r0, r0, asr r0
     80c:	00065b03 	andeq	r5, r6, r3, lsl #22
     810:	a9030000 	stmdbge	r3, {}	; <UNPREDICTABLE>
     814:	01000008 	tsteq	r0, r8
     818:	00087e03 	andeq	r7, r8, r3, lsl #28
     81c:	f6030200 			; <UNDEFINED> instruction: 0xf6030200
     820:	03000009 	movweq	r0, #9
     824:	08010400 	stmdaeq	r1, {sl}
     828:	000001bf 			; <UNDEFINED> instruction: 0x000001bf
     82c:	00005005 	andeq	r5, r0, r5
     830:	084c0600 	stmdaeq	ip, {r9, sl}^
     834:	0e020000 	cdpeq	0, 0, cr0, cr2, cr0, {0}
     838:	00002503 	andeq	r2, r0, r3, lsl #10
     83c:	021c0700 	andseq	r0, ip, #0, 14
     840:	00cd0910 	sbceq	r0, sp, r0, lsl r9
     844:	91080000 	mrsls	r0, (UNDEF: 8)
     848:	02000005 	andeq	r0, r0, #5
     84c:	00ce0c11 	sbceq	r0, lr, r1, lsl ip
     850:	08000000 	stmdaeq	r0, {}	; <UNPREDICTABLE>
     854:	000008d9 	ldrdeq	r0, [r0], -r9
     858:	f20c1202 	vhsub.s8	d1, d12, d2
     85c:	04000000 	streq	r0, [r0], #-0
     860:	00097d08 	andeq	r7, r9, r8, lsl #26
     864:	0c130200 	lfmeq	f0, 4, [r3], {-0}
     868:	000000f2 	strdeq	r0, [r0], -r2
     86c:	078f0808 	streq	r0, [pc, r8, lsl #16]
     870:	14020000 	strne	r0, [r2], #-0
     874:	0001030c 	andeq	r0, r1, ip, lsl #6
     878:	32080c00 	andcc	r0, r8, #0, 24
     87c:	02000008 	andeq	r0, r0, #8
     880:	01030c15 	tsteq	r3, r5, lsl ip
     884:	08100000 	ldmdaeq	r0, {}	; <UNPREDICTABLE>
     888:	0000091c 	andeq	r0, r0, ip, lsl r9
     88c:	ce0c1602 	cfmadd32gt	mvax0, mvfx1, mvfx12, mvfx2
     890:	14000000 	strne	r0, [r0], #-0
     894:	00063908 	andeq	r3, r6, r8, lsl #18
     898:	0c170200 	lfmeq	f0, 4, [r7], {-0}
     89c:	00000119 	andeq	r0, r0, r9, lsl r1
     8a0:	0a090018 	beq	240908 <_etext+0x23e1d5>
     8a4:	0000cd04 	andeq	ip, r0, r4, lsl #26
     8a8:	00e40b00 	rsceq	r0, r4, r0, lsl #22
     8ac:	e40c0000 	str	r0, [ip], #-0
     8b0:	0c000000 	stceq	0, cr0, [r0], {-0}
     8b4:	000000eb 	andeq	r0, r0, fp, ror #1
     8b8:	07040400 	streq	r0, [r4, -r0, lsl #8]
     8bc:	00000293 	muleq	r0, r3, r2
     8c0:	f7070204 			; <UNDEFINED> instruction: 0xf7070204
     8c4:	0a000001 	beq	8d0 <UARTvprintf+0x358>
     8c8:	0000d404 	andeq	sp, r0, r4, lsl #8
     8cc:	01030b00 	tsteq	r3, r0, lsl #22
     8d0:	e40c0000 	str	r0, [ip], #-0
     8d4:	00000000 	andeq	r0, r0, r0
     8d8:	00f8040a 	rscseq	r0, r8, sl, lsl #8
     8dc:	190b0000 	stmdbne	fp, {}	; <UNPREDICTABLE>
     8e0:	0c000001 	stceq	0, cr0, [r0], {1}
     8e4:	000000e4 	andeq	r0, r0, r4, ror #1
     8e8:	0000e40c 	andeq	lr, r0, ip, lsl #8
     8ec:	040a0000 	streq	r0, [sl], #-0
     8f0:	00000109 	andeq	r0, r0, r9, lsl #2
     8f4:	00095f06 	andeq	r5, r9, r6, lsl #30
     8f8:	03180200 	tsteq	r8, #0, 4
     8fc:	00000068 	andeq	r0, r0, r8, rrx
     900:	00011f0d 	andeq	r1, r1, sp, lsl #30
     904:	06920e00 	ldreq	r0, [r2], r0, lsl #28
     908:	03100000 	tsteq	r0, #0
     90c:	017f081b 	cmneq	pc, fp, lsl r8	; <UNPREDICTABLE>
     910:	62080000 	andvs	r0, r8, #0
     914:	0300000a 	movweq	r0, #10
     918:	005c151c 	subseq	r1, ip, ip, lsl r5
     91c:	08000000 	stmdaeq	r0, {}	; <UNPREDICTABLE>
     920:	000006e2 	andeq	r0, r0, r2, ror #13
     924:	7f0d1d03 	svcvc	0x000d1d03
     928:	01000001 	tsteq	r0, r1
     92c:	000a4908 	andeq	r4, sl, r8, lsl #18
     930:	0d1e0300 	ldceq	3, cr0, [lr, #-0]
     934:	00000186 	andeq	r0, r0, r6, lsl #3
     938:	099d0804 	ldmibeq	sp, {r2, fp}
     93c:	1f030000 	svcne	0x00030000
     940:	0001860d 	andeq	r8, r1, sp, lsl #12
     944:	33080800 	movwcc	r0, #34816	; 0x8800
     948:	03000009 	movweq	r0, #9
     94c:	01860d20 	orreq	r0, r6, r0, lsr #26
     950:	000c0000 	andeq	r0, ip, r0
     954:	7d020104 	stfvcs	f0, [r2, #-16]
     958:	0f000003 	svceq	0x00000003
     95c:	6e690504 	cdpvs	5, 6, cr0, cr9, cr4, {0}
     960:	48070074 	stmdami	r7, {r2, r4, r5, r6}
     964:	81092a03 	tsthi	r9, r3, lsl #20
     968:	08000002 	stmdaeq	r0, {r1}
     96c:	000006c5 	andeq	r0, r0, r5, asr #13
     970:	ce0c2b03 	vmlagt.f64	d2, d12, d3
     974:	00000000 	andeq	r0, r0, r0
     978:	0009a908 	andeq	sl, r9, r8, lsl #18
     97c:	0c2c0300 	stceq	3, cr0, [ip], #-0
     980:	000000ce 	andeq	r0, r0, lr, asr #1
     984:	08fa0804 	ldmeq	sl!, {r2, fp}^
     988:	2d030000 	stccs	0, cr0, [r3, #-0]
     98c:	0000ce0c 	andeq	ip, r0, ip, lsl #28
     990:	33080800 	movwcc	r0, #34816	; 0x8800
     994:	0300000a 	movweq	r0, #10
     998:	00ce0c2e 	sbceq	r0, lr, lr, lsr #24
     99c:	080c0000 	stmdaeq	ip, {}	; <UNPREDICTABLE>
     9a0:	00000584 	andeq	r0, r0, r4, lsl #11
     9a4:	8c0c2f03 	stchi	15, cr2, [ip], {3}
     9a8:	10000002 	andne	r0, r0, r2
     9ac:	00080108 	andeq	r0, r8, r8, lsl #2
     9b0:	0c300300 	ldceq	3, cr0, [r0], #-0
     9b4:	0000028c 	andeq	r0, r0, ip, lsl #5
     9b8:	07200814 			; <UNDEFINED> instruction: 0x07200814
     9bc:	31030000 	mrscc	r0, (UNDEF: 3)
     9c0:	0002a20c 	andeq	sl, r2, ip, lsl #4
     9c4:	f4081800 	vst2.8	{d1-d2}, [r8], r0
     9c8:	03000006 	movweq	r0, #6
     9cc:	02b80c32 	adcseq	r0, r8, #12800	; 0x3200
     9d0:	081c0000 	ldmdaeq	ip, {}	; <UNPREDICTABLE>
     9d4:	0000072e 	andeq	r0, r0, lr, lsr #14
     9d8:	b80c3303 	stmdalt	ip, {r0, r1, r8, r9, ip, sp}
     9dc:	20000002 	andcs	r0, r0, r2
     9e0:	0009c708 	andeq	ip, r9, r8, lsl #14
     9e4:	0c340300 	ldceq	3, cr0, [r4], #-0
     9e8:	000002da 	ldrdeq	r0, [r0], -sl
     9ec:	05c30824 	strbeq	r0, [r3, #2084]	; 0x824
     9f0:	35030000 	strcc	r0, [r3, #-0]
     9f4:	0002da0c 	andeq	sp, r2, ip, lsl #20
     9f8:	d5082800 	strle	r2, [r8, #-2048]	; 0xfffff800
     9fc:	03000006 	movweq	r0, #6
     a00:	02f41536 	rscseq	r1, r4, #226492416	; 0xd800000
     a04:	082c0000 	stmdaeq	ip!, {}	; <UNPREDICTABLE>
     a08:	00000a57 	andeq	r0, r0, r7, asr sl
     a0c:	0a0c3703 	beq	30e620 <_etext+0x30beed>
     a10:	30000003 	andcc	r0, r0, r3
     a14:	0007da08 	andeq	sp, r7, r8, lsl #20
     a18:	0c380300 	ldceq	3, cr0, [r8], #-0
     a1c:	00000326 	andeq	r0, r0, r6, lsr #6
     a20:	07ee0834 			; <UNDEFINED> instruction: 0x07ee0834
     a24:	39030000 	stmdbcc	r3, {}	; <UNPREDICTABLE>
     a28:	0003370c 	andeq	r3, r3, ip, lsl #14
     a2c:	95083800 	strls	r3, [r8, #-2048]	; 0xfffff800
     a30:	03000008 	movweq	r0, #8
     a34:	03530c3a 	cmpeq	r3, #14848	; 0x3a00
     a38:	083c0000 	ldmdaeq	ip!, {}	; <UNPREDICTABLE>
     a3c:	00000a1f 	andeq	r0, r0, pc, lsl sl
     a40:	030c3b03 	movweq	r3, #51971	; 0xcb03
     a44:	40000001 	andmi	r0, r0, r1
     a48:	00090d08 	andeq	r0, r9, r8, lsl #26
     a4c:	0c3c0300 	ldceq	3, cr0, [ip], #-0
     a50:	00000364 	andeq	r0, r0, r4, ror #6
     a54:	8c0b0044 	stchi	0, cr0, [fp], {68}	; 0x44
     a58:	0c000002 	stceq	0, cr0, [r0], {2}
     a5c:	00000186 	andeq	r0, r0, r6, lsl #3
     a60:	81040a00 	tsthi	r4, r0, lsl #20
     a64:	0b000002 	bleq	a74 <GPIOPadConfigSet+0xa8>
     a68:	000002a2 	andeq	r0, r0, r2, lsr #5
     a6c:	0001860c 	andeq	r8, r1, ip, lsl #12
     a70:	01860c00 	orreq	r0, r6, r0, lsl #24
     a74:	0a000000 	beq	a7c <GPIOPadConfigSet+0xb0>
     a78:	00029204 	andeq	r9, r2, r4, lsl #4
     a7c:	02b80b00 	adcseq	r0, r8, #0, 22
     a80:	860c0000 	strhi	r0, [ip], -r0
     a84:	0c000001 	stceq	0, cr0, [r0], {1}
     a88:	00000130 	andeq	r0, r0, r0, lsr r1
     a8c:	a8040a00 	stmdage	r4, {r9, fp}
     a90:	0b000002 	bleq	aa0 <GPIOPadConfigSet+0xd4>
     a94:	000002d3 	ldrdeq	r0, [r0], -r3
     a98:	0000e40c 	andeq	lr, r0, ip, lsl #8
     a9c:	02d30c00 	sbcseq	r0, r3, #0, 24
     aa0:	eb0c0000 	bl	300aa8 <_etext+0x2fe375>
     aa4:	00000000 	andeq	r0, r0, r0
     aa8:	02d9040a 	sbcseq	r0, r9, #167772160	; 0xa000000
     aac:	0a100000 	beq	400ab4 <_etext+0x3fe381>
     ab0:	0002be04 	andeq	fp, r2, r4, lsl #28
     ab4:	00501100 	subseq	r1, r0, r0, lsl #2
     ab8:	02f40000 	rscseq	r0, r4, #0
     abc:	e40c0000 	str	r0, [ip], #-0
     ac0:	0c000000 	stceq	0, cr0, [r0], {-0}
     ac4:	00000186 	andeq	r0, r0, r6, lsl #3
     ac8:	e0040a00 	and	r0, r4, r0, lsl #20
     acc:	0b000002 	bleq	adc <GPIOPadConfigSet+0x110>
     ad0:	0000030a 	andeq	r0, r0, sl, lsl #6
     ad4:	0000e40c 	andeq	lr, r0, ip, lsl #8
     ad8:	01860c00 	orreq	r0, r6, r0, lsl #24
     adc:	0a000000 	beq	ae4 <GPIOPadConfigSet+0x118>
     ae0:	0002fa04 	andeq	pc, r2, r4, lsl #20
     ae4:	03200b00 	nopeq	{0}	; <UNPREDICTABLE>
     ae8:	860c0000 	strhi	r0, [ip], -r0
     aec:	0c000001 	stceq	0, cr0, [r0], {1}
     af0:	00000320 	andeq	r0, r0, r0, lsr #6
     af4:	e4040a00 	str	r0, [r4], #-2560	; 0xfffff600
     af8:	0a000000 	beq	b00 <GPIOPadConfigSet+0x134>
     afc:	00031004 	andeq	r1, r3, r4
     b00:	03370b00 	teqeq	r7, #0, 22
     b04:	500c0000 	andpl	r0, ip, r0
     b08:	00000000 	andeq	r0, r0, r0
     b0c:	032c040a 			; <UNDEFINED> instruction: 0x032c040a
     b10:	4d0b0000 	stcmi	0, cr0, [fp, #-0]
     b14:	0c000003 	stceq	0, cr0, [r0], {3}
     b18:	000000e4 	andeq	r0, r0, r4, ror #1
     b1c:	00034d0c 	andeq	r4, r3, ip, lsl #26
     b20:	040a0000 	streq	r0, [sl], #-0
     b24:	000000eb 	andeq	r0, r0, fp, ror #1
     b28:	033d040a 	teqeq	sp, #167772160	; 0xa000000
     b2c:	640b0000 	strvs	r0, [fp], #-0
     b30:	0c000003 	stceq	0, cr0, [r0], {3}
     b34:	00000320 	andeq	r0, r0, r0, lsr #6
     b38:	59040a00 	stmdbpl	r4, {r9, fp}
     b3c:	06000003 	streq	r0, [r0], -r3
     b40:	00000a69 	andeq	r0, r0, r9, ror #20
     b44:	8d033d03 	stchi	13, cr3, [r3, #-12]
     b48:	0d000001 	stceq	0, cr0, [r0, #-4]
     b4c:	0000036a 	andeq	r0, r0, sl, ror #6
     b50:	00099212 	andeq	r9, r9, r2, lsl r2
     b54:	183f0300 	ldmdane	pc!, {r8, r9}	; <UNPREDICTABLE>
     b58:	00000376 	andeq	r0, r0, r6, ror r3
     b5c:	00062e12 	andeq	r2, r6, r2, lsl lr
     b60:	18400300 	stmdane	r0, {r8, r9}^
     b64:	0000012b 	andeq	r0, r0, fp, lsr #2
     b68:	00037b13 	andeq	r7, r3, r3, lsl fp
     b6c:	01ef0100 	mvneq	r0, r0, lsl #2
     b70:	fc030511 	stc2	5, cr0, [r3], {17}
     b74:	14000021 	strne	r0, [r0], #-33	; 0xffffffdf
     b78:	00000823 	andeq	r0, r0, r3, lsr #16
     b7c:	0d01ca01 	vstreq	s24, [r1, #-4]
     b80:	00001760 	andeq	r1, r0, r0, ror #14
     b84:	0000008c 	andeq	r0, r0, ip, lsl #1
     b88:	03ca9c01 	biceq	r9, sl, #256	; 0x100
     b8c:	d4150000 	ldrle	r0, [r5], #-0
     b90:	01000009 	tsteq	r0, r9
     b94:	e42901ca 	strt	r0, [r9], #-458	; 0xfffffe36
     b98:	02000000 	andeq	r0, r0, #0
     b9c:	16007491 			; <UNDEFINED> instruction: 0x16007491
     ba0:	00000683 	andeq	r0, r0, r3, lsl #13
     ba4:	0d01ad01 	stceq	13, cr10, [r1, #-4]
     ba8:	00001700 	andeq	r1, r0, r0, lsl #14
     bac:	00000060 	andeq	r0, r0, r0, rrx
     bb0:	04029c01 	streq	r9, [r2], #-3073	; 0xfffff3ff
     bb4:	d3150000 	tstle	r5, #0
     bb8:	01000008 	tsteq	r0, r8
     bbc:	e42901ad 	strt	r0, [r9], #-429	; 0xfffffe53
     bc0:	02000000 	andeq	r0, r0, #0
     bc4:	12157491 	andsne	r7, r5, #-1862270976	; 0x91000000
     bc8:	0100000a 	tsteq	r0, sl
     bcc:	863401ad 	ldrthi	r0, [r4], -sp, lsr #3
     bd0:	02000001 	andeq	r0, r0, #1
     bd4:	17007091 			; <UNDEFINED> instruction: 0x17007091
     bd8:	000005a7 	andeq	r0, r0, r7, lsr #11
     bdc:	16018d01 	strne	r8, [r1], -r1, lsl #26
     be0:	00000050 	andeq	r0, r0, r0, asr r0
     be4:	00001640 	andeq	r1, r0, r0, asr #12
     be8:	000000c0 	andeq	r0, r0, r0, asr #1
     bec:	044e9c01 	strbeq	r9, [lr], #-3073	; 0xfffff3ff
     bf0:	d3150000 	tstle	r5, #0
     bf4:	01000008 	tsteq	r0, r8
     bf8:	862a018d 	strthi	r0, [sl], -sp, lsl #3
     bfc:	02000001 	andeq	r0, r0, #1
     c00:	12156c91 	andsne	r6, r5, #37120	; 0x9100
     c04:	0100000a 	tsteq	r0, sl
     c08:	8635018d 	ldrthi	r0, [r5], -sp, lsl #3
     c0c:	02000001 	andeq	r0, r0, #1
     c10:	27186891 			; <UNDEFINED> instruction: 0x27186891
     c14:	0100000a 	tsteq	r0, sl
     c18:	eb14018e 	bl	501258 <_etext+0x4feb25>
     c1c:	02000000 	andeq	r0, r0, #0
     c20:	16007691 			; <UNDEFINED> instruction: 0x16007691
     c24:	0000085c 	andeq	r0, r0, ip, asr r8
     c28:	0d018001 	stceq	0, cr8, [r1, #-4]
     c2c:	00001628 	andeq	r1, r0, r8, lsr #12
     c30:	00000016 	andeq	r0, r0, r6, lsl r0
     c34:	04869c01 	streq	r9, [r6], #3073	; 0xc01
     c38:	d3150000 	tstle	r5, #0
     c3c:	01000008 	tsteq	r0, r8
     c40:	86210180 	strthi	r0, [r1], -r0, lsl #3
     c44:	02000001 	andeq	r0, r0, #1
     c48:	b3157491 	tstlt	r5, #-1862270976	; 0x91000000
     c4c:	01000007 	tsteq	r0, r7
     c50:	862c0180 	strthi	r0, [ip], -r0, lsl #3
     c54:	02000001 	andeq	r0, r0, #1
     c58:	19007091 	stmdbne	r0, {r0, r4, r7, ip, sp, lr}
     c5c:	0000086c 	andeq	r0, r0, ip, ror #16
     c60:	0d017901 	vstreq.16	s14, [r1, #-2]	; <UNPREDICTABLE>
     c64:	00001614 	andeq	r1, r0, r4, lsl r6
     c68:	00000014 	andeq	r0, r0, r4, lsl r0
     c6c:	ec169c01 	ldc	12, cr9, [r6], {1}
     c70:	01000005 	tsteq	r0, r5
     c74:	880d0170 	stmdahi	sp, {r4, r5, r6, r8}
     c78:	8c000015 	stchi	0, cr0, [r0], {21}
     c7c:	01000000 	mrseq	r0, (UNDEF: 0)
     c80:	0004d19c 	muleq	r4, ip, r1
     c84:	08d31500 	ldmeq	r3, {r8, sl, ip}^
     c88:	70010000 	andvc	r0, r1, r0
     c8c:	01862601 	orreq	r2, r6, r1, lsl #12
     c90:	91020000 	mrsls	r0, (UNDEF: 2)
     c94:	65721a74 	ldrbvs	r1, [r2, #-2676]!	; 0xfffff58c
     c98:	70010074 	andvc	r0, r1, r4, ror r0
     c9c:	03203b01 			; <UNDEFINED> instruction: 0x03203b01
     ca0:	91020000 	mrsls	r0, (UNDEF: 2)
     ca4:	4c1b0070 	ldcmi	0, cr0, [fp], {112}	; 0x70
     ca8:	01000006 	tsteq	r0, r6
     cac:	48060167 	stmdami	r6, {r0, r1, r2, r5, r6, r8}
     cb0:	40000015 	andmi	r0, r0, r5, lsl r0
     cb4:	01000000 	mrseq	r0, (UNDEF: 0)
     cb8:	0005099c 	muleq	r5, ip, r9
     cbc:	08d31500 	ldmeq	r3, {r8, sl, ip}^
     cc0:	67010000 	strvs	r0, [r1, -r0]
     cc4:	00e42201 	rsceq	r2, r4, r1, lsl #4
     cc8:	91020000 	mrsls	r0, (UNDEF: 2)
     ccc:	07ca1574 			; <UNDEFINED> instruction: 0x07ca1574
     cd0:	67010000 	strvs	r0, [r1, -r0]
     cd4:	034d3901 	movteq	r3, #55553	; 0xd901
     cd8:	91020000 	mrsls	r0, (UNDEF: 2)
     cdc:	181b0070 	ldmdane	fp, {r4, r5, r6}
     ce0:	01000006 	tsteq	r0, r6
     ce4:	fc06015e 	stc2	1, cr0, [r6], {94}	; 0x5e
     ce8:	4c000014 	stcmi	0, cr0, [r0], {20}
     cec:	01000000 	mrseq	r0, (UNDEF: 0)
     cf0:	0005319c 	muleq	r5, ip, r1
     cf4:	09021500 	stmdbeq	r2, {r8, sl, ip}
     cf8:	5e010000 	cdppl	0, 0, cr0, cr1, cr0, {0}
     cfc:	03202a01 			; <UNDEFINED> instruction: 0x03202a01
     d00:	91020000 	mrsls	r0, (UNDEF: 2)
     d04:	9f140074 	svcls	0x00140074
     d08:	01000006 	tsteq	r0, r6
     d0c:	000d0157 	andeq	r0, sp, r7, asr r1
     d10:	2a000000 	bcs	d18 <SysCtlClockGet+0x30>
     d14:	01000000 	mrseq	r0, (UNDEF: 0)
     d18:	0005579c 	muleq	r5, ip, r7
     d1c:	00691c00 	rsbeq	r1, r9, r0, lsl #24
     d20:	12015801 	andne	r5, r1, #65536	; 0x10000
     d24:	000000e4 	andeq	r0, r0, r4, ror #1
     d28:	00749102 	rsbseq	r9, r4, r2, lsl #2
     d2c:	0005b714 	andeq	fp, r5, r4, lsl r7
     d30:	014a0100 	mrseq	r0, (UNDEF: 90)
     d34:	0014a00d 	andseq	sl, r4, sp
     d38:	00005c00 	andeq	r5, r0, r0, lsl #24
     d3c:	9f9c0100 	svcls	0x009c0100
     d40:	15000005 	strne	r0, [r0, #-5]
     d44:	000008d3 	ldrdeq	r0, [r0], -r3
     d48:	26014a01 	strcs	r4, [r1], -r1, lsl #20
     d4c:	000000e4 	andeq	r0, r0, r4, ror #1
     d50:	15749102 	ldrbne	r9, [r4, #-258]!	; 0xfffffefe
     d54:	000002a7 	andeq	r0, r0, r7, lsr #5
     d58:	39014a01 	stmdbcc	r1, {r0, r9, fp, lr}
     d5c:	000002d3 	ldrdeq	r0, [r0], -r3
     d60:	15709102 	ldrbne	r9, [r0, #-258]!	; 0xfffffefe
     d64:	00000035 	andeq	r0, r0, r5, lsr r0
     d68:	50014a01 	andpl	r4, r1, r1, lsl #20
     d6c:	000000eb 	andeq	r0, r0, fp, ror #1
     d70:	006e9102 	rsbeq	r9, lr, r2, lsl #2
     d74:	0007a814 	andeq	sl, r7, r4, lsl r8
     d78:	013f0100 	teqeq	pc, r0, lsl #2
     d7c:	0014440d 	andseq	r4, r4, sp, lsl #8
     d80:	00005c00 	andeq	r5, r0, r0, lsl #24
     d84:	e79c0100 	ldr	r0, [ip, r0, lsl #2]
     d88:	15000005 	strne	r0, [r0, #-5]
     d8c:	000008d3 	ldrdeq	r0, [r0], -r3
     d90:	25013f01 	strcs	r3, [r1, #-3841]	; 0xfffff0ff
     d94:	000000e4 	andeq	r0, r0, r4, ror #1
     d98:	15749102 	ldrbne	r9, [r4, #-258]!	; 0xfffffefe
     d9c:	000002a7 	andeq	r0, r0, r7, lsr #5
     da0:	32013f01 	andcc	r3, r1, #1, 30
     da4:	000005e7 	andeq	r0, r0, r7, ror #11
     da8:	15709102 	ldrbne	r9, [r0, #-258]!	; 0xfffffefe
     dac:	00000035 	andeq	r0, r0, r5, lsr r0
     db0:	49013f01 	stmdbmi	r1, {r0, r8, r9, sl, fp, ip, sp}
     db4:	000000eb 	andeq	r0, r0, fp, ror #1
     db8:	006e9102 	rsbeq	r9, lr, r2, lsl #2
     dbc:	3e16041d 	cfmvrdlcc	r0, mvd6
     dc0:	0100000a 	tsteq	r0, sl
     dc4:	d80d0131 	stmdale	sp, {r0, r4, r5, r8}
     dc8:	6c000013 	stcvs	0, cr0, [r0], {19}
     dcc:	01000000 	mrseq	r0, (UNDEF: 0)
     dd0:	0006319c 	muleq	r6, ip, r1
     dd4:	08d31500 	ldmeq	r3, {r8, sl, ip}^
     dd8:	31010000 	mrscc	r0, (UNDEF: 1)
     ddc:	01861c01 	orreq	r1, r6, r1, lsl #24
     de0:	91020000 	mrsls	r0, (UNDEF: 2)
     de4:	06dd1574 			; <UNDEFINED> instruction: 0x06dd1574
     de8:	31010000 	mrscc	r0, (UNDEF: 1)
     dec:	03203101 			; <UNDEFINED> instruction: 0x03203101
     df0:	91020000 	mrsls	r0, (UNDEF: 2)
     df4:	07cf1570 			; <UNDEFINED> instruction: 0x07cf1570
     df8:	31010000 	mrscc	r0, (UNDEF: 1)
     dfc:	00e44401 	rsceq	r4, r4, r1, lsl #8
     e00:	91020000 	mrsls	r0, (UNDEF: 2)
     e04:	e016006c 	ands	r0, r6, ip, rrx
     e08:	01000005 	tsteq	r0, r5
     e0c:	640d0122 	strvs	r0, [sp], #-290	; 0xfffffede
     e10:	74000013 	strvc	r0, [r0], #-19	; 0xffffffed
     e14:	01000000 	mrseq	r0, (UNDEF: 0)
     e18:	0006799c 	muleq	r6, ip, r9
     e1c:	08d31500 	ldmeq	r3, {r8, sl, ip}^
     e20:	22010000 	andcs	r0, r1, #0
     e24:	01861d01 	orreq	r1, r6, r1, lsl #26
     e28:	91020000 	mrsls	r0, (UNDEF: 2)
     e2c:	06dd1574 			; <UNDEFINED> instruction: 0x06dd1574
     e30:	22010000 	andcs	r0, r1, #0
     e34:	03203201 			; <UNDEFINED> instruction: 0x03203201
     e38:	91020000 	mrsls	r0, (UNDEF: 2)
     e3c:	07cf1570 			; <UNDEFINED> instruction: 0x07cf1570
     e40:	22010000 	andcs	r0, r1, #0
     e44:	00e44501 	rsceq	r4, r4, r1, lsl #10
     e48:	91020000 	mrsls	r0, (UNDEF: 2)
     e4c:	0a1e006c 	beq	781004 <_etext+0x77e8d1>
     e50:	01000007 	tsteq	r0, r7
     e54:	12240dea 	eorne	r0, r4, #14976	; 0x3a80
     e58:	01400000 	mrseq	r0, (UNDEF: 64)
     e5c:	9c010000 	stcls	0, cr0, [r1], {-0}
     e60:	000006da 	ldrdeq	r0, [r0], -sl
     e64:	0008d31f 	andeq	sp, r8, pc, lsl r3
     e68:	28ea0100 	stmiacs	sl!, {r8}^
     e6c:	00000186 	andeq	r0, r0, r6, lsl #3
     e70:	1f549102 	svcne	0x00549102
     e74:	0000093f 	andeq	r0, r0, pc, lsr r9
     e78:	7f34ea01 	svcvc	0x0034ea01
     e7c:	02000001 	andeq	r0, r0, #1
     e80:	4c1f5391 	ldcmi	3, cr5, [pc], {145}	; 0x91
     e84:	01000009 	tsteq	r0, r9
     e88:	013056ea 	teqeq	r0, sl, ror #13
     e8c:	91020000 	mrsls	r0, (UNDEF: 2)
     e90:	50452078 	subpl	r2, r5, r8, ror r0
     e94:	19eb0100 	stmibne	fp!, {r8}^
     e98:	00000130 	andeq	r0, r0, r0, lsr r1
     e9c:	215c9102 	cmpcs	ip, r2, lsl #2
     ea0:	0000092a 	andeq	r0, r0, sl, lsr #18
     ea4:	e412ec01 	ldr	lr, [r2], #-3073	; 0xfffff3ff
     ea8:	02000000 	andeq	r0, r0, #0
     eac:	22006c91 	andcs	r6, r0, #37120	; 0x9100
     eb0:	0000080e 	andeq	r0, r0, lr, lsl #16
     eb4:	c40ddd01 	strgt	sp, [sp], #-3329	; 0xfffff2ff
     eb8:	60000011 	andvs	r0, r0, r1, lsl r0
     ebc:	01000000 	mrseq	r0, (UNDEF: 0)
     ec0:	00070f9c 	muleq	r7, ip, pc	; <UNPREDICTABLE>
     ec4:	08d31f00 	ldmeq	r3, {r8, r9, sl, fp, ip}^
     ec8:	dd010000 	stcle	0, cr0, [r1, #-0]
     ecc:	00018626 	andeq	r8, r1, r6, lsr #12
     ed0:	64910200 	ldrvs	r0, [r1], #512	; 0x200
     ed4:	00094c1f 	andeq	r4, r9, pc, lsl ip
     ed8:	41dd0100 	bicsmi	r0, sp, r0, lsl #2
     edc:	00000130 	andeq	r0, r0, r0, lsr r1
     ee0:	00749102 	rsbseq	r9, r4, r2, lsl #2
     ee4:	00096922 	andeq	r6, r9, r2, lsr #18
     ee8:	0dd20100 	ldfeqe	f0, [r2]
     eec:	00001164 	andeq	r1, r0, r4, ror #2
     ef0:	00000060 	andeq	r0, r0, r0, rrx
     ef4:	07449c01 	strbeq	r9, [r4, -r1, lsl #24]
     ef8:	d31f0000 	tstle	pc, #0
     efc:	01000008 	tsteq	r0, r8
     f00:	018625d2 	ldrdeq	r2, [r6, r2]
     f04:	91020000 	mrsls	r0, (UNDEF: 2)
     f08:	094c1f64 	stmdbeq	ip, {r2, r5, r6, r8, r9, sl, fp, ip}^
     f0c:	d2010000 	andle	r0, r1, #0
     f10:	00013040 	andeq	r3, r1, r0, asr #32
     f14:	74910200 	ldrvc	r0, [r1], #512	; 0x200
     f18:	077b2200 	ldrbeq	r2, [fp, -r0, lsl #4]!
     f1c:	c5010000 	strgt	r0, [r1, #-0]
     f20:	0000000d 	andeq	r0, r0, sp
     f24:	00006000 	andeq	r6, r0, r0
     f28:	6a9c0100 	bvs	fe701330 <_ebss+0xde701110>
     f2c:	1f000007 	svcne	0x00000007
     f30:	000008d3 	ldrdeq	r0, [r0], -r3
     f34:	8625c501 	strthi	ip, [r5], -r1, lsl #10
     f38:	02000001 	andeq	r0, r0, #1
     f3c:	23007491 	movwcs	r7, #1169	; 0x491
     f40:	00000745 	andeq	r0, r0, r5, asr #14
     f44:	440dbb01 	strmi	fp, [sp], #-2817	; 0xfffff4ff
     f48:	20000011 	andcs	r0, r0, r1, lsl r0
     f4c:	01000000 	mrseq	r0, (UNDEF: 0)
     f50:	09531e9c 	ldmdbeq	r3, {r2, r3, r4, r7, r9, sl, fp, ip}^
     f54:	b3010000 	movwlt	r0, #4096	; 0x1000
     f58:	0011100d 	andseq	r1, r1, sp
     f5c:	00003400 	andeq	r3, r0, r0, lsl #8
     f60:	a29c0100 	addsge	r0, ip, #0, 2
     f64:	1f000007 	svcne	0x00000007
     f68:	000008d3 	ldrdeq	r0, [r0], -r3
     f6c:	861db301 	ldrhi	fp, [sp], -r1, lsl #6
     f70:	02000001 	andeq	r0, r0, #1
     f74:	1e007491 	mcrne	4, 0, r7, cr0, cr1, {4}
     f78:	000008c7 	andeq	r0, r0, r7, asr #17
     f7c:	d80daf01 	stmdale	sp, {r0, r8, r9, sl, fp, sp, pc}
     f80:	38000010 	stmdacc	r0, {r4}
     f84:	01000000 	mrseq	r0, (UNDEF: 0)
     f88:	0007c89c 	muleq	r7, ip, r8
     f8c:	08d31f00 	ldmeq	r3, {r8, r9, sl, fp, ip}^
     f90:	af010000 	svcge	0x00010000
     f94:	0001861d 	andeq	r8, r1, sp, lsl r6
     f98:	74910200 	ldrvc	r0, [r1], #512	; 0x200
     f9c:	06751e00 	ldrbteq	r1, [r5], -r0, lsl #28
     fa0:	98010000 	stmdals	r1, {}	; <UNPREDICTABLE>
     fa4:	0010480d 	andseq	r4, r0, sp, lsl #16
     fa8:	00009000 	andeq	r9, r0, r0
     fac:	ee9c0100 	fmle	f0, f4, f0
     fb0:	21000007 	tstcs	r0, r7
     fb4:	000009be 			; <UNDEFINED> instruction: 0x000009be
     fb8:	571c9901 	ldrpl	r9, [ip, -r1, lsl #18]
     fbc:	02000000 	andeq	r0, r0, #0
     fc0:	23007791 	movwcs	r7, #1937	; 0x791
     fc4:	00000601 	andeq	r0, r0, r1, lsl #12
     fc8:	f40d8601 	vst1.8	{d8-d10}, [sp], r1
     fcc:	5400000f 	strpl	r0, [r0], #-15
     fd0:	01000000 	mrseq	r0, (UNDEF: 0)
     fd4:	06b21e9c 	ssateq	r1, #19, ip, lsl #29
     fd8:	82010000 	andhi	r0, r1, #0
     fdc:	000fd40d 	andeq	sp, pc, sp, lsl #8
     fe0:	00002000 	andeq	r2, r0, r0
     fe4:	269c0100 	ldrcs	r0, [ip], r0, lsl #2
     fe8:	1f000008 	svcne	0x00000008
     fec:	000007f9 	strdeq	r0, [r0], -r9
     ff0:	502e8201 	eorpl	r8, lr, r1, lsl #4
     ff4:	02000000 	andeq	r0, r0, #0
     ff8:	23007791 	movwcs	r7, #1937	; 0x791
     ffc:	000008f1 	strdeq	r0, [r0], -r1
    1000:	b40d7e01 	strlt	r7, [sp], #-3585	; 0xfffff1ff
    1004:	2000000f 	andcs	r0, r0, pc
    1008:	01000000 	mrseq	r0, (UNDEF: 0)
    100c:	07bc239c 			; <UNDEFINED> instruction: 0x07bc239c
    1010:	7a010000 	bvc	41018 <_etext+0x3e8e5>
    1014:	000f940d 	andeq	r9, pc, sp, lsl #8
    1018:	00002000 	andeq	r2, r0, r0
    101c:	249c0100 	ldrcs	r0, [ip], #256	; 0x100
    1020:	000005cf 	andeq	r0, r0, pc, asr #11
    1024:	e80d6501 	stmda	sp, {r0, r8, sl, sp, lr}
    1028:	ac00000e 	stcge	0, cr0, [r0], {14}
    102c:	01000000 	mrseq	r0, (UNDEF: 0)
    1030:	09be219c 	ldmibeq	lr!, {r2, r3, r4, r7, r8, sp}
    1034:	66010000 	strvs	r0, [r1], -r0
    1038:	0000571c 	andeq	r5, r0, ip, lsl r7
    103c:	77910200 	ldrvc	r0, [r1, r0, lsl #4]
    1040:	08d10000 	ldmeq	r1, {}^	; <UNPREDICTABLE>
    1044:	00040000 	andeq	r0, r4, r0
    1048:	000005bd 			; <UNDEFINED> instruction: 0x000005bd
    104c:	011b0104 	tsteq	fp, r4, lsl #2
    1050:	580c0000 	stmdapl	ip, {}	; <UNPREDICTABLE>
    1054:	9200000b 	andls	r0, r0, #11
    1058:	78000003 	stmdavc	r0, {r0, r1}
    105c:	00000001 	andeq	r0, r0, r1
    1060:	09000000 	stmdbeq	r0, {}	; <UNPREDICTABLE>
    1064:	0200000f 	andeq	r0, r0, #15
    1068:	01c10601 	biceq	r0, r1, r1, lsl #12
    106c:	14030000 	strne	r0, [r3], #-0
    1070:	02000000 	andeq	r0, r0, #0
    1074:	0038182b 	eorseq	r1, r8, fp, lsr #16
    1078:	01020000 	mrseq	r0, (UNDEF: 2)
    107c:	0001bf08 	andeq	fp, r1, r8, lsl #30
    1080:	00380400 	eorseq	r0, r8, r0, lsl #8
    1084:	02020000 	andeq	r0, r2, #0
    1088:	00034805 	andeq	r4, r3, r5, lsl #16
    108c:	07020200 	streq	r0, [r2, -r0, lsl #4]
    1090:	000001f7 	strdeq	r0, [r0], -r7
    1094:	00004b04 	andeq	r4, r0, r4, lsl #22
    1098:	05040200 	streq	r0, [r4, #-512]	; 0xfffffe00
    109c:	00000311 	andeq	r0, r0, r1, lsl r3
    10a0:	8e070402 	cdphi	4, 0, cr0, cr7, cr2, {0}
    10a4:	02000002 	andeq	r0, r0, #2
    10a8:	030c0508 	movweq	r0, #50440	; 0xc508
    10ac:	08020000 	stmdaeq	r2, {}	; <UNPREDICTABLE>
    10b0:	00028907 	andeq	r8, r2, r7, lsl #18
    10b4:	05040500 	streq	r0, [r4, #-1280]	; 0xfffffb00
    10b8:	00746e69 	rsbseq	r6, r4, r9, ror #28
    10bc:	93070402 	movwls	r0, #29698	; 0x7402
    10c0:	03000002 	movweq	r0, #2
    10c4:	00000016 	andeq	r0, r0, r6, lsl r0
    10c8:	2c131803 	ldccs	8, cr1, [r3], {3}
    10cc:	06000000 	streq	r0, [r0], -r0
    10d0:	000009e2 	andeq	r0, r0, r2, ror #19
    10d4:	00380107 	eorseq	r0, r8, r7, lsl #2
    10d8:	09040000 	stmdbeq	r4, {}	; <UNPREDICTABLE>
    10dc:	0000b80e 	andeq	fp, r0, lr, lsl #16
    10e0:	065b0700 	ldrbeq	r0, [fp], -r0, lsl #14
    10e4:	07000000 	streq	r0, [r0, -r0]
    10e8:	000008a9 	andeq	r0, r0, r9, lsr #17
    10ec:	087e0701 	ldmdaeq	lr!, {r0, r8, r9, sl}^
    10f0:	07020000 	streq	r0, [r2, -r0]
    10f4:	000009f6 	strdeq	r0, [r0], -r6
    10f8:	4c030003 	stcmi	0, cr0, [r3], {3}
    10fc:	04000008 	streq	r0, [r0], #-8
    1100:	008d030e 	addeq	r0, sp, lr, lsl #6
    1104:	1c080000 	stcne	0, cr0, [r8], {-0}
    1108:	29091004 	stmdbcs	r9, {r2, ip}
    110c:	09000001 	stmdbeq	r0, {r0}
    1110:	00000591 	muleq	r0, r1, r5
    1114:	2a0c1104 	bcs	30552c <_etext+0x302df9>
    1118:	00000001 	andeq	r0, r0, r1
    111c:	0008d909 	andeq	sp, r8, r9, lsl #18
    1120:	0c120400 	cfldrseq	mvf0, [r2], {-0}
    1124:	00000140 	andeq	r0, r0, r0, asr #2
    1128:	097d0904 	ldmdbeq	sp!, {r2, r8, fp}^
    112c:	13040000 	movwne	r0, #16384	; 0x4000
    1130:	0001400c 	andeq	r4, r1, ip
    1134:	8f090800 	svchi	0x00090800
    1138:	04000007 	streq	r0, [r0], #-7
    113c:	01510c14 	cmpeq	r1, r4, lsl ip
    1140:	090c0000 	stmdbeq	ip, {}	; <UNPREDICTABLE>
    1144:	00000832 	andeq	r0, r0, r2, lsr r8
    1148:	510c1504 	tstpl	ip, r4, lsl #10
    114c:	10000001 	andne	r0, r0, r1
    1150:	00091c09 	andeq	r1, r9, r9, lsl #24
    1154:	0c160400 	cfldrseq	mvf0, [r6], {-0}
    1158:	0000012a 	andeq	r0, r0, sl, lsr #2
    115c:	06390914 			; <UNDEFINED> instruction: 0x06390914
    1160:	17040000 	strne	r0, [r4, -r0]
    1164:	0001670c 	andeq	r6, r1, ip, lsl #14
    1168:	0a001800 	beq	7170 <_etext+0x4a3d>
    116c:	0129040b 			; <UNDEFINED> instruction: 0x0129040b
    1170:	400c0000 	andmi	r0, ip, r0
    1174:	0d000001 	stceq	0, cr0, [r0, #-4]
    1178:	0000007a 	andeq	r0, r0, sl, ror r0
    117c:	00004b0d 	andeq	r4, r0, sp, lsl #22
    1180:	040b0000 	streq	r0, [fp], #-0
    1184:	00000130 	andeq	r0, r0, r0, lsr r1
    1188:	0001510c 	andeq	r5, r1, ip, lsl #2
    118c:	007a0d00 	rsbseq	r0, sl, r0, lsl #26
    1190:	0b000000 	bleq	1198 <ConfigureINEndpoint+0x34>
    1194:	00014604 	andeq	r4, r1, r4, lsl #12
    1198:	01670c00 	cmneq	r7, r0, lsl #24
    119c:	7a0d0000 	bvc	3411a4 <_etext+0x33ea71>
    11a0:	0d000000 	stceq	0, cr0, [r0, #-0]
    11a4:	0000007a 	andeq	r0, r0, sl, ror r0
    11a8:	57040b00 	strpl	r0, [r4, -r0, lsl #22]
    11ac:	03000001 	movweq	r0, #1
    11b0:	0000095f 	andeq	r0, r0, pc, asr r9
    11b4:	c4031804 	strgt	r1, [r3], #-2052	; 0xfffff7fc
    11b8:	04000000 	streq	r0, [r0], #-0
    11bc:	0000016d 	andeq	r0, r0, sp, ror #2
    11c0:	1a040808 	bne	1031e8 <_etext+0x100ab5>
    11c4:	0001c909 	andeq	ip, r1, r9, lsl #18
    11c8:	0b090900 	bleq	2435d0 <_etext+0x240e9d>
    11cc:	1b040000 	blne	1011d4 <_etext+0xfeaa1>
    11d0:	00003813 	andeq	r3, r0, r3, lsl r8
    11d4:	5b090000 	blpl	2411dc <_etext+0x23eaa9>
    11d8:	0400000c 	streq	r0, [r0], #-12
    11dc:	0038131c 	eorseq	r1, r8, ip, lsl r3
    11e0:	09010000 	stmdbeq	r1, {}	; <UNPREDICTABLE>
    11e4:	00000ae1 	andeq	r0, r0, r1, ror #21
    11e8:	4b141d04 	blmi	508600 <_etext+0x505ecd>
    11ec:	02000000 	andeq	r0, r0, #0
    11f0:	000a7309 	andeq	r7, sl, r9, lsl #6
    11f4:	141e0400 	ldrne	r0, [lr], #-1024	; 0xfffffc00
    11f8:	0000004b 	andeq	r0, r0, fp, asr #32
    11fc:	0d260904 			; <UNDEFINED> instruction: 0x0d260904
    1200:	1f040000 	svcne	0x00040000
    1204:	00004b14 	andeq	r4, r0, r4, lsl fp
    1208:	03000600 	movweq	r0, #1536	; 0x600
    120c:	00000baf 	andeq	r0, r0, pc, lsr #23
    1210:	7e032004 	cdpvc	0, 0, cr2, cr3, cr4, {0}
    1214:	04000001 	streq	r0, [r0], #-1
    1218:	000001c9 	andeq	r0, r0, r9, asr #3
    121c:	3801070e 	stmdacc	r1, {r1, r2, r3, r8, r9, sl}
    1220:	04000000 	streq	r0, [r0], #-0
    1224:	02010e77 	andeq	r0, r1, #1904	; 0x770
    1228:	3a070000 	bcc	1c1230 <_etext+0x1beafd>
    122c:	00000000 	andeq	r0, r0, r0
    1230:	0000e607 	andeq	lr, r0, r7, lsl #12
    1234:	34070100 	strcc	r0, [r7], #-256	; 0xffffff00
    1238:	02000002 	andeq	r0, r0, #2
    123c:	00032107 	andeq	r2, r3, r7, lsl #2
    1240:	03000300 	movweq	r0, #768	; 0x300
    1244:	0000001e 	andeq	r0, r0, lr, lsl r0
    1248:	da037c04 	ble	e0260 <_etext+0xddb2d>
    124c:	0e000001 	cdpeq	0, 0, cr0, cr0, cr1, {0}
    1250:	00380107 	eorseq	r0, r8, r7, lsl #2
    1254:	7e040000 	cdpvc	0, 0, cr0, cr4, cr0, {0}
    1258:	0002460e 	andeq	r4, r2, lr, lsl #12
    125c:	020a0700 	andeq	r0, sl, #0, 14
    1260:	07000000 	streq	r0, [r0, -r0]
    1264:	000002ca 	andeq	r0, r0, sl, asr #5
    1268:	00530701 	subseq	r0, r3, r1, lsl #14
    126c:	07020000 	streq	r0, [r2, -r0]
    1270:	0000006d 	andeq	r0, r0, sp, rrx
    1274:	00c70703 	sbceq	r0, r7, r3, lsl #14
    1278:	07040000 	streq	r0, [r4, -r0]
    127c:	000002ef 	andeq	r0, r0, pc, ror #5
    1280:	02ae0705 	adceq	r0, lr, #1310720	; 0x140000
    1284:	00060000 	andeq	r0, r6, r0
    1288:	0001cd03 	andeq	ip, r1, r3, lsl #26
    128c:	03860400 	orreq	r0, r6, #0, 8
    1290:	0000020d 	andeq	r0, r0, sp, lsl #4
    1294:	88041208 	stmdahi	r4, {r3, r9, ip}
    1298:	00031209 	andeq	r1, r3, r9, lsl #4
    129c:	0ce10900 			; <UNDEFINED> instruction: 0x0ce10900
    12a0:	89040000 	stmdbhi	r4, {}	; <UNPREDICTABLE>
    12a4:	00003815 	andeq	r3, r0, r5, lsl r8
    12a8:	7e090000 	cdpvc	0, 0, cr0, cr9, cr0, {0}
    12ac:	0400000b 	streq	r0, [r0], #-11
    12b0:	0038158a 	eorseq	r1, r8, sl, lsl #11
    12b4:	09010000 	stmdbeq	r1, {}	; <UNPREDICTABLE>
    12b8:	00000b17 	andeq	r0, r0, r7, lsl fp
    12bc:	4b158b04 	blmi	563ed4 <_etext+0x5617a1>
    12c0:	02000000 	andeq	r0, r0, #0
    12c4:	000c9709 	andeq	r9, ip, r9, lsl #14
    12c8:	158c0400 	strne	r0, [ip, #1024]	; 0x400
    12cc:	00000038 	andeq	r0, r0, r8, lsr r0
    12d0:	0b2d0904 	bleq	b436e8 <_etext+0xb40fb5>
    12d4:	8d040000 	stchi	0, cr0, [r4, #-0]
    12d8:	00003815 	andeq	r3, r0, r5, lsl r8
    12dc:	4b090500 	blmi	2426e4 <_etext+0x23ffb1>
    12e0:	0400000c 	streq	r0, [r0], #-12
    12e4:	0038158e 	eorseq	r1, r8, lr, lsl #11
    12e8:	09060000 	stmdbeq	r6, {}	; <UNPREDICTABLE>
    12ec:	00000beb 	andeq	r0, r0, fp, ror #23
    12f0:	38158f04 	ldmdacc	r5, {r2, r8, r9, sl, fp, pc}
    12f4:	07000000 	streq	r0, [r0, -r0]
    12f8:	000d6709 	andeq	r6, sp, r9, lsl #14
    12fc:	15900400 	ldrne	r0, [r0, #1024]	; 0x400
    1300:	0000004b 	andeq	r0, r0, fp, asr #32
    1304:	0aff0908 	beq	fffc372c <_ebss+0xdffc350c>
    1308:	91040000 	mrsls	r0, (UNDEF: 4)
    130c:	00004b15 	andeq	r4, r0, r5, lsl fp
    1310:	d7090a00 	strle	r0, [r9, -r0, lsl #20]
    1314:	0400000a 	streq	r0, [r0], #-10
    1318:	004b1592 	umaaleq	r1, fp, r2, r5
    131c:	090c0000 	stmdbeq	ip, {}	; <UNPREDICTABLE>
    1320:	00000ae8 	andeq	r0, r0, r8, ror #21
    1324:	38159304 	ldmdacc	r5, {r2, r8, r9, ip, pc}
    1328:	0e000000 	cdpeq	0, 0, cr0, cr0, cr0, {0}
    132c:	000af609 	andeq	pc, sl, r9, lsl #12
    1330:	15940400 	ldrne	r0, [r4, #1024]	; 0x400
    1334:	00000038 	andeq	r0, r0, r8, lsr r0
    1338:	0b3d090f 	bleq	f4377c <_etext+0xf41049>
    133c:	95040000 	strls	r0, [r4, #-0]
    1340:	00003815 	andeq	r3, r0, r5, lsl r8
    1344:	84091000 	strhi	r1, [r9], #-0
    1348:	0400000c 	streq	r0, [r0], #-12
    134c:	00381596 	mlaseq	r8, r6, r5, r1
    1350:	00110000 	andseq	r0, r1, r0
    1354:	000aae03 	andeq	sl, sl, r3, lsl #28
    1358:	1f970400 	svcne	0x00970400
    135c:	00000252 	andeq	r0, r0, r2, asr r2
    1360:	00031204 	andeq	r1, r3, r4, lsl #4
    1364:	06920f00 	ldreq	r0, [r2], r0, lsl #30
    1368:	05100000 	ldreq	r0, [r0, #-0]
    136c:	0372081b 	cmneq	r2, #1769472	; 0x1b0000
    1370:	62090000 	andvs	r0, r9, #0
    1374:	0500000a 	streq	r0, [r0, #-10]
    1378:	00b8151c 	adcseq	r1, r8, ip, lsl r5
    137c:	09000000 	stmdbeq	r0, {}	; <UNPREDICTABLE>
    1380:	000006e2 	andeq	r0, r0, r2, ror #13
    1384:	720d1d05 	andvc	r1, sp, #320	; 0x140
    1388:	01000003 	tsteq	r0, r3
    138c:	000a4909 	andeq	r4, sl, r9, lsl #18
    1390:	0d1e0500 	cfldr32eq	mvfx0, [lr, #-0]
    1394:	00000073 	andeq	r0, r0, r3, ror r0
    1398:	099d0904 	ldmibeq	sp, {r2, r8, fp}
    139c:	1f050000 	svcne	0x00050000
    13a0:	0000730d 	andeq	r7, r0, sp, lsl #6
    13a4:	33090800 	movwcc	r0, #38912	; 0x9800
    13a8:	05000009 	streq	r0, [r0, #-9]
    13ac:	00730d20 	rsbseq	r0, r3, r0, lsr #26
    13b0:	000c0000 	andeq	r0, ip, r0
    13b4:	7d020102 	stfvcs	f0, [r2, #-8]
    13b8:	08000003 	stmdaeq	r0, {r0, r1}
    13bc:	092a0548 	stmdbeq	sl!, {r3, r6, r8, sl}
    13c0:	0000046d 	andeq	r0, r0, sp, ror #8
    13c4:	0006c509 	andeq	ip, r6, r9, lsl #10
    13c8:	0c2b0500 	cfstr32eq	mvfx0, [fp], #-0
    13cc:	0000012a 	andeq	r0, r0, sl, lsr #2
    13d0:	09a90900 	stmibeq	r9!, {r8, fp}
    13d4:	2c050000 	stccs	0, cr0, [r5], {-0}
    13d8:	00012a0c 	andeq	r2, r1, ip, lsl #20
    13dc:	fa090400 	blx	2423e4 <_etext+0x23fcb1>
    13e0:	05000008 	streq	r0, [r0, #-8]
    13e4:	012a0c2d 			; <UNDEFINED> instruction: 0x012a0c2d
    13e8:	09080000 	stmdbeq	r8, {}	; <UNPREDICTABLE>
    13ec:	00000a33 	andeq	r0, r0, r3, lsr sl
    13f0:	2a0c2e05 	bcs	30cc0c <_etext+0x30a4d9>
    13f4:	0c000001 	stceq	0, cr0, [r0], {1}
    13f8:	00058409 	andeq	r8, r5, r9, lsl #8
    13fc:	0c2f0500 	cfstr32eq	mvfx0, [pc], #-0	; 1404 <readRxFIFO+0x2c>
    1400:	00000478 	andeq	r0, r0, r8, ror r4
    1404:	08010910 	stmdaeq	r1, {r4, r8, fp}
    1408:	30050000 	andcc	r0, r5, r0
    140c:	0004780c 	andeq	r7, r4, ip, lsl #16
    1410:	20091400 	andcs	r1, r9, r0, lsl #8
    1414:	05000007 	streq	r0, [r0, #-7]
    1418:	048e0c31 	streq	r0, [lr], #3121	; 0xc31
    141c:	09180000 	ldmdbeq	r8, {}	; <UNPREDICTABLE>
    1420:	000006f4 	strdeq	r0, [r0], -r4
    1424:	a40c3205 	strge	r3, [ip], #-517	; 0xfffffdfb
    1428:	1c000004 	stcne	0, cr0, [r0], {4}
    142c:	00072e09 	andeq	r2, r7, r9, lsl #28
    1430:	0c330500 	cfldr32eq	mvfx0, [r3], #-0
    1434:	000004a4 	andeq	r0, r0, r4, lsr #9
    1438:	09c70920 	stmibeq	r7, {r5, r8, fp}^
    143c:	34050000 	strcc	r0, [r5], #-0
    1440:	0004c60c 	andeq	ip, r4, ip, lsl #12
    1444:	c3092400 	movwgt	r2, #37888	; 0x9400
    1448:	05000005 	streq	r0, [r0, #-5]
    144c:	04c60c35 	strbeq	r0, [r6], #3125	; 0xc35
    1450:	09280000 	stmdbeq	r8!, {}	; <UNPREDICTABLE>
    1454:	000006d5 	ldrdeq	r0, [r0], -r5
    1458:	e0153605 	ands	r3, r5, r5, lsl #12
    145c:	2c000004 	stccs	0, cr0, [r0], {4}
    1460:	000a5709 	andeq	r5, sl, r9, lsl #14
    1464:	0c370500 	cfldr32eq	mvfx0, [r7], #-0
    1468:	000004f6 	strdeq	r0, [r0], -r6
    146c:	07da0930 			; <UNDEFINED> instruction: 0x07da0930
    1470:	38050000 	stmdacc	r5, {}	; <UNPREDICTABLE>
    1474:	0005120c 	andeq	r1, r5, ip, lsl #4
    1478:	ee093400 	cfcpys	mvf3, mvf9
    147c:	05000007 	streq	r0, [r0, #-7]
    1480:	05230c39 	streq	r0, [r3, #-3129]!	; 0xfffff3c7
    1484:	09380000 	ldmdbeq	r8!, {}	; <UNPREDICTABLE>
    1488:	00000895 	muleq	r0, r5, r8
    148c:	3f0c3a05 	svccc	0x000c3a05
    1490:	3c000005 	stccc	0, cr0, [r0], {5}
    1494:	000a1f09 	andeq	r1, sl, r9, lsl #30
    1498:	0c3b0500 	cfldr32eq	mvfx0, [fp], #-0
    149c:	00000151 	andeq	r0, r0, r1, asr r1
    14a0:	090d0940 	stmdbeq	sp, {r6, r8, fp}
    14a4:	3c050000 	stccc	0, cr0, [r5], {-0}
    14a8:	0005500c 	andeq	r5, r5, ip
    14ac:	0c004400 	cfstrseq	mvf4, [r0], {-0}
    14b0:	00000478 	andeq	r0, r0, r8, ror r4
    14b4:	0000730d 	andeq	r7, r0, sp, lsl #6
    14b8:	040b0000 	streq	r0, [fp], #-0
    14bc:	0000046d 	andeq	r0, r0, sp, ror #8
    14c0:	00048e0c 	andeq	r8, r4, ip, lsl #28
    14c4:	00730d00 	rsbseq	r0, r3, r0, lsl #26
    14c8:	730d0000 	movwvc	r0, #53248	; 0xd000
    14cc:	00000000 	andeq	r0, r0, r0
    14d0:	047e040b 	ldrbteq	r0, [lr], #-1035	; 0xfffffbf5
    14d4:	a40c0000 	strge	r0, [ip], #-0
    14d8:	0d000004 	stceq	0, cr0, [r0, #-16]
    14dc:	00000073 	andeq	r0, r0, r3, ror r0
    14e0:	0003230d 	andeq	r2, r3, sp, lsl #6
    14e4:	040b0000 	streq	r0, [fp], #-0
    14e8:	00000494 	muleq	r0, r4, r4
    14ec:	0004bf0c 	andeq	fp, r4, ip, lsl #30
    14f0:	007a0d00 	rsbseq	r0, sl, r0, lsl #26
    14f4:	bf0d0000 	svclt	0x000d0000
    14f8:	0d000004 	stceq	0, cr0, [r0, #-16]
    14fc:	0000004b 	andeq	r0, r0, fp, asr #32
    1500:	c5040b00 	strgt	r0, [r4, #-2816]	; 0xfffff500
    1504:	10000004 	andne	r0, r0, r4
    1508:	04aa040b 	strteq	r0, [sl], #1035	; 0x40b
    150c:	38110000 	ldmdacc	r1, {}	; <UNPREDICTABLE>
    1510:	e0000000 	and	r0, r0, r0
    1514:	0d000004 	stceq	0, cr0, [r0, #-16]
    1518:	0000007a 	andeq	r0, r0, sl, ror r0
    151c:	0000730d 	andeq	r7, r0, sp, lsl #6
    1520:	040b0000 	streq	r0, [fp], #-0
    1524:	000004cc 	andeq	r0, r0, ip, asr #9
    1528:	0004f60c 	andeq	pc, r4, ip, lsl #12
    152c:	007a0d00 	rsbseq	r0, sl, r0, lsl #26
    1530:	730d0000 	movwvc	r0, #53248	; 0xd000
    1534:	00000000 	andeq	r0, r0, r0
    1538:	04e6040b 	strbteq	r0, [r6], #1035	; 0x40b
    153c:	0c0c0000 	stceq	0, cr0, [ip], {-0}
    1540:	0d000005 	stceq	0, cr0, [r0, #-20]	; 0xffffffec
    1544:	00000073 	andeq	r0, r0, r3, ror r0
    1548:	00050c0d 	andeq	r0, r5, sp, lsl #24
    154c:	040b0000 	streq	r0, [fp], #-0
    1550:	0000007a 	andeq	r0, r0, sl, ror r0
    1554:	04fc040b 	ldrbteq	r0, [ip], #1035	; 0x40b
    1558:	230c0000 	movwcs	r0, #49152	; 0xc000
    155c:	0d000005 	stceq	0, cr0, [r0, #-20]	; 0xffffffec
    1560:	00000038 	andeq	r0, r0, r8, lsr r0
    1564:	18040b00 	stmdane	r4, {r8, r9, fp}
    1568:	0c000005 	stceq	0, cr0, [r0], {5}
    156c:	00000539 	andeq	r0, r0, r9, lsr r5
    1570:	00007a0d 	andeq	r7, r0, sp, lsl #20
    1574:	05390d00 	ldreq	r0, [r9, #-3328]!	; 0xfffff300
    1578:	0b000000 	bleq	1580 <USBGetRcvBytes+0x38>
    157c:	00004b04 	andeq	r4, r0, r4, lsl #22
    1580:	29040b00 	stmdbcs	r4, {r8, r9, fp}
    1584:	0c000005 	stceq	0, cr0, [r0], {5}
    1588:	00000550 	andeq	r0, r0, r0, asr r5
    158c:	00050c0d 	andeq	r0, r5, sp, lsl #24
    1590:	040b0000 	streq	r0, [fp], #-0
    1594:	00000545 	andeq	r0, r0, r5, asr #10
    1598:	000a6903 	andeq	r6, sl, r3, lsl #18
    159c:	033d0500 	teqeq	sp, #0, 10
    15a0:	00000379 	andeq	r0, r0, r9, ror r3
    15a4:	00055604 	andeq	r5, r5, r4, lsl #12
    15a8:	09921200 	ldmibeq	r2, {r9, ip}
    15ac:	3f050000 	svccc	0x00050000
    15b0:	00056218 	andeq	r6, r5, r8, lsl r2
    15b4:	062e1200 	strteq	r1, [lr], -r0, lsl #4
    15b8:	40050000 	andmi	r0, r5, r0
    15bc:	00017918 	andeq	r7, r1, r8, lsl r9
    15c0:	06140800 	ldreq	r0, [r4], -r0, lsl #16
    15c4:	05e4090a 	strbeq	r0, [r4, #2314]!	; 0x90a
    15c8:	a9090000 	stmdbge	r9, {}	; <UNPREDICTABLE>
    15cc:	06000000 	streq	r0, [r0], -r0
    15d0:	0201140b 	andeq	r1, r1, #184549376	; 0xb000000
    15d4:	09000000 	stmdbeq	r0, {}	; <UNPREDICTABLE>
    15d8:	00000c03 	andeq	r0, r0, r3, lsl #24
    15dc:	461d0c06 	ldrmi	r0, [sp], -r6, lsl #24
    15e0:	01000002 	tsteq	r0, r2
    15e4:	00000009 	andeq	r0, r0, r9
    15e8:	130d0600 	movwne	r0, #54784	; 0xd600
    15ec:	00000038 	andeq	r0, r0, r8, lsr r0
    15f0:	03830902 	orreq	r0, r3, #32768	; 0x8000
    15f4:	0e060000 	cdpeq	0, 0, cr0, cr6, cr0, {0}
    15f8:	0004bf11 	andeq	fp, r4, r1, lsl pc
    15fc:	8c090400 	cfstrshi	mvf0, [r9], {-0}
    1600:	06000000 	streq	r0, [r0], -r0
    1604:	007a120f 	rsbseq	r1, sl, pc, lsl #4
    1608:	09080000 	stmdbeq	r8, {}	; <UNPREDICTABLE>
    160c:	000002a0 	andeq	r0, r0, r0, lsr #5
    1610:	bf111006 	svclt	0x00111006
    1614:	0c000004 	stceq	0, cr0, [r0], {4}
    1618:	00002d09 	andeq	r2, r0, r9, lsl #26
    161c:	12110600 	andsne	r0, r1, #0, 12
    1620:	0000007a 	andeq	r0, r0, sl, ror r0
    1624:	7a030010 	bvc	c166c <_etext+0xbef39>
    1628:	06000002 	streq	r0, [r0], -r2
    162c:	057f0312 	ldrbeq	r0, [pc, #-786]!	; 1322 <ConfigureTxRxFIFOSize+0xfe>
    1630:	bc130000 	ldclt	0, cr0, [r3], {-0}
    1634:	0700000a 	streq	r0, [r0, -sl]
    1638:	031e1509 	tsteq	lr, #37748736	; 0x2400000
    163c:	03050000 	movweq	r0, #20480	; 0x5000
    1640:	00002244 	andeq	r2, r0, r4, asr #4
    1644:	000bcf14 	andeq	ip, fp, r4, lsl pc
    1648:	130e0100 	movwne	r0, #57600	; 0xe100
    164c:	00000614 	andeq	r0, r0, r4, lsl r6
    1650:	021c0305 	andseq	r0, ip, #335544320	; 0x14000000
    1654:	040b2000 	streq	r2, [fp], #-0
    1658:	000005e4 	andeq	r0, r0, r4, ror #11
    165c:	00057315 	andeq	r7, r5, r5, lsl r3
    1660:	110f0100 	mrsne	r0, (UNDEF: 31)
    1664:	22580305 	subscs	r0, r8, #335544320	; 0x14000000
    1668:	f4160000 			; <UNDEFINED> instruction: 0xf4160000
    166c:	0100000c 	tsteq	r0, ip
    1670:	0c06012f 	stfeqs	f0, [r6], {47}	; 0x2f
    1674:	2c00001e 	stccs	0, cr0, [r0], {30}
    1678:	01000000 	mrseq	r0, (UNDEF: 0)
    167c:	0006509c 	muleq	r6, ip, r0
    1680:	09d41700 	ldmibeq	r4, {r8, r9, sl, ip}^
    1684:	30010000 	andcc	r0, r1, r0
    1688:	007a1201 	rsbseq	r1, sl, r1, lsl #4
    168c:	91020000 	mrsls	r0, (UNDEF: 2)
    1690:	53180074 	tstpl	r8, #116	; 0x74
    1694:	0100000d 	tsteq	r0, sp
    1698:	1d340df4 	ldcne	13, cr0, [r4, #-976]!	; 0xfffffc30
    169c:	00d80000 	sbcseq	r0, r8, r0
    16a0:	9c010000 	stcls	0, cr0, [r1], {-0}
    16a4:	000006c1 	andeq	r0, r0, r1, asr #13
    16a8:	0008d319 	andeq	sp, r8, r9, lsl r3
    16ac:	2ef40100 	cdpcs	1, 15, cr0, cr4, cr0, {0}
    16b0:	0000007a 	andeq	r0, r0, sl, ror r0
    16b4:	19649102 	stmdbne	r4!, {r1, r8, ip, pc}^
    16b8:	000009d4 	ldrdeq	r0, [r0], -r4
    16bc:	7a42f401 	bvc	10be6c8 <_etext+0x10bbf95>
    16c0:	02000000 	andeq	r0, r0, #0
    16c4:	1e146091 	mrcne	0, 0, r6, cr4, cr1, {4}
    16c8:	0100000b 	tsteq	r0, fp
    16cc:	007a12f5 	ldrshteq	r1, [sl], #-37	; 0xffffffdb
    16d0:	91020000 	mrsls	r0, (UNDEF: 2)
    16d4:	0d071470 	cfstrseq	mvf1, [r7, #-448]	; 0xfffffe40
    16d8:	f6010000 			; <UNDEFINED> instruction: 0xf6010000
    16dc:	00003813 	andeq	r3, r0, r3, lsl r8
    16e0:	77910200 	ldrvc	r0, [r1, r0, lsl #4]
    16e4:	0007ca14 	andeq	ip, r7, r4, lsl sl
    16e8:	14f70100 	ldrbtne	r0, [r7], #256	; 0x100
    16ec:	0000004b 	andeq	r0, r0, fp, asr #32
    16f0:	1a6e9102 	bne	1ba5b00 <_etext+0x1ba33cd>
    16f4:	00000b4b 	andeq	r0, r0, fp, asr #22
    16f8:	000006d1 	ldrdeq	r0, [r0], -r1
    16fc:	26940305 	ldrcs	r0, [r4], r5, lsl #6
    1700:	1b000000 	blne	1708 <USBEndpointAck+0x8>
    1704:	000006dd 	ldrdeq	r0, [r0], -sp
    1708:	000006d1 	ldrdeq	r0, [r0], -r1
    170c:	00007a1c 	andeq	r7, r0, ip, lsl sl
    1710:	04001300 	streq	r1, [r0], #-768	; 0xfffffd00
    1714:	000006c1 	andeq	r0, r0, r1, asr #13
    1718:	c8080102 	stmdagt	r8, {r1, r8}
    171c:	04000001 	streq	r0, [r0], #-1
    1720:	000006d6 	ldrdeq	r0, [r0], -r6
    1724:	000c1a18 	andeq	r1, ip, r8, lsl sl
    1728:	0ddd0100 	ldfeqe	f0, [sp]
    172c:	00001cdc 	ldrdeq	r1, [r0], -ip
    1730:	00000058 	andeq	r0, r0, r8, asr r0
    1734:	07399c01 	ldreq	r9, [r9, -r1, lsl #24]!
    1738:	d3190000 	tstle	r9, #0
    173c:	01000008 	tsteq	r0, r8
    1740:	007a36dd 	ldrsbteq	r3, [sl], #-109	; 0xffffff93
    1744:	91020000 	mrsls	r0, (UNDEF: 2)
    1748:	0d2e1974 			; <UNDEFINED> instruction: 0x0d2e1974
    174c:	dd010000 	stcle	0, cr0, [r1, #-0]
    1750:	00004b4c 	andeq	r4, r0, ip, asr #22
    1754:	72910200 	addsvc	r0, r1, #0, 4
    1758:	001cf01d 	andseq	pc, ip, sp, lsl r0	; <UNPREDICTABLE>
    175c:	00002e00 	andeq	r2, r0, r0, lsl #28
    1760:	0bba1200 	bleq	fee85f68 <_ebss+0xdee85d48>
    1764:	df010000 	svcle	0x00010000
    1768:	0007391e 	andeq	r3, r7, lr, lsl r9
    176c:	0d4b1200 	sfmeq	f1, 2, [fp, #-0]
    1770:	e0010000 	and	r0, r1, r0
    1774:	0000381e 	andeq	r3, r0, lr, lsl r8
    1778:	1b000000 	blne	1780 <USBDIntHandler+0x20>
    177c:	00000038 	andeq	r0, r0, r8, lsr r0
    1780:	0000074a 	andeq	r0, r0, sl, asr #14
    1784:	00007a1e 	andeq	r7, r0, lr, lsl sl
    1788:	0003ff00 	andeq	pc, r3, r0, lsl #30
    178c:	000a9018 	andeq	r9, sl, r8, lsl r0
    1790:	0dce0100 	stfeqe	f0, [lr]
    1794:	00001cac 	andeq	r1, r0, ip, lsr #25
    1798:	00000030 	andeq	r0, r0, r0, lsr r0
    179c:	07709c01 	ldrbeq	r9, [r0, -r1, lsl #24]!
    17a0:	a4190000 	ldrge	r0, [r9], #-0
    17a4:	0100000c 	tsteq	r0, ip
    17a8:	007a38ce 	rsbseq	r3, sl, lr, asr #17
    17ac:	91020000 	mrsls	r0, (UNDEF: 2)
    17b0:	fb1f0074 	blx	7c198a <_etext+0x7bf257>
    17b4:	0100000b 	tsteq	r0, fp
    17b8:	1b540d9b 	blne	1504e2c <_etext+0x15026f9>
    17bc:	01580000 	cmpeq	r8, r0
    17c0:	9c010000 	stcls	0, cr0, [r1], {-0}
    17c4:	000007a0 	andeq	r0, r0, r0, lsr #15
    17c8:	001b841d 	andseq	r8, fp, sp, lsl r4
    17cc:	00010200 	andeq	r0, r1, r0, lsl #4
    17d0:	00301400 	eorseq	r1, r0, r0, lsl #8
    17d4:	a1010000 	mrsge	r0, (UNDEF: 1)
    17d8:	0000381b 	andeq	r3, r0, fp, lsl r8
    17dc:	77910200 	ldrvc	r0, [r1, r0, lsl #4]
    17e0:	8e180000 	cdphi	0, 1, cr0, cr8, cr0, {0}
    17e4:	0100000b 	tsteq	r0, fp
    17e8:	1b200d8f 	blne	804e2c <_etext+0x8026f9>
    17ec:	00340000 	eorseq	r0, r4, r0
    17f0:	9c010000 	stcls	0, cr0, [r1], {-0}
    17f4:	000007c6 	andeq	r0, r0, r6, asr #15
    17f8:	000c7c14 	andeq	r7, ip, r4, lsl ip
    17fc:	17900100 	ldrne	r0, [r0, r0, lsl #2]
    1800:	000007c6 	andeq	r0, r0, r6, asr #15
    1804:	00749102 	rsbseq	r9, r4, r2, lsl #2
    1808:	01d5040b 	bicseq	r0, r5, fp, lsl #8
    180c:	64180000 	ldrvs	r0, [r8], #-0
    1810:	0100000c 	tsteq	r0, ip
    1814:	1a600d6c 	bne	1804dcc <_etext+0x1802699>
    1818:	00c00000 	sbceq	r0, r0, r0
    181c:	9c010000 	stcls	0, cr0, [r1], {-0}
    1820:	00000829 	andeq	r0, r0, r9, lsr #16
    1824:	000c7c14 	andeq	r7, ip, r4, lsl ip
    1828:	176d0100 	strbne	r0, [sp, -r0, lsl #2]!
    182c:	000007c6 	andeq	r0, r0, r6, asr #15
    1830:	1d749102 	ldfnep	f1, [r4, #-8]!
    1834:	00001a7a 	andeq	r1, r0, sl, ror sl
    1838:	0000007c 	andeq	r0, r0, ip, ror r0
    183c:	000bdb14 	andeq	sp, fp, r4, lsl fp
    1840:	1d730100 	ldfnee	f0, [r3, #-0]
    1844:	0000003f 	andeq	r0, r0, pc, lsr r0
    1848:	14739102 	ldrbtne	r9, [r3], #-258	; 0xfffffefe
    184c:	00000d14 	andeq	r0, r0, r4, lsl sp
    1850:	521e7401 	andspl	r7, lr, #16777216	; 0x1000000
    1854:	02000000 	andeq	r0, r0, #0
    1858:	ce147091 	mrcgt	0, 0, r7, cr4, cr1, {4}
    185c:	0100000a 	tsteq	r0, sl
    1860:	00521e84 	subseq	r1, r2, r4, lsl #29
    1864:	91020000 	mrsls	r0, (UNDEF: 2)
    1868:	2000006e 	andcs	r0, r0, lr, rrx
    186c:	00000cb4 			; <UNDEFINED> instruction: 0x00000cb4
    1870:	140d6101 	strne	r6, [sp], #-257	; 0xfffffeff
    1874:	4c00001a 	stcmi	0, cr0, [r0], {26}
    1878:	01000000 	mrseq	r0, (UNDEF: 0)
    187c:	0c36189c 	ldceq	8, cr1, [r6], #-624	; 0xfffffd90
    1880:	21010000 	mrscs	r0, (UNDEF: 1)
    1884:	00181c0d 	andseq	r1, r8, sp, lsl #24
    1888:	0001f800 	andeq	pc, r1, r0, lsl #16
    188c:	8e9c0100 	fmlhie	f0, f4, f0
    1890:	14000008 	strne	r0, [r0], #-8
    1894:	00000c7c 	andeq	r0, r0, ip, ror ip
    1898:	c6172301 	ldrgt	r2, [r7], -r1, lsl #6
    189c:	02000007 	andeq	r0, r0, #7
    18a0:	9e147491 	cfcmpsls	r7, mvf4, mvf1
    18a4:	0100000b 	tsteq	r0, fp
    18a8:	00810d24 	addeq	r0, r1, r4, lsr #26
    18ac:	91020000 	mrsls	r0, (UNDEF: 2)
    18b0:	0ccf1473 	cfstrdeq	mvd1, [pc], {115}	; 0x73
    18b4:	25010000 	strcs	r0, [r1, #-0]
    18b8:	0000810d 	andeq	r8, r0, sp, lsl #2
    18bc:	72910200 	addsvc	r0, r1, #0, 4
    18c0:	000d3914 	andeq	r3, sp, r4, lsl r9
    18c4:	0d260100 	stfeqs	f0, [r6, #-0]
    18c8:	00000081 	andeq	r0, r0, r1, lsl #1
    18cc:	00719102 	rsbseq	r9, r1, r2, lsl #2
    18d0:	000a7a21 	andeq	r7, sl, r1, lsr #20
    18d4:	061d0100 	ldreq	r0, [sp], -r0, lsl #2
    18d8:	00000000 	andeq	r0, r0, r0
    18dc:	00000014 	andeq	r0, r0, r4, lsl r0
    18e0:	e9219c01 	stmdb	r1!, {r0, sl, fp, ip, pc}
    18e4:	0100000c 	tsteq	r0, ip
    18e8:	00000619 	andeq	r0, r0, r9, lsl r6
    18ec:	00140000 	andseq	r0, r4, r0
    18f0:	9c010000 	stcls	0, cr0, [r1], {-0}
    18f4:	000bc622 	andeq	ip, fp, r2, lsr #12
    18f8:	06110100 	ldreq	r0, [r1], -r0, lsl #2
    18fc:	000017ec 	andeq	r1, r0, ip, ror #15
    1900:	00000030 	andeq	r0, r0, r0, lsr r0
    1904:	85199c01 	ldrhi	r9, [r9, #-3073]	; 0xfffff3ff
    1908:	0100000a 	tsteq	r0, sl
    190c:	06141a11 			; <UNDEFINED> instruction: 0x06141a11
    1910:	91020000 	mrsls	r0, (UNDEF: 2)
    1914:	05000074 	streq	r0, [r0, #-116]	; 0xffffff8c
    1918:	04000002 	streq	r0, [r0], #-2
    191c:	0007c000 	andeq	ip, r7, r0
    1920:	1b010400 	blne	42928 <_etext+0x401f5>
    1924:	0c000001 	stceq	0, cr0, [r0], {1}
    1928:	00000dde 	ldrdeq	r0, [r0], -lr
    192c:	00000392 	muleq	r0, r2, r3
    1930:	000001e0 	andeq	r0, r0, r0, ror #3
    1934:	00000000 	andeq	r0, r0, r0
    1938:	000013ec 	andeq	r1, r0, ip, ror #7
    193c:	c1060102 	tstgt	r6, r2, lsl #2
    1940:	02000001 	andeq	r0, r0, #1
    1944:	01bf0801 			; <UNDEFINED> instruction: 0x01bf0801
    1948:	02020000 	andeq	r0, r2, #0
    194c:	00034805 	andeq	r4, r3, r5, lsl #16
    1950:	07020200 	streq	r0, [r2, -r0, lsl #4]
    1954:	000001f7 	strdeq	r0, [r0], -r7
    1958:	11050402 	tstne	r5, r2, lsl #8
    195c:	02000003 	andeq	r0, r0, #3
    1960:	028e0704 	addeq	r0, lr, #4, 14	; 0x100000
    1964:	08020000 	stmdaeq	r2, {}	; <UNPREDICTABLE>
    1968:	00030c05 	andeq	r0, r3, r5, lsl #24
    196c:	07080200 	streq	r0, [r8, -r0, lsl #4]
    1970:	00000289 	andeq	r0, r0, r9, lsl #5
    1974:	69050403 	stmdbvs	r5, {r0, r1, sl}
    1978:	0200746e 	andeq	r7, r0, #1845493760	; 0x6e000000
    197c:	02930704 	addseq	r0, r3, #4, 14	; 0x100000
    1980:	40040000 	andmi	r0, r4, r0
    1984:	02000005 	andeq	r0, r0, #5
    1988:	00771b28 	rsbseq	r1, r7, r8, lsr #22
    198c:	8f050000 	svchi	0x00050000
    1990:	04000004 	streq	r0, [r0], #-4
    1994:	008e0004 	addeq	r0, lr, r4
    1998:	df060000 	svcle	0x00060000
    199c:	8e000004 	cdphi	0, 0, cr0, cr0, cr4, {0}
    19a0:	00000000 	andeq	r0, r0, r0
    19a4:	04040700 	streq	r0, [r4], #-1792	; 0xfffff900
    19a8:	00000491 	muleq	r0, r1, r4
    19ac:	6b186302 	blvs	61a5bc <_etext+0x617e89>
    19b0:	08000000 	stmdaeq	r0, {}	; <UNPREDICTABLE>
    19b4:	002c0107 	eoreq	r0, ip, r7, lsl #2
    19b8:	0a030000 	beq	c19c0 <_etext+0xbf28d>
    19bc:	0000bd01 	andeq	fp, r0, r1, lsl #26
    19c0:	0e080900 	vmlaeq.f16	s0, s16, s0	; <UNPREDICTABLE>
    19c4:	09000000 	stmdbeq	r0, {}	; <UNPREDICTABLE>
    19c8:	00000da2 	andeq	r0, r0, r2, lsr #27
    19cc:	0e180901 	vnmlseq.f16	s0, s16, s2	; <UNPREDICTABLE>
    19d0:	00020000 	andeq	r0, r2, r0
    19d4:	000db804 	andeq	fp, sp, r4, lsl #16
    19d8:	030e0300 	movweq	r0, #58112	; 0xe300
    19dc:	0000009c 	muleq	r0, ip, r0
    19e0:	0000bd0a 	andeq	fp, r0, sl, lsl #26
    19e4:	0d970b00 	vldreq	d0, [r7]
    19e8:	33010000 	movwcc	r0, #4096	; 0x1000
    19ec:	001f1806 	andseq	r1, pc, r6, lsl #16
    19f0:	00004400 	andeq	r4, r0, r0, lsl #8
    19f4:	049c0100 	ldreq	r0, [ip], #256	; 0x100
    19f8:	0c000001 	stceq	0, cr0, [r0], {1}
    19fc:	00000dd7 	ldrdeq	r0, [r0], -r7
    1a00:	0a243301 	beq	90e60c <_etext+0x90bed9>
    1a04:	02000001 	andeq	r0, r0, #1
    1a08:	0e0d7091 	mcreq	0, 0, r7, cr13, cr1, {4}
    1a0c:	00000d92 	muleq	r0, r2, sp
    1a10:	900d3401 	andls	r3, sp, r1, lsl #8
    1a14:	02000000 	andeq	r0, r0, #0
    1a18:	0f006491 	svceq	0x00006491
    1a1c:	00011604 	andeq	r1, r1, r4, lsl #12
    1a20:	01040a00 	tsteq	r4, r0, lsl #20
    1a24:	01020000 	mrseq	r0, (UNDEF: 2)
    1a28:	0001c808 	andeq	ip, r1, r8, lsl #16
    1a2c:	010f0a00 	tsteq	pc, r0, lsl #20
    1a30:	780b0000 	stmdavc	fp, {}	; <UNPREDICTABLE>
    1a34:	0100000d 	tsteq	r0, sp
    1a38:	0000062a 	andeq	r0, r0, sl, lsr #12
    1a3c:	00440000 	subeq	r0, r4, r0
    1a40:	9c010000 	stcls	0, cr0, [r1], {-0}
    1a44:	00000151 	andeq	r0, r0, r1, asr r1
    1a48:	000dd70c 	andeq	sp, sp, ip, lsl #14
    1a4c:	232a0100 			; <UNDEFINED> instruction: 0x232a0100
    1a50:	0000010a 	andeq	r0, r0, sl, lsl #2
    1a54:	0d709102 	ldfeqp	f1, [r0, #-8]!
    1a58:	000d920e 	andeq	r9, sp, lr, lsl #4
    1a5c:	0d2b0100 	stfeqs	f0, [fp, #-0]
    1a60:	00000090 	muleq	r0, r0, r0
    1a64:	00649102 	rsbeq	r9, r4, r2, lsl #2
    1a68:	000dff0b 	andeq	pc, sp, fp, lsl #30
    1a6c:	06210100 	strteq	r0, [r1], -r0, lsl #2
    1a70:	00001ed4 	ldrdeq	r1, [r0], -r4
    1a74:	00000044 	andeq	r0, r0, r4, asr #32
    1a78:	01879c01 	orreq	r9, r7, r1, lsl #24
    1a7c:	d70c0000 	strle	r0, [ip, -r0]
    1a80:	0100000d 	tsteq	r0, sp
    1a84:	010a2221 	tsteq	sl, r1, lsr #4
    1a88:	91020000 	mrsls	r0, (UNDEF: 2)
    1a8c:	920e0d70 	andls	r0, lr, #112, 26	; 0x1c00
    1a90:	0100000d 	tsteq	r0, sp
    1a94:	00900d22 	addseq	r0, r0, r2, lsr #26
    1a98:	91020000 	mrsls	r0, (UNDEF: 2)
    1a9c:	c1100064 	tstgt	r0, r4, rrx
    1aa0:	0100000d 	tsteq	r0, sp
    1aa4:	010a1412 	tsteq	sl, r2, lsl r4
    1aa8:	1e8c0000 	cdpne	0, 8, cr0, cr12, cr0, {0}
    1aac:	00480000 	subeq	r0, r8, r0
    1ab0:	9c010000 	stcls	0, cr0, [r1], {-0}
    1ab4:	000001b1 			; <UNDEFINED> instruction: 0x000001b1
    1ab8:	000e280c 	andeq	r2, lr, ip, lsl #16
    1abc:	39120100 	ldmdbcc	r2, {r8}
    1ac0:	000000c9 	andeq	r0, r0, r9, asr #1
    1ac4:	00779102 	rsbseq	r9, r7, r2, lsl #2
    1ac8:	000d820b 	andeq	r8, sp, fp, lsl #4
    1acc:	06070100 	streq	r0, [r7], -r0, lsl #2
    1ad0:	00001e38 	andeq	r1, r0, r8, lsr lr
    1ad4:	00000054 	andeq	r0, r0, r4, asr r0
    1ad8:	02029c01 	andeq	r9, r2, #256	; 0x100
    1adc:	700c0000 	andvc	r0, ip, r0
    1ae0:	0100000d 	tsteq	r0, sp
    1ae4:	01042307 	tsteq	r4, r7, lsl #6
    1ae8:	91020000 	mrsls	r0, (UNDEF: 2)
    1aec:	0d8c0c6c 	stceq	12, cr0, [ip, #432]	; 0x1b0
    1af0:	07010000 	streq	r0, [r1, -r0]
    1af4:	0002023b 	andeq	r0, r2, fp, lsr r2
    1af8:	68910200 	ldmvs	r1, {r9}
    1afc:	0007ca0c 	andeq	ip, r7, ip, lsl #20
    1b00:	51070100 	mrspl	r0, (UNDEF: 23)
    1b04:	0000003a 	andeq	r0, r0, sl, lsr r0
    1b08:	11669102 	cmnne	r6, r2, lsl #2
    1b0c:	08010069 	stmdaeq	r1, {r0, r3, r5, r6}
    1b10:	00006412 	andeq	r6, r0, r2, lsl r4
    1b14:	74910200 	ldrvc	r0, [r1], #512	; 0x200
    1b18:	2c040f00 	stccs	15, cr0, [r4], {-0}
    1b1c:	00000000 	andeq	r0, r0, r0
    1b20:	00000327 	andeq	r0, r0, r7, lsr #6
    1b24:	08ba0004 	ldmeq	sl!, {r2}
    1b28:	01040000 	mrseq	r0, (UNDEF: 4)
    1b2c:	00000f9c 	muleq	r0, ip, pc	; <UNPREDICTABLE>
    1b30:	00105904 	andseq	r5, r0, r4, lsl #18
    1b34:	00039200 	andeq	r9, r3, r0, lsl #4
    1b38:	00021000 	andeq	r1, r2, r0
    1b3c:	00000000 	andeq	r0, r0, r0
    1b40:	00156200 	andseq	r6, r5, r0, lsl #4
    1b44:	06010200 	streq	r0, [r1], -r0, lsl #4
    1b48:	000001c1 	andeq	r0, r0, r1, asr #3
    1b4c:	bf080102 	svclt	0x00080102
    1b50:	02000001 	andeq	r0, r0, #1
    1b54:	03480502 	movteq	r0, #34050	; 0x8502
    1b58:	02020000 	andeq	r0, r2, #0
    1b5c:	0001f707 	andeq	pc, r1, r7, lsl #14
    1b60:	05040200 	streq	r0, [r4, #-512]	; 0xfffffe00
    1b64:	00000311 	andeq	r0, r0, r1, lsl r3
    1b68:	00025003 	andeq	r5, r2, r3
    1b6c:	194f0200 	stmdbne	pc, {r9}^	; <UNPREDICTABLE>
    1b70:	00000054 	andeq	r0, r0, r4, asr r0
    1b74:	8e070402 	cdphi	4, 0, cr0, cr7, cr2, {0}
    1b78:	02000002 	andeq	r0, r0, #2
    1b7c:	030c0508 	movweq	r0, #50440	; 0xc508
    1b80:	08020000 	stmdaeq	r2, {}	; <UNPREDICTABLE>
    1b84:	00028907 	andeq	r8, r2, r7, lsl #18
    1b88:	05040400 	streq	r0, [r4, #-1024]	; 0xfffffc00
    1b8c:	00746e69 	rsbseq	r6, r4, r9, ror #28
    1b90:	93070402 	movwls	r0, #29698	; 0x7402
    1b94:	03000002 	movweq	r0, #2
    1b98:	00000252 	andeq	r0, r0, r2, asr r2
    1b9c:	48143003 	ldmdami	r4, {r0, r1, ip, sp}
    1ba0:	03000000 	movweq	r0, #0
    1ba4:	00000540 	andeq	r0, r0, r0, asr #10
    1ba8:	8f1b2804 	svchi	0x001b2804
    1bac:	05000000 	streq	r0, [r0, #-0]
    1bb0:	0000048f 	andeq	r0, r0, pc, lsl #9
    1bb4:	a6000604 	strge	r0, [r0], -r4, lsl #12
    1bb8:	06000000 	streq	r0, [r0], -r0
    1bbc:	000004df 	ldrdeq	r0, [r0], -pc	; <UNPREDICTABLE>
    1bc0:	000000a6 	andeq	r0, r0, r6, lsr #1
    1bc4:	04070000 	streq	r0, [r7], #-0
    1bc8:	00049103 	andeq	r9, r4, r3, lsl #2
    1bcc:	18630400 	stmdane	r3!, {sl}^
    1bd0:	00000083 	andeq	r0, r0, r3, lsl #1
    1bd4:	00c60408 	sbceq	r0, r6, r8, lsl #8
    1bd8:	b4090000 	strlt	r0, [r9], #-0
    1bdc:	02000000 	andeq	r0, r0, #0
    1be0:	01c80801 	biceq	r0, r8, r1, lsl #16
    1be4:	bf090000 	svclt	0x00090000
    1be8:	0a000000 	beq	1bf0 <process_control_transfer_stage+0x9c>
    1bec:	002c0107 	eoreq	r0, ip, r7, lsl #2
    1bf0:	09050000 	stmdbeq	r5, {}	; <UNPREDICTABLE>
    1bf4:	000f450e 	andeq	r4, pc, lr, lsl #10
    1bf8:	00010800 	andeq	r0, r1, r0, lsl #16
    1bfc:	0ee00b00 	vfmaeq.f64	d16, d0, d0
    1c00:	0b000000 	bleq	1c08 <process_control_transfer_stage+0xb4>
    1c04:	00000eea 	andeq	r0, r0, sl, ror #29
    1c08:	0ef40b01 	vmoveq.f64	d16, #65	; 0x3e080000  0.1328125
    1c0c:	0b020000 	bleq	81c14 <_etext+0x7f4e1>
    1c10:	00000f18 	andeq	r0, r0, r8, lsl pc
    1c14:	0e810b03 	vdiveq.f64	d0, d1, d3
    1c18:	0b040000 	bleq	101c20 <_etext+0xff4ed>
    1c1c:	00000e96 	muleq	r0, r6, lr
    1c20:	10740b05 	rsbsne	r0, r4, r5, lsl #22
    1c24:	00060000 	andeq	r0, r6, r0
    1c28:	000f4703 	andeq	r4, pc, r3, lsl #14
    1c2c:	03110500 	tsteq	r1, #0, 10
    1c30:	000000cb 	andeq	r0, r0, fp, asr #1
    1c34:	00010809 	andeq	r0, r1, r9, lsl #16
    1c38:	0ea00c00 	cdpeq	12, 10, cr0, cr0, cr0, {0}
    1c3c:	05040000 	streq	r0, [r4, #-0]
    1c40:	01950714 	orrseq	r0, r5, r4, lsl r7
    1c44:	0d0d0000 	stceq	0, cr0, [sp, #-0]
    1c48:	0500000f 	streq	r0, [r0, #-15]
    1c4c:	00771216 	rsbseq	r1, r7, r6, lsl r2
    1c50:	0e000000 	cdpeq	0, 0, cr0, cr0, cr0, {0}
    1c54:	00000e32 	andeq	r0, r0, r2, lsr lr
    1c58:	220e1805 	andcs	r1, lr, #327680	; 0x50000
    1c5c:	0100000f 	tsteq	r0, pc
    1c60:	00000148 	andeq	r0, r0, r8, asr #2
    1c64:	00000153 	andeq	r0, r0, r3, asr r1
    1c68:	0001950f 	andeq	r9, r1, pc, lsl #10
    1c6c:	01081000 	mrseq	r1, (UNDEF: 8)
    1c70:	11000000 	mrsne	r0, (UNDEF: 0)
    1c74:	00000ea0 	andeq	r0, r0, r0, lsr #29
    1c78:	69091905 	stmdbvs	r9, {r0, r2, r8, fp, ip}
    1c7c:	9500000e 	strls	r0, [r0, #-14]
    1c80:	01000001 	tsteq	r0, r1
    1c84:	0000016c 	andeq	r0, r0, ip, ror #2
    1c88:	00000172 	andeq	r0, r0, r2, ror r1
    1c8c:	0001950f 	andeq	r9, r1, pc, lsl #10
    1c90:	6c120000 	ldcvs	0, cr0, [r2], {-0}
    1c94:	0500676f 	streq	r6, [r0, #-1903]	; 0xfffff891
    1c98:	0e400e1a 	mcreq	14, 2, r0, cr0, cr10, {0}
    1c9c:	83010000 	movwhi	r0, #4096	; 0x1000
    1ca0:	0f000001 	svceq	0x00000001
    1ca4:	00000195 	muleq	r0, r5, r1
    1ca8:	00010810 	andeq	r0, r1, r0, lsl r8
    1cac:	00b41000 	adcseq	r1, r4, r0
    1cb0:	00130000 	andseq	r0, r3, r0
    1cb4:	19040800 	stmdbne	r4, {fp}
    1cb8:	09000001 	stmdbeq	r0, {r0}
    1cbc:	00000195 	muleq	r0, r5, r1
    1cc0:	000f5214 	andeq	r5, pc, r4, lsl r2	; <UNPREDICTABLE>
    1cc4:	171e0500 	ldrne	r0, [lr, -r0, lsl #10]
    1cc8:	00000119 	andeq	r0, r0, r9, lsl r1
    1ccc:	0001a015 	andeq	sl, r1, r5, lsl r0
    1cd0:	104e0100 	subne	r0, lr, r0, lsl #2
    1cd4:	00000305 	andeq	r0, r0, r5, lsl #6
    1cd8:	af160000 	svcge	0x00160000
    1cdc:	0000000e 	andeq	r0, r0, lr
    1ce0:	10000000 	andne	r0, r0, r0
    1ce4:	01000000 	mrseq	r0, (UNDEF: 0)
    1ce8:	0f5e179c 	svceq	0x005e179c
    1cec:	00000000 	andeq	r0, r0, r0
    1cf0:	002c0000 	eoreq	r0, ip, r0
    1cf4:	9c010000 	stcls	0, cr0, [r1], {-0}
    1cf8:	000001fb 	strdeq	r0, [r0], -fp
    1cfc:	000efe18 	andeq	pc, lr, r8, lsl lr	; <UNPREDICTABLE>
    1d00:	1b4e0100 	blne	1382108 <_etext+0x137f9d5>
    1d04:	00000069 	andeq	r0, r0, r9, rrx
    1d08:	18749102 	ldmdane	r4!, {r1, r8, ip, pc}^
    1d0c:	00000f88 	andeq	r0, r0, r8, lsl #31
    1d10:	691b4e01 	ldmdbvs	fp, {r0, r9, sl, fp, lr}
    1d14:	02000000 	andeq	r0, r0, #0
    1d18:	19007091 	stmdbne	r0, {r0, r4, r7, ip, sp, lr}
    1d1c:	00000172 	andeq	r0, r0, r2, ror r1
    1d20:	15063001 	strne	r3, [r6, #-1]
    1d24:	00000002 	andeq	r0, r0, r2
    1d28:	88000000 	stmdahi	r0, {}	; <UNPREDICTABLE>
    1d2c:	01000000 	mrseq	r0, (UNDEF: 0)
    1d30:	0002509c 	muleq	r2, ip, r0
    1d34:	10541a00 	subsne	r1, r4, r0, lsl #20
    1d38:	019b0000 	orrseq	r0, fp, r0
    1d3c:	91020000 	mrsls	r0, (UNDEF: 2)
    1d40:	0e2c1864 	cdpeq	8, 2, cr1, cr12, cr4, {3}
    1d44:	30010000 	andcc	r0, r1, r0
    1d48:	00010825 	andeq	r0, r1, r5, lsr #16
    1d4c:	63910200 	orrsvs	r0, r1, #0, 4
    1d50:	00043018 	andeq	r3, r4, r8, lsl r0
    1d54:	38300100 	ldmdacc	r0!, {r8}
    1d58:	000000b4 	strheq	r0, [r0], -r4
    1d5c:	13789102 	cmnne	r8, #-2147483648	; 0x80000000
    1d60:	0004201b 	andeq	r2, r4, fp, lsl r0
    1d64:	0d310100 	ldfeqs	f0, [r1, #-0]
    1d68:	000000a8 	andeq	r0, r0, r8, lsr #1
    1d6c:	006c9102 	rsbeq	r9, ip, r2, lsl #2
    1d70:	0001331c 	andeq	r3, r1, ip, lsl r3
    1d74:	062a0100 	strteq	r0, [sl], -r0, lsl #2
    1d78:	0000026a 	andeq	r0, r0, sl, ror #4
    1d7c:	00000000 	andeq	r0, r0, r0
    1d80:	00000024 	andeq	r0, r0, r4, lsr #32
    1d84:	02869c01 	addeq	r9, r6, #256	; 0x100
    1d88:	541a0000 	ldrpl	r0, [sl], #-0
    1d8c:	9b000010 	blls	1dd4 <USBDEndpointHandler+0xa0>
    1d90:	02000001 	andeq	r0, r0, #1
    1d94:	2c187491 	cfldrscs	mvf7, [r8], {145}	; 0x91
    1d98:	0100000e 	tsteq	r0, lr
    1d9c:	01082f2a 	tsteq	r8, sl, lsr #30
    1da0:	91020000 	mrsls	r0, (UNDEF: 2)
    1da4:	531d0073 	tstpl	sp, #115	; 0x73
    1da8:	01000001 	tsteq	r0, r1
    1dac:	02970126 	addseq	r0, r7, #-2147483639	; 0x80000009
    1db0:	a1000000 	mrsge	r0, (UNDEF: 0)
    1db4:	1e000002 	cdpne	0, 0, cr0, cr0, cr2, {0}
    1db8:	00001054 	andeq	r1, r0, r4, asr r0
    1dbc:	0000019b 	muleq	r0, fp, r1
    1dc0:	02861f00 	addeq	r1, r6, #0, 30
    1dc4:	0ec80000 	cdpeq	0, 12, cr0, cr8, cr0, {0}
    1dc8:	02bc0000 	adcseq	r0, ip, #0
    1dcc:	00000000 	andeq	r0, r0, r0
    1dd0:	001c0000 	andseq	r0, ip, r0
    1dd4:	9c010000 	stcls	0, cr0, [r1], {-0}
    1dd8:	000002c5 	andeq	r0, r0, r5, asr #5
    1ddc:	00029720 	andeq	r9, r2, r0, lsr #14
    1de0:	74910200 	ldrvc	r0, [r1], #512	; 0x200
    1de4:	0dc12100 	stfeqe	f2, [r1]
    1de8:	11010000 	mrsne	r0, (UNDEF: 1)
    1dec:	0000ba1b 	andeq	fp, r0, fp, lsl sl
    1df0:	00000000 	andeq	r0, r0, r0
    1df4:	00007400 	andeq	r7, r0, r0, lsl #8
    1df8:	ef9c0100 	svc	0x009c0100
    1dfc:	18000002 	stmdane	r0, {r1}
    1e00:	00000e28 	andeq	r0, r0, r8, lsr #28
    1e04:	14421101 	strbne	r1, [r2], #-257	; 0xfffffeff
    1e08:	02000001 	andeq	r0, r0, #1
    1e0c:	22007791 	andcs	r7, r0, #38010880	; 0x2440000
    1e10:	00000ebe 			; <UNDEFINED> instruction: 0x00000ebe
    1e14:	5c060b01 			; <UNDEFINED> instruction: 0x5c060b01
    1e18:	2000001f 	andcs	r0, r0, pc, lsl r0
    1e1c:	01000000 	mrseq	r0, (UNDEF: 0)
    1e20:	0003249c 	muleq	r3, ip, r4
    1e24:	0e8b1800 	cdpeq	8, 8, cr1, cr11, cr0, {0}
    1e28:	0b010000 	bleq	41e30 <_etext+0x3f6fd>
    1e2c:	00032416 	andeq	r2, r3, r6, lsl r4
    1e30:	74910200 	ldrvc	r0, [r1], #512	; 0x200
    1e34:	000f9318 	andeq	r9, pc, r8, lsl r3	; <UNPREDICTABLE>
    1e38:	2b0b0100 	blcs	2c2240 <_etext+0x2bfb0d>
    1e3c:	00000077 	andeq	r0, r0, r7, ror r0
    1e40:	00709102 	rsbseq	r9, r0, r2, lsl #2
    1e44:	00bf0408 	adcseq	r0, pc, r8, lsl #8
    1e48:	Address 0x00001e48 is out of bounds.


Disassembly of section .debug_abbrev:

00000000 <.debug_abbrev>:
   0:	25011101 	strcs	r1, [r1, #-257]	; 0xfffffeff
   4:	030b130e 	movweq	r1, #45838	; 0xb30e
   8:	550e1b0e 	strpl	r1, [lr, #-2830]	; 0xfffff4f2
   c:	10011117 	andne	r1, r1, r7, lsl r1
  10:	02000017 	andeq	r0, r0, #23
  14:	0b0b0024 	bleq	2c00ac <_etext+0x2bd979>
  18:	0e030b3e 	vmoveq.16	d3[0], r0
  1c:	16030000 	strne	r0, [r3], -r0
  20:	3a0e0300 	bcc	380c28 <_etext+0x37e4f5>
  24:	390b3b0b 	stmdbcc	fp, {r0, r1, r3, r8, r9, fp, ip, sp}
  28:	0013490b 	andseq	r4, r3, fp, lsl #18
  2c:	00240400 	eoreq	r0, r4, r0, lsl #8
  30:	0b3e0b0b 	bleq	f82c64 <_etext+0xf80531>
  34:	00000803 	andeq	r0, r0, r3, lsl #16
  38:	49003505 	stmdbmi	r0, {r0, r2, r8, sl, ip, sp}
  3c:	06000013 			; <UNDEFINED> instruction: 0x06000013
  40:	0b3e0104 	bleq	f80458 <_etext+0xf7dd25>
  44:	13490b0b 	movtne	r0, #39691	; 0x9b0b
  48:	0b3b0b3a 	bleq	ec2d38 <_etext+0xec0605>
  4c:	13010b39 	movwne	r0, #6969	; 0x1b39
  50:	28070000 	stmdacs	r7, {}	; <UNPREDICTABLE>
  54:	1c0e0300 	stcne	3, cr0, [lr], {-0}
  58:	0800000b 	stmdaeq	r0, {r0, r1, r3}
  5c:	0b0b000f 	bleq	2c00a0 <_etext+0x2bd96d>
  60:	00001349 	andeq	r1, r0, r9, asr #6
  64:	00002609 	andeq	r2, r0, r9, lsl #12
  68:	01130a00 	tsteq	r3, r0, lsl #20
  6c:	0b3a0b0b 	bleq	e82ca0 <_etext+0xe8056d>
  70:	0b390b3b 	bleq	e42d64 <_etext+0xe40631>
  74:	00001301 	andeq	r1, r0, r1, lsl #6
  78:	03000d0b 	movweq	r0, #3339	; 0xd0b
  7c:	3b0b3a0e 	blcc	2ce8bc <_etext+0x2cc189>
  80:	490b390b 	stmdbmi	fp, {r0, r1, r3, r8, fp, ip, sp}
  84:	000b3813 	andeq	r3, fp, r3, lsl r8
  88:	00340c00 	eorseq	r0, r4, r0, lsl #24
  8c:	0b3a0e03 	bleq	e838a0 <_etext+0xe8116d>
  90:	0b390b3b 	bleq	e42d84 <_etext+0xe40651>
  94:	193f1349 	ldmdbne	pc!, {r0, r3, r6, r8, r9, ip}	; <UNPREDICTABLE>
  98:	00001802 	andeq	r1, r0, r2, lsl #16
  9c:	4901010d 	stmdbmi	r1, {r0, r2, r3, r8}
  a0:	00130113 	andseq	r0, r3, r3, lsl r1
  a4:	00210e00 	eoreq	r0, r1, r0, lsl #28
  a8:	0b2f1349 	bleq	bc4dd4 <_etext+0xbc26a1>
  ac:	2e0f0000 	cdpcs	0, 0, cr0, cr15, cr0, {0}
  b0:	03193f01 	tsteq	r9, #1, 30
  b4:	3b0b3a0e 	blcc	2ce8f4 <_etext+0x2cc1c1>
  b8:	490b390b 	stmdbmi	fp, {r0, r1, r3, r8, fp, ip, sp}
  bc:	12011113 	andne	r1, r1, #-1073741820	; 0xc0000004
  c0:	96184006 	ldrls	r4, [r8], -r6
  c4:	13011942 	movwne	r1, #6466	; 0x1942
  c8:	34100000 	ldrcc	r0, [r0], #-0
  cc:	3a0e0300 	bcc	380cd4 <_etext+0x37e5a1>
  d0:	390b3b0b 	stmdbcc	fp, {r0, r1, r3, r8, r9, fp, ip, sp}
  d4:	0213490b 	andseq	r4, r3, #180224	; 0x2c000
  d8:	11000018 	tstne	r0, r8, lsl r0
  dc:	193f012e 	ldmdbne	pc!, {r1, r2, r3, r5, r8}	; <UNPREDICTABLE>
  e0:	0b3a0e03 	bleq	e838f4 <_etext+0xe811c1>
  e4:	0b390b3b 	bleq	e42dd8 <_etext+0xe406a5>
  e8:	193c1349 	ldmdbne	ip!, {r0, r3, r6, r8, r9, ip}
  ec:	00001301 	andeq	r1, r0, r1, lsl #6
  f0:	00001812 	andeq	r1, r0, r2, lsl r8
  f4:	012e1300 			; <UNDEFINED> instruction: 0x012e1300
  f8:	0e03193f 			; <UNDEFINED> instruction: 0x0e03193f
  fc:	0b3b0b3a 	bleq	ec2dec <_etext+0xec06b9>
 100:	13490b39 	movtne	r0, #39737	; 0x9b39
 104:	0000193c 	andeq	r1, r0, ip, lsr r9
 108:	3f002e14 	svccc	0x00002e14
 10c:	3a0e0319 	bcc	380d78 <_etext+0x37e645>
 110:	390b3b0b 	stmdbcc	fp, {r0, r1, r3, r8, r9, fp, ip, sp}
 114:	1119270b 	tstne	r9, fp, lsl #14
 118:	40061201 	andmi	r1, r6, r1, lsl #4
 11c:	19429718 	stmdbne	r2, {r3, r4, r8, r9, sl, ip, pc}^
 120:	2e150000 	cdpcs	0, 1, cr0, cr5, cr0, {0}
 124:	03193f00 	tsteq	r9, #0, 30
 128:	3b0b3a0e 	blcc	2ce968 <_etext+0x2cc235>
 12c:	270b390b 	strcs	r3, [fp, -fp, lsl #18]
 130:	12011119 	andne	r1, r1, #1073741830	; 0x40000006
 134:	96184006 	ldrls	r4, [r8], -r6
 138:	00001942 	andeq	r1, r0, r2, asr #18
 13c:	3f002e16 	svccc	0x00002e16
 140:	3a0e0319 	bcc	380dac <_etext+0x37e679>
 144:	390b3b0b 	stmdbcc	fp, {r0, r1, r3, r8, r9, fp, ip, sp}
 148:	1201110b 	andne	r1, r1, #-1073741822	; 0xc0000002
 14c:	96184006 	ldrls	r4, [r8], -r6
 150:	00001942 	andeq	r1, r0, r2, asr #18
 154:	01110100 	tsteq	r1, r0, lsl #2
 158:	0b130e25 	bleq	4c39f4 <_etext+0x4c12c1>
 15c:	0e1b0e03 	cdpeq	14, 1, cr0, cr11, cr3, {0}
 160:	01111755 	tsteq	r1, r5, asr r7
 164:	00001710 	andeq	r1, r0, r0, lsl r7
 168:	0b002402 	bleq	9178 <_etext+0x6a45>
 16c:	030b3e0b 	movweq	r3, #48651	; 0xbe0b
 170:	0300000e 	movweq	r0, #14
 174:	0e030016 	mcreq	0, 0, r0, cr3, cr6, {0}
 178:	0b3b0b3a 	bleq	ec2e68 <_etext+0xec0735>
 17c:	13490b39 	movtne	r0, #39737	; 0x9b39
 180:	24040000 	strcs	r0, [r4], #-0
 184:	3e0b0b00 	vmlacc.f64	d0, d11, d0
 188:	0008030b 	andeq	r0, r8, fp, lsl #6
 18c:	000f0500 	andeq	r0, pc, r0, lsl #10
 190:	13490b0b 	movtne	r0, #39691	; 0x9b0b
 194:	26060000 	strcs	r0, [r6], -r0
 198:	00134900 	andseq	r4, r3, r0, lsl #18
 19c:	00150700 	andseq	r0, r5, r0, lsl #14
 1a0:	00001927 	andeq	r1, r0, r7, lsr #18
 1a4:	49010108 	stmdbmi	r1, {r3, r8}
 1a8:	00130113 	andseq	r0, r3, r3, lsl r1
 1ac:	00210900 	eoreq	r0, r1, r0, lsl #18
 1b0:	0b2f1349 	bleq	bc4edc <_etext+0xbc27a9>
 1b4:	340a0000 	strcc	r0, [sl], #-0
 1b8:	3a0e0300 	bcc	380dc0 <_etext+0x37e68d>
 1bc:	390b3b0b 	stmdbcc	fp, {r0, r1, r3, r8, r9, fp, ip, sp}
 1c0:	0213490b 	andseq	r4, r3, #180224	; 0x2c000
 1c4:	0b000018 	bleq	22c <g_pfnVectors+0x22c>
 1c8:	0e030034 	mcreq	0, 0, r0, cr3, cr4, {1}
 1cc:	0b3b0b3a 	bleq	ec2ebc <_etext+0xec0789>
 1d0:	13490b39 	movtne	r0, #39737	; 0x9b39
 1d4:	1802193f 	stmdane	r2, {r0, r1, r2, r3, r4, r5, r8, fp, ip}
 1d8:	340c0000 	strcc	r0, [ip], #-0
 1dc:	3a0e0300 	bcc	380de4 <_etext+0x37e6b1>
 1e0:	390b3b0b 	stmdbcc	fp, {r0, r1, r3, r8, r9, fp, ip, sp}
 1e4:	3f13490b 	svccc	0x0013490b
 1e8:	00193c19 	andseq	r3, r9, r9, lsl ip
 1ec:	002e0d00 	eoreq	r0, lr, r0, lsl #26
 1f0:	0b3a0e03 	bleq	e83a04 <_etext+0xe812d1>
 1f4:	0b39053b 	bleq	e416e8 <_etext+0xe3efb5>
 1f8:	01111927 	tsteq	r1, r7, lsr #18
 1fc:	18400612 	stmdane	r0, {r1, r4, r9, sl}^
 200:	00194297 	mulseq	r9, r7, r2
 204:	002e0e00 	eoreq	r0, lr, r0, lsl #28
 208:	0b3a0e03 	bleq	e83a1c <_etext+0xe812e9>
 20c:	0b39053b 	bleq	e41700 <_etext+0xe3efcd>
 210:	01111927 	tsteq	r1, r7, lsr #18
 214:	18400612 	stmdane	r0, {r1, r4, r9, sl}^
 218:	00194296 	mulseq	r9, r6, r2
 21c:	012e0f00 			; <UNDEFINED> instruction: 0x012e0f00
 220:	0e03193f 			; <UNDEFINED> instruction: 0x0e03193f
 224:	0b3b0b3a 	bleq	ec2f14 <_etext+0xec07e1>
 228:	19270b39 	stmdbne	r7!, {r0, r3, r4, r5, r8, r9, fp}
 22c:	06120111 			; <UNDEFINED> instruction: 0x06120111
 230:	42961840 	addsmi	r1, r6, #64, 16	; 0x400000
 234:	00130119 	andseq	r0, r3, r9, lsl r1
 238:	11010000 	mrsne	r0, (UNDEF: 1)
 23c:	130e2501 	movwne	r2, #58625	; 0xe501
 240:	1b0e030b 	blne	380e74 <_etext+0x37e741>
 244:	1117550e 	tstne	r7, lr, lsl #10
 248:	00171001 	andseq	r1, r7, r1
 24c:	00160200 	andseq	r0, r6, r0, lsl #4
 250:	0b3a0e03 	bleq	e83a64 <_etext+0xe81331>
 254:	0b390b3b 	bleq	e42f48 <_etext+0xe40815>
 258:	00001349 	andeq	r1, r0, r9, asr #6
 25c:	0b002403 	bleq	9270 <_etext+0x6b3d>
 260:	030b3e0b 	movweq	r3, #48651	; 0xbe0b
 264:	0400000e 	streq	r0, [r0], #-14
 268:	0b0b0024 	bleq	2c0300 <_etext+0x2bdbcd>
 26c:	08030b3e 	stmdaeq	r3, {r1, r2, r3, r4, r5, r8, r9, fp}
 270:	26050000 	strcs	r0, [r5], -r0
 274:	00134900 	andseq	r4, r3, r0, lsl #18
 278:	01130600 	tsteq	r3, r0, lsl #12
 27c:	0b0b0e03 	bleq	2c3a90 <_etext+0x2c135d>
 280:	0b3b0b3a 	bleq	ec2f70 <_etext+0xec083d>
 284:	00001301 	andeq	r1, r0, r1, lsl #6
 288:	03000d07 	movweq	r0, #3335	; 0xd07
 28c:	3813490e 	ldmdacc	r3, {r1, r2, r3, r8, fp, lr}
 290:	0019340b 	andseq	r3, r9, fp, lsl #8
 294:	000f0800 	andeq	r0, pc, r0, lsl #16
 298:	00000b0b 	andeq	r0, r0, fp, lsl #22
 29c:	03003409 	movweq	r3, #1033	; 0x409
 2a0:	3b0b3a0e 	blcc	2ceae0 <_etext+0x2cc3ad>
 2a4:	490b390b 	stmdbmi	fp, {r0, r1, r3, r8, fp, ip, sp}
 2a8:	00180213 	andseq	r0, r8, r3, lsl r2
 2ac:	000f0a00 	andeq	r0, pc, r0, lsl #20
 2b0:	13490b0b 	movtne	r0, #39691	; 0x9b0b
 2b4:	010b0000 	mrseq	r0, (UNDEF: 11)
 2b8:	01134901 	tsteq	r3, r1, lsl #18
 2bc:	0c000013 	stceq	0, cr0, [r0], {19}
 2c0:	13490021 	movtne	r0, #36897	; 0x9021
 2c4:	00000b2f 	andeq	r0, r0, pc, lsr #22
 2c8:	3f012e0d 	svccc	0x00012e0d
 2cc:	3a0e0319 	bcc	380f38 <_etext+0x37e805>
 2d0:	39053b0b 	stmdbcc	r5, {r0, r1, r3, r8, r9, fp, ip, sp}
 2d4:	1119270b 	tstne	r9, fp, lsl #14
 2d8:	40061201 	andmi	r1, r6, r1, lsl #4
 2dc:	19429618 	stmdbne	r2, {r3, r4, r9, sl, ip, pc}^
 2e0:	00001301 	andeq	r1, r0, r1, lsl #6
 2e4:	0300050e 	movweq	r0, #1294	; 0x50e
 2e8:	3b0b3a0e 	blcc	2ceb28 <_etext+0x2cc3f5>
 2ec:	490b3905 	stmdbmi	fp, {r0, r2, r8, fp, ip, sp}
 2f0:	00180213 	andseq	r0, r8, r3, lsl r2
 2f4:	00180f00 	andseq	r0, r8, r0, lsl #30
 2f8:	34100000 	ldrcc	r0, [r0], #-0
 2fc:	3a0e0300 	bcc	380f04 <_etext+0x37e7d1>
 300:	39053b0b 	stmdbcc	r5, {r0, r1, r3, r8, r9, fp, ip, sp}
 304:	0213490b 	andseq	r4, r3, #180224	; 0x2c000
 308:	11000018 	tstne	r0, r8, lsl r0
 30c:	0e03000a 	cdpeq	0, 0, cr0, cr3, cr10, {0}
 310:	053b0b3a 	ldreq	r0, [fp, #-2874]!	; 0xfffff4c6
 314:	01110b39 	tsteq	r1, r9, lsr fp
 318:	2e120000 	cdpcs	0, 1, cr0, cr2, cr0, {0}
 31c:	03193f00 	tsteq	r9, #0, 30
 320:	3b0b3a0e 	blcc	2ceb60 <_etext+0x2cc42d>
 324:	270b3905 	strcs	r3, [fp, -r5, lsl #18]
 328:	11134919 	tstne	r3, r9, lsl r9
 32c:	40061201 	andmi	r1, r6, r1, lsl #4
 330:	19429618 	stmdbne	r2, {r3, r4, r9, sl, ip, pc}^
 334:	2e130000 	cdpcs	0, 1, cr0, cr3, cr0, {0}
 338:	03193f01 	tsteq	r9, #1, 30
 33c:	3b0b3a0e 	blcc	2ceb7c <_etext+0x2cc449>
 340:	270b3905 	strcs	r3, [fp, -r5, lsl #18]
 344:	11134919 	tstne	r3, r9, lsl r9
 348:	40061201 	andmi	r1, r6, r1, lsl #4
 34c:	19429618 	stmdbne	r2, {r3, r4, r9, sl, ip, pc}^
 350:	00001301 	andeq	r1, r0, r1, lsl #6
 354:	3f012e14 	svccc	0x00012e14
 358:	3a0e0319 	bcc	380fc4 <_etext+0x37e891>
 35c:	39053b0b 	stmdbcc	r5, {r0, r1, r3, r8, r9, fp, ip, sp}
 360:	1119270b 	tstne	r9, fp, lsl #14
 364:	40061201 	andmi	r1, r6, r1, lsl #4
 368:	19429618 	stmdbne	r2, {r3, r4, r9, sl, ip, pc}^
 36c:	01000000 	mrseq	r0, (UNDEF: 0)
 370:	0e250111 	mcreq	1, 1, r0, cr5, cr1, {0}
 374:	0e030b13 	vmoveq.32	d3[0], r0
 378:	17550e1b 	smmlane	r5, fp, lr, r0
 37c:	17100111 			; <UNDEFINED> instruction: 0x17100111
 380:	04020000 	streq	r0, [r2], #-0
 384:	3e0e0301 	cdpcc	3, 0, cr0, cr14, cr1, {0}
 388:	490b0b0b 	stmdbmi	fp, {r0, r1, r3, r8, r9, fp}
 38c:	3b0b3a13 	blcc	2cebe0 <_etext+0x2cc4ad>
 390:	010b390b 	tsteq	fp, fp, lsl #18
 394:	03000013 	movweq	r0, #19
 398:	0e030028 	cdpeq	0, 0, cr0, cr3, cr8, {1}
 39c:	00000b1c 	andeq	r0, r0, ip, lsl fp
 3a0:	0b002404 	bleq	93b8 <_etext+0x6c85>
 3a4:	030b3e0b 	movweq	r3, #48651	; 0xbe0b
 3a8:	0500000e 	streq	r0, [r0, #-14]
 3ac:	13490035 	movtne	r0, #36917	; 0x9035
 3b0:	16060000 	strne	r0, [r6], -r0
 3b4:	3a0e0300 	bcc	380fbc <_etext+0x37e889>
 3b8:	390b3b0b 	stmdbcc	fp, {r0, r1, r3, r8, r9, fp, ip, sp}
 3bc:	0013490b 	andseq	r4, r3, fp, lsl #18
 3c0:	01130700 	tsteq	r3, r0, lsl #14
 3c4:	0b3a0b0b 	bleq	e82ff8 <_etext+0xe808c5>
 3c8:	0b390b3b 	bleq	e430bc <_etext+0xe40989>
 3cc:	00001301 	andeq	r1, r0, r1, lsl #6
 3d0:	03000d08 	movweq	r0, #3336	; 0xd08
 3d4:	3b0b3a0e 	blcc	2cec14 <_etext+0x2cc4e1>
 3d8:	490b390b 	stmdbmi	fp, {r0, r1, r3, r8, fp, ip, sp}
 3dc:	000b3813 	andeq	r3, fp, r3, lsl r8
 3e0:	00150900 	andseq	r0, r5, r0, lsl #18
 3e4:	00001927 	andeq	r1, r0, r7, lsr #18
 3e8:	0b000f0a 	bleq	4018 <_etext+0x18e5>
 3ec:	0013490b 	andseq	r4, r3, fp, lsl #18
 3f0:	01150b00 	tsteq	r5, r0, lsl #22
 3f4:	13011927 	movwne	r1, #6439	; 0x1927
 3f8:	050c0000 	streq	r0, [ip, #-0]
 3fc:	00134900 	andseq	r4, r3, r0, lsl #18
 400:	00260d00 	eoreq	r0, r6, r0, lsl #26
 404:	00001349 	andeq	r1, r0, r9, asr #6
 408:	0301130e 	movweq	r1, #4878	; 0x130e
 40c:	3a0b0b0e 	bcc	2c304c <_etext+0x2c0919>
 410:	390b3b0b 	stmdbcc	fp, {r0, r1, r3, r8, r9, fp, ip, sp}
 414:	0013010b 	andseq	r0, r3, fp, lsl #2
 418:	00240f00 	eoreq	r0, r4, r0, lsl #30
 41c:	0b3e0b0b 	bleq	f83050 <_etext+0xf8091d>
 420:	00000803 	andeq	r0, r0, r3, lsl #16
 424:	00002610 	andeq	r2, r0, r0, lsl r6
 428:	01151100 	tsteq	r5, r0, lsl #2
 42c:	13491927 	movtne	r1, #39207	; 0x9927
 430:	00001301 	andeq	r1, r0, r1, lsl #6
 434:	03003412 	movweq	r3, #1042	; 0x412
 438:	3b0b3a0e 	blcc	2cec78 <_etext+0x2cc545>
 43c:	490b390b 	stmdbmi	fp, {r0, r1, r3, r8, fp, ip, sp}
 440:	3c193f13 	ldccc	15, cr3, [r9], {19}
 444:	13000019 	movwne	r0, #25
 448:	13470034 	movtne	r0, #28724	; 0x7034
 44c:	053b0b3a 	ldreq	r0, [fp, #-2874]!	; 0xfffff4c6
 450:	18020b39 	stmdane	r2, {r0, r3, r4, r5, r8, r9, fp}
 454:	2e140000 	cdpcs	0, 1, cr0, cr4, cr0, {0}
 458:	3a0e0301 	bcc	381064 <_etext+0x37e931>
 45c:	39053b0b 	stmdbcc	r5, {r0, r1, r3, r8, r9, fp, ip, sp}
 460:	1119270b 	tstne	r9, fp, lsl #14
 464:	40061201 	andmi	r1, r6, r1, lsl #4
 468:	19429618 	stmdbne	r2, {r3, r4, r9, sl, ip, pc}^
 46c:	00001301 	andeq	r1, r0, r1, lsl #6
 470:	03000515 	movweq	r0, #1301	; 0x515
 474:	3b0b3a0e 	blcc	2cecb4 <_etext+0x2cc581>
 478:	490b3905 	stmdbmi	fp, {r0, r2, r8, fp, ip, sp}
 47c:	00180213 	andseq	r0, r8, r3, lsl r2
 480:	012e1600 			; <UNDEFINED> instruction: 0x012e1600
 484:	0b3a0e03 	bleq	e83c98 <_etext+0xe81565>
 488:	0b39053b 	bleq	e4197c <_etext+0xe3f249>
 48c:	01111927 	tsteq	r1, r7, lsr #18
 490:	18400612 	stmdane	r0, {r1, r4, r9, sl}^
 494:	01194297 			; <UNDEFINED> instruction: 0x01194297
 498:	17000013 	smladne	r0, r3, r0, r0
 49c:	0e03012e 	adfeqsp	f0, f3, #0.5
 4a0:	053b0b3a 	ldreq	r0, [fp, #-2874]!	; 0xfffff4c6
 4a4:	19270b39 	stmdbne	r7!, {r0, r3, r4, r5, r8, r9, fp}
 4a8:	01111349 	tsteq	r1, r9, asr #6
 4ac:	18400612 	stmdane	r0, {r1, r4, r9, sl}^
 4b0:	01194297 			; <UNDEFINED> instruction: 0x01194297
 4b4:	18000013 	stmdane	r0, {r0, r1, r4}
 4b8:	0e030034 	mcreq	0, 0, r0, cr3, cr4, {1}
 4bc:	053b0b3a 	ldreq	r0, [fp, #-2874]!	; 0xfffff4c6
 4c0:	13490b39 	movtne	r0, #39737	; 0x9b39
 4c4:	00001802 	andeq	r1, r0, r2, lsl #16
 4c8:	03002e19 	movweq	r2, #3609	; 0xe19
 4cc:	3b0b3a0e 	blcc	2ced0c <_etext+0x2cc5d9>
 4d0:	270b3905 	strcs	r3, [fp, -r5, lsl #18]
 4d4:	12011119 	andne	r1, r1, #1073741830	; 0x40000006
 4d8:	96184006 	ldrls	r4, [r8], -r6
 4dc:	00001942 	andeq	r1, r0, r2, asr #18
 4e0:	0300051a 	movweq	r0, #1306	; 0x51a
 4e4:	3b0b3a08 	blcc	2ced0c <_etext+0x2cc5d9>
 4e8:	490b3905 	stmdbmi	fp, {r0, r2, r8, fp, ip, sp}
 4ec:	00180213 	andseq	r0, r8, r3, lsl r2
 4f0:	012e1b00 			; <UNDEFINED> instruction: 0x012e1b00
 4f4:	0e03193f 			; <UNDEFINED> instruction: 0x0e03193f
 4f8:	053b0b3a 	ldreq	r0, [fp, #-2874]!	; 0xfffff4c6
 4fc:	19270b39 	stmdbne	r7!, {r0, r3, r4, r5, r8, r9, fp}
 500:	06120111 			; <UNDEFINED> instruction: 0x06120111
 504:	42971840 	addsmi	r1, r7, #64, 16	; 0x400000
 508:	00130119 	andseq	r0, r3, r9, lsl r1
 50c:	00341c00 	eorseq	r1, r4, r0, lsl #24
 510:	0b3a0803 	bleq	e82524 <_etext+0xe7fdf1>
 514:	0b39053b 	bleq	e41a08 <_etext+0xe3f2d5>
 518:	18021349 	stmdane	r2, {r0, r3, r6, r8, r9, ip}
 51c:	0f1d0000 	svceq	0x001d0000
 520:	000b0b00 	andeq	r0, fp, r0, lsl #22
 524:	012e1e00 			; <UNDEFINED> instruction: 0x012e1e00
 528:	0b3a0e03 	bleq	e83d3c <_etext+0xe81609>
 52c:	0b390b3b 	bleq	e43220 <_etext+0xe40aed>
 530:	01111927 	tsteq	r1, r7, lsr #18
 534:	18400612 	stmdane	r0, {r1, r4, r9, sl}^
 538:	01194297 			; <UNDEFINED> instruction: 0x01194297
 53c:	1f000013 	svcne	0x00000013
 540:	0e030005 	cdpeq	0, 0, cr0, cr3, cr5, {0}
 544:	0b3b0b3a 	bleq	ec3234 <_etext+0xec0b01>
 548:	13490b39 	movtne	r0, #39737	; 0x9b39
 54c:	00001802 	andeq	r1, r0, r2, lsl #16
 550:	03003420 	movweq	r3, #1056	; 0x420
 554:	3b0b3a08 	blcc	2ced7c <_etext+0x2cc649>
 558:	490b390b 	stmdbmi	fp, {r0, r1, r3, r8, fp, ip, sp}
 55c:	00180213 	andseq	r0, r8, r3, lsl r2
 560:	00342100 	eorseq	r2, r4, r0, lsl #2
 564:	0b3a0e03 	bleq	e83d78 <_etext+0xe81645>
 568:	0b390b3b 	bleq	e4325c <_etext+0xe40b29>
 56c:	18021349 	stmdane	r2, {r0, r3, r6, r8, r9, ip}
 570:	2e220000 	cdpcs	0, 2, cr0, cr2, cr0, {0}
 574:	3a0e0301 	bcc	381180 <_etext+0x37ea4d>
 578:	390b3b0b 	stmdbcc	fp, {r0, r1, r3, r8, r9, fp, ip, sp}
 57c:	1119270b 	tstne	r9, fp, lsl #14
 580:	40061201 	andmi	r1, r6, r1, lsl #4
 584:	19429618 	stmdbne	r2, {r3, r4, r9, sl, ip, pc}^
 588:	00001301 	andeq	r1, r0, r1, lsl #6
 58c:	03002e23 	movweq	r2, #3619	; 0xe23
 590:	3b0b3a0e 	blcc	2cedd0 <_etext+0x2cc69d>
 594:	270b390b 	strcs	r3, [fp, -fp, lsl #18]
 598:	12011119 	andne	r1, r1, #1073741830	; 0x40000006
 59c:	97184006 	ldrls	r4, [r8, -r6]
 5a0:	00001942 	andeq	r1, r0, r2, asr #18
 5a4:	03012e24 	movweq	r2, #7716	; 0x1e24
 5a8:	3b0b3a0e 	blcc	2cede8 <_etext+0x2cc6b5>
 5ac:	270b390b 	strcs	r3, [fp, -fp, lsl #18]
 5b0:	12011119 	andne	r1, r1, #1073741830	; 0x40000006
 5b4:	97184006 	ldrls	r4, [r8, -r6]
 5b8:	00001942 	andeq	r1, r0, r2, asr #18
 5bc:	01110100 	tsteq	r1, r0, lsl #2
 5c0:	0b130e25 	bleq	4c3e5c <_etext+0x4c1729>
 5c4:	0e1b0e03 	cdpeq	14, 1, cr0, cr11, cr3, {0}
 5c8:	01111755 	tsteq	r1, r5, asr r7
 5cc:	00001710 	andeq	r1, r0, r0, lsl r7
 5d0:	0b002402 	bleq	95e0 <_etext+0x6ead>
 5d4:	030b3e0b 	movweq	r3, #48651	; 0xbe0b
 5d8:	0300000e 	movweq	r0, #14
 5dc:	0e030016 	mcreq	0, 0, r0, cr3, cr6, {0}
 5e0:	0b3b0b3a 	bleq	ec32d0 <_etext+0xec0b9d>
 5e4:	13490b39 	movtne	r0, #39737	; 0x9b39
 5e8:	26040000 	strcs	r0, [r4], -r0
 5ec:	00134900 	andseq	r4, r3, r0, lsl #18
 5f0:	00240500 	eoreq	r0, r4, r0, lsl #10
 5f4:	0b3e0b0b 	bleq	f83228 <_etext+0xf80af5>
 5f8:	00000803 	andeq	r0, r0, r3, lsl #16
 5fc:	03010406 	movweq	r0, #5126	; 0x1406
 600:	0b0b3e0e 	bleq	2cfe40 <_etext+0x2cd70d>
 604:	3a13490b 	bcc	4d2a38 <_etext+0x4d0305>
 608:	390b3b0b 	stmdbcc	fp, {r0, r1, r3, r8, r9, fp, ip, sp}
 60c:	0013010b 	andseq	r0, r3, fp, lsl #2
 610:	00280700 	eoreq	r0, r8, r0, lsl #14
 614:	0b1c0e03 	bleq	703e28 <_etext+0x7016f5>
 618:	13080000 	movwne	r0, #32768	; 0x8000
 61c:	3a0b0b01 	bcc	2c3228 <_etext+0x2c0af5>
 620:	390b3b0b 	stmdbcc	fp, {r0, r1, r3, r8, r9, fp, ip, sp}
 624:	0013010b 	andseq	r0, r3, fp, lsl #2
 628:	000d0900 	andeq	r0, sp, r0, lsl #18
 62c:	0b3a0e03 	bleq	e83e40 <_etext+0xe8170d>
 630:	0b390b3b 	bleq	e43324 <_etext+0xe40bf1>
 634:	0b381349 	bleq	e05360 <_etext+0xe02c2d>
 638:	150a0000 	strne	r0, [sl, #-0]
 63c:	00192700 	andseq	r2, r9, r0, lsl #14
 640:	000f0b00 	andeq	r0, pc, r0, lsl #22
 644:	13490b0b 	movtne	r0, #39691	; 0x9b0b
 648:	150c0000 	strne	r0, [ip, #-0]
 64c:	01192701 	tsteq	r9, r1, lsl #14
 650:	0d000013 	stceq	0, cr0, [r0, #-76]	; 0xffffffb4
 654:	13490005 	movtne	r0, #36869	; 0x9005
 658:	040e0000 	streq	r0, [lr], #-0
 65c:	0b0b3e01 	bleq	2cfe68 <_etext+0x2cd735>
 660:	3a13490b 	bcc	4d2a94 <_etext+0x4d0361>
 664:	390b3b0b 	stmdbcc	fp, {r0, r1, r3, r8, r9, fp, ip, sp}
 668:	0013010b 	andseq	r0, r3, fp, lsl #2
 66c:	01130f00 	tsteq	r3, r0, lsl #30
 670:	0b0b0e03 	bleq	2c3e84 <_etext+0x2c1751>
 674:	0b3b0b3a 	bleq	ec3364 <_etext+0xec0c31>
 678:	13010b39 	movwne	r0, #6969	; 0x1b39
 67c:	26100000 	ldrcs	r0, [r0], -r0
 680:	11000000 	mrsne	r0, (UNDEF: 0)
 684:	19270115 	stmdbne	r7!, {r0, r2, r4, r8}
 688:	13011349 	movwne	r1, #4937	; 0x1349
 68c:	34120000 	ldrcc	r0, [r2], #-0
 690:	3a0e0300 	bcc	381298 <_etext+0x37eb65>
 694:	390b3b0b 	stmdbcc	fp, {r0, r1, r3, r8, r9, fp, ip, sp}
 698:	3f13490b 	svccc	0x0013490b
 69c:	00193c19 	andseq	r3, r9, r9, lsl ip
 6a0:	00341300 	eorseq	r1, r4, r0, lsl #6
 6a4:	0b3a0e03 	bleq	e83eb8 <_etext+0xe81785>
 6a8:	0b390b3b 	bleq	e4339c <_etext+0xe40c69>
 6ac:	193f1349 	ldmdbne	pc!, {r0, r3, r6, r8, r9, ip}	; <UNPREDICTABLE>
 6b0:	00001802 	andeq	r1, r0, r2, lsl #16
 6b4:	03003414 	movweq	r3, #1044	; 0x414
 6b8:	3b0b3a0e 	blcc	2ceef8 <_etext+0x2cc7c5>
 6bc:	490b390b 	stmdbmi	fp, {r0, r1, r3, r8, fp, ip, sp}
 6c0:	00180213 	andseq	r0, r8, r3, lsl r2
 6c4:	00341500 	eorseq	r1, r4, r0, lsl #10
 6c8:	0b3a1347 	bleq	e853ec <_etext+0xe82cb9>
 6cc:	0b390b3b 	bleq	e433c0 <_etext+0xe40c8d>
 6d0:	00001802 	andeq	r1, r0, r2, lsl #16
 6d4:	3f012e16 	svccc	0x00012e16
 6d8:	3a0e0319 	bcc	381344 <_etext+0x37ec11>
 6dc:	39053b0b 	stmdbcc	r5, {r0, r1, r3, r8, r9, fp, ip, sp}
 6e0:	1119270b 	tstne	r9, fp, lsl #14
 6e4:	40061201 	andmi	r1, r6, r1, lsl #4
 6e8:	19429618 	stmdbne	r2, {r3, r4, r9, sl, ip, pc}^
 6ec:	00001301 	andeq	r1, r0, r1, lsl #6
 6f0:	03003417 	movweq	r3, #1047	; 0x417
 6f4:	3b0b3a0e 	blcc	2cef34 <_etext+0x2cc801>
 6f8:	490b3905 	stmdbmi	fp, {r0, r2, r8, fp, ip, sp}
 6fc:	00180213 	andseq	r0, r8, r3, lsl r2
 700:	012e1800 			; <UNDEFINED> instruction: 0x012e1800
 704:	0b3a0e03 	bleq	e83f18 <_etext+0xe817e5>
 708:	0b390b3b 	bleq	e433fc <_etext+0xe40cc9>
 70c:	01111927 	tsteq	r1, r7, lsr #18
 710:	18400612 	stmdane	r0, {r1, r4, r9, sl}^
 714:	01194296 			; <UNDEFINED> instruction: 0x01194296
 718:	19000013 	stmdbne	r0, {r0, r1, r4}
 71c:	0e030005 	cdpeq	0, 0, cr0, cr3, cr5, {0}
 720:	0b3b0b3a 	bleq	ec3410 <_etext+0xec0cdd>
 724:	13490b39 	movtne	r0, #39737	; 0x9b39
 728:	00001802 	andeq	r1, r0, r2, lsl #16
 72c:	0300341a 	movweq	r3, #1050	; 0x41a
 730:	3413490e 	ldrcc	r4, [r3], #-2318	; 0xfffff6f2
 734:	00180219 	andseq	r0, r8, r9, lsl r2
 738:	01011b00 	tsteq	r1, r0, lsl #22
 73c:	13011349 	movwne	r1, #4937	; 0x1349
 740:	211c0000 	tstcs	ip, r0
 744:	2f134900 	svccs	0x00134900
 748:	1d00000b 	stcne	0, cr0, [r0, #-44]	; 0xffffffd4
 74c:	0111010b 	tsteq	r1, fp, lsl #2
 750:	00000612 	andeq	r0, r0, r2, lsl r6
 754:	4900211e 	stmdbmi	r0, {r1, r2, r3, r4, r8, sp}
 758:	00052f13 	andeq	r2, r5, r3, lsl pc
 75c:	012e1f00 			; <UNDEFINED> instruction: 0x012e1f00
 760:	0b3a0e03 	bleq	e83f74 <_etext+0xe81841>
 764:	0b390b3b 	bleq	e43458 <_etext+0xe40d25>
 768:	06120111 			; <UNDEFINED> instruction: 0x06120111
 76c:	42961840 	addsmi	r1, r6, #64, 16	; 0x400000
 770:	00130119 	andseq	r0, r3, r9, lsl r1
 774:	002e2000 	eoreq	r2, lr, r0
 778:	0b3a0e03 	bleq	e83f8c <_etext+0xe81859>
 77c:	0b390b3b 	bleq	e43470 <_etext+0xe40d3d>
 780:	06120111 			; <UNDEFINED> instruction: 0x06120111
 784:	42961840 	addsmi	r1, r6, #64, 16	; 0x400000
 788:	21000019 	tstcs	r0, r9, lsl r0
 78c:	193f002e 	ldmdbne	pc!, {r1, r2, r3, r5}	; <UNPREDICTABLE>
 790:	0b3a0e03 	bleq	e83fa4 <_etext+0xe81871>
 794:	0b390b3b 	bleq	e43488 <_etext+0xe40d55>
 798:	01111927 	tsteq	r1, r7, lsr #18
 79c:	18400612 	stmdane	r0, {r1, r4, r9, sl}^
 7a0:	00194296 	mulseq	r9, r6, r2
 7a4:	012e2200 			; <UNDEFINED> instruction: 0x012e2200
 7a8:	0e03193f 			; <UNDEFINED> instruction: 0x0e03193f
 7ac:	0b3b0b3a 	bleq	ec349c <_etext+0xec0d69>
 7b0:	19270b39 	stmdbne	r7!, {r0, r3, r4, r5, r8, r9, fp}
 7b4:	06120111 			; <UNDEFINED> instruction: 0x06120111
 7b8:	42961840 	addsmi	r1, r6, #64, 16	; 0x400000
 7bc:	00000019 	andeq	r0, r0, r9, lsl r0
 7c0:	25011101 	strcs	r1, [r1, #-257]	; 0xfffffeff
 7c4:	030b130e 	movweq	r1, #45838	; 0xb30e
 7c8:	550e1b0e 	strpl	r1, [lr, #-2830]	; 0xfffff4f2
 7cc:	10011117 	andne	r1, r1, r7, lsl r1
 7d0:	02000017 	andeq	r0, r0, #23
 7d4:	0b0b0024 	bleq	2c086c <_etext+0x2be139>
 7d8:	0e030b3e 	vmoveq.16	d3[0], r0
 7dc:	24030000 	strcs	r0, [r3], #-0
 7e0:	3e0b0b00 	vmlacc.f64	d0, d11, d0
 7e4:	0008030b 	andeq	r0, r8, fp, lsl #6
 7e8:	00160400 	andseq	r0, r6, r0, lsl #8
 7ec:	0b3a0e03 	bleq	e84000 <_etext+0xe818cd>
 7f0:	0b390b3b 	bleq	e434e4 <_etext+0xe40db1>
 7f4:	00001349 	andeq	r1, r0, r9, asr #6
 7f8:	03011305 	movweq	r1, #4869	; 0x1305
 7fc:	3a0b0b0e 	bcc	2c343c <_etext+0x2c0d09>
 800:	010b3b0b 	tsteq	fp, fp, lsl #22
 804:	06000013 			; <UNDEFINED> instruction: 0x06000013
 808:	0e03000d 	cdpeq	0, 0, cr0, cr3, cr13, {0}
 80c:	0b381349 	bleq	e05538 <_etext+0xe02e05>
 810:	00001934 	andeq	r1, r0, r4, lsr r9
 814:	0b000f07 	bleq	4438 <_etext+0x1d05>
 818:	0800000b 	stmdaeq	r0, {r0, r1, r3}
 81c:	0b3e0104 	bleq	f80c34 <_etext+0xf7e501>
 820:	13490b0b 	movtne	r0, #39691	; 0x9b0b
 824:	0b3b0b3a 	bleq	ec3514 <_etext+0xec0de1>
 828:	13010b39 	movwne	r0, #6969	; 0x1b39
 82c:	28090000 	stmdacs	r9, {}	; <UNPREDICTABLE>
 830:	1c0e0300 	stcne	3, cr0, [lr], {-0}
 834:	0a00000b 	beq	868 <UARTvprintf+0x2f0>
 838:	13490026 	movtne	r0, #36902	; 0x9026
 83c:	2e0b0000 	cdpcs	0, 0, cr0, cr11, cr0, {0}
 840:	03193f01 	tsteq	r9, #1, 30
 844:	3b0b3a0e 	blcc	2cf084 <_etext+0x2cc951>
 848:	270b390b 	strcs	r3, [fp, -fp, lsl #18]
 84c:	12011119 	andne	r1, r1, #1073741830	; 0x40000006
 850:	96184006 	ldrls	r4, [r8], -r6
 854:	13011942 	movwne	r1, #6466	; 0x1942
 858:	050c0000 	streq	r0, [ip, #-0]
 85c:	3a0e0300 	bcc	381464 <_etext+0x37ed31>
 860:	390b3b0b 	stmdbcc	fp, {r0, r1, r3, r8, r9, fp, ip, sp}
 864:	0213490b 	andseq	r4, r3, #180224	; 0x2c000
 868:	0d000018 	stceq	0, cr0, [r0, #-96]	; 0xffffffa0
 86c:	00000018 	andeq	r0, r0, r8, lsl r0
 870:	0300340e 	movweq	r3, #1038	; 0x40e
 874:	3b0b3a0e 	blcc	2cf0b4 <_etext+0x2cc981>
 878:	490b390b 	stmdbmi	fp, {r0, r1, r3, r8, fp, ip, sp}
 87c:	00180213 	andseq	r0, r8, r3, lsl r2
 880:	000f0f00 	andeq	r0, pc, r0, lsl #30
 884:	13490b0b 	movtne	r0, #39691	; 0x9b0b
 888:	2e100000 	cdpcs	0, 1, cr0, cr0, cr0, {0}
 88c:	03193f01 	tsteq	r9, #1, 30
 890:	3b0b3a0e 	blcc	2cf0d0 <_etext+0x2cc99d>
 894:	270b390b 	strcs	r3, [fp, -fp, lsl #18]
 898:	11134919 	tstne	r3, r9, lsl r9
 89c:	40061201 	andmi	r1, r6, r1, lsl #4
 8a0:	19429718 	stmdbne	r2, {r3, r4, r8, r9, sl, ip, pc}^
 8a4:	00001301 	andeq	r1, r0, r1, lsl #6
 8a8:	03003411 	movweq	r3, #1041	; 0x411
 8ac:	3b0b3a08 	blcc	2cf0d4 <_etext+0x2cc9a1>
 8b0:	490b390b 	stmdbmi	fp, {r0, r1, r3, r8, fp, ip, sp}
 8b4:	00180213 	andseq	r0, r8, r3, lsl r2
 8b8:	11010000 	mrsne	r0, (UNDEF: 1)
 8bc:	130e2501 	movwne	r2, #58625	; 0xe501
 8c0:	1b0e030b 	blne	3814f4 <_etext+0x37edc1>
 8c4:	1117550e 	tstne	r7, lr, lsl #10
 8c8:	00171001 	andseq	r1, r7, r1
 8cc:	00240200 	eoreq	r0, r4, r0, lsl #4
 8d0:	0b3e0b0b 	bleq	f83504 <_etext+0xf80dd1>
 8d4:	00000e03 	andeq	r0, r0, r3, lsl #28
 8d8:	03001603 	movweq	r1, #1539	; 0x603
 8dc:	3b0b3a0e 	blcc	2cf11c <_etext+0x2cc9e9>
 8e0:	490b390b 	stmdbmi	fp, {r0, r1, r3, r8, fp, ip, sp}
 8e4:	04000013 	streq	r0, [r0], #-19	; 0xffffffed
 8e8:	0b0b0024 	bleq	2c0980 <_etext+0x2be24d>
 8ec:	08030b3e 	stmdaeq	r3, {r1, r2, r3, r4, r5, r8, r9, fp}
 8f0:	13050000 	movwne	r0, #20480	; 0x5000
 8f4:	0b0e0301 	bleq	381500 <_etext+0x37edcd>
 8f8:	3b0b3a0b 	blcc	2cf12c <_etext+0x2cc9f9>
 8fc:	0013010b 	andseq	r0, r3, fp, lsl #2
 900:	000d0600 	andeq	r0, sp, r0, lsl #12
 904:	13490e03 	movtne	r0, #40451	; 0x9e03
 908:	19340b38 	ldmdbne	r4!, {r3, r4, r5, r8, r9, fp}
 90c:	0f070000 	svceq	0x00070000
 910:	000b0b00 	andeq	r0, fp, r0, lsl #22
 914:	000f0800 	andeq	r0, pc, r0, lsl #16
 918:	13490b0b 	movtne	r0, #39691	; 0x9b0b
 91c:	26090000 	strcs	r0, [r9], -r0
 920:	00134900 	andseq	r4, r3, r0, lsl #18
 924:	01040a00 	tsteq	r4, r0, lsl #20
 928:	0b0b0b3e 	bleq	2c3628 <_etext+0x2c0ef5>
 92c:	0b3a1349 	bleq	e85658 <_etext+0xe82f25>
 930:	0b390b3b 	bleq	e43624 <_etext+0xe40ef1>
 934:	13010e6e 	movwne	r0, #7790	; 0x1e6e
 938:	280b0000 	stmdacs	fp, {}	; <UNPREDICTABLE>
 93c:	1c0e0300 	stcne	3, cr0, [lr], {-0}
 940:	0c00000b 	stceq	0, cr0, [r0], {11}
 944:	0e030102 	adfeqs	f0, f3, f2
 948:	0b3a0b0b 	bleq	e8357c <_etext+0xe80e49>
 94c:	0b390b3b 	bleq	e43640 <_etext+0xe40f0d>
 950:	00001301 	andeq	r1, r0, r1, lsl #6
 954:	03000d0d 	movweq	r0, #3341	; 0xd0d
 958:	3b0b3a0e 	blcc	2cf198 <_etext+0x2cca65>
 95c:	490b390b 	stmdbmi	fp, {r0, r1, r3, r8, fp, ip, sp}
 960:	000b3813 	andeq	r3, fp, r3, lsl r8
 964:	012e0e00 			; <UNDEFINED> instruction: 0x012e0e00
 968:	0e03193f 			; <UNDEFINED> instruction: 0x0e03193f
 96c:	0b3b0b3a 	bleq	ec365c <_etext+0xec0f29>
 970:	0e6e0b39 	vmoveq.8	d14[5], r0
 974:	193c0b32 	ldmdbne	ip!, {r1, r4, r5, r8, r9, fp}
 978:	13011364 	movwne	r1, #4964	; 0x1364
 97c:	050f0000 	streq	r0, [pc, #-0]	; 984 <UARTprintf+0x4>
 980:	34134900 	ldrcc	r4, [r3], #-2304	; 0xfffff700
 984:	10000019 	andne	r0, r0, r9, lsl r0
 988:	13490005 	movtne	r0, #36869	; 0x9005
 98c:	2e110000 	cdpcs	0, 1, cr0, cr1, cr0, {0}
 990:	03193f01 	tsteq	r9, #1, 30
 994:	3b0b3a0e 	blcc	2cf1d4 <_etext+0x2ccaa1>
 998:	6e0b390b 	vmlavs.f16	s6, s22, s22	; <UNPREDICTABLE>
 99c:	3213490e 	andscc	r4, r3, #229376	; 0x38000
 9a0:	64193c0b 	ldrvs	r3, [r9], #-3083	; 0xfffff3f5
 9a4:	00130113 	andseq	r0, r3, r3, lsl r1
 9a8:	012e1200 			; <UNDEFINED> instruction: 0x012e1200
 9ac:	0803193f 	stmdaeq	r3, {r0, r1, r2, r3, r4, r5, r8, fp, ip}
 9b0:	0b3b0b3a 	bleq	ec36a0 <_etext+0xec0f6d>
 9b4:	0e6e0b39 	vmoveq.8	d14[5], r0
 9b8:	193c0b32 	ldmdbne	ip!, {r1, r4, r5, r8, r9, fp}
 9bc:	00001364 	andeq	r1, r0, r4, ror #6
 9c0:	00001813 	andeq	r1, r0, r3, lsl r8
 9c4:	00341400 	eorseq	r1, r4, r0, lsl #8
 9c8:	0b3a0e03 	bleq	e841dc <_etext+0xe81aa9>
 9cc:	0b390b3b 	bleq	e436c0 <_etext+0xe40f8d>
 9d0:	193f1349 	ldmdbne	pc!, {r0, r3, r6, r8, r9, ip}	; <UNPREDICTABLE>
 9d4:	0000193c 	andeq	r1, r0, ip, lsr r9
 9d8:	47003415 	smladmi	r0, r5, r4, r3
 9dc:	3b0b3a13 	blcc	2cf230 <_etext+0x2ccafd>
 9e0:	020b390b 	andeq	r3, fp, #180224	; 0x2c000
 9e4:	16000018 			; <UNDEFINED> instruction: 0x16000018
 9e8:	0e03002e 	cdpeq	0, 0, cr0, cr3, cr14, {1}
 9ec:	01111934 	tsteq	r1, r4, lsr r9
 9f0:	18400612 	stmdane	r0, {r1, r4, r9, sl}^
 9f4:	00194296 	mulseq	r9, r6, r2
 9f8:	012e1700 			; <UNDEFINED> instruction: 0x012e1700
 9fc:	19340e03 	ldmdbne	r4!, {r0, r1, r9, sl, fp}
 a00:	06120111 			; <UNDEFINED> instruction: 0x06120111
 a04:	42961840 	addsmi	r1, r6, #64, 16	; 0x400000
 a08:	00130119 	andseq	r0, r3, r9, lsl r1
 a0c:	00051800 	andeq	r1, r5, r0, lsl #16
 a10:	0b3a0e03 	bleq	e84224 <_etext+0xe81af1>
 a14:	0b390b3b 	bleq	e43708 <_etext+0xe40fd5>
 a18:	18021349 	stmdane	r2, {r0, r3, r6, r8, r9, ip}
 a1c:	2e190000 	cdpcs	0, 1, cr0, cr9, cr0, {0}
 a20:	3a134701 	bcc	4d262c <_etext+0x4cfef9>
 a24:	390b3b0b 	stmdbcc	fp, {r0, r1, r3, r8, r9, fp, ip, sp}
 a28:	1113640b 	tstne	r3, fp, lsl #8
 a2c:	40061201 	andmi	r1, r6, r1, lsl #4
 a30:	19429618 	stmdbne	r2, {r3, r4, r9, sl, ip, pc}^
 a34:	00001301 	andeq	r1, r0, r1, lsl #6
 a38:	0300051a 	movweq	r0, #1306	; 0x51a
 a3c:	3413490e 	ldrcc	r4, [r3], #-2318	; 0xfffff6f2
 a40:	00180219 	andseq	r0, r8, r9, lsl r2
 a44:	00341b00 	eorseq	r1, r4, r0, lsl #22
 a48:	0b3a0e03 	bleq	e8425c <_etext+0xe81b29>
 a4c:	0b390b3b 	bleq	e43740 <_etext+0xe4100d>
 a50:	18021349 	stmdane	r2, {r0, r3, r6, r8, r9, ip}
 a54:	2e1c0000 	cdpcs	0, 1, cr0, cr12, cr0, {0}
 a58:	3a134701 	bcc	4d2664 <_etext+0x4cff31>
 a5c:	390b3b0b 	stmdbcc	fp, {r0, r1, r3, r8, r9, fp, ip, sp}
 a60:	1113640b 	tstne	r3, fp, lsl #8
 a64:	40061201 	andmi	r1, r6, r1, lsl #4
 a68:	19429718 	stmdbne	r2, {r3, r4, r8, r9, sl, ip, pc}^
 a6c:	00001301 	andeq	r1, r0, r1, lsl #6
 a70:	47012e1d 	smladmi	r1, sp, lr, r2
 a74:	3b0b3a13 	blcc	2cf2c8 <_etext+0x2ccb95>
 a78:	640b390b 	strvs	r3, [fp], #-2315	; 0xfffff6f5
 a7c:	010b2013 	tsteq	fp, r3, lsl r0
 a80:	1e000013 	mcrne	0, 0, r0, cr0, cr3, {0}
 a84:	0e030005 	cdpeq	0, 0, cr0, cr3, cr5, {0}
 a88:	19341349 	ldmdbne	r4!, {r0, r3, r6, r8, r9, ip}
 a8c:	2e1f0000 	cdpcs	0, 1, cr0, cr15, cr0, {0}
 a90:	6e133101 	mufvss	f3, f3, f1
 a94:	1113640e 	tstne	r3, lr, lsl #8
 a98:	40061201 	andmi	r1, r6, r1, lsl #4
 a9c:	19429718 	stmdbne	r2, {r3, r4, r8, r9, sl, ip, pc}^
 aa0:	00001301 	andeq	r1, r0, r1, lsl #6
 aa4:	31000520 	tstcc	r0, r0, lsr #10
 aa8:	00180213 	andseq	r0, r8, r3, lsl r2
 aac:	012e2100 			; <UNDEFINED> instruction: 0x012e2100
 ab0:	0b3a0e03 	bleq	e842c4 <_etext+0xe81b91>
 ab4:	0b390b3b 	bleq	e437a8 <_etext+0xe41075>
 ab8:	01111349 	tsteq	r1, r9, asr #6
 abc:	18400612 	stmdane	r0, {r1, r4, r9, sl}^
 ac0:	01194297 			; <UNDEFINED> instruction: 0x01194297
 ac4:	22000013 	andcs	r0, r0, #19
 ac8:	193f012e 	ldmdbne	pc!, {r1, r2, r3, r5, r8}	; <UNPREDICTABLE>
 acc:	0b3a0e03 	bleq	e842e0 <_etext+0xe81bad>
 ad0:	0b390b3b 	bleq	e437c4 <_etext+0xe41091>
 ad4:	06120111 			; <UNDEFINED> instruction: 0x06120111
 ad8:	42961840 	addsmi	r1, r6, #64, 16	; 0x400000
 adc:	00130119 	andseq	r0, r3, r9, lsl r1
	...

Disassembly of section .debug_aranges:

00000000 <.debug_aranges>:
   0:	0000004c 	andeq	r0, r0, ip, asr #32
   4:	00000002 	andeq	r0, r0, r2
   8:	00040000 	andeq	r0, r4, r0
   c:	00000000 	andeq	r0, r0, r0
  10:	0000026c 	andeq	r0, r0, ip, ror #4
  14:	0000000e 	andeq	r0, r0, lr
  18:	00000000 	andeq	r0, r0, r0
  1c:	00000028 	andeq	r0, r0, r8, lsr #32
  20:	0000027a 	andeq	r0, r0, sl, ror r2
  24:	0000000c 	andeq	r0, r0, ip
  28:	00000288 	andeq	r0, r0, r8, lsl #5
  2c:	00000054 	andeq	r0, r0, r4, asr r0
  30:	00000000 	andeq	r0, r0, r0
  34:	00000014 	andeq	r0, r0, r4, lsl r0
  38:	000002dc 	ldrdeq	r0, [r0], -ip
  3c:	00000040 	andeq	r0, r0, r0, asr #32
  40:	0000031c 	andeq	r0, r0, ip, lsl r3
  44:	0000009c 	muleq	r0, ip, r0
	...
  50:	00000034 	andeq	r0, r0, r4, lsr r0
  54:	02b80002 	adcseq	r0, r8, #2
  58:	00040000 	andeq	r0, r4, r0
  5c:	00000000 	andeq	r0, r0, r0
  60:	000003b8 			; <UNDEFINED> instruction: 0x000003b8
  64:	00000064 	andeq	r0, r0, r4, rrx
  68:	00000424 	andeq	r0, r0, r4, lsr #8
  6c:	00000006 	andeq	r0, r0, r6
  70:	0000042c 	andeq	r0, r0, ip, lsr #8
  74:	00000024 	andeq	r0, r0, r4, lsr #32
  78:	00000450 	andeq	r0, r0, r0, asr r4
  7c:	00000006 	andeq	r0, r0, r6
	...
  88:	00000044 	andeq	r0, r0, r4, asr #32
  8c:	04300002 	ldrteq	r0, [r0], #-2
  90:	00040000 	andeq	r0, r4, r0
  94:	00000000 	andeq	r0, r0, r0
  98:	00000458 	andeq	r0, r0, r8, asr r4
  9c:	00000090 	muleq	r0, r0, r0
  a0:	000004e8 	andeq	r0, r0, r8, ror #9
  a4:	00000090 	muleq	r0, r0, r0
  a8:	00000000 	andeq	r0, r0, r0
  ac:	00000114 	andeq	r0, r0, r4, lsl r1
  b0:	00000000 	andeq	r0, r0, r0
  b4:	0000001c 	andeq	r0, r0, ip, lsl r0
  b8:	00000578 	andeq	r0, r0, r8, ror r5
  bc:	00000408 	andeq	r0, r0, r8, lsl #8
  c0:	00000980 	andeq	r0, r0, r0, lsl #19
  c4:	00000024 	andeq	r0, r0, r4, lsr #32
	...
  d0:	000000e4 	andeq	r0, r0, r4, ror #1
  d4:	07d50002 	ldrbeq	r0, [r5, r2]
  d8:	00040000 	andeq	r0, r4, r0
  dc:	00000000 	andeq	r0, r0, r0
  e0:	00000ee8 	andeq	r0, r0, r8, ror #29
  e4:	000000ac 	andeq	r0, r0, ip, lsr #1
  e8:	00000f94 	muleq	r0, r4, pc	; <UNPREDICTABLE>
  ec:	00000020 	andeq	r0, r0, r0, lsr #32
  f0:	00000fb4 			; <UNDEFINED> instruction: 0x00000fb4
  f4:	00000020 	andeq	r0, r0, r0, lsr #32
  f8:	00000fd4 	ldrdeq	r0, [r0], -r4
  fc:	00000020 	andeq	r0, r0, r0, lsr #32
 100:	00000ff4 	strdeq	r0, [r0], -r4
 104:	00000054 	andeq	r0, r0, r4, asr r0
 108:	00001048 	andeq	r1, r0, r8, asr #32
 10c:	00000090 	muleq	r0, r0, r0
 110:	000010d8 	ldrdeq	r1, [r0], -r8
 114:	00000038 	andeq	r0, r0, r8, lsr r0
 118:	00001110 	andeq	r1, r0, r0, lsl r1
 11c:	00000034 	andeq	r0, r0, r4, lsr r0
 120:	00001144 	andeq	r1, r0, r4, asr #2
 124:	00000020 	andeq	r0, r0, r0, lsr #32
 128:	00000000 	andeq	r0, r0, r0
 12c:	00000060 	andeq	r0, r0, r0, rrx
 130:	00001164 	andeq	r1, r0, r4, ror #2
 134:	00000060 	andeq	r0, r0, r0, rrx
 138:	000011c4 	andeq	r1, r0, r4, asr #3
 13c:	00000060 	andeq	r0, r0, r0, rrx
 140:	00001224 	andeq	r1, r0, r4, lsr #4
 144:	00000140 	andeq	r0, r0, r0, asr #2
 148:	00001364 	andeq	r1, r0, r4, ror #6
 14c:	00000074 	andeq	r0, r0, r4, ror r0
 150:	000013d8 	ldrdeq	r1, [r0], -r8
 154:	0000006c 	andeq	r0, r0, ip, rrx
 158:	00001444 	andeq	r1, r0, r4, asr #8
 15c:	0000005c 	andeq	r0, r0, ip, asr r0
 160:	000014a0 	andeq	r1, r0, r0, lsr #9
 164:	0000005c 	andeq	r0, r0, ip, asr r0
 168:	00000000 	andeq	r0, r0, r0
 16c:	0000002a 	andeq	r0, r0, sl, lsr #32
 170:	000014fc 	strdeq	r1, [r0], -ip
 174:	0000004c 	andeq	r0, r0, ip, asr #32
 178:	00001548 	andeq	r1, r0, r8, asr #10
 17c:	00000040 	andeq	r0, r0, r0, asr #32
 180:	00001588 	andeq	r1, r0, r8, lsl #11
 184:	0000008c 	andeq	r0, r0, ip, lsl #1
 188:	00001614 	andeq	r1, r0, r4, lsl r6
 18c:	00000014 	andeq	r0, r0, r4, lsl r0
 190:	00001628 	andeq	r1, r0, r8, lsr #12
 194:	00000016 	andeq	r0, r0, r6, lsl r0
 198:	00001640 	andeq	r1, r0, r0, asr #12
 19c:	000000c0 	andeq	r0, r0, r0, asr #1
 1a0:	00001700 	andeq	r1, r0, r0, lsl #14
 1a4:	00000060 	andeq	r0, r0, r0, rrx
 1a8:	00001760 	andeq	r1, r0, r0, ror #14
 1ac:	0000008c 	andeq	r0, r0, ip, lsl #1
	...
 1b8:	00000074 	andeq	r0, r0, r4, ror r0
 1bc:	10420002 	subne	r0, r2, r2
 1c0:	00040000 	andeq	r0, r4, r0
 1c4:	00000000 	andeq	r0, r0, r0
 1c8:	000017ec 	andeq	r1, r0, ip, ror #15
 1cc:	00000030 	andeq	r0, r0, r0, lsr r0
 1d0:	00000000 	andeq	r0, r0, r0
 1d4:	00000014 	andeq	r0, r0, r4, lsl r0
 1d8:	00000000 	andeq	r0, r0, r0
 1dc:	00000014 	andeq	r0, r0, r4, lsl r0
 1e0:	0000181c 	andeq	r1, r0, ip, lsl r8
 1e4:	000001f8 	strdeq	r0, [r0], -r8
 1e8:	00001a14 	andeq	r1, r0, r4, lsl sl
 1ec:	0000004c 	andeq	r0, r0, ip, asr #32
 1f0:	00001a60 	andeq	r1, r0, r0, ror #20
 1f4:	000000c0 	andeq	r0, r0, r0, asr #1
 1f8:	00001b20 	andeq	r1, r0, r0, lsr #22
 1fc:	00000034 	andeq	r0, r0, r4, lsr r0
 200:	00001b54 	andeq	r1, r0, r4, asr fp
 204:	00000158 	andeq	r0, r0, r8, asr r1
 208:	00001cac 	andeq	r1, r0, ip, lsr #25
 20c:	00000030 	andeq	r0, r0, r0, lsr r0
 210:	00001cdc 	ldrdeq	r1, [r0], -ip
 214:	00000058 	andeq	r0, r0, r8, asr r0
 218:	00001d34 	andeq	r1, r0, r4, lsr sp
 21c:	000000d8 	ldrdeq	r0, [r0], -r8
 220:	00001e0c 	andeq	r1, r0, ip, lsl #28
 224:	0000002c 	andeq	r0, r0, ip, lsr #32
	...
 230:	0000003c 	andeq	r0, r0, ip, lsr r0
 234:	19170002 	ldmdbne	r7, {r1}
 238:	00040000 	andeq	r0, r4, r0
 23c:	00000000 	andeq	r0, r0, r0
 240:	00001e38 	andeq	r1, r0, r8, lsr lr
 244:	00000054 	andeq	r0, r0, r4, asr r0
 248:	00001e8c 	andeq	r1, r0, ip, lsl #29
 24c:	00000048 	andeq	r0, r0, r8, asr #32
 250:	00001ed4 	ldrdeq	r1, [r0], -r4
 254:	00000044 	andeq	r0, r0, r4, asr #32
 258:	00000000 	andeq	r0, r0, r0
 25c:	00000044 	andeq	r0, r0, r4, asr #32
 260:	00001f18 	andeq	r1, r0, r8, lsl pc
 264:	00000044 	andeq	r0, r0, r4, asr #32
	...
 270:	0000004c 	andeq	r0, r0, ip, asr #32
 274:	1b200002 	blne	800284 <_etext+0x7fdb51>
 278:	00040000 	andeq	r0, r4, r0
 27c:	00000000 	andeq	r0, r0, r0
 280:	00001f5c 	andeq	r1, r0, ip, asr pc
 284:	00000020 	andeq	r0, r0, r0, lsr #32
 288:	00000000 	andeq	r0, r0, r0
 28c:	00000074 	andeq	r0, r0, r4, ror r0
 290:	00000000 	andeq	r0, r0, r0
 294:	0000001c 	andeq	r0, r0, ip, lsl r0
 298:	00000000 	andeq	r0, r0, r0
 29c:	00000024 	andeq	r0, r0, r4, lsr #32
 2a0:	00000000 	andeq	r0, r0, r0
 2a4:	00000088 	andeq	r0, r0, r8, lsl #1
 2a8:	00000000 	andeq	r0, r0, r0
 2ac:	0000002c 	andeq	r0, r0, ip, lsr #32
 2b0:	00000000 	andeq	r0, r0, r0
 2b4:	00000010 	andeq	r0, r0, r0, lsl r0
	...

Disassembly of section .debug_ranges:

00000000 <.debug_ranges>:
   0:	0000026c 	andeq	r0, r0, ip, ror #4
   4:	0000027a 	andeq	r0, r0, sl, ror r2
   8:	00000001 	andeq	r0, r0, r1
   c:	00000001 	andeq	r0, r0, r1
  10:	0000027a 	andeq	r0, r0, sl, ror r2
  14:	00000286 	andeq	r0, r0, r6, lsl #5
  18:	00000288 	andeq	r0, r0, r8, lsl #5
  1c:	000002dc 	ldrdeq	r0, [r0], -ip
  20:	00000001 	andeq	r0, r0, r1
  24:	00000001 	andeq	r0, r0, r1
  28:	000002dc 	ldrdeq	r0, [r0], -ip
  2c:	0000031c 	andeq	r0, r0, ip, lsl r3
  30:	0000031c 	andeq	r0, r0, ip, lsl r3
  34:	000003b8 			; <UNDEFINED> instruction: 0x000003b8
	...
  40:	000003b8 			; <UNDEFINED> instruction: 0x000003b8
  44:	0000041c 	andeq	r0, r0, ip, lsl r4
  48:	00000424 	andeq	r0, r0, r4, lsr #8
  4c:	0000042a 	andeq	r0, r0, sl, lsr #8
  50:	0000042c 	andeq	r0, r0, ip, lsr #8
  54:	00000450 	andeq	r0, r0, r0, asr r4
  58:	00000450 	andeq	r0, r0, r0, asr r4
  5c:	00000456 	andeq	r0, r0, r6, asr r4
	...
  68:	00000458 	andeq	r0, r0, r8, asr r4
  6c:	000004e8 	andeq	r0, r0, r8, ror #9
  70:	000004e8 	andeq	r0, r0, r8, ror #9
  74:	00000578 	andeq	r0, r0, r8, ror r5
  78:	00000001 	andeq	r0, r0, r1
  7c:	00000001 	andeq	r0, r0, r1
  80:	00000001 	andeq	r0, r0, r1
  84:	00000001 	andeq	r0, r0, r1
  88:	00000578 	andeq	r0, r0, r8, ror r5
  8c:	00000980 	andeq	r0, r0, r0, lsl #19
  90:	00000980 	andeq	r0, r0, r0, lsl #19
  94:	000009a4 	andeq	r0, r0, r4, lsr #19
	...
  a0:	00000ee8 	andeq	r0, r0, r8, ror #29
  a4:	00000f94 	muleq	r0, r4, pc	; <UNPREDICTABLE>
  a8:	00000f94 	muleq	r0, r4, pc	; <UNPREDICTABLE>
  ac:	00000fb4 			; <UNDEFINED> instruction: 0x00000fb4
  b0:	00000fb4 			; <UNDEFINED> instruction: 0x00000fb4
  b4:	00000fd4 	ldrdeq	r0, [r0], -r4
  b8:	00000fd4 	ldrdeq	r0, [r0], -r4
  bc:	00000ff4 	strdeq	r0, [r0], -r4
  c0:	00000ff4 	strdeq	r0, [r0], -r4
  c4:	00001048 	andeq	r1, r0, r8, asr #32
  c8:	00001048 	andeq	r1, r0, r8, asr #32
  cc:	000010d8 	ldrdeq	r1, [r0], -r8
  d0:	000010d8 	ldrdeq	r1, [r0], -r8
  d4:	00001110 	andeq	r1, r0, r0, lsl r1
  d8:	00001110 	andeq	r1, r0, r0, lsl r1
  dc:	00001144 	andeq	r1, r0, r4, asr #2
  e0:	00001144 	andeq	r1, r0, r4, asr #2
  e4:	00001164 	andeq	r1, r0, r4, ror #2
  e8:	00000001 	andeq	r0, r0, r1
  ec:	00000001 	andeq	r0, r0, r1
  f0:	00001164 	andeq	r1, r0, r4, ror #2
  f4:	000011c4 	andeq	r1, r0, r4, asr #3
  f8:	000011c4 	andeq	r1, r0, r4, asr #3
  fc:	00001224 	andeq	r1, r0, r4, lsr #4
 100:	00001224 	andeq	r1, r0, r4, lsr #4
 104:	00001364 	andeq	r1, r0, r4, ror #6
 108:	00001364 	andeq	r1, r0, r4, ror #6
 10c:	000013d8 	ldrdeq	r1, [r0], -r8
 110:	000013d8 	ldrdeq	r1, [r0], -r8
 114:	00001444 	andeq	r1, r0, r4, asr #8
 118:	00001444 	andeq	r1, r0, r4, asr #8
 11c:	000014a0 	andeq	r1, r0, r0, lsr #9
 120:	000014a0 	andeq	r1, r0, r0, lsr #9
 124:	000014fc 	strdeq	r1, [r0], -ip
 128:	00000001 	andeq	r0, r0, r1
 12c:	00000001 	andeq	r0, r0, r1
 130:	000014fc 	strdeq	r1, [r0], -ip
 134:	00001548 	andeq	r1, r0, r8, asr #10
 138:	00001548 	andeq	r1, r0, r8, asr #10
 13c:	00001588 	andeq	r1, r0, r8, lsl #11
 140:	00001588 	andeq	r1, r0, r8, lsl #11
 144:	00001614 	andeq	r1, r0, r4, lsl r6
 148:	00001614 	andeq	r1, r0, r4, lsl r6
 14c:	00001628 	andeq	r1, r0, r8, lsr #12
 150:	00001628 	andeq	r1, r0, r8, lsr #12
 154:	0000163e 	andeq	r1, r0, lr, lsr r6
 158:	00001640 	andeq	r1, r0, r0, asr #12
 15c:	00001700 	andeq	r1, r0, r0, lsl #14
 160:	00001700 	andeq	r1, r0, r0, lsl #14
 164:	00001760 	andeq	r1, r0, r0, ror #14
 168:	00001760 	andeq	r1, r0, r0, ror #14
 16c:	000017ec 	andeq	r1, r0, ip, ror #15
	...
 178:	000017ec 	andeq	r1, r0, ip, ror #15
 17c:	0000181c 	andeq	r1, r0, ip, lsl r8
 180:	00000001 	andeq	r0, r0, r1
 184:	00000001 	andeq	r0, r0, r1
 188:	00000001 	andeq	r0, r0, r1
 18c:	00000001 	andeq	r0, r0, r1
 190:	0000181c 	andeq	r1, r0, ip, lsl r8
 194:	00001a14 	andeq	r1, r0, r4, lsl sl
 198:	00001a14 	andeq	r1, r0, r4, lsl sl
 19c:	00001a60 	andeq	r1, r0, r0, ror #20
 1a0:	00001a60 	andeq	r1, r0, r0, ror #20
 1a4:	00001b20 	andeq	r1, r0, r0, lsr #22
 1a8:	00001b20 	andeq	r1, r0, r0, lsr #22
 1ac:	00001b54 	andeq	r1, r0, r4, asr fp
 1b0:	00001b54 	andeq	r1, r0, r4, asr fp
 1b4:	00001cac 	andeq	r1, r0, ip, lsr #25
 1b8:	00001cac 	andeq	r1, r0, ip, lsr #25
 1bc:	00001cdc 	ldrdeq	r1, [r0], -ip
 1c0:	00001cdc 	ldrdeq	r1, [r0], -ip
 1c4:	00001d34 	andeq	r1, r0, r4, lsr sp
 1c8:	00001d34 	andeq	r1, r0, r4, lsr sp
 1cc:	00001e0c 	andeq	r1, r0, ip, lsl #28
 1d0:	00001e0c 	andeq	r1, r0, ip, lsl #28
 1d4:	00001e38 	andeq	r1, r0, r8, lsr lr
	...
 1e0:	00001e38 	andeq	r1, r0, r8, lsr lr
 1e4:	00001e8c 	andeq	r1, r0, ip, lsl #29
 1e8:	00001e8c 	andeq	r1, r0, ip, lsl #29
 1ec:	00001ed4 	ldrdeq	r1, [r0], -r4
 1f0:	00001ed4 	ldrdeq	r1, [r0], -r4
 1f4:	00001f18 	andeq	r1, r0, r8, lsl pc
 1f8:	00000001 	andeq	r0, r0, r1
 1fc:	00000001 	andeq	r0, r0, r1
 200:	00001f18 	andeq	r1, r0, r8, lsl pc
 204:	00001f5c 	andeq	r1, r0, ip, asr pc
	...
 210:	00001f5c 	andeq	r1, r0, ip, asr pc
 214:	00001f7c 	andeq	r1, r0, ip, ror pc
 218:	00000001 	andeq	r0, r0, r1
 21c:	00000001 	andeq	r0, r0, r1
 220:	00000001 	andeq	r0, r0, r1
 224:	00000001 	andeq	r0, r0, r1
 228:	00000001 	andeq	r0, r0, r1
 22c:	00000001 	andeq	r0, r0, r1
 230:	00000001 	andeq	r0, r0, r1
 234:	00000001 	andeq	r0, r0, r1
 238:	00000001 	andeq	r0, r0, r1
 23c:	00000001 	andeq	r0, r0, r1
 240:	00000001 	andeq	r0, r0, r1
 244:	00000001 	andeq	r0, r0, r1
	...

Disassembly of section .debug_line:

00000000 <.debug_line>:
       0:	000001d2 	ldrdeq	r0, [r0], -r2
       4:	00f70003 	rscseq	r0, r7, r3
       8:	01020000 	mrseq	r0, (UNDEF: 2)
       c:	000d0efb 	strdeq	r0, [sp], -fp
      10:	01010101 	tsteq	r1, r1, lsl #2
      14:	01000000 	mrseq	r0, (UNDEF: 0)
      18:	64010000 	strvs	r0, [r1], #-0
      1c:	63675c3a 	cmnvs	r7, #14848	; 0x3a00
      20:	72612d63 	rsbvc	r2, r1, #6336	; 0x18c0
      24:	6f6e2d6d 	svcvs	0x006e2d6d
      28:	652d656e 	strvs	r6, [sp, #-1390]!	; 0xfffffa92
      2c:	2d696261 	sfmcs	f6, 2, [r9, #-388]!	; 0xfffffe7c
      30:	322d3031 	eorcc	r3, sp, #49	; 0x31
      34:	2d303230 	lfmcs	f3, 4, [r0, #-192]!	; 0xffffff40
      38:	6d2d3471 	cfstrsvs	mvf3, [sp, #-452]!	; 0xfffffe3c
      3c:	726f6a61 	rsbvc	r6, pc, #397312	; 0x61000
      40:	6d72615c 	ldfvse	f6, [r2, #-368]!	; 0xfffffe90
      44:	6e6f6e2d 	cdpvs	14, 6, cr6, cr15, cr13, {1}
      48:	61652d65 	cmnvs	r5, r5, ror #26
      4c:	695c6962 	ldmdbvs	ip, {r1, r5, r6, r8, fp, sp, lr}^
      50:	756c636e 	strbvc	r6, [ip, #-878]!	; 0xfffffc92
      54:	6d5c6564 	cfldr64vs	mvdx6, [ip, #-400]	; 0xfffffe70
      58:	69686361 	stmdbvs	r8!, {r0, r5, r6, r8, r9, sp, lr}^
      5c:	6400656e 	strvs	r6, [r0], #-1390	; 0xfffffa92
      60:	63675c3a 	cmnvs	r7, #14848	; 0x3a00
      64:	72612d63 	rsbvc	r2, r1, #6336	; 0x18c0
      68:	6f6e2d6d 	svcvs	0x006e2d6d
      6c:	652d656e 	strvs	r6, [sp, #-1390]!	; 0xfffffa92
      70:	2d696261 	sfmcs	f6, 2, [r9, #-388]!	; 0xfffffe7c
      74:	322d3031 	eorcc	r3, sp, #49	; 0x31
      78:	2d303230 	lfmcs	f3, 4, [r0, #-192]!	; 0xffffff40
      7c:	6d2d3471 	cfstrsvs	mvf3, [sp, #-452]!	; 0xfffffe3c
      80:	726f6a61 	rsbvc	r6, pc, #397312	; 0x61000
      84:	6d72615c 	ldfvse	f6, [r2, #-368]!	; 0xfffffe90
      88:	6e6f6e2d 	cdpvs	14, 6, cr6, cr15, cr13, {1}
      8c:	61652d65 	cmnvs	r5, r5, ror #26
      90:	695c6962 	ldmdbvs	ip, {r1, r5, r6, r8, fp, sp, lr}^
      94:	756c636e 	strbvc	r6, [ip, #-878]!	; 0xfffffc92
      98:	735c6564 	cmpvc	ip, #100, 10	; 0x19000000
      9c:	2e007379 	mcrcs	3, 0, r7, cr0, cr9, {3}
      a0:	2e2e2f2e 	cdpcs	15, 2, cr2, cr14, cr14, {1}
      a4:	6372732f 	cmnvs	r2, #-1140850688	; 0xbc000000
      a8:	434e492f 	movtmi	r4, #59695	; 0xe92f
      ac:	6273752f 	rsbsvs	r7, r3, #197132288	; 0xbc00000
      b0:	616d0000 	cmnvs	sp, r0
      b4:	632e6e69 			; <UNDEFINED> instruction: 0x632e6e69
      b8:	00000000 	andeq	r0, r0, r0
      bc:	6665645f 			; <UNDEFINED> instruction: 0x6665645f
      c0:	746c7561 	strbtvc	r7, [ip], #-1377	; 0xfffffa9f
      c4:	7079745f 	rsbsvc	r7, r9, pc, asr r4
      c8:	682e7365 	stmdavs	lr!, {r0, r2, r5, r6, r8, r9, ip, sp, lr}
      cc:	00000100 	andeq	r0, r0, r0, lsl #2
      d0:	6474735f 	ldrbtvs	r7, [r4], #-863	; 0xfffffca1
      d4:	2e746e69 	cdpcs	14, 7, cr6, cr4, cr9, {3}
      d8:	00020068 	andeq	r0, r2, r8, rrx
      dc:	62737500 	rsbsvs	r7, r3, #0, 10
      e0:	6174735f 	cmnvs	r4, pc, asr r3
      e4:	7261646e 	rsbvc	r6, r1, #1845493760	; 0x6e000000
      e8:	682e7364 	stmdavs	lr!, {r2, r5, r6, r8, r9, ip, sp, lr}
      ec:	00000300 	andeq	r0, r0, r0, lsl #6
      f0:	5f627375 	svcpl	0x00627375
      f4:	69766564 	ldmdbvs	r6!, {r2, r5, r6, r8, sl, sp, lr}^
      f8:	682e6563 	stmdavs	lr!, {r0, r1, r5, r6, r8, sl, sp, lr}
      fc:	00000300 	andeq	r0, r0, r0, lsl #6
     100:	001b0500 	andseq	r0, fp, r0, lsl #10
     104:	026c0205 	rsbeq	r0, ip, #1342177280	; 0x50000000
     108:	1d030000 	stcne	0, cr0, [r3, #-0]
     10c:	2f010501 	svccs	0x00010501
     110:	01000502 	tsteq	r0, r2, lsl #10
     114:	00010501 	andeq	r0, r1, r1, lsl #10
     118:	00000205 	andeq	r0, r0, r5, lsl #4
     11c:	24030000 	strcs	r0, [r3], #-0
     120:	32120501 	andscc	r0, r2, #4194304	; 0x400000
     124:	05590505 	ldrbeq	r0, [r9, #-1285]	; 0xfffffafb
     128:	07026701 	streq	r6, [r2, -r1, lsl #14]
     12c:	05010100 	streq	r0, [r1, #-256]	; 0xffffff00
     130:	02050016 	andeq	r0, r5, #22
     134:	0000027a 	andeq	r0, r0, sl, ror r2
     138:	05012d03 	streq	r2, [r1, #-3331]	; 0xfffff2fd
     13c:	01052f05 	tsteq	r5, r5, lsl #30
     140:	0002022f 	andeq	r0, r2, pc, lsr #4
     144:	01050101 	tsteq	r5, r1, lsl #2
     148:	88020500 	stmdahi	r2, {r8, sl}
     14c:	03000002 	movweq	r0, #2
     150:	05050133 	streq	r0, [r5, #-307]	; 0xfffffecd
     154:	4b3d3d2f 	blmi	f4f618 <_etext+0xf4cee5>
     158:	055a4b3d 	ldrbeq	r4, [sl, #-2877]	; 0xfffff4c3
     15c:	09029101 	stmdbeq	r2, {r0, r8, ip, pc}
     160:	05010100 	streq	r0, [r1, #-256]	; 0xffffff00
     164:	02050001 	andeq	r0, r5, #1
     168:	00000000 	andeq	r0, r0, r0
     16c:	05013f03 	streq	r3, [r1, #-3843]	; 0xfffff0fd
     170:	01052f05 	tsteq	r5, r5, lsl #30
     174:	0005023d 	andeq	r0, r5, sp, lsr r2
     178:	1e050101 	adfnes	f0, f5, f1
     17c:	dc020500 	cfstr32le	mvfx0, [r2], {-0}
     180:	03000002 	movweq	r0, #2
     184:	050100c7 	streq	r0, [r1, #-199]	; 0xffffff39
     188:	26052f1c 			; <UNDEFINED> instruction: 0x26052f1c
     18c:	3d23053d 	cfstr32cc	mvfx0, [r3, #-244]!	; 0xffffff0c
     190:	053e1d05 	ldreq	r1, [lr, #-3333]!	; 0xfffff2fb
     194:	1c053d1e 	stcne	13, cr3, [r5], {30}
     198:	3d1d053d 	cfldr32cc	mvfx0, [sp, #-244]	; 0xffffff0c
     19c:	023d0105 	eorseq	r0, sp, #1073741825	; 0x40000001
     1a0:	01010009 	tsteq	r1, r9
     1a4:	05000105 	streq	r0, [r0, #-261]	; 0xfffffefb
     1a8:	00031c02 	andeq	r1, r3, r2, lsl #24
     1ac:	00d30300 	sbcseq	r0, r3, r0, lsl #6
     1b0:	3d0e0501 	cfstr32cc	mvfx0, [lr, #-4]
     1b4:	3e300505 	cdpcc	5, 3, cr0, cr0, cr5, {0}
     1b8:	33402f2f 	movtcc	r2, #3887	; 0xf2f
     1bc:	3d30cc32 	ldccc	12, cr12, [r0, #-200]!	; 0xffffff38
     1c0:	781a053d 	ldmdavc	sl, {r0, r2, r3, r4, r5, r8, sl}
     1c4:	052e0b05 	streq	r0, [lr, #-2821]!	; 0xfffff4fb
     1c8:	1b05410d 	blne	150604 <_etext+0x14ded1>
     1cc:	030b0567 	movweq	r0, #46439	; 0xb567
     1d0:	00083c7a 	andeq	r3, r8, sl, ror ip
     1d4:	015f0101 	cmpeq	pc, r1, lsl #2
     1d8:	00030000 	andeq	r0, r3, r0
     1dc:	000000c9 	andeq	r0, r0, r9, asr #1
     1e0:	0efb0102 	cdpeq	1, 15, cr0, cr11, cr2, {0}
     1e4:	0101000d 	tsteq	r1, sp
     1e8:	00000101 	andeq	r0, r0, r1, lsl #2
     1ec:	00000100 	andeq	r0, r0, r0, lsl #2
     1f0:	5c3a6401 	cfldrspl	mvf6, [sl], #-4
     1f4:	2d636367 	stclcs	3, cr6, [r3, #-412]!	; 0xfffffe64
     1f8:	2d6d7261 	sfmcs	f7, 2, [sp, #-388]!	; 0xfffffe7c
     1fc:	656e6f6e 	strbvs	r6, [lr, #-3950]!	; 0xfffff092
     200:	6261652d 	rsbvs	r6, r1, #188743680	; 0xb400000
     204:	30312d69 	eorscc	r2, r1, r9, ror #26
     208:	3230322d 	eorscc	r3, r0, #-805306366	; 0xd0000002
     20c:	34712d30 	ldrbtcc	r2, [r1], #-3376	; 0xfffff2d0
     210:	6a616d2d 	bvs	185b6cc <_etext+0x1858f99>
     214:	615c726f 	cmpvs	ip, pc, ror #4
     218:	6e2d6d72 	mcrvs	13, 1, r6, cr13, cr2, {3}
     21c:	2d656e6f 	stclcs	14, cr6, [r5, #-444]!	; 0xfffffe44
     220:	69626165 	stmdbvs	r2!, {r0, r2, r5, r6, r8, sp, lr}^
     224:	636e695c 	cmnvs	lr, #92, 18	; 0x170000
     228:	6564756c 	strbvs	r7, [r4, #-1388]!	; 0xfffffa94
     22c:	63616d5c 	cmnvs	r1, #92, 26	; 0x1700
     230:	656e6968 	strbvs	r6, [lr, #-2408]!	; 0xfffff698
     234:	5c3a6400 	cfldrspl	mvf6, [sl], #-0
     238:	2d636367 	stclcs	3, cr6, [r3, #-412]!	; 0xfffffe64
     23c:	2d6d7261 	sfmcs	f7, 2, [sp, #-388]!	; 0xfffffe7c
     240:	656e6f6e 	strbvs	r6, [lr, #-3950]!	; 0xfffff092
     244:	6261652d 	rsbvs	r6, r1, #188743680	; 0xb400000
     248:	30312d69 	eorscc	r2, r1, r9, ror #26
     24c:	3230322d 	eorscc	r3, r0, #-805306366	; 0xd0000002
     250:	34712d30 	ldrbtcc	r2, [r1], #-3376	; 0xfffff2d0
     254:	6a616d2d 	bvs	185b710 <_etext+0x1858fdd>
     258:	615c726f 	cmpvs	ip, pc, ror #4
     25c:	6e2d6d72 	mcrvs	13, 1, r6, cr13, cr2, {3}
     260:	2d656e6f 	stclcs	14, cr6, [r5, #-444]!	; 0xfffffe44
     264:	69626165 	stmdbvs	r2!, {r0, r2, r5, r6, r8, sp, lr}^
     268:	636e695c 	cmnvs	lr, #92, 18	; 0x170000
     26c:	6564756c 	strbvs	r7, [r4, #-1388]!	; 0xfffffa94
     270:	7379735c 	cmnvc	r9, #92, 6	; 0x70000001
     274:	74730000 	ldrbtvc	r0, [r3], #-0
     278:	75747261 	ldrbvc	r7, [r4, #-609]!	; 0xfffffd9f
     27c:	63675f70 	cmnvs	r7, #112, 30	; 0x1c0
     280:	00632e63 	rsbeq	r2, r3, r3, ror #28
     284:	5f000000 	svcpl	0x00000000
     288:	61666564 	cmnvs	r6, r4, ror #10
     28c:	5f746c75 	svcpl	0x00746c75
     290:	65707974 	ldrbvs	r7, [r0, #-2420]!	; 0xfffff68c
     294:	00682e73 	rsbeq	r2, r8, r3, ror lr
     298:	5f000001 	svcpl	0x00000001
     29c:	69647473 	stmdbvs	r4!, {r0, r1, r4, r5, r6, sl, ip, sp, lr}^
     2a0:	682e746e 	stmdavs	lr!, {r1, r2, r3, r5, r6, sl, ip, sp, lr}
     2a4:	00000200 	andeq	r0, r0, r0, lsl #4
     2a8:	00010500 	andeq	r0, r1, r0, lsl #10
     2ac:	03b80205 			; <UNDEFINED> instruction: 0x03b80205
     2b0:	f8030000 			; <UNDEFINED> instruction: 0xf8030000
     2b4:	0c050101 	stfeqs	f0, [r5], {1}
     2b8:	2f110542 	svccs	0x00110542
     2bc:	052e0505 	streq	r0, [lr, #-1285]!	; 0xfffffafb
     2c0:	0a052216 	beq	148b20 <_etext+0x1463ed>
     2c4:	3c0f053c 	cfstr32cc	mvfx0, [pc], {60}	; 0x3c
     2c8:	05200d05 	streq	r0, [r0, #-3333]!	; 0xfffff2fb
     2cc:	04020005 	streq	r0, [r2], #-5
     2d0:	05521e01 	ldrbeq	r1, [r2, #-3585]	; 0xfffff1ff
     2d4:	9014031a 	andsls	r0, r4, sl, lsl r3
     2d8:	052e0505 	streq	r0, [lr, #-1285]!	; 0xfffffafb
     2dc:	16052218 			; <UNDEFINED> instruction: 0x16052218
     2e0:	2705052c 	strcs	r0, [r5, -ip, lsr #10]
     2e4:	082f0105 	stmdaeq	pc!, {r0, r2, r8}	; <UNPREDICTABLE>
     2e8:	05010100 	streq	r0, [r1, #-256]	; 0xffffff00
     2ec:	02050001 	andeq	r0, r5, #1
     2f0:	00000424 	andeq	r0, r0, r4, lsr #8
     2f4:	0102ae03 	tsteq	r2, r3, lsl #28
     2f8:	02000a05 	andeq	r0, r0, #20480	; 0x5000
     2fc:	02320104 	eorseq	r0, r2, #4, 2
     300:	01010001 	tsteq	r1, r1
     304:	05000105 	streq	r0, [r0, #-261]	; 0xfffffefb
     308:	00042c02 	andeq	r2, r4, r2, lsl #24
     30c:	02c00300 	sbceq	r0, r0, #0, 6
     310:	32050501 	andcc	r0, r5, #4194304	; 0x400000
     314:	02000a05 	andeq	r0, r0, #20480	; 0x5000
     318:	02830104 	addeq	r0, r3, #4, 2
     31c:	01010008 	tsteq	r1, r8
     320:	05000105 	streq	r0, [r0, #-261]	; 0xfffffefb
     324:	00045002 	andeq	r5, r4, r2
     328:	02d30300 	sbcseq	r0, r3, #0, 6
     32c:	000a0501 	andeq	r0, sl, r1, lsl #10
     330:	32010402 	andcc	r0, r1, #33554432	; 0x2000000
     334:	01000102 	tsteq	r0, r2, lsl #2
     338:	0004b801 	andeq	fp, r4, r1, lsl #16
     33c:	41000300 	mrsmi	r0, LR_irq
     340:	02000001 	andeq	r0, r0, #1
     344:	0d0efb01 	vstreq	d15, [lr, #-4]
     348:	01010100 	mrseq	r0, (UNDEF: 17)
     34c:	00000001 	andeq	r0, r0, r1
     350:	01000001 	tsteq	r0, r1
     354:	2e2f2e2e 	cdpcs	14, 2, cr2, cr15, cr14, {1}
     358:	69542f2e 	ldmdbvs	r4, {r1, r2, r3, r5, r8, r9, sl, fp, sp}^
     35c:	61576176 	cmpvs	r7, r6, ror r1
     360:	752f6572 	strvc	r6, [pc, #-1394]!	; fffffdf6 <_ebss+0xdffffbd6>
     364:	736c6974 	cmnvc	ip, #116, 18	; 0x1d0000
     368:	5c3a6400 	cfldrspl	mvf6, [sl], #-0
     36c:	2d636367 	stclcs	3, cr6, [r3, #-412]!	; 0xfffffe64
     370:	2d6d7261 	sfmcs	f7, 2, [sp, #-388]!	; 0xfffffe7c
     374:	656e6f6e 	strbvs	r6, [lr, #-3950]!	; 0xfffff092
     378:	6261652d 	rsbvs	r6, r1, #188743680	; 0xb400000
     37c:	30312d69 	eorscc	r2, r1, r9, ror #26
     380:	3230322d 	eorscc	r3, r0, #-805306366	; 0xd0000002
     384:	34712d30 	ldrbtcc	r2, [r1], #-3376	; 0xfffff2d0
     388:	6a616d2d 	bvs	185b844 <_etext+0x1859111>
     38c:	615c726f 	cmpvs	ip, pc, ror #4
     390:	6e2d6d72 	mcrvs	13, 1, r6, cr13, cr2, {3}
     394:	2d656e6f 	stclcs	14, cr6, [r5, #-444]!	; 0xfffffe44
     398:	69626165 	stmdbvs	r2!, {r0, r2, r5, r6, r8, sp, lr}^
     39c:	636e695c 	cmnvs	lr, #92, 18	; 0x170000
     3a0:	6564756c 	strbvs	r7, [r4, #-1388]!	; 0xfffffa94
     3a4:	63616d5c 	cmnvs	r1, #92, 26	; 0x1700
     3a8:	656e6968 	strbvs	r6, [lr, #-2408]!	; 0xfffff698
     3ac:	5c3a6400 	cfldrspl	mvf6, [sl], #-0
     3b0:	2d636367 	stclcs	3, cr6, [r3, #-412]!	; 0xfffffe64
     3b4:	2d6d7261 	sfmcs	f7, 2, [sp, #-388]!	; 0xfffffe7c
     3b8:	656e6f6e 	strbvs	r6, [lr, #-3950]!	; 0xfffff092
     3bc:	6261652d 	rsbvs	r6, r1, #188743680	; 0xb400000
     3c0:	30312d69 	eorscc	r2, r1, r9, ror #26
     3c4:	3230322d 	eorscc	r3, r0, #-805306366	; 0xd0000002
     3c8:	34712d30 	ldrbtcc	r2, [r1], #-3376	; 0xfffff2d0
     3cc:	6a616d2d 	bvs	185b888 <_etext+0x1859155>
     3d0:	615c726f 	cmpvs	ip, pc, ror #4
     3d4:	6e2d6d72 	mcrvs	13, 1, r6, cr13, cr2, {3}
     3d8:	2d656e6f 	stclcs	14, cr6, [r5, #-444]!	; 0xfffffe44
     3dc:	69626165 	stmdbvs	r2!, {r0, r2, r5, r6, r8, sp, lr}^
     3e0:	636e695c 	cmnvs	lr, #92, 18	; 0x170000
     3e4:	6564756c 	strbvs	r7, [r4, #-1388]!	; 0xfffffa94
     3e8:	7379735c 	cmnvc	r9, #92, 6	; 0x70000001
     3ec:	5c3a6400 	cfldrspl	mvf6, [sl], #-0
     3f0:	2d636367 	stclcs	3, cr6, [r3, #-412]!	; 0xfffffe64
     3f4:	2d6d7261 	sfmcs	f7, 2, [sp, #-388]!	; 0xfffffe7c
     3f8:	656e6f6e 	strbvs	r6, [lr, #-3950]!	; 0xfffff092
     3fc:	6261652d 	rsbvs	r6, r1, #188743680	; 0xb400000
     400:	30312d69 	eorscc	r2, r1, r9, ror #26
     404:	3230322d 	eorscc	r3, r0, #-805306366	; 0xd0000002
     408:	34712d30 	ldrbtcc	r2, [r1], #-3376	; 0xfffff2d0
     40c:	6a616d2d 	bvs	185b8c8 <_etext+0x1859195>
     410:	6c5c726f 	lfmvs	f7, 2, [ip], {111}	; 0x6f
     414:	675c6269 	ldrbvs	r6, [ip, -r9, ror #4]
     418:	615c6363 	cmpvs	ip, r3, ror #6
     41c:	6e2d6d72 	mcrvs	13, 1, r6, cr13, cr2, {3}
     420:	2d656e6f 	stclcs	14, cr6, [r5, #-444]!	; 0xfffffe44
     424:	69626165 	stmdbvs	r2!, {r0, r2, r5, r6, r8, sp, lr}^
     428:	2e30315c 	mrccs	1, 1, r3, cr0, cr12, {2}
     42c:	5c312e32 	ldcpl	14, cr2, [r1], #-200	; 0xffffff38
     430:	6c636e69 	stclvs	14, cr6, [r3], #-420	; 0xfffffe5c
     434:	00656475 	rsbeq	r6, r5, r5, ror r4
     438:	72617500 	rsbvc	r7, r1, #0, 10
     43c:	64747374 	ldrbtvs	r7, [r4], #-884	; 0xfffffc8c
     440:	632e6f69 			; <UNDEFINED> instruction: 0x632e6f69
     444:	00000100 	andeq	r0, r0, r0, lsl #2
     448:	6665645f 			; <UNDEFINED> instruction: 0x6665645f
     44c:	746c7561 	strbtvc	r7, [ip], #-1377	; 0xfffffa9f
     450:	7079745f 	rsbsvc	r7, r9, pc, asr r4
     454:	682e7365 	stmdavs	lr!, {r0, r2, r5, r6, r8, r9, ip, sp, lr}
     458:	00000200 	andeq	r0, r0, r0, lsl #4
     45c:	6474735f 	ldrbtvs	r7, [r4], #-863	; 0xfffffca1
     460:	2e746e69 	cdpcs	14, 7, cr6, cr4, cr9, {3}
     464:	00030068 	andeq	r0, r3, r8, rrx
     468:	64747300 	ldrbtvs	r7, [r4], #-768	; 0xfffffd00
     46c:	2e677261 	cdpcs	2, 6, cr7, cr7, cr1, {3}
     470:	00040068 	andeq	r0, r4, r8, rrx
     474:	75623c00 	strbvc	r3, [r2, #-3072]!	; 0xfffff400
     478:	2d746c69 	ldclcs	12, cr6, [r4, #-420]!	; 0xfffffe5c
     47c:	003e6e69 	eorseq	r6, lr, r9, ror #28
     480:	00000000 	andeq	r0, r0, r0
     484:	05000105 	streq	r0, [r0, #-261]	; 0xfffffefb
     488:	00045802 	andeq	r5, r4, r2, lsl #16
     48c:	02ce0300 	sbceq	r0, lr, #0, 6
     490:	6a050501 	bvs	14189c <_etext+0x13f169>
     494:	01040200 	mrseq	r0, R12_usr
     498:	02003c06 	andeq	r3, r0, #1536	; 0x600
     49c:	003c0204 	eorseq	r0, ip, r4, lsl #4
     4a0:	3c030402 	cfstrscc	mvf0, [r3], {2}
     4a4:	03060905 	movweq	r0, #26885	; 0x6905
     4a8:	0805580d 	stmdaeq	r5, {r0, r2, r3, fp, ip, lr}
     4ac:	3c070582 	cfstr32cc	mvfx0, [r7], {130}	; 0x82
     4b0:	05362005 	ldreq	r2, [r6, #-5]!
     4b4:	05054a10 	streq	r4, [r5, #-2576]	; 0xfffff5f0
     4b8:	24037933 	strcs	r7, [r3], #-2355	; 0xfffff6cd
     4bc:	03090574 	movweq	r0, #38260	; 0x9574
     4c0:	0105664c 	tsteq	r5, ip, asr #12
     4c4:	02203503 	eoreq	r3, r0, #12582912	; 0xc00000
     4c8:	0101000c 	tsteq	r1, ip
     4cc:	05000105 	streq	r0, [r0, #-261]	; 0xfffffefb
     4d0:	0004e802 	andeq	lr, r4, r2, lsl #16
     4d4:	03b40300 			; <UNDEFINED> instruction: 0x03b40300
     4d8:	03050501 	movweq	r0, #21761	; 0x5501
     4dc:	005800cc 	subseq	r0, r8, ip, asr #1
     4e0:	06010402 	streq	r0, [r1], -r2, lsl #8
     4e4:	0059064a 	subseq	r0, r9, sl, asr #12
     4e8:	06010402 	streq	r0, [r1], -r2, lsl #8
     4ec:	060e053c 			; <UNDEFINED> instruction: 0x060e053c
     4f0:	2e05055d 	cfrshl32cs	mvfx5, mvfx13, r0
     4f4:	05261105 	streq	r1, [r6, #-261]!	; 0xfffffefb
     4f8:	0d054a0b 	vstreq	s8, [r5, #-44]	; 0xffffffd4
     4fc:	76160530 			; <UNDEFINED> instruction: 0x76160530
     500:	054a1005 	strbeq	r1, [sl, #-5]
     504:	04020009 	streq	r0, [r2], #-9
     508:	2a053602 	bcs	14dd18 <_etext+0x14b5e5>
     50c:	02040200 	andeq	r0, r4, #0, 4
     510:	0009052e 	andeq	r0, r9, lr, lsr #10
     514:	3c020402 	cfstrscc	mvf0, [r2], {2}
     518:	02002705 	andeq	r2, r0, #1310720	; 0x140000
     51c:	6e030204 	cdpvs	2, 0, cr0, cr3, cr4, {0}
     520:	0005054a 	andeq	r0, r5, sl, asr #10
     524:	3c010402 	cfstrscc	mvf0, [r1], {2}
     528:	0c030a05 			; <UNDEFINED> instruction: 0x0c030a05
     52c:	030b0558 	movweq	r0, #46424	; 0xb558
     530:	0105200c 	tsteq	r5, ip
     534:	00090222 	andeq	r0, r9, r2, lsr #4
     538:	01050101 	tsteq	r5, r1, lsl #2
     53c:	00020500 	andeq	r0, r2, r0, lsl #10
     540:	03000000 	movweq	r0, #0
     544:	050104c1 	streq	r0, [r1, #-1217]	; 0xfffffb3f
     548:	00c9030e 	sbceq	r0, r9, lr, lsl #6
     54c:	35050558 	strcc	r0, [r5, #-1368]	; 0xfffffaa8
     550:	01040200 	mrseq	r0, R12_usr
     554:	59063c06 	stmdbpl	r6, {r1, r2, sl, fp, ip, sp}
     558:	01040200 	mrseq	r0, R12_usr
     55c:	59063c06 	stmdbpl	r6, {r1, r2, sl, fp, ip, sp}
     560:	01040200 	mrseq	r0, R12_usr
     564:	0c054a06 			; <UNDEFINED> instruction: 0x0c054a06
     568:	11055e06 	tstne	r5, r6, lsl #28
     56c:	053c0a03 	ldreq	r0, [ip, #-2563]!	; 0xfffff5fd
     570:	0b05660f 	bleq	159db4 <_etext+0x157681>
     574:	500f0525 	andpl	r0, pc, r5, lsr #10
     578:	05411105 	strbeq	r1, [r1, #-261]	; 0xfffffefb
     57c:	0d054f1a 	stceq	15, cr4, [r5, #-104]	; 0xffffff98
     580:	270b0542 	strcs	r0, [fp, -r2, asr #10]
     584:	02001c05 	andeq	r1, r0, #1280	; 0x500
     588:	054a0104 	strbeq	r0, [sl, #-260]	; 0xfffffefc
     58c:	0d055a18 	vstreq	s10, [r5, #-96]	; 0xffffffa0
     590:	260b053d 			; <UNDEFINED> instruction: 0x260b053d
     594:	02001c05 	andeq	r1, r0, #1280	; 0x500
     598:	054a0104 	strbeq	r0, [sl, #-260]	; 0xfffffefc
     59c:	0402002f 	streq	r0, [r2], #-47	; 0xffffffd1
     5a0:	0f054a02 	svceq	0x00054a02
     5a4:	4c1c0551 	cfldr32mi	mvfx0, [ip], {81}	; 0x51
     5a8:	05420d05 	strbeq	r0, [r2, #-3333]	; 0xfffff2fb
     5ac:	1205280b 	andne	r2, r5, #720896	; 0xb0000
     5b0:	3c1e054f 	cfldr32cc	mvfx0, [lr], {79}	; 0x4f
     5b4:	05331605 	ldreq	r1, [r3, #-1541]!	; 0xfffff9fb
     5b8:	4a03410d 	bmi	d09f4 <_etext+0xce2c1>
     5bc:	030f0582 	movweq	r0, #62850	; 0xf582
     5c0:	0d052065 	stceq	0, cr2, [r5, #-404]	; 0xfffffe6c
     5c4:	05203a03 	streq	r3, [r0, #-2563]!	; 0xfffff5fd
     5c8:	201e030a 	andscs	r0, lr, sl, lsl #6
     5cc:	053c1605 	ldreq	r1, [ip, #-1541]!	; 0xfffff9fb
     5d0:	0b053305 	bleq	14d1ec <_etext+0x14aab9>
     5d4:	2201054f 	andcs	r0, r1, #331350016	; 0x13c00000
     5d8:	01000f02 	tsteq	r0, r2, lsl #30
     5dc:	00010501 	andeq	r0, r1, r1, lsl #10
     5e0:	00000205 	andeq	r0, r0, r5, lsl #4
     5e4:	9a030000 	bls	c05ec <_etext+0xbdeb9>
     5e8:	0c050106 	stfeqs	f0, [r5], {6}
     5ec:	052e1e03 	streq	r1, [lr, #-3587]!	; 0xfffff1fd
     5f0:	05027601 	streq	r7, [r2, #-1537]	; 0xfffff9ff
     5f4:	05010100 	streq	r0, [r1, #-256]	; 0xffffff00
     5f8:	02050001 	andeq	r0, r5, #1
     5fc:	00000578 	andeq	r0, r0, r8, ror r5
     600:	0106e403 	tsteq	r6, r3, lsl #8
     604:	005f0505 	subseq	r0, pc, r5, lsl #10
     608:	06010402 	streq	r0, [r1], -r2, lsl #8
     60c:	000a054a 	andeq	r0, sl, sl, asr #10
     610:	06010402 	streq	r0, [r1], -r2, lsl #8
     614:	2515055d 	ldrcs	r0, [r5, #-1373]	; 0xfffffaa3
     618:	052e0905 	streq	r0, [lr, #-2309]!	; 0xfffff6fb
     61c:	16052214 			; <UNDEFINED> instruction: 0x16052214
     620:	01040200 	mrseq	r0, R12_usr
     624:	0009053b 	andeq	r0, r9, fp, lsr r5
     628:	49010402 	stmdbmi	r1, {r1, sl}
     62c:	052f3405 	streq	r3, [pc, #-1029]!	; 22f <g_pfnVectors+0x22f>
     630:	09054a28 	stmdbeq	r5, {r3, r5, r9, fp, lr}
     634:	4f120536 	svcmi	0x00120536
     638:	054f0c05 	strbeq	r0, [pc, #-3077]	; fffffa3b <_ebss+0xdffff81b>
     63c:	15052e0b 	strne	r2, [r5, #-3595]	; 0xfffff1f5
     640:	42170541 	andsmi	r0, r7, #272629760	; 0x10400000
     644:	052f1305 	streq	r1, [pc, #-773]!	; 347 <main+0x2b>
     648:	3c0c031d 	stccc	3, cr0, [ip], {29}
     64c:	053c1405 	ldreq	r1, [ip, #-1029]!	; 0xfffffbfb
     650:	02140321 	andseq	r0, r4, #-2080374784	; 0x84000000
     654:	050101b1 	streq	r0, [r1, #-433]	; 0xfffffe4f
     658:	2e053c17 	mcrcs	12, 0, r3, cr5, cr7, {0}
     65c:	01040200 	mrseq	r0, R12_usr
     660:	3e1f052e 	cfmul64cc	mvdx0, mvdx15, mvdx14
     664:	672a0542 	strvs	r0, [sl, -r2, asr #10]!
     668:	053c1f05 	ldreq	r1, [ip, #-3845]!	; 0xfffff0fb
     66c:	21055d15 	tstcs	r5, r5, lsl sp
     670:	05200b03 	streq	r0, [r0, #-2819]!	; 0xfffff4fd
     674:	15054a1f 	strne	r4, [r5, #-2591]	; 0xfffff5e1
     678:	21056b25 	tstcs	r5, r5, lsr #22
     67c:	05200c03 	streq	r0, [r0, #-3075]!	; 0xfffff3fd
     680:	1d054a1f 	vstrne	s8, [r5, #-124]	; 0xffffff84
     684:	34180525 	ldrcc	r0, [r8], #-1317	; 0xfffffadb
     688:	05201705 	streq	r1, [r0, #-1797]!	; 0xfffff8fb
     68c:	25053326 	strcs	r3, [r5, #-806]	; 0xfffffcda
     690:	20230520 	eorcs	r0, r3, r0, lsr #10
     694:	44252105 	strtmi	r2, [r5], #-261	; 0xfffffefb
     698:	05341e05 	ldreq	r1, [r4, #-3589]!	; 0xfffff1fb
     69c:	1b053315 	blne	14d2f8 <_etext+0x14abc5>
     6a0:	05200b03 	streq	r0, [r0, #-2819]!	; 0xfffff4fd
     6a4:	15055d21 	strne	r5, [r5, #-3361]	; 0xfffff2df
     6a8:	0045052e 	subeq	r0, r5, lr, lsr #10
     6ac:	20030402 	andcs	r0, r3, r2, lsl #8
     6b0:	02002b05 	andeq	r2, r0, #5120	; 0x1400
     6b4:	053c0104 	ldreq	r0, [ip, #-260]!	; 0xfffffefc
     6b8:	04020015 	streq	r0, [r2], #-21	; 0xffffffeb
     6bc:	05354a01 	ldreq	r4, [r5, #-2561]!	; 0xfffff5ff
     6c0:	23054f17 	movwcs	r4, #24343	; 0x5f17
     6c4:	4b1e055a 	blmi	781c34 <_etext+0x77f501>
     6c8:	05221d05 	streq	r1, [r2, #-3333]!	; 0xfffff2fb
     6cc:	1e054828 	cdpne	8, 0, cr4, cr5, cr8, {1}
     6d0:	0315053c 	tsteq	r5, #60, 10	; 0xf000000
     6d4:	21052e09 	tstcs	r5, r9, lsl #28
     6d8:	05200b03 	streq	r0, [r0, #-2819]!	; 0xfffff4fd
     6dc:	1d054a1f 	vstrne	s8, [r5, #-124]	; 0xffffff84
     6e0:	331e0525 	tstcc	lr, #155189248	; 0x9400000
     6e4:	05341d05 	ldreq	r1, [r4, #-3333]!	; 0xfffff2fb
     6e8:	21053315 	tstcs	r5, r5, lsl r3
     6ec:	05201003 	streq	r1, [r0, #-3]!
     6f0:	1d054a1f 	vstrne	s8, [r5, #-124]	; 0xffffff84
     6f4:	331e0525 	tstcc	lr, #155189248	; 0x9400000
     6f8:	05341d05 	ldreq	r1, [r4, #-3333]!	; 0xfffff2fb
     6fc:	15053521 	strne	r3, [r5, #-1313]	; 0xfffffadf
     700:	5b21052e 	blpl	841bc0 <_etext+0x83f48d>
     704:	05583705 	ldrbeq	r3, [r8, #-1797]	; 0xfffff8fb
     708:	04020024 	streq	r0, [r2], #-36	; 0xffffffdc
     70c:	30053a01 	andcc	r3, r5, r1, lsl #20
     710:	01040200 	mrseq	r0, R12_usr
     714:	0015054a 	andseq	r0, r5, sl, asr #10
     718:	1f010402 	svcne	0x00010402
     71c:	05302505 	ldreq	r2, [r0, #-1285]!	; 0xfffffafb
     720:	3e054a31 			; <UNDEFINED> instruction: 0x3e054a31
     724:	0317053b 	tsteq	r7, #247463936	; 0xec00000
     728:	22053c0a 	andcs	r3, r5, #2560	; 0xa00
     72c:	4317053e 	tstmi	r7, #260046848	; 0xf800000
     730:	02002005 	andeq	r2, r0, #5
     734:	053c0104 	ldreq	r0, [ip, #-260]!	; 0xfffffefc
     738:	2a054f26 	bcs	1543d8 <_etext+0x151ca5>
     73c:	6c21053c 	cfstr32vs	mvfx0, [r1], #-240	; 0xffffff10
     740:	05351705 	ldreq	r1, [r5, #-1797]!	; 0xfffff8fb
     744:	04020028 	streq	r0, [r2], #-40	; 0xffffffd8
     748:	26053c01 	strcs	r3, [r5], -r1, lsl #24
     74c:	3c19053e 	cfldr32cc	mvfx0, [r9], {62}	; 0x3e
     750:	02002a05 	andeq	r2, r0, #20480	; 0x5000
     754:	05220304 	streq	r0, [r2, #-772]!	; 0xfffffcfc
     758:	0402002e 	streq	r0, [r2], #-46	; 0xffffffd2
     75c:	3e053c03 	cdpcc	12, 0, cr3, cr5, cr3, {0}
     760:	03040200 	movweq	r0, #16896	; 0x4200
     764:	00190572 	andseq	r0, r9, r2, ror r5
     768:	3c010402 	cfstrscc	mvf0, [r1], {2}
     76c:	0a031705 	beq	c6388 <_etext+0xc3c55>
     770:	4126053c 			; <UNDEFINED> instruction: 0x4126053c
     774:	053c2a05 	ldreq	r2, [ip, #-2565]!	; 0xfffff5fb
     778:	24056c15 	strcs	r6, [r5], #-3093	; 0xfffff3eb
     77c:	02040200 	andeq	r0, r4, #0, 4
     780:	00300523 	eorseq	r0, r0, r3, lsr #10
     784:	20020402 	andcs	r0, r2, r2, lsl #8
     788:	02003b05 	andeq	r3, r0, #5120	; 0x1400
     78c:	054a0204 	strbeq	r0, [sl, #-516]	; 0xfffffdfc
     790:	04020024 	streq	r0, [r2], #-36	; 0xffffffdc
     794:	26057402 	strcs	r7, [r5], -r2, lsl #8
     798:	02040200 	andeq	r0, r4, #0, 4
     79c:	0024051f 	eoreq	r0, r4, pc, lsl r5
     7a0:	3d020402 	cfstrscc	mvf0, [r2, #-8]
     7a4:	02002a05 	andeq	r2, r0, #20480	; 0x5000
     7a8:	051f0204 	ldreq	r0, [pc, #-516]	; 5ac <UARTvprintf+0x34>
     7ac:	0402002c 	streq	r0, [r2], #-44	; 0xffffffd4
     7b0:	15055602 	strne	r5, [r5, #-1538]	; 0xfffff9fe
     7b4:	01040200 	mrseq	r0, R12_usr
     7b8:	3c090358 	stccc	3, cr0, [r9], {88}	; 0x58
     7bc:	200b036b 	andcs	r0, fp, fp, ror #6
     7c0:	200b036b 	andcs	r0, fp, fp, ror #6
     7c4:	2309054f 	movwcs	r0, #38223	; 0x954f
     7c8:	88030b05 	stmdahi	r3, {r0, r2, r8, r9, fp}
     7cc:	0a05207d 	beq	1489c8 <_etext+0x146295>
     7d0:	0301052e 	movweq	r0, #5422	; 0x152e
     7d4:	023c02fa 	eorseq	r0, ip, #-1610612721	; 0xa000000f
     7d8:	01010009 	tsteq	r1, r9
     7dc:	05000105 	streq	r0, [r0, #-261]	; 0xfffffefb
     7e0:	00098002 	andeq	r8, r9, r2
     7e4:	0a940300 	beq	fe5013ec <_ebss+0xde5011cc>
     7e8:	50050501 	andpl	r0, r5, r1, lsl #10
     7ec:	5001053e 	andpl	r0, r1, lr, lsr r5
     7f0:	01000702 	tsteq	r0, r2, lsl #14
     7f4:	00071001 	andeq	r1, r7, r1
     7f8:	6f000300 	svcvs	0x00000300
     7fc:	02000000 	andeq	r0, r0, #0
     800:	0d0efb01 	vstreq	d15, [lr, #-4]
     804:	01010100 	mrseq	r0, (UNDEF: 17)
     808:	00000001 	andeq	r0, r0, r1
     80c:	01000001 	tsteq	r0, r1
     810:	2e2f2e2e 	cdpcs	14, 2, cr2, cr15, cr14, {1}
     814:	72732f2e 	rsbsvc	r2, r3, #46, 30	; 0xb8
     818:	72642f63 	rsbvc	r2, r4, #396	; 0x18c
     81c:	72657669 	rsbvc	r7, r5, #110100480	; 0x6900000
     820:	6273752f 	rsbsvs	r7, r3, #197132288	; 0xbc00000
     824:	2f2e2e00 	svccs	0x002e2e00
     828:	732f2e2e 			; <UNDEFINED> instruction: 0x732f2e2e
     82c:	492f6372 	stmdbmi	pc!, {r1, r4, r5, r6, r8, r9, sp, lr}	; <UNPREDICTABLE>
     830:	752f434e 	strvc	r4, [pc, #-846]!	; 4ea <UARTwrite+0x2>
     834:	00006273 	andeq	r6, r0, r3, ror r2
     838:	64627375 	strbtvs	r7, [r2], #-885	; 0xfffffc8b
     83c:	6972645f 	ldmdbvs	r2!, {r0, r1, r2, r3, r4, r6, sl, sp, lr}^
     840:	2e726576 	mrccs	5, 3, r6, cr2, cr6, {3}
     844:	00010063 	andeq	r0, r1, r3, rrx
     848:	62737500 	rsbsvs	r7, r3, #0, 10
     84c:	6174735f 	cmnvs	r4, pc, asr r3
     850:	7261646e 	rsbvc	r6, r1, #1845493760	; 0x6e000000
     854:	682e7364 	stmdavs	lr!, {r2, r5, r6, r8, r9, ip, sp, lr}
     858:	00000200 	andeq	r0, r0, r0, lsl #4
     85c:	64627375 	strbtvs	r7, [r2], #-885	; 0xfffffc8b
     860:	6972645f 	ldmdbvs	r2!, {r0, r1, r2, r3, r4, r6, sl, sp, lr}^
     864:	2e726576 	mrccs	5, 3, r6, cr2, cr6, {3}
     868:	00020068 	andeq	r0, r2, r8, rrx
     86c:	24050000 	strcs	r0, [r5], #-0
     870:	e8020500 	stmda	r2, {r8, sl}
     874:	0300000e 	movweq	r0, #14
     878:	050100e4 	streq	r0, [r1, #-228]	; 0xffffff1c
     87c:	05053f10 	streq	r3, [r5, #-3856]	; 0xfffff0f0
     880:	2019052e 	andscs	r0, r9, lr, lsr #10
     884:	052e0e05 	streq	r0, [lr, #-3589]!	; 0xfffff1fb
     888:	05052112 	streq	r2, [r5, #-274]	; 0xfffffeee
     88c:	002e052e 	eoreq	r0, lr, lr, lsr #10
     890:	20030402 	andcs	r0, r3, r2, lsl #8
     894:	02002005 	andeq	r2, r0, #5
     898:	05580104 	ldrbeq	r0, [r8, #-260]	; 0xfffffefc
     89c:	04020005 	streq	r0, [r2], #-5
     8a0:	13052e01 	movwne	r2, #24065	; 0x5e01
     8a4:	2e050530 	cfmv64hrcs	mvdx5, r0
     8a8:	05201f05 	streq	r1, [r0, #-3845]!	; 0xfffff0fb
     8ac:	15052e11 	strne	r2, [r5, #-3601]	; 0xfffff1ef
     8b0:	2e050521 	cfsh32cs	mvfx0, mvfx5, #17
     8b4:	05202305 	streq	r2, [r0, #-773]!	; 0xfffffcfb
     8b8:	14052e13 	strne	r2, [r5], #-3603	; 0xfffff1ed
     8bc:	2e050521 	cfsh32cs	mvfx0, mvfx5, #17
     8c0:	05202105 	streq	r2, [r0, #-261]!	; 0xfffffefb
     8c4:	14052e12 	strne	r2, [r5], #-3602	; 0xfffff1ee
     8c8:	2e050522 	cfsh32cs	mvfx0, mvfx5, #18
     8cc:	05202105 	streq	r2, [r0, #-261]!	; 0xfffffefb
     8d0:	14052e12 	strne	r2, [r5], #-3602	; 0xfffff1ee
     8d4:	2e050521 	cfsh32cs	mvfx0, mvfx5, #17
     8d8:	05202105 	streq	r2, [r0, #-261]!	; 0xfffffefb
     8dc:	14052e12 	strne	r2, [r5], #-3602	; 0xfffff1ee
     8e0:	2e050521 	cfsh32cs	mvfx0, mvfx5, #17
     8e4:	05202105 	streq	r2, [r0, #-261]!	; 0xfffffefb
     8e8:	15052e12 	strne	r2, [r5, #-3602]	; 0xfffff1ee
     8ec:	2e050521 	cfsh32cs	mvfx0, mvfx5, #17
     8f0:	05202305 	streq	r2, [r0, #-773]!	; 0xfffffcfb
     8f4:	01052e13 	tsteq	r5, r3, lsl lr
     8f8:	00170221 	andseq	r0, r7, r1, lsr #4
     8fc:	21050101 	tstcs	r5, r1, lsl #2
     900:	94020500 	strls	r0, [r2], #-1280	; 0xfffffb00
     904:	0300000f 	movweq	r0, #15
     908:	050100f9 	streq	r0, [r1, #-249]	; 0xffffff07
     90c:	05052f10 	streq	r2, [r5, #-3856]	; 0xfffff0f0
     910:	200e052e 	andcs	r0, lr, lr, lsr #10
     914:	024b0105 	subeq	r0, fp, #1073741825	; 0x40000001
     918:	01010007 	tsteq	r1, r7
     91c:	05002405 	streq	r2, [r0, #-1029]	; 0xfffffbfb
     920:	000fb402 	andeq	fp, pc, r2, lsl #8
     924:	00fd0300 	rscseq	r0, sp, r0, lsl #6
     928:	2f100501 	svccs	0x00100501
     92c:	052e0505 	streq	r0, [lr, #-1285]!	; 0xfffffafb
     930:	0e052019 	mcreq	0, 0, r2, cr5, cr9, {0}
     934:	2101053c 	tstcs	r1, ip, lsr r5
     938:	01000702 	tsteq	r0, r2, lsl #14
     93c:	00370501 	eorseq	r0, r7, r1, lsl #10
     940:	0fd40205 	svceq	0x00d40205
     944:	81030000 	mrshi	r0, (UNDEF: 3)
     948:	05050101 	streq	r0, [r5, #-257]	; 0xfffffeff
     94c:	200e0559 	andcs	r0, lr, r9, asr r5
     950:	022f0105 	eoreq	r0, pc, #1073741825	; 0x40000001
     954:	01010008 	tsteq	r1, r8
     958:	05002905 	streq	r2, [r0, #-2309]	; 0xfffff6fb
     95c:	000ff402 	andeq	pc, pc, r2, lsl #8
     960:	01850300 	orreq	r0, r5, r0, lsl #6
     964:	300d0501 	andcc	r0, sp, r1, lsl #10
     968:	052e0505 	streq	r0, [lr, #-1285]!	; 0xfffffafb
     96c:	0f05200b 	svceq	0x0005200b
     970:	2e05054c 	cfsh32cs	mvfx0, mvfx5, #44
     974:	05200d05 	streq	r0, [r0, #-3333]!	; 0xfffff2fb
     978:	05054b0f 	streq	r4, [r5, #-2831]	; 0xfffff4f1
     97c:	200d052e 	andcs	r0, sp, lr, lsr #10
     980:	09031605 	stmdbeq	r3, {r0, r2, r9, sl, ip}
     984:	2e05054a 	cfsh32cs	mvfx0, mvfx5, #42
     988:	05202505 	streq	r2, [r0, #-1285]!	; 0xfffffafb
     98c:	01052e14 	tsteq	r5, r4, lsl lr
     990:	000d0222 	andeq	r0, sp, r2, lsr #4
     994:	21050101 	tstcs	r5, r1, lsl #2
     998:	48020500 	stmdami	r2, {r8, sl}
     99c:	03000010 	movweq	r0, #16
     9a0:	05010197 	streq	r0, [r1, #-407]	; 0xfffffe69
     9a4:	05053f0c 	streq	r3, [r5, #-3852]	; 0xfffff0f4
     9a8:	2011052e 	andscs	r0, r1, lr, lsr #10
     9ac:	052e0a05 	streq	r0, [lr, #-2565]!	; 0xfffff5fb
     9b0:	0505220f 	streq	r2, [r5, #-527]	; 0xfffffdf1
     9b4:	2017052e 	andscs	r0, r7, lr, lsr #10
     9b8:	052e0d05 	streq	r0, [lr, #-3333]!	; 0xfffff2fb
     9bc:	05052211 	streq	r2, [r5, #-529]	; 0xfffffdef
     9c0:	201b052e 	andscs	r0, fp, lr, lsr #10
     9c4:	052e0f05 	streq	r0, [lr, #-3845]!	; 0xfffff0fb
     9c8:	05052112 	streq	r2, [r5, #-274]	; 0xfffffeee
     9cc:	002e052e 	eoreq	r0, lr, lr, lsr #10
     9d0:	20030402 	andcs	r0, r3, r2, lsl #8
     9d4:	02002005 	andeq	r2, r0, #5
     9d8:	05580104 	ldrbeq	r0, [r8, #-260]	; 0xfffffefc
     9dc:	04020005 	streq	r0, [r2], #-5
     9e0:	11052e01 	tstne	r5, r1, lsl #28
     9e4:	2e050531 	mcrcs	5, 0, r0, cr5, cr1, {1}
     9e8:	05201b05 	streq	r1, [r0, #-2821]!	; 0xfffff4fb
     9ec:	12052e0f 	andne	r2, r5, #15, 28	; 0xf0
     9f0:	2e050524 	cfsh32cs	mvfx0, mvfx5, #20
     9f4:	02002e05 	andeq	r2, r0, #5, 28	; 0x50
     9f8:	05200304 	streq	r0, [r0, #-772]!	; 0xfffffcfc
     9fc:	04020020 	streq	r0, [r2], #-32	; 0xffffffe0
     a00:	05055801 	streq	r5, [r5, #-2049]	; 0xfffff7ff
     a04:	01040200 	mrseq	r0, R12_usr
     a08:	310f052e 	tstcc	pc, lr, lsr #10
     a0c:	052e0505 	streq	r0, [lr, #-1285]!	; 0xfffffafb
     a10:	0d052017 	stceq	0, cr2, [r5, #-92]	; 0xffffffa4
     a14:	2301052e 	movwcs	r0, #5422	; 0x152e
     a18:	01000f02 	tsteq	r0, r2, lsl #30
     a1c:	00240501 	eoreq	r0, r4, r1, lsl #10
     a20:	10d80205 	sbcsne	r0, r8, r5, lsl #4
     a24:	ae030000 	cdpge	0, 0, cr0, cr3, cr0, {0}
     a28:	18050101 	stmdane	r5, {r0, r8}
     a2c:	6605054b 	strvs	r0, [r5], -fp, asr #10
     a30:	05582905 	ldrbeq	r2, [r8, #-2309]	; 0xfffff6fb
     a34:	01053c16 	tsteq	r5, r6, lsl ip
     a38:	00090221 	andeq	r0, r9, r1, lsr #4
     a3c:	24050101 	strcs	r0, [r5], #-257	; 0xfffffeff
     a40:	10020500 	andne	r0, r2, r0, lsl #10
     a44:	03000011 	movweq	r0, #17
     a48:	050101b2 	streq	r0, [r1, #-434]	; 0xfffffe4e
     a4c:	05054b18 	streq	r4, [r5, #-2840]	; 0xfffff4e8
     a50:	58180574 	ldmdapl	r8, {r2, r4, r5, r6, r8, sl}
     a54:	05201605 	streq	r1, [r0, #-1541]!	; 0xfffff9fb
     a58:	08022101 	stmdaeq	r2, {r0, r8, sp}
     a5c:	05010100 	streq	r0, [r1, #-256]	; 0xffffff00
     a60:	02050026 	andeq	r0, r5, #38	; 0x26
     a64:	00001144 	andeq	r1, r0, r4, asr #2
     a68:	0101ba03 	tsteq	r1, r3, lsl #20
     a6c:	05300f05 	ldreq	r0, [r0, #-3845]!	; 0xfffff0fb
     a70:	0d052e05 	stceq	14, cr2, [r5, #-20]	; 0xffffffec
     a74:	4c010520 	cfstr32mi	mvfx0, [r1], {32}
     a78:	01000702 	tsteq	r0, r2, lsl #14
     a7c:	002c0501 	eoreq	r0, ip, r1, lsl #10
     a80:	00000205 	andeq	r0, r0, r5, lsl #4
     a84:	c4030000 	strgt	r0, [r3], #-0
     a88:	0f050101 	svceq	0x00050101
     a8c:	3c1d054b 	cfldr32cc	mvfx0, [sp], {75}	; 0x4b
     a90:	054a1705 	strbeq	r1, [sl, #-1797]	; 0xfffff8fb
     a94:	17055805 	strne	r5, [r5, -r5, lsl #16]
     a98:	200d0520 	andcs	r0, sp, r0, lsr #10
     a9c:	05210f05 	streq	r0, [r1, #-3845]!	; 0xfffff0fb
     aa0:	17053c1d 	smladne	r5, sp, ip, r3
     aa4:	5805054a 	stmdapl	r5, {r1, r3, r6, r8, sl}
     aa8:	05201705 	streq	r1, [r0, #-1797]!	; 0xfffff8fb
     aac:	0505200d 	streq	r2, [r5, #-13]
     ab0:	01053d23 	tsteq	r5, r3, lsr #26
     ab4:	0008023d 	andeq	r0, r8, sp, lsr r2
     ab8:	48050101 	stmdami	r5, {r0, r8}
     abc:	64020500 	strvs	r0, [r2], #-1280	; 0xfffffb00
     ac0:	03000011 	movweq	r0, #17
     ac4:	050101d1 	streq	r0, [r1, #-465]	; 0xfffffe2f
     ac8:	04020005 	streq	r0, [r2], #-5
     acc:	053e9101 	ldreq	r9, [lr, #-257]!	; 0xfffffeff
     ad0:	1b05d70f 	blne	176714 <_etext+0x173fe1>
     ad4:	4a17053c 	bmi	5c1fcc <_etext+0x5bf899>
     ad8:	053c0505 	ldreq	r0, [ip, #-1285]!	; 0xfffffafb
     adc:	0d052017 	stceq	0, cr2, [r5, #-92]	; 0xffffffa4
     ae0:	21010520 	tstcs	r1, r0, lsr #10
     ae4:	01000902 	tsteq	r0, r2, lsl #18
     ae8:	00490501 	subeq	r0, r9, r1, lsl #10
     aec:	11c40205 	bicne	r0, r4, r5, lsl #4
     af0:	dc030000 	stcle	0, cr0, [r3], {-0}
     af4:	05050101 	streq	r0, [r5, #-257]	; 0xfffffeff
     af8:	01040200 	mrseq	r0, R12_usr
     afc:	0f053e91 	svceq	0x00053e91
     b00:	3c1b05d7 	cfldr32cc	mvfx0, [fp], {215}	; 0xd7
     b04:	054a1705 	strbeq	r1, [sl, #-1797]	; 0xfffff8fb
     b08:	17053c05 	strne	r3, [r5, -r5, lsl #24]
     b0c:	200d0520 	andcs	r0, sp, r0, lsr #10
     b10:	02210105 	eoreq	r0, r1, #1073741825	; 0x40000001
     b14:	01010009 	tsteq	r1, r9
     b18:	05005e05 	streq	r5, [r0, #-3589]	; 0xfffff1fb
     b1c:	00122402 	andseq	r2, r2, r2, lsl #8
     b20:	01e90300 	mvneq	r0, r0, lsl #6
     b24:	ad190501 	cfldr32ge	mvfx0, [r9, #-4]
     b28:	05751205 	ldrbeq	r1, [r5, #-517]!	; 0xfffffdfb
     b2c:	02002f05 	andeq	r2, r0, #5, 30
     b30:	20060104 	andcs	r0, r6, r4, lsl #2
     b34:	01040200 	mrseq	r0, R12_usr
     b38:	053e5906 	ldreq	r5, [lr, #-2310]!	; 0xfffff6fa
     b3c:	0805200e 	stmdaeq	r5, {r1, r2, r3, sp}
     b40:	3d19053d 	cfldr32cc	mvfx0, [r9, #-244]	; 0xffffff0c
     b44:	05200905 	streq	r0, [r0, #-2309]!	; 0xfffff6fb
     b48:	1a052015 	bne	148ba4 <_etext+0x146471>
     b4c:	2027052f 	eorcs	r0, r7, pc, lsr #10
     b50:	05580905 	ldrbeq	r0, [r8, #-2309]	; 0xfffff6fb
     b54:	19052016 	stmdbne	r5, {r1, r2, r4, sp}
     b58:	2009053f 	andcs	r0, r9, pc, lsr r5
     b5c:	05201505 	streq	r1, [r0, #-1285]!	; 0xfffffafb
     b60:	27052f1a 	smladcs	r5, sl, pc, r2	; <UNPREDICTABLE>
     b64:	58090520 	stmdapl	r9, {r5, r8, sl}
     b68:	05201605 	streq	r1, [r0, #-1541]!	; 0xfffff9fb
     b6c:	2205310e 	andcs	r3, r5, #-2147483645	; 0x80000003
     b70:	0d058408 	cfstrseq	mvf8, [r5, #-32]	; 0xffffffe0
     b74:	2222052f 	eorcs	r0, r2, #197132288	; 0xbc00000
     b78:	052f0d05 	streq	r0, [pc, #-3333]!	; fffffe7b <_ebss+0xdffffc5b>
     b7c:	0d052222 	sfmeq	f2, 4, [r5, #-136]	; 0xffffff78
     b80:	2222052f 	eorcs	r0, r2, #197132288	; 0xbc00000
     b84:	052f0d05 	streq	r0, [pc, #-3333]!	; fffffe87 <_ebss+0xdffffc67>
     b88:	0d052222 	sfmeq	f2, 4, [r5, #-136]	; 0xffffff78
     b8c:	2222052f 	eorcs	r0, r2, #197132288	; 0xbc00000
     b90:	053d0d05 	ldreq	r0, [sp, #-3333]!	; 0xfffff2fb
     b94:	0d052222 	sfmeq	f2, 4, [r5, #-136]	; 0xffffff78
     b98:	2222053d 	eorcs	r0, r2, #255852544	; 0xf400000
     b9c:	053d0d05 	ldreq	r0, [sp, #-3333]!	; 0xfffff2fb
     ba0:	0d052222 	sfmeq	f2, 4, [r5, #-136]	; 0xffffff78
     ba4:	0402003d 	streq	r0, [r2], #-61	; 0xffffffc3
     ba8:	08052201 	stmdaeq	r5, {r0, r9, sp}
     bac:	3d090523 	cfstr32cc	mvfx0, [r9, #-140]	; 0xffffff74
     bb0:	054a1a05 	strbeq	r1, [sl, #-2565]	; 0xfffff5fb
     bb4:	09054101 	stmdbeq	r5, {r0, r8, lr}
     bb8:	581a051e 	ldmdapl	sl, {r1, r2, r3, r4, r8, sl}
     bbc:	023e0105 	eorseq	r0, lr, #1073741825	; 0x40000001
     bc0:	01010015 	tsteq	r1, r5, lsl r0
     bc4:	05005105 	streq	r5, [r0, #-261]	; 0xfffffefb
     bc8:	00136402 	andseq	r6, r3, r2, lsl #8
     bcc:	02a10300 	adceq	r0, r1, #0, 6
     bd0:	00050501 	andeq	r0, r5, r1, lsl #10
     bd4:	67010402 	strvs	r0, [r1, -r2, lsl #8]
     bd8:	0301053d 	movweq	r0, #5437	; 0x153d
     bdc:	3005ba0b 	andcc	fp, r5, fp, lsl #20
     be0:	05207703 	streq	r7, [r0, #-1795]!	; 0xfffff8fd
     be4:	20052e0d 	andcs	r2, r5, sp, lsl #28
     be8:	201e054a 	andscs	r0, lr, sl, asr #10
     bec:	05210d05 	streq	r0, [r1, #-3333]!	; 0xfffff2fb
     bf0:	0d052232 	sfmeq	f2, 4, [r5, #-200]	; 0xffffff38
     bf4:	4a21052e 	bmi	8420b4 <_etext+0x83f981>
     bf8:	05201f05 	streq	r1, [r0, #-3845]!	; 0xfffff0fb
     bfc:	0522210d 	streq	r2, [r2, #-269]!	; 0xfffffef3
     c00:	1f055821 	svcne	0x00055821
     c04:	210d052e 	tstcs	sp, lr, lsr #10
     c08:	02220105 	eoreq	r0, r2, #1073741825	; 0x40000001
     c0c:	01010009 	tsteq	r1, r9
     c10:	05005005 	streq	r5, [r0, #-5]
     c14:	0013d802 	andseq	sp, r3, r2, lsl #16
     c18:	02b00300 	adcseq	r0, r0, #0, 6
     c1c:	67050501 	strvs	r0, [r5, -r1, lsl #10]
     c20:	0b030105 	bleq	c103c <_etext+0xbe909>
     c24:	031505ba 	tsteq	r5, #780140544	; 0x2e800000
     c28:	13052077 	movwne	r2, #20599	; 0x5077
     c2c:	2f0d0566 	svccs	0x000d0566
     c30:	05221505 	streq	r1, [r2, #-1285]!	; 0xfffffafb
     c34:	0d056613 	stceq	6, cr6, [r5, #-76]	; 0xffffffb4
     c38:	2215052f 	andscs	r0, r5, #197132288	; 0xbc00000
     c3c:	05581305 	ldrbeq	r1, [r8, #-773]	; 0xfffffcfb
     c40:	01052f0d 	tsteq	r5, sp, lsl #30
     c44:	00090222 	andeq	r0, r9, r2, lsr #4
     c48:	4f050101 	svcmi	0x00050101
     c4c:	44020500 	strmi	r0, [r2], #-1280	; 0xfffffb00
     c50:	03000014 	movweq	r0, #20
     c54:	050102be 	streq	r0, [r1, #-702]	; 0xfffffd42
     c58:	09057505 	stmdbeq	r5, {r0, r2, r8, sl, ip, sp, lr}
     c5c:	02040200 	andeq	r0, r4, #0, 4
     c60:	001a0521 	andseq	r0, sl, r1, lsr #10
     c64:	65020402 	strvs	r0, [r2, #-1026]	; 0xfffffbfe
     c68:	02002605 	andeq	r2, r0, #5242880	; 0x500000
     c6c:	053c0204 	ldreq	r0, [ip, #-516]!	; 0xfffffdfc
     c70:	04020005 	streq	r0, [r2], #-5
     c74:	08053c01 	stmdaeq	r5, {r0, sl, fp, ip, sp}
     c78:	3d09053f 	cfstr32cc	mvfx0, [r9, #-252]	; 0xffffff04
     c7c:	02000d05 	andeq	r0, r0, #320	; 0x140
     c80:	05210204 	streq	r0, [r1, #-516]!	; 0xfffffdfc
     c84:	0402001d 	streq	r0, [r2], #-29	; 0xffffffe3
     c88:	27056502 	strcs	r6, [r5, -r2, lsl #10]
     c8c:	02040200 	andeq	r0, r4, #0, 4
     c90:	0009053c 	andeq	r0, r9, ip, lsr r5
     c94:	3c010402 	cfstrscc	mvf0, [r1], {2}
     c98:	02400105 	subeq	r0, r0, #1073741825	; 0x40000001
     c9c:	01010004 	tsteq	r1, r4
     ca0:	05005605 	streq	r5, [r0, #-1541]	; 0xfffff9fb
     ca4:	0014a002 	andseq	sl, r4, r2
     ca8:	02c90300 	sbceq	r0, r9, #0, 6
     cac:	75050501 	strvc	r0, [r5, #-1281]	; 0xfffffaff
     cb0:	02000905 	andeq	r0, r0, #81920	; 0x14000
     cb4:	05210204 	streq	r0, [r1, #-516]!	; 0xfffffdfc
     cb8:	0402001a 	streq	r0, [r2], #-26	; 0xffffffe6
     cbc:	26056502 	strcs	r6, [r5], -r2, lsl #10
     cc0:	02040200 	andeq	r0, r4, #0, 4
     cc4:	0005053c 	andeq	r0, r5, ip, lsr r5
     cc8:	3c010402 	cfstrscc	mvf0, [r1], {2}
     ccc:	053f0805 	ldreq	r0, [pc, #-2053]!	; 4cf <UARTStdioConfig+0x77>
     cd0:	0d053d09 	stceq	13, cr3, [r5, #-36]	; 0xffffffdc
     cd4:	02040200 	andeq	r0, r4, #0, 4
     cd8:	001d0521 	andseq	r0, sp, r1, lsr #10
     cdc:	65020402 	strvs	r0, [r2, #-1026]	; 0xfffffbfe
     ce0:	02002705 	andeq	r2, r0, #1310720	; 0x140000
     ce4:	053c0204 	ldreq	r0, [ip, #-516]!	; 0xfffffdfc
     ce8:	04020009 	streq	r0, [r2], #-9
     cec:	01053c01 	tsteq	r5, r1, lsl #24
     cf0:	00040241 	andeq	r0, r4, r1, asr #4
     cf4:	26050101 	strcs	r0, [r5], -r1, lsl #2
     cf8:	00020500 	andeq	r0, r2, r0, lsl #10
     cfc:	03000000 	movweq	r0, #0
     d00:	050102d6 	streq	r0, [r1, #-726]	; 0xfffffd2a
     d04:	05053e0c 	streq	r3, [r5, #-3596]	; 0xfffff1f4
     d08:	0009052e 	andeq	r0, r9, lr, lsr #10
     d0c:	21030402 	tstcs	r3, r2, lsl #8
     d10:	02001905 	andeq	r1, r0, #81920	; 0x14000
     d14:	05490304 	strbeq	r0, [r9, #-772]	; 0xfffffcfc
     d18:	04020005 	streq	r0, [r2], #-5
     d1c:	01053c01 	tsteq	r5, r1, lsl #24
     d20:	0005023f 	andeq	r0, r5, pc, lsr r2
     d24:	36050101 	strcc	r0, [r5], -r1, lsl #2
     d28:	fc020500 	stc2	5, cr0, [r2], {-0}
     d2c:	03000014 	movweq	r0, #20
     d30:	050102dd 	streq	r0, [r1, #-733]	; 0xfffffd23
     d34:	11054c13 	tstne	r5, r3, lsl ip
     d38:	1405303c 	strne	r3, [r5], #-60	; 0xffffffc4
     d3c:	2e1c052e 	cfmul64cs	mvdx0, mvdx12, mvdx14
     d40:	3e201105 	sufccs	f1, f0, f5
     d44:	052e1405 	streq	r1, [lr, #-1029]!	; 0xfffffbfb
     d48:	11052e1c 	tstne	r5, ip, lsl lr
     d4c:	3d010520 	cfstr32cc	mvfx0, [r1, #-128]	; 0xffffff80
     d50:	01000d02 	tsteq	r0, r2, lsl #26
     d54:	003f0501 	eorseq	r0, pc, r1, lsl #10
     d58:	15480205 	strbne	r0, [r8, #-517]	; 0xfffffdfb
     d5c:	e6030000 	str	r0, [r3], -r0
     d60:	08050102 	stmdaeq	r5, {r1, r8}
     d64:	3d110559 	cfldr32cc	mvfx0, [r1, #-356]	; 0xfffffe9c
     d68:	053c0f05 	ldreq	r0, [ip, #-3845]!	; 0xfffff0fb
     d6c:	11053301 	tstne	r5, r1, lsl #6
     d70:	660f051e 			; <UNDEFINED> instruction: 0x660f051e
     d74:	02300105 	eorseq	r0, r0, #1073741825	; 0x40000001
     d78:	0101000a 	tsteq	r1, sl
     d7c:	05004005 	streq	r4, [r0, #-5]
     d80:	00158802 	andseq	r8, r5, r2, lsl #16
     d84:	02ef0300 	rsceq	r0, pc, #0, 6
     d88:	59080501 	stmdbpl	r8, {r0, r8, sl}
     d8c:	053d1105 	ldreq	r1, [sp, #-261]!	; 0xfffffefb
     d90:	22052e1a 	andcs	r2, r5, #416	; 0x1a0
     d94:	2e200520 	cfsh64cs	mvdx0, mvdx0, #16
     d98:	052e0e05 	streq	r0, [lr, #-3589]!	; 0xfffff1fb
     d9c:	20053301 	andcs	r3, r5, r1, lsl #6
     da0:	6631051e 			; <UNDEFINED> instruction: 0x6631051e
     da4:	05203905 	streq	r3, [r0, #-2309]!	; 0xfffff6fb
     da8:	3705664a 	strcc	r6, [r5, -sl, asr #12]
     dac:	20520520 	subscs	r0, r2, r0, lsr #10
     db0:	05666305 	strbeq	r6, [r6, #-773]!	; 0xfffffcfb
     db4:	6a052050 	bvs	148efc <_etext+0x1467c9>
     db8:	66680520 	strbtvs	r0, [r8], -r0, lsr #10
     dbc:	05201005 	streq	r1, [r0, #-5]!
     dc0:	0105200e 	tsteq	r5, lr
     dc4:	00130230 	andseq	r0, r3, r0, lsr r2
     dc8:	25050101 	strcs	r0, [r5, #-257]	; 0xfffffeff
     dcc:	14020500 	strne	r0, [r2], #-1280	; 0xfffffb00
     dd0:	03000016 	movweq	r0, #22
     dd4:	050102f8 	streq	r0, [r1, #-760]	; 0xfffffd08
     dd8:	2f2f2f05 	svccs	0x002f2f05
     ddc:	02300105 	eorseq	r0, r0, #1073741825	; 0x40000001
     de0:	01010002 	tsteq	r1, r2
     de4:	05003605 	streq	r3, [r0, #-1541]	; 0xfffff9fb
     de8:	00162802 	andseq	r2, r6, r2, lsl #16
     dec:	02ff0300 	rscseq	r0, pc, #0, 6
     df0:	5a010501 	bpl	421fc <_etext+0x3fac9>
     df4:	01000602 	tsteq	r0, r2, lsl #12
     df8:	00430501 	subeq	r0, r3, r1, lsl #10
     dfc:	16400205 	strbne	r0, [r0], -r5, lsl #4
     e00:	8c030000 	stchi	0, cr0, [r3], {-0}
     e04:	14050103 	strne	r0, [r5], #-259	; 0xfffffefd
     e08:	2f080559 	svccs	0x00080559
     e0c:	053d1905 	ldreq	r1, [sp, #-2309]!	; 0xfffff6fb
     e10:	28052e22 	stmdacs	r5, {r1, r5, r9, sl, fp, sp}
     e14:	202a0520 	eorcs	r0, sl, r0, lsr #10
     e18:	053c2805 	ldreq	r2, [ip, #-2053]!	; 0xfffff7fb
     e1c:	1c052e15 	stcne	14, cr2, [r5], {21}
     e20:	3c0c0523 	cfstr32cc	mvfx0, [ip], {35}	; 0x23
     e24:	052f1405 	streq	r1, [pc, #-1029]!	; a27 <GPIOPadConfigSet+0x5b>
     e28:	0c053115 	stfeqs	f3, [r5], {21}
     e2c:	3d19054b 	cfldr32cc	mvfx0, [r9, #-300]	; 0xfffffed4
     e30:	054d0905 	strbeq	r0, [sp, #-2309]	; 0xfffff6fb
     e34:	18052012 	stmdane	r5, {r1, r4, sp}
     e38:	6629054d 	strtvs	r0, [r9], -sp, asr #10
     e3c:	05202f05 	streq	r2, [r0, #-3845]!	; 0xfffff0fb
     e40:	2f052031 	svccs	0x00052031
     e44:	2e150574 	mrccs	5, 0, r0, cr5, cr4, {3}
     e48:	05220e05 	streq	r0, [r2, #-3589]!	; 0xfffff1fb
     e4c:	14054a0c 	strne	r4, [r5], #-2572	; 0xfffff5f4
     e50:	3115052f 	tstcc	r5, pc, lsr #10
     e54:	054c0905 	strbeq	r0, [ip, #-2309]	; 0xfffff6fb
     e58:	0c05581a 	stceq	8, cr5, [r5], {26}
     e5c:	2101053f 	tstcs	r1, pc, lsr r5
     e60:	01000e02 	tsteq	r0, r2, lsl #28
     e64:	00420501 	subeq	r0, r2, r1, lsl #10
     e68:	17000205 	strne	r0, [r0, -r5, lsl #4]
     e6c:	ac030000 	stcge	0, cr0, [r3], {-0}
     e70:	08050103 	stmdaeq	r5, {r0, r1, r8}
     e74:	3d120559 	cfldr32cc	mvfx0, [r2, #-356]	; 0xfffffe9c
     e78:	01040200 	mrseq	r0, R12_usr
     e7c:	02006606 	andeq	r6, r0, #6291456	; 0x600000
     e80:	002e0204 	eoreq	r0, lr, r4, lsl #4
     e84:	20040402 	andcs	r0, r4, r2, lsl #8
     e88:	02000105 	andeq	r0, r0, #1073741825	; 0x40000001
     e8c:	5d060404 	cfstrspl	mvf0, [r6, #-16]
     e90:	051e1a05 	ldreq	r1, [lr, #-2565]	; 0xfffff5fb
     e94:	0a02e601 	beq	ba6a0 <_etext+0xb7f6d>
     e98:	05010100 	streq	r0, [r1, #-256]	; 0xffffff00
     e9c:	02050038 	andeq	r0, r5, #56	; 0x38
     ea0:	00001760 	andeq	r1, r0, r0, ror #14
     ea4:	0103c903 	tsteq	r3, r3, lsl #18
     ea8:	09031705 	stmdbeq	r3, {r0, r2, r8, r9, sl, ip}
     eac:	3c08054a 	cfstr32cc	mvfx0, [r8], {74}	; 0x4a
     eb0:	052f1305 	streq	r1, [pc, #-773]!	; bb3 <SysCtlPeripheralPresent+0x13>
     eb4:	0c032e09 	stceq	14, cr2, [r3], {9}
     eb8:	3c080520 	cfstr32cc	mvfx0, [r8], {32}
     ebc:	052f1305 	streq	r1, [pc, #-773]!	; bbf <SysCtlPeripheralPresent+0x1f>
     ec0:	0a052e09 	beq	14c6ec <_etext+0x149fb9>
     ec4:	2e34053e 	mrccs	5, 1, r0, cr4, cr14, {1}
     ec8:	052e3205 	streq	r3, [lr, #-517]!	; 0xfffffdfb
     ecc:	0805205d 	stmdaeq	r5, {r0, r2, r3, r4, r6, sp}
     ed0:	2f13052e 	svccs	0x0013052e
     ed4:	052e0905 	streq	r0, [lr, #-2309]!	; 0xfffff6fb
     ed8:	34053e0a 	strcc	r3, [r5], #-3594	; 0xfffff1f6
     edc:	2e32052e 	cdpcs	5, 3, cr0, cr2, cr14, {1}
     ee0:	05205d05 	streq	r5, [r0, #-3333]!	; 0xfffff2fb
     ee4:	13052e08 	movwne	r2, #24072	; 0x5e08
     ee8:	2e09052f 	cfsh32cs	mvfx0, mvfx9, #31
     eec:	053e0a05 	ldreq	r0, [lr, #-2565]!	; 0xfffff5fb
     ef0:	32052e34 	andcc	r2, r5, #52, 28	; 0x340
     ef4:	205d052e 	subscs	r0, sp, lr, lsr #10
     ef8:	052e0805 	streq	r0, [lr, #-2053]!	; 0xfffff7fb
     efc:	09052f13 	stmdbeq	r5, {r0, r1, r4, r8, r9, sl, fp, sp}
     f00:	3f01052e 	svccc	0x0001052e
     f04:	01000602 	tsteq	r0, r2, lsl #12
     f08:	0004df01 	andeq	sp, r4, r1, lsl #30
     f0c:	3c000300 	stccc	3, cr0, [r0], {-0}
     f10:	02000001 	andeq	r0, r0, #1
     f14:	0d0efb01 	vstreq	d15, [lr, #-4]
     f18:	01010100 	mrseq	r0, (UNDEF: 17)
     f1c:	00000001 	andeq	r0, r0, r1
     f20:	01000001 	tsteq	r0, r1
     f24:	2e2f2e2e 	cdpcs	14, 2, cr2, cr15, cr14, {1}
     f28:	72732f2e 	rsbsvc	r2, r3, #46, 30	; 0xb8
     f2c:	72642f63 	rsbvc	r2, r4, #396	; 0x18c
     f30:	72657669 	rsbvc	r7, r5, #110100480	; 0x6900000
     f34:	6273752f 	rsbsvs	r7, r3, #197132288	; 0xbc00000
     f38:	5c3a6400 	cfldrspl	mvf6, [sl], #-0
     f3c:	2d636367 	stclcs	3, cr6, [r3, #-412]!	; 0xfffffe64
     f40:	2d6d7261 	sfmcs	f7, 2, [sp, #-388]!	; 0xfffffe7c
     f44:	656e6f6e 	strbvs	r6, [lr, #-3950]!	; 0xfffff092
     f48:	6261652d 	rsbvs	r6, r1, #188743680	; 0xb400000
     f4c:	30312d69 	eorscc	r2, r1, r9, ror #26
     f50:	3230322d 	eorscc	r3, r0, #-805306366	; 0xd0000002
     f54:	34712d30 	ldrbtcc	r2, [r1], #-3376	; 0xfffff2d0
     f58:	6a616d2d 	bvs	185c414 <_etext+0x1859ce1>
     f5c:	615c726f 	cmpvs	ip, pc, ror #4
     f60:	6e2d6d72 	mcrvs	13, 1, r6, cr13, cr2, {3}
     f64:	2d656e6f 	stclcs	14, cr6, [r5, #-444]!	; 0xfffffe44
     f68:	69626165 	stmdbvs	r2!, {r0, r2, r5, r6, r8, sp, lr}^
     f6c:	636e695c 	cmnvs	lr, #92, 18	; 0x170000
     f70:	6564756c 	strbvs	r7, [r4, #-1388]!	; 0xfffffa94
     f74:	63616d5c 	cmnvs	r1, #92, 26	; 0x1700
     f78:	656e6968 	strbvs	r6, [lr, #-2408]!	; 0xfffff698
     f7c:	5c3a6400 	cfldrspl	mvf6, [sl], #-0
     f80:	2d636367 	stclcs	3, cr6, [r3, #-412]!	; 0xfffffe64
     f84:	2d6d7261 	sfmcs	f7, 2, [sp, #-388]!	; 0xfffffe7c
     f88:	656e6f6e 	strbvs	r6, [lr, #-3950]!	; 0xfffff092
     f8c:	6261652d 	rsbvs	r6, r1, #188743680	; 0xb400000
     f90:	30312d69 	eorscc	r2, r1, r9, ror #26
     f94:	3230322d 	eorscc	r3, r0, #-805306366	; 0xd0000002
     f98:	34712d30 	ldrbtcc	r2, [r1], #-3376	; 0xfffff2d0
     f9c:	6a616d2d 	bvs	185c458 <_etext+0x1859d25>
     fa0:	615c726f 	cmpvs	ip, pc, ror #4
     fa4:	6e2d6d72 	mcrvs	13, 1, r6, cr13, cr2, {3}
     fa8:	2d656e6f 	stclcs	14, cr6, [r5, #-444]!	; 0xfffffe44
     fac:	69626165 	stmdbvs	r2!, {r0, r2, r5, r6, r8, sp, lr}^
     fb0:	636e695c 	cmnvs	lr, #92, 18	; 0x170000
     fb4:	6564756c 	strbvs	r7, [r4, #-1388]!	; 0xfffffa94
     fb8:	7379735c 	cmnvc	r9, #92, 6	; 0x70000001
     fbc:	2f2e2e00 	svccs	0x002e2e00
     fc0:	732f2e2e 			; <UNDEFINED> instruction: 0x732f2e2e
     fc4:	492f6372 	stmdbmi	pc!, {r1, r4, r5, r6, r8, r9, sp, lr}	; <UNPREDICTABLE>
     fc8:	752f434e 	strvc	r4, [pc, #-846]!	; c82 <SysCtlClockSet+0x96>
     fcc:	00006273 	andeq	r6, r0, r3, ror r2
     fd0:	64627375 	strbtvs	r7, [r2], #-885	; 0xfffffc8b
     fd4:	6172665f 	cmnvs	r2, pc, asr r6
     fd8:	6f77656d 	svcvs	0x0077656d
     fdc:	632e6b72 			; <UNDEFINED> instruction: 0x632e6b72
     fe0:	00000100 	andeq	r0, r0, r0, lsl #2
     fe4:	6665645f 			; <UNDEFINED> instruction: 0x6665645f
     fe8:	746c7561 	strbtvc	r7, [ip], #-1377	; 0xfffffa9f
     fec:	7079745f 	rsbsvc	r7, r9, pc, asr r4
     ff0:	682e7365 	stmdavs	lr!, {r0, r2, r5, r6, r8, r9, ip, sp, lr}
     ff4:	00000200 	andeq	r0, r0, r0, lsl #4
     ff8:	6474735f 	ldrbtvs	r7, [r4], #-863	; 0xfffffca1
     ffc:	2e746e69 	cdpcs	14, 7, cr6, cr4, cr9, {3}
    1000:	00030068 	andeq	r0, r3, r8, rrx
    1004:	62737500 	rsbsvs	r7, r3, #0, 10
    1008:	6174735f 	cmnvs	r4, pc, asr r3
    100c:	7261646e 	rsbvc	r6, r1, #1845493760	; 0x6e000000
    1010:	682e7364 	stmdavs	lr!, {r2, r5, r6, r8, r9, ip, sp, lr}
    1014:	00000400 	andeq	r0, r0, r0, lsl #8
    1018:	64627375 	strbtvs	r7, [r2], #-885	; 0xfffffc8b
    101c:	6972645f 	ldmdbvs	r2!, {r0, r1, r2, r3, r4, r6, sl, sp, lr}^
    1020:	2e726576 	mrccs	5, 3, r6, cr2, cr6, {3}
    1024:	00040068 	andeq	r0, r4, r8, rrx
    1028:	62737500 	rsbsvs	r7, r3, #0, 10
    102c:	7665645f 			; <UNDEFINED> instruction: 0x7665645f
    1030:	2e656369 	cdpcs	3, 6, cr6, cr5, cr9, {3}
    1034:	00040068 	andeq	r0, r4, r8, rrx
    1038:	62737500 	rsbsvs	r7, r3, #0, 10
    103c:	7365645f 	cmnvc	r5, #1593835520	; 0x5f000000
    1040:	70697263 	rsbvc	r7, r9, r3, ror #4
    1044:	73726f74 	cmnvc	r2, #116, 30	; 0x1d0
    1048:	0400682e 	streq	r6, [r0], #-2094	; 0xfffff7d2
    104c:	05000000 	streq	r0, [r0, #-0]
    1050:	02050026 	andeq	r0, r5, #38	; 0x26
    1054:	000017ec 	andeq	r1, r0, ip, ror #15
    1058:	05011003 	streq	r1, [r1, #-3]
    105c:	05054c0f 	streq	r4, [r5, #-3087]	; 0xfffff3f1
    1060:	210f052e 	tstcs	pc, lr, lsr #10
    1064:	052e0505 	streq	r0, [lr, #-1285]!	; 0xfffffafb
    1068:	0f052111 	svceq	0x00052111
    106c:	2e05053d 	mcrcs	5, 0, r0, cr5, cr13, {1}
    1070:	02210105 	eoreq	r0, r1, #1073741825	; 0x40000001
    1074:	01010008 	tsteq	r1, r8
    1078:	05001705 	streq	r1, [r0, #-1797]	; 0xfffff8fb
    107c:	00000002 	andeq	r0, r0, r2
    1080:	01180300 	tsteq	r8, r0, lsl #6
    1084:	052f0f05 	streq	r0, [pc, #-3845]!	; 187 <g_pfnVectors+0x187>
    1088:	01052e05 	tsteq	r5, r5, lsl #28
    108c:	00050221 	andeq	r0, r5, r1, lsr #4
    1090:	17050101 	strne	r0, [r5, -r1, lsl #2]
    1094:	00020500 	andeq	r0, r2, r0, lsl #10
    1098:	03000000 	movweq	r0, #0
    109c:	0f05011c 	svceq	0x0005011c
    10a0:	2e05052f 	cfsh32cs	mvfx0, mvfx5, #31
    10a4:	02210105 	eoreq	r0, r1, #1073741825	; 0x40000001
    10a8:	01010005 	tsteq	r1, r5
    10ac:	05000105 	streq	r0, [r0, #-261]	; 0xfffffefb
    10b0:	00181c02 	andseq	r1, r8, r2, lsl #24
    10b4:	01210300 			; <UNDEFINED> instruction: 0x01210300
    10b8:	053d2c05 	ldreq	r2, [sp, #-3077]!	; 0xfffff3fb
    10bc:	27052e17 	smladcs	r5, r7, lr, r2
    10c0:	2e0d052f 	cfsh32cs	mvfx0, mvfx13, #31
    10c4:	053d2805 	ldreq	r2, [sp, #-2053]!	; 0xfffff7fb
    10c8:	28052e0d 	stmdacs	r5, {r0, r2, r3, r9, sl, fp, sp}
    10cc:	2e0d053d 	mcrcs	5, 0, r0, cr13, cr13, {1}
    10d0:	3d3d0505 	cfldr32cc	mvfx0, [sp, #-20]!	; 0xffffffec
    10d4:	01040200 	mrseq	r0, R12_usr
    10d8:	02003c06 	andeq	r3, r0, #1536	; 0x600
    10dc:	002e0204 	eoreq	r0, lr, r4, lsl #4
    10e0:	20040402 	andcs	r0, r4, r2, lsl #8
    10e4:	04040200 	streq	r0, [r4], #-512	; 0xfffffe00
    10e8:	2d054b06 	vstrcs	d4, [r5, #-24]	; 0xffffffe8
    10ec:	3d2e053e 	cfstr32cc	mvfx0, [lr, #-248]!	; 0xffffff08
    10f0:	01040200 	mrseq	r0, R12_usr
    10f4:	02003c06 	andeq	r3, r0, #1536	; 0x600
    10f8:	052e0204 	streq	r0, [lr, #-516]!	; 0xfffffdfc
    10fc:	0402002d 	streq	r0, [r2], #-45	; 0xffffffd3
    1100:	052d0601 	streq	r0, [sp, #-1537]!	; 0xfffff9ff
    1104:	04020005 	streq	r0, [r2], #-5
    1108:	02002c01 	andeq	r2, r0, #256	; 0x100
    110c:	20060304 	andcs	r0, r6, r4, lsl #6
    1110:	03040200 	movweq	r0, #16896	; 0x4200
    1114:	31054e06 	tstcc	r5, r6, lsl #28
    1118:	3d30053e 	cfldr32cc	mvfx0, [r0, #-248]!	; 0xffffff08
    111c:	003d2d05 	eorseq	r2, sp, r5, lsl #26
    1120:	06010402 	streq	r0, [r1], -r2, lsl #8
    1124:	0402003c 	streq	r0, [r2], #-60	; 0xffffffc4
    1128:	30052e02 	andcc	r2, r5, r2, lsl #28
    112c:	01040200 	mrseq	r0, R12_usr
    1130:	31052d06 	tstcc	r5, r6, lsl #26
    1134:	01040200 	mrseq	r0, R12_usr
    1138:	0005052d 	andeq	r0, r5, sp, lsr #10
    113c:	2c010402 	cfstrscs	mvf0, [r1], {2}
    1140:	03040200 	movweq	r0, #16896	; 0x4200
    1144:	02002006 	andeq	r2, r0, #6
    1148:	50060304 	andpl	r0, r6, r4, lsl #6
    114c:	02001405 	andeq	r1, r0, #83886080	; 0x5000000
    1150:	053d0304 	ldreq	r0, [sp, #-772]!	; 0xfffffcfc
    1154:	3df50809 	ldclcc	8, cr0, [r5, #36]!	; 0x24
    1158:	3d223d22 	stccc	13, cr3, [r2, #-136]!	; 0xffffff78
    115c:	3d223d22 	stccc	13, cr3, [r2, #-136]!	; 0xffffff78
    1160:	3d223d22 	stccc	13, cr3, [r2, #-136]!	; 0xffffff78
    1164:	3d223d22 	stccc	13, cr3, [r2, #-136]!	; 0xffffff78
    1168:	3d223d22 	stccc	13, cr3, [r2, #-136]!	; 0xffffff78
    116c:	27057522 	strcs	r7, [r5, -r2, lsr #10]
    1170:	2e050523 	cfsh32cs	mvfx0, mvfx5, #19
    1174:	054b2705 	strbeq	r2, [fp, #-1797]	; 0xfffff8fb
    1178:	27052e05 	strcs	r2, [r5, -r5, lsl #28]
    117c:	2e05054b 	cfsh32cs	mvfx0, mvfx5, #43
    1180:	024b0105 	subeq	r0, fp, #1073741825	; 0x40000001
    1184:	01010042 	tsteq	r1, r2, asr #32
    1188:	05000105 	streq	r0, [r0, #-261]	; 0xfffffefb
    118c:	001a1402 	andseq	r1, sl, r2, lsl #8
    1190:	00e10300 	rsceq	r0, r1, r0, lsl #6
    1194:	2f050501 	svccs	0x00050501
    1198:	053d0d05 	ldreq	r0, [sp, #-3333]!	; 0xfffff2fb
    119c:	0d052e1c 	stceq	14, cr2, [r5, #-112]	; 0xffffff90
    11a0:	2e1d052f 	cfmul64cs	mvdx0, mvdx13, mvdx15
    11a4:	052f0d05 	streq	r0, [pc, #-3333]!	; 4a7 <UARTStdioConfig+0x4f>
    11a8:	0d052e23 	stceq	14, cr2, [r5, #-140]	; 0xffffff74
    11ac:	2e1c052f 	cfmul64cs	mvdx0, mvdx12, mvdx15
    11b0:	052f0d05 	streq	r0, [pc, #-3333]!	; 4b3 <UARTStdioConfig+0x5b>
    11b4:	0c052e26 	stceq	14, cr2, [r5], {38}	; 0x26
    11b8:	2e02052f 	cfsh32cs	mvfx0, mvfx2, #31
    11bc:	022f0105 	eoreq	r0, pc, #1073741825	; 0x40000001
    11c0:	01010009 	tsteq	r1, r9
    11c4:	05003305 	streq	r3, [r0, #-773]	; 0xfffffcfb
    11c8:	001a6002 	andseq	r6, sl, r2
    11cc:	00eb0300 	rsceq	r0, fp, r0, lsl #6
    11d0:	3d2c0501 	cfstr32cc	mvfx0, [ip, #-4]!
    11d4:	052e1705 	streq	r1, [lr, #-1797]!	; 0xfffff8fb
    11d8:	05052f14 	streq	r2, [r5, #-3860]	; 0xfffff0ec
    11dc:	4c13052e 	cfldr32mi	mvfx0, [r3], {46}	; 0x2e
    11e0:	3e2e0905 	vmulcc.f16	s0, s28, s10	; <UNPREDICTABLE>
    11e4:	053d3605 	ldreq	r3, [sp, #-1541]!	; 0xfffff9fb
    11e8:	1e052e1d 	mcrne	14, 0, r2, cr5, cr13, {0}
    11ec:	3d09053d 	cfstr32cc	mvfx0, [r9, #-244]	; 0xffffff0c
    11f0:	053e0d05 	ldreq	r0, [lr, #-3333]!	; 0xfffff2fb
    11f4:	28053d18 	stmdacs	r5, {r3, r4, r8, sl, fp, ip, sp}
    11f8:	3018052e 	andscc	r0, r8, lr, lsr #10
    11fc:	052e2705 	streq	r2, [lr, #-1797]!	; 0xfffff8fb
    1200:	18052f0d 	stmdane	r5, {r0, r2, r3, r8, r9, sl, fp, sp}
    1204:	2e31053d 	mrccs	5, 1, r0, cr1, cr13, {1}
    1208:	052f0d05 	streq	r0, [pc, #-3333]!	; 50b <UARTwrite+0x23>
    120c:	13052209 	movwne	r2, #21001	; 0x5209
    1210:	2e090522 	cfsh32cs	mvfx0, mvfx9, #18
    1214:	3d1e053e 	cfldr32cc	mvfx0, [lr, #-248]	; 0xffffff08
    1218:	053d1305 	ldreq	r1, [sp, #-773]!	; 0xfffffcfb
    121c:	244b2e09 	strbcs	r2, [fp], #-3593	; 0xfffff1f7
    1220:	2074033d 	rsbscs	r0, r4, sp, lsr r3
    1224:	0e030105 	adfeqs	f0, f3, f5
    1228:	00150220 	andseq	r0, r5, r0, lsr #4
    122c:	23050101 	movwcs	r0, #20737	; 0x5101
    1230:	20020500 	andcs	r0, r2, r0, lsl #10
    1234:	0300001b 	movweq	r0, #27
    1238:	0501018e 	streq	r0, [r1, #-398]	; 0xfffffe72
    123c:	17053d2c 	strne	r3, [r5, -ip, lsr #26]
    1240:	2f05052e 	svccs	0x0005052e
    1244:	052f1305 	streq	r1, [pc, #-773]!	; f47 <USBPinInitialize+0x5f>
    1248:	05052e23 	streq	r2, [r5, #-3619]	; 0xfffff1dd
    124c:	300d052e 	andcc	r0, sp, lr, lsr #10
    1250:	0105222f 	tsteq	r5, pc, lsr #4
    1254:	00070222 	andeq	r0, r7, r2, lsr #4
    1258:	2e050101 	adfcss	f0, f5, f1
    125c:	54020500 	strpl	r0, [r2], #-1280	; 0xfffffb00
    1260:	0300001b 	movweq	r0, #27
    1264:	0501019a 	streq	r0, [r1, #-410]	; 0xfffffe66
    1268:	0d053d17 	stceq	13, cr3, [r5, #-92]	; 0xffffffa4
    126c:	27054e08 	strcs	r4, [r5, -r8, lsl #28]
    1270:	821b053d 	andshi	r0, fp, #255852544	; 0xf400000
    1274:	05211705 	streq	r1, [r1, #-1797]!	; 0xfffff8fb
    1278:	0d052e33 	stceq	14, cr2, [r5, #-204]	; 0xffffff34
    127c:	5927052e 	stmdbpl	r7!, {r1, r2, r3, r5, r8, sl}
    1280:	05832805 	streq	r2, [r3, #2053]	; 0x805
    1284:	1805840d 	stmdane	r5, {r0, r2, r3, sl, pc}
    1288:	2e31053d 	mrccs	5, 1, r0, cr1, cr13, {1}
    128c:	05301c05 	ldreq	r1, [r0, #-3077]!	; 0xfffff3fb
    1290:	33053c10 	movwcc	r3, #23568	; 0x5c10
    1294:	2014052f 	andscs	r0, r4, pc, lsr #10
    1298:	053d2205 	ldreq	r2, [sp, #-517]!	; 0xfffffdfb
    129c:	17052e18 	smladne	r5, r8, lr, r2
    12a0:	2f19054a 	svccs	0x0019054a
    12a4:	055b1505 	ldrbeq	r1, [fp, #-1285]	; 0xfffffafb
    12a8:	39053d20 	stmdbcc	r5, {r5, r8, sl, fp, ip, sp}
    12ac:	030d052e 	movweq	r0, #54574	; 0xd52e
    12b0:	27052e0c 	strcs	r2, [r5, -ip, lsl #28]
    12b4:	05207703 	streq	r7, [r0, #-1795]!	; 0xfffff8fd
    12b8:	17052e1d 	smladne	r5, sp, lr, r2
    12bc:	2f19054a 	svccs	0x0019054a
    12c0:	055b1505 	ldrbeq	r1, [fp, #-1285]	; 0xfffffafb
    12c4:	39053d20 	stmdbcc	r5, {r5, r8, sl, fp, ip, sp}
    12c8:	320d052e 	andcc	r0, sp, #192937984	; 0xb800000
    12cc:	05221105 	streq	r1, [r2, #-261]!	; 0xfffffefb
    12d0:	1f052e07 	svcne	0x00052e07
    12d4:	2e15054c 	cfmac32cs	mvfx0, mvfx5, mvfx12
    12d8:	054a0f05 	strbeq	r0, [sl, #-3845]	; 0xfffff0fb
    12dc:	07052f11 	smladeq	r5, r1, pc, r2	; <UNPREDICTABLE>
    12e0:	3d12055b 	cfldr32cc	mvfx0, [r2, #-364]	; 0xfffffe94
    12e4:	052e2b05 	streq	r2, [lr, #-2821]!	; 0xfffff4fb
    12e8:	18052f0d 	stmdane	r5, {r0, r2, r3, r8, r9, sl, fp, sp}
    12ec:	2e310522 	cdpcs	5, 3, cr0, cr1, cr2, {1}
    12f0:	03300d05 	teqeq	r0, #320	; 0x140
    12f4:	01052e72 	tsteq	r5, r2, ror lr
    12f8:	02201003 	eoreq	r1, r0, #3
    12fc:	01010013 	tsteq	r1, r3, lsl r0
    1300:	05000105 	streq	r0, [r0, #-261]	; 0xfffffefb
    1304:	001cac02 	andseq	sl, ip, r2, lsl #24
    1308:	01ce0300 	biceq	r0, lr, r0, lsl #6
    130c:	4b110501 	blmi	442718 <_etext+0x43ffe5>
    1310:	053c0505 	ldreq	r0, [ip, #-1285]!	; 0xfffffafb
    1314:	0e053003 	cdpeq	0, 0, cr3, cr5, cr3, {0}
    1318:	2e27053d 	mcrcs	5, 1, r0, cr7, cr13, {1}
    131c:	02350105 	eorseq	r0, r5, #1073741825	; 0x40000001
    1320:	01010008 	tsteq	r1, r8
    1324:	05005805 	streq	r5, [r0, #-2053]	; 0xfffff7fb
    1328:	001cdc02 	andseq	sp, ip, r2, lsl #24
    132c:	01dc0300 	bicseq	r0, ip, r0, lsl #6
    1330:	67140501 	ldrvs	r0, [r4, -r1, lsl #10]
    1334:	052e0705 	streq	r0, [lr, #-1797]!	; 0xfffff8fb
    1338:	32053213 	andcc	r3, r5, #805306369	; 0x30000001
    133c:	2e09052e 	cfsh32cs	mvfx0, mvfx9, #30
    1340:	054b4405 	strbeq	r4, [fp, #-1029]	; 0xfffffbfb
    1344:	305a3c09 	subscc	r3, sl, r9, lsl #24
    1348:	43010530 	movwmi	r0, #5424	; 0x1530
    134c:	02000e05 	andeq	r0, r0, #5, 28	; 0x50
    1350:	051e0104 	ldreq	r0, [lr, #-260]	; 0xfffffefc
    1354:	09022201 	stmdbeq	r2, {r0, r9, sp}
    1358:	05010100 	streq	r0, [r1, #-256]	; 0xffffff00
    135c:	02050051 	andeq	r0, r5, #81	; 0x51
    1360:	00001d34 	andeq	r1, r0, r4, lsr sp
    1364:	0101f303 	tsteq	r1, r3, lsl #6	; <UNPREDICTABLE>
    1368:	05591205 	ldrbeq	r1, [r9, #-517]	; 0xfffffdfb
    136c:	14052f13 	strne	r2, [r5], #-3859	; 0xfffff0ed
    1370:	300f052f 	andcc	r0, pc, pc, lsr #10
    1374:	052e0505 	streq	r0, [lr, #-1285]!	; 0xfffffafb
    1378:	05055a0f 	streq	r5, [r5, #-2575]	; 0xfffff5f1
    137c:	0568592e 	strbeq	r5, [r8, #-2350]!	; 0xfffff6d2
    1380:	10053f20 	andne	r3, r5, r0, lsr #30
    1384:	2f1b053c 	svccs	0x001b053c
    1388:	05201105 	streq	r1, [r0, #-261]!	; 0xfffffefb
    138c:	4a14030d 	bmi	501fc8 <_etext+0x4ff895>
    1390:	05221105 	streq	r1, [r2, #-261]!	; 0xfffffefb
    1394:	11053c10 	tstne	r5, r0, lsl ip
    1398:	8a0d052f 	bhi	34285c <_etext+0x340129>
    139c:	7a031605 	bvc	c6bb8 <_etext+0xc4485>
    13a0:	3c150520 	cfldr32cc	mvfx0, [r5], {32}
    13a4:	052f1105 	streq	r1, [pc, #-261]!	; 12a7 <ConfigureTxRxFIFOSize+0x83>
    13a8:	1105870d 	tstne	r5, sp, lsl #14
    13ac:	5a0d051e 	bpl	34282c <_etext+0x3400f9>
    13b0:	05207503 	streq	r7, [r0, #-1283]!	; 0xfffffafd
    13b4:	200d0305 	andcs	r0, sp, r5, lsl #6
    13b8:	053d0f05 	ldreq	r0, [sp, #-3845]!	; 0xfffff0fb
    13bc:	01052e05 	tsteq	r5, r5, lsl #28
    13c0:	0013024d 	andseq	r0, r3, sp, asr #4
    13c4:	1f050101 	svcne	0x00050101
    13c8:	0c020500 	cfstr32eq	mvfx0, [r2], {-0}
    13cc:	0300001e 	movweq	r0, #30
    13d0:	050102ae 	streq	r0, [r1, #-686]	; 0xfffffd52
    13d4:	0f053d12 	svceq	0x00053d12
    13d8:	2e050530 	cfmv64hrcs	mvdx5, r0
    13dc:	053d0f05 	ldreq	r0, [sp, #-3845]!	; 0xfffff0fb
    13e0:	01052e05 	tsteq	r5, r5, lsl #28
    13e4:	023c1203 	eorseq	r1, ip, #805306368	; 0x30000000
    13e8:	01010007 	tsteq	r1, r7
    13ec:	00000172 	andeq	r0, r0, r2, ror r1
    13f0:	00bd0003 	adcseq	r0, sp, r3
    13f4:	01020000 	mrseq	r0, (UNDEF: 2)
    13f8:	000d0efb 	strdeq	r0, [sp], -fp
    13fc:	01010101 	tsteq	r1, r1, lsl #2
    1400:	01000000 	mrseq	r0, (UNDEF: 0)
    1404:	2e010000 	cdpcs	0, 0, cr0, cr1, cr0, {0}
    1408:	2e2e2f2e 	cdpcs	15, 2, cr2, cr14, cr14, {1}
    140c:	6372732f 	cmnvs	r2, #-1140850688	; 0xbc000000
    1410:	6972642f 	ldmdbvs	r2!, {r0, r1, r2, r3, r5, sl, sp, lr}^
    1414:	2f726576 	svccs	0x00726576
    1418:	00627375 	rsbeq	r7, r2, r5, ror r3
    141c:	675c3a64 	ldrbvs	r3, [ip, -r4, ror #20]
    1420:	612d6363 			; <UNDEFINED> instruction: 0x612d6363
    1424:	6e2d6d72 	mcrvs	13, 1, r6, cr13, cr2, {3}
    1428:	2d656e6f 	stclcs	14, cr6, [r5, #-444]!	; 0xfffffe44
    142c:	69626165 	stmdbvs	r2!, {r0, r2, r5, r6, r8, sp, lr}^
    1430:	2d30312d 	ldfcss	f3, [r0, #-180]!	; 0xffffff4c
    1434:	30323032 	eorscc	r3, r2, r2, lsr r0
    1438:	2d34712d 	ldfcss	f7, [r4, #-180]!	; 0xffffff4c
    143c:	6f6a616d 	svcvs	0x006a616d
    1440:	696c5c72 	stmdbvs	ip!, {r1, r4, r5, r6, sl, fp, ip, lr}^
    1444:	63675c62 	cmnvs	r7, #25088	; 0x6200
    1448:	72615c63 	rsbvc	r5, r1, #25344	; 0x6300
    144c:	6f6e2d6d 	svcvs	0x006e2d6d
    1450:	652d656e 	strvs	r6, [sp, #-1390]!	; 0xfffffa92
    1454:	5c696261 	sfmpl	f6, 2, [r9], #-388	; 0xfffffe7c
    1458:	322e3031 	eorcc	r3, lr, #49	; 0x31
    145c:	695c312e 	ldmdbvs	ip, {r1, r2, r3, r5, r8, ip, sp}^
    1460:	756c636e 	strbvc	r6, [ip, #-878]!	; 0xfffffc92
    1464:	2e006564 	cfsh32cs	mvfx6, mvfx0, #52
    1468:	2e2e2f2e 	cdpcs	15, 2, cr2, cr14, cr14, {1}
    146c:	6372732f 	cmnvs	r2, #-1140850688	; 0xbc000000
    1470:	434e492f 	movtmi	r4, #59695	; 0xe92f
    1474:	6273752f 	rsbsvs	r7, r3, #197132288	; 0xbc00000
    1478:	6f6c0000 	svcvs	0x006c0000
    147c:	65645f67 	strbvs	r5, [r4, #-3943]!	; 0xfffff099
    1480:	2e677562 	cdpcs	5, 6, cr7, cr7, cr2, {3}
    1484:	00010063 	andeq	r0, r1, r3, rrx
    1488:	64747300 	ldrbtvs	r7, [r4], #-768	; 0xfffffd00
    148c:	2e677261 	cdpcs	2, 6, cr7, cr7, cr1, {3}
    1490:	00020068 	andeq	r0, r2, r8, rrx
    1494:	676f6c00 	strbvs	r6, [pc, -r0, lsl #24]!
    1498:	6265645f 	rsbvs	r6, r5, #1593835520	; 0x5f000000
    149c:	682e6775 	stmdavs	lr!, {r0, r2, r4, r5, r6, r8, r9, sl, sp, lr}
    14a0:	00000300 	andeq	r0, r0, r0, lsl #6
    14a4:	6975623c 	ldmdbvs	r5!, {r2, r3, r4, r5, r9, sp, lr}^
    14a8:	692d746c 	pushvs	{r2, r3, r5, r6, sl, ip, sp, lr}
    14ac:	00003e6e 	andeq	r3, r0, lr, ror #28
    14b0:	05000000 	streq	r0, [r0, #-0]
    14b4:	02050057 	andeq	r0, r5, #87	; 0x57
    14b8:	00001e38 	andeq	r1, r0, r8, lsr lr
    14bc:	75120518 	ldrvc	r0, [r2, #-1304]	; 0xfffffae8
    14c0:	052f0505 	streq	r0, [pc, #-1285]!	; fc3 <USBBusDisconnect+0xf>
    14c4:	05053d0b 	streq	r3, [r5, #-3339]	; 0xfffff2f5
    14c8:	0022052e 	eoreq	r0, r2, lr, lsr #10
    14cc:	21030402 	tstcs	r3, r2, lsl #8
    14d0:	02000905 	andeq	r0, r0, #81920	; 0x14000
    14d4:	054a0304 	strbeq	r0, [sl, #-772]	; 0xfffffcfc
    14d8:	0402001a 	streq	r0, [r2], #-26	; 0xffffffe6
    14dc:	11054903 	tstne	r5, r3, lsl #18
    14e0:	01040200 	mrseq	r0, R12_usr
    14e4:	0005053c 	andeq	r0, r5, ip, lsr r5
    14e8:	20010402 	andcs	r0, r1, r2, lsl #8
    14ec:	3d01053f 	cfstr32cc	mvfx0, [r1, #-252]	; 0xffffff04
    14f0:	01000902 	tsteq	r0, r2, lsl #18
    14f4:	00010501 	andeq	r0, r1, r1, lsl #10
    14f8:	1e8c0205 	cdpne	2, 8, cr0, cr12, cr5, {0}
    14fc:	12030000 	andne	r0, r3, #0
    1500:	59050501 	stmdbpl	r5, {r0, r8, sl}
    1504:	30a11405 	adccc	r1, r1, r5, lsl #8
    1508:	300c0530 	andcc	r0, ip, r0, lsr r5
    150c:	02210105 	eoreq	r0, r1, #1073741825	; 0x40000001
    1510:	0101000e 	tsteq	r1, lr
    1514:	05002f05 	streq	r2, [r0, #-3845]	; 0xfffff0fb
    1518:	001ed402 	andseq	sp, lr, r2, lsl #8
    151c:	01200300 			; <UNDEFINED> instruction: 0x01200300
    1520:	3d4c0505 	cfstr64cc	mvdx0, [ip, #-20]	; 0xffffffec
    1524:	01054b83 	smlabbeq	r5, r3, fp, r4
    1528:	000c023e 	andeq	r0, ip, lr, lsr r2
    152c:	30050101 	andcc	r0, r5, r1, lsl #2
    1530:	00020500 	andeq	r0, r2, r0, lsl #10
    1534:	03000000 	movweq	r0, #0
    1538:	05050129 	streq	r0, [r5, #-297]	; 0xfffffed7
    153c:	4b833d4c 	blmi	fe0d0a74 <_ebss+0xde0d0854>
    1540:	023e0105 	eorseq	r0, lr, #1073741825	; 0x40000001
    1544:	0101000c 	tsteq	r1, ip
    1548:	05003105 	streq	r3, [r0, #-261]	; 0xfffffefb
    154c:	001f1802 	andseq	r1, pc, r2, lsl #16
    1550:	01320300 	teqeq	r2, r0, lsl #6
    1554:	3d4c0505 	cfstr64cc	mvdx0, [ip, #-20]	; 0xffffffec
    1558:	01054b83 	smlabbeq	r5, r3, fp, r4
    155c:	000c023e 	andeq	r0, ip, lr, lsr r2
    1560:	02440101 	subeq	r0, r4, #1073741824	; 0x40000000
    1564:	00030000 	andeq	r0, r3, r0
    1568:	00000154 	andeq	r0, r0, r4, asr r1
    156c:	0efb0102 	cdpeq	1, 15, cr0, cr11, cr2, {0}
    1570:	0101000d 	tsteq	r1, sp
    1574:	00000101 	andeq	r0, r0, r1, lsl #2
    1578:	00000100 	andeq	r0, r0, r0, lsl #2
    157c:	2f2e2e01 	svccs	0x002e2e01
    1580:	732f2e2e 			; <UNDEFINED> instruction: 0x732f2e2e
    1584:	642f6372 	strtvs	r6, [pc], #-882	; 158c <USBGetEndpointStatus+0x4>
    1588:	65766972 	ldrbvs	r6, [r6, #-2418]!	; 0xfffff68e
    158c:	3a640072 	bcc	190175c <_etext+0x18ff029>
    1590:	6363675c 	cmnvs	r3, #92, 14	; 0x1700000
    1594:	6d72612d 	ldfvse	f6, [r2, #-180]!	; 0xffffff4c
    1598:	6e6f6e2d 	cdpvs	14, 6, cr6, cr15, cr13, {1}
    159c:	61652d65 	cmnvs	r5, r5, ror #26
    15a0:	312d6962 			; <UNDEFINED> instruction: 0x312d6962
    15a4:	30322d30 	eorscc	r2, r2, r0, lsr sp
    15a8:	712d3032 			; <UNDEFINED> instruction: 0x712d3032
    15ac:	616d2d34 	cmnvs	sp, r4, lsr sp
    15b0:	5c726f6a 	ldclpl	15, cr6, [r2], #-424	; 0xfffffe58
    15b4:	2d6d7261 	sfmcs	f7, 2, [sp, #-388]!	; 0xfffffe7c
    15b8:	656e6f6e 	strbvs	r6, [lr, #-3950]!	; 0xfffff092
    15bc:	6261652d 	rsbvs	r6, r1, #188743680	; 0xb400000
    15c0:	6e695c69 	cdpvs	12, 6, cr5, cr9, cr9, {3}
    15c4:	64756c63 	ldrbtvs	r6, [r5], #-3171	; 0xfffff39d
    15c8:	616d5c65 	cmnvs	sp, r5, ror #24
    15cc:	6e696863 	cdpvs	8, 6, cr6, cr9, cr3, {3}
    15d0:	3a640065 	bcc	190176c <_etext+0x18ff039>
    15d4:	6363675c 	cmnvs	r3, #92, 14	; 0x1700000
    15d8:	6d72612d 	ldfvse	f6, [r2, #-180]!	; 0xffffff4c
    15dc:	6e6f6e2d 	cdpvs	14, 6, cr6, cr15, cr13, {1}
    15e0:	61652d65 	cmnvs	r5, r5, ror #26
    15e4:	312d6962 			; <UNDEFINED> instruction: 0x312d6962
    15e8:	30322d30 	eorscc	r2, r2, r0, lsr sp
    15ec:	712d3032 			; <UNDEFINED> instruction: 0x712d3032
    15f0:	616d2d34 	cmnvs	sp, r4, lsr sp
    15f4:	5c726f6a 	ldclpl	15, cr6, [r2], #-424	; 0xfffffe58
    15f8:	2d6d7261 	sfmcs	f7, 2, [sp, #-388]!	; 0xfffffe7c
    15fc:	656e6f6e 	strbvs	r6, [lr, #-3950]!	; 0xfffff092
    1600:	6261652d 	rsbvs	r6, r1, #188743680	; 0xb400000
    1604:	6e695c69 	cdpvs	12, 6, cr5, cr9, cr9, {3}
    1608:	64756c63 	ldrbtvs	r6, [r5], #-3171	; 0xfffff39d
    160c:	79735c65 	ldmdbvc	r3!, {r0, r2, r5, r6, sl, fp, ip, lr}^
    1610:	3a640073 	bcc	19017e4 <_etext+0x18ff0b1>
    1614:	6363675c 	cmnvs	r3, #92, 14	; 0x1700000
    1618:	6d72612d 	ldfvse	f6, [r2, #-180]!	; 0xffffff4c
    161c:	6e6f6e2d 	cdpvs	14, 6, cr6, cr15, cr13, {1}
    1620:	61652d65 	cmnvs	r5, r5, ror #26
    1624:	312d6962 			; <UNDEFINED> instruction: 0x312d6962
    1628:	30322d30 	eorscc	r2, r2, r0, lsr sp
    162c:	712d3032 			; <UNDEFINED> instruction: 0x712d3032
    1630:	616d2d34 	cmnvs	sp, r4, lsr sp
    1634:	5c726f6a 	ldclpl	15, cr6, [r2], #-424	; 0xfffffe58
    1638:	5c62696c 			; <UNDEFINED> instruction: 0x5c62696c
    163c:	5c636367 	stclpl	3, cr6, [r3], #-412	; 0xfffffe64
    1640:	2d6d7261 	sfmcs	f7, 2, [sp, #-388]!	; 0xfffffe7c
    1644:	656e6f6e 	strbvs	r6, [lr, #-3950]!	; 0xfffff092
    1648:	6261652d 	rsbvs	r6, r1, #188743680	; 0xb400000
    164c:	30315c69 	eorscc	r5, r1, r9, ror #24
    1650:	312e322e 			; <UNDEFINED> instruction: 0x312e322e
    1654:	636e695c 	cmnvs	lr, #92, 18	; 0x170000
    1658:	6564756c 	strbvs	r7, [r4, #-1388]!	; 0xfffffa94
    165c:	2f2e2e00 	svccs	0x002e2e00
    1660:	732f2e2e 			; <UNDEFINED> instruction: 0x732f2e2e
    1664:	492f6372 	stmdbmi	pc!, {r1, r4, r5, r6, r8, r9, sp, lr}	; <UNPREDICTABLE>
    1668:	0000434e 	andeq	r4, r0, lr, asr #6
    166c:	75626564 	strbvc	r6, [r2, #-1380]!	; 0xfffffa9c
    1670:	70632e67 	rsbvc	r2, r3, r7, ror #28
    1674:	00010070 	andeq	r0, r1, r0, ror r0
    1678:	65645f00 	strbvs	r5, [r4, #-3840]!	; 0xfffff100
    167c:	6c756166 	ldfvse	f6, [r5], #-408	; 0xfffffe68
    1680:	79745f74 	ldmdbvc	r4!, {r2, r4, r5, r6, r8, r9, sl, fp, ip, lr}^
    1684:	2e736570 	mrccs	5, 3, r6, cr3, cr0, {3}
    1688:	00020068 	andeq	r0, r2, r8, rrx
    168c:	74735f00 	ldrbtvc	r5, [r3], #-3840	; 0xfffff100
    1690:	746e6964 	strbtvc	r6, [lr], #-2404	; 0xfffff69c
    1694:	0300682e 	movweq	r6, #2094	; 0x82e
    1698:	74730000 	ldrbtvc	r0, [r3], #-0
    169c:	67726164 	ldrbvs	r6, [r2, -r4, ror #2]!
    16a0:	0400682e 	streq	r6, [r0], #-2094	; 0xfffff7d2
    16a4:	65640000 	strbvs	r0, [r4, #-0]!
    16a8:	2e677562 	cdpcs	5, 6, cr7, cr7, cr2, {3}
    16ac:	00050068 	andeq	r0, r5, r8, rrx
    16b0:	75623c00 	strbvc	r3, [r2, #-3072]!	; 0xfffff400
    16b4:	2d746c69 	ldclcs	12, cr6, [r4, #-420]!	; 0xfffffe5c
    16b8:	003e6e69 	eorseq	r6, lr, r9, ror #28
    16bc:	00000000 	andeq	r0, r0, r0
    16c0:	05000105 	streq	r0, [r0, #-261]	; 0xfffffefb
    16c4:	001f5c02 	andseq	r5, pc, r2, lsl #24
    16c8:	010b0300 	mrseq	r0, (UNDEF: 59)
    16cc:	05590f05 	ldrbeq	r0, [r9, #-3845]	; 0xfffff0fb
    16d0:	06025a01 	streq	r5, [r2], -r1, lsl #20
    16d4:	05010100 	streq	r0, [r1, #-256]	; 0xffffff00
    16d8:	02050001 	andeq	r0, r5, #1
    16dc:	00000000 	andeq	r0, r0, r0
    16e0:	05011103 	streq	r1, [r1, #-259]	; 0xfffffefd
    16e4:	1405590c 	strne	r5, [r5], #-2316	; 0xfffff6f4
    16e8:	30303108 	eorscc	r3, r0, r8, lsl #2
    16ec:	30303030 	eorscc	r3, r0, r0, lsr r0
    16f0:	02220105 	eoreq	r0, r2, #1073741825	; 0x40000001
    16f4:	01010015 	tsteq	r1, r5, lsl r0
    16f8:	05000105 	streq	r0, [r0, #-261]	; 0xfffffefb
    16fc:	00000002 	andeq	r0, r0, r2
    1700:	01250300 			; <UNDEFINED> instruction: 0x01250300
    1704:	054b1605 	strbeq	r1, [fp, #-1541]	; 0xfffff9fb
    1708:	07023d01 	streq	r3, [r2, -r1, lsl #26]
    170c:	05010100 	streq	r0, [r1, #-256]	; 0xffffff00
    1710:	02050036 	andeq	r0, r5, #54	; 0x36
    1714:	00000000 	andeq	r0, r0, r0
    1718:	05012903 	streq	r2, [r1, #-2307]	; 0xfffff6fd
    171c:	1c056705 	stcne	7, cr6, [r5], {5}
    1720:	201a053d 	andscs	r0, sl, sp, lsr r5
    1724:	02300105 	eorseq	r0, r0, #1073741825	; 0x40000001
    1728:	01010006 	tsteq	r1, r6
    172c:	05004705 	streq	r4, [r0, #-1797]	; 0xfffff8fb
    1730:	00000002 	andeq	r0, r0, r2
    1734:	012f0300 			; <UNDEFINED> instruction: 0x012f0300
    1738:	05760505 	ldrbeq	r0, [r6, #-1285]!	; 0xfffffafb
    173c:	17053d08 	strne	r3, [r5, -r8, lsl #26]
    1740:	2e050520 	cfsh32cs	mvfx0, mvfx5, #16
    1744:	052f1305 	streq	r1, [pc, #-773]!	; 1447 <readPacket+0x3>
    1748:	09059211 	stmdbeq	r5, {r0, r4, r9, ip, pc}
    174c:	030d0520 	movweq	r0, #54560	; 0xd520
    1750:	17054a0b 	strne	r4, [r5, -fp, lsl #20]
    1754:	05207803 	streq	r7, [r0, #-2051]!	; 0xfffff7fd
    1758:	17053d0d 	strne	r3, [r5, -sp, lsl #26]
    175c:	3d0d0523 	cfstr32cc	mvfx0, [sp, #-140]	; 0xffffff74
    1760:	05261405 	streq	r1, [r6, #-1029]!	; 0xfffffbfb
    1764:	17054b09 	strne	r4, [r5, -r9, lsl #22]
    1768:	3e13053d 	mrccc	5, 0, r0, cr3, cr13, {1}
    176c:	08400105 	stmdaeq	r0, {r0, r2, r8}^
    1770:	05010100 	streq	r0, [r1, #-256]	; 0xffffff00
    1774:	0205001b 	andeq	r0, r5, #27
    1778:	00000000 	andeq	r0, r0, r0
    177c:	0100cd03 	tsteq	r0, r3, lsl #26
    1780:	04020058 	streq	r0, [r2], #-88	; 0xffffffa8
    1784:	053c0601 	ldreq	r0, [ip, #-1537]!	; 0xfffff9ff
    1788:	04020010 	streq	r0, [r2], #-16
    178c:	05580603 	ldrbeq	r0, [r8, #-1539]	; 0xfffff9fd
    1790:	06023c1b 			; <UNDEFINED> instruction: 0x06023c1b
    1794:	05010100 	streq	r0, [r1, #-256]	; 0xffffff00
    1798:	0205001b 	andeq	r0, r5, #27
    179c:	00000000 	andeq	r0, r0, r0
    17a0:	0100cd03 	tsteq	r0, r3, lsl #26
    17a4:	0006022e 	andeq	r0, r6, lr, lsr #4
    17a8:	Address 0x000017a8 is out of bounds.


Disassembly of section .debug_str:

00000000 <.debug_str>:
       0:	666e6f63 	strbtvs	r6, [lr], -r3, ror #30
       4:	72756769 	rsbsvc	r6, r5, #27525120	; 0x1a40000
       8:	6f697461 	svcvs	0x00697461
       c:	61765f6e 	cmnvs	r6, lr, ror #30
      10:	0065756c 	rsbeq	r7, r5, ip, ror #10
      14:	69755f5f 	ldmdbvs	r5!, {r0, r1, r2, r3, r4, r6, r8, r9, sl, fp, ip, lr}^
      18:	5f38746e 	svcpl	0x0038746e
      1c:	53550074 	cmppl	r5, #116	; 0x74
      20:	76654442 	strbtvc	r4, [r5], -r2, asr #8
      24:	53656369 	cmnpl	r5, #-1543503871	; 0xa4000001
      28:	65746174 	ldrbvs	r6, [r4, #-372]!	; 0xfffffe8c
      2c:	5f6e6900 	svcpl	0x006e6900
      30:	61746164 	cmnvs	r4, r4, ror #2
      34:	7a69735f 	bvc	1a5cdb8 <_etext+0x1a5a685>
      38:	53550065 	cmppl	r5, #101	; 0x65
      3c:	45445f42 	strbmi	r5, [r4, #-3906]	; 0xfffff0be
      40:	45434956 	strbmi	r4, [r3, #-2390]	; 0xfffff6aa
      44:	4154535f 	cmpmi	r4, pc, asr r3
      48:	445f4554 	ldrbmi	r4, [pc], #-1364	; 50 <g_pfnVectors+0x50>
      4c:	55414645 	strbpl	r4, [r1, #-1605]	; 0xfffff9bb
      50:	5500544c 	strpl	r5, [r0, #-1100]	; 0xfffffbb4
      54:	435f4253 	cmpmi	pc, #805306373	; 0x30000005
      58:	52544e4f 	subspl	r4, r4, #1264	; 0x4f0
      5c:	535f4c4f 	cmppl	pc, #20224	; 0x4f00
      60:	45474154 	strbmi	r4, [r7, #-340]	; 0xfffffeac
      64:	5441445f 	strbpl	r4, [r1], #-1119	; 0xfffffba1
      68:	4e495f41 	cdpmi	15, 4, cr5, cr9, cr1, {2}
      6c:	42535500 	subsmi	r5, r3, #0, 10
      70:	4e4f435f 	mcrmi	3, 2, r4, cr15, cr15, {2}
      74:	4c4f5254 	sfmmi	f5, 2, [pc], {84}	; 0x54
      78:	4154535f 	cmpmi	r4, pc, asr r3
      7c:	445f4547 	ldrbmi	r4, [pc], #-1351	; 84 <g_pfnVectors+0x84>
      80:	5f415441 	svcpl	0x00415441
      84:	495f4e49 	ldmdbmi	pc, {r0, r3, r6, r9, sl, fp, lr}^	; <UNPREDICTABLE>
      88:	00454c44 	subeq	r4, r5, r4, asr #24
      8c:	5f74756f 	svcpl	0x0074756f
      90:	61746164 	cmnvs	r4, r4, ror #2
      94:	7a69735f 	bvc	1a5ce18 <_etext+0x1a5a6e5>
      98:	53550065 	cmppl	r5, #101	; 0x65
      9c:	6e493042 	cdpvs	0, 4, cr3, cr9, cr2, {2}
      a0:	6e614874 	mcrvs	8, 3, r4, cr1, cr4, {3}
      a4:	72656c64 	rsbvc	r6, r5, #100, 24	; 0x6400
      a8:	76656400 	strbtvc	r6, [r5], -r0, lsl #8
      ac:	5f656369 	svcpl	0x00656369
      b0:	74617473 	strbtvc	r7, [r1], #-1139	; 0xfffffb8d
      b4:	79530065 	ldmdbvc	r3, {r0, r2, r5, r6}^
      b8:	63695473 	cmnvs	r9, #1929379840	; 0x73000000
      bc:	7265506b 	rsbvc	r5, r5, #107	; 0x6b
      c0:	53646f69 	cmnpl	r4, #420	; 0x1a4
      c4:	55007465 	strpl	r7, [r0, #-1125]	; 0xfffffb9b
      c8:	435f4253 	cmpmi	pc, #805306373	; 0x30000005
      cc:	52544e4f 	subspl	r4, r4, #1264	; 0x4f0
      d0:	535f4c4f 	cmppl	pc, #20224	; 0x4f00
      d4:	45474154 	strbmi	r4, [r7, #-340]	; 0xfffffeac
      d8:	5441445f 	strbpl	r4, [r1], #-1119	; 0xfffffba1
      dc:	4e495f41 	cdpmi	15, 4, cr5, cr9, cr1, {2}
      e0:	52455a5f 	subpl	r5, r5, #389120	; 0x5f000
      e4:	5355004f 	cmppl	r5, #79	; 0x4f
      e8:	45445f42 	strbmi	r5, [r4, #-3906]	; 0xfffff0be
      ec:	45434956 	strbmi	r4, [r3, #-2390]	; 0xfffff6aa
      f0:	4154535f 	cmpmi	r4, pc, asr r3
      f4:	415f4554 	cmpmi	pc, r4, asr r5	; <UNPREDICTABLE>
      f8:	45524444 	ldrbmi	r4, [r2, #-1092]	; 0xfffffbbc
      fc:	44455353 	strbmi	r5, [r5], #-851	; 0xfffffcad
     100:	73795300 	cmnvc	r9, #0, 6
     104:	6b636954 	blvs	18da65c <_etext+0x18d7f29>
     108:	62616e45 	rsbvs	r6, r1, #1104	; 0x450
     10c:	5300656c 	movwpl	r6, #1388	; 0x56c
     110:	6c706d69 	ldclvs	13, cr6, [r0], #-420	; 0xfffffe5c
     114:	6c654465 	cfstrdvs	mvd4, [r5], #-404	; 0xfffffe6c
     118:	47007961 	strmi	r7, [r0, -r1, ror #18]
     11c:	4320554e 			; <UNDEFINED> instruction: 0x4320554e
     120:	31203939 			; <UNDEFINED> instruction: 0x31203939
     124:	2e322e30 	mrccs	14, 1, r2, cr2, cr0, {1}
     128:	30322031 	eorscc	r2, r2, r1, lsr r0
     12c:	31313032 	teqcc	r1, r2, lsr r0
     130:	28203330 	stmdacs	r0!, {r4, r5, r8, r9, ip, sp}
     134:	656c6572 	strbvs	r6, [ip, #-1394]!	; 0xfffffa8e
     138:	29657361 	stmdbcs	r5!, {r0, r5, r6, r8, r9, ip, sp, lr}^
     13c:	746d2d20 	strbtvc	r2, [sp], #-3360	; 0xfffff2e0
     140:	626d7568 	rsbvs	r7, sp, #104, 10	; 0x1a000000
     144:	636d2d20 	cmnvs	sp, #32, 26	; 0x800
     148:	633d7570 	teqvs	sp, #112, 10	; 0x1c000000
     14c:	6574726f 	ldrbvs	r7, [r4, #-623]!	; 0xfffffd91
     150:	346d2d78 	strbtcc	r2, [sp], #-3448	; 0xfffff288
     154:	666d2d20 	strbtvs	r2, [sp], -r0, lsr #26
     158:	663d7570 			; <UNDEFINED> instruction: 0x663d7570
     15c:	2d347670 	ldccs	6, cr7, [r4, #-448]!	; 0xfffffe40
     160:	642d7073 	strtvs	r7, [sp], #-115	; 0xffffff8d
     164:	2d203631 	stccs	6, cr3, [r0, #-196]!	; 0xffffff3c
     168:	6f6c666d 	svcvs	0x006c666d
     16c:	612d7461 			; <UNDEFINED> instruction: 0x612d7461
     170:	683d6962 	ldmdavs	sp!, {r1, r5, r6, r8, fp, sp, lr}
     174:	20647261 	rsbcs	r7, r4, r1, ror #4
     178:	72616d2d 	rsbvc	r6, r1, #2880	; 0xb40
     17c:	613d6863 	teqvs	sp, r3, ror #16
     180:	37766d72 			; <UNDEFINED> instruction: 0x37766d72
     184:	2b6d2d65 	blcs	1b4b720 <_etext+0x1b48fed>
     188:	2d207066 	stccs	0, cr7, [r0, #-408]!	; 0xfffffe68
     18c:	4f2d2067 	svcmi	0x002d2067
     190:	732d2030 			; <UNDEFINED> instruction: 0x732d2030
     194:	633d6474 	teqvs	sp, #116, 8	; 0x74000000
     198:	2d203939 			; <UNDEFINED> instruction: 0x2d203939
     19c:	6e756666 	cdpvs	6, 7, cr6, cr5, cr6, {3}
     1a0:	6f697463 	svcvs	0x00697463
     1a4:	65732d6e 	ldrbvs	r2, [r3, #-3438]!	; 0xfffff292
     1a8:	6f697463 	svcvs	0x00697463
     1ac:	2d20736e 	stccs	3, cr7, [r0, #-440]!	; 0xfffffe48
     1b0:	74616466 	strbtvc	r6, [r1], #-1126	; 0xfffffb9a
     1b4:	65732d61 	ldrbvs	r2, [r3, #-3425]!	; 0xfffff29f
     1b8:	6f697463 	svcvs	0x00697463
     1bc:	7500736e 	strvc	r7, [r0, #-878]	; 0xfffffc92
     1c0:	6769736e 	strbvs	r7, [r9, -lr, ror #6]!
     1c4:	2064656e 	rsbcs	r6, r4, lr, ror #10
     1c8:	72616863 	rsbvc	r6, r1, #6488064	; 0x630000
     1cc:	42535500 	subsmi	r5, r3, #0, 10
     1d0:	746e6f43 	strbtvc	r6, [lr], #-3907	; 0xfffff0bd
     1d4:	546c6f72 	strbtpl	r6, [ip], #-3954	; 0xfffff08e
     1d8:	736e6172 	cmnvc	lr, #-2147483620	; 0x8000001c
     1dc:	53726566 	cmnpl	r2, #427819008	; 0x19800000
     1e0:	65676174 	strbvs	r6, [r7, #-372]!	; 0xfffffe8c
     1e4:	73795300 	cmnvc	r9, #0, 6
     1e8:	6b636954 	blvs	18da740 <_etext+0x18d800d>
     1ec:	48746e49 	ldmdami	r4!, {r0, r3, r6, r9, sl, fp, sp, lr}^
     1f0:	6c646e61 	stclvs	14, cr6, [r4], #-388	; 0xfffffe7c
     1f4:	73007265 	movwvc	r7, #613	; 0x265
     1f8:	74726f68 	ldrbtvc	r6, [r2], #-3944	; 0xfffff098
     1fc:	736e7520 	cmnvc	lr, #32, 10	; 0x8000000
     200:	656e6769 	strbvs	r6, [lr, #-1897]!	; 0xfffff897
     204:	6e692064 	cdpvs	0, 6, cr2, cr9, cr4, {3}
     208:	53550074 	cmppl	r5, #116	; 0x74
     20c:	4f435f42 	svcmi	0x00435f42
     210:	4f52544e 	svcmi	0x0052544e
     214:	54535f4c 	ldrbpl	r5, [r3], #-3916	; 0xfffff0b4
     218:	5f454741 	svcpl	0x00454741
     21c:	55544553 	ldrbpl	r4, [r4, #-1363]	; 0xfffffaad
     220:	53550050 	cmppl	r5, #80	; 0x50
     224:	76654442 	strbtvc	r4, [r5], -r2, asr #8
     228:	44656369 	strbtmi	r6, [r5], #-873	; 0xfffffc97
     22c:	49617461 	stmdbmi	r1!, {r0, r5, r6, sl, ip, sp, lr}^
     230:	0074696e 	rsbseq	r6, r4, lr, ror #18
     234:	5f425355 	svcpl	0x00425355
     238:	49564544 	ldmdbmi	r6, {r2, r6, r8, sl, lr}^
     23c:	535f4543 	cmppl	pc, #281018368	; 0x10c00000
     240:	45544154 	ldrbmi	r4, [r4, #-340]	; 0xfffffeac
     244:	4e4f435f 	mcrmi	3, 2, r4, cr15, cr15, {2}
     248:	55474946 	strbpl	r4, [r7, #-2374]	; 0xfffff6ba
     24c:	00444552 	subeq	r4, r4, r2, asr r5
     250:	69755f5f 	ldmdbvs	r5!, {r0, r1, r2, r3, r4, r6, r8, r9, sl, fp, ip, lr}^
     254:	3233746e 	eorscc	r7, r3, #1845493760	; 0x6e000000
     258:	6700745f 	smlsdvs	r0, pc, r4, r7	; <UNPREDICTABLE>
     25c:	3369755f 	cmncc	r9, #398458880	; 0x17c00000
     260:	756f4332 	strbvc	r4, [pc, #-818]!	; ffffff36 <_ebss+0xdffffd16>
     264:	7265746e 	rsbvc	r7, r5, #1845493760	; 0x6e000000
     268:	73795300 	cmnvc	r9, #0, 6
     26c:	6b636954 	blvs	18da7c4 <_etext+0x18d8091>
     270:	45746e49 	ldrbmi	r6, [r4, #-3657]!	; 0xfffff1b7
     274:	6c62616e 	stfvse	f6, [r2], #-440	; 0xfffffe48
     278:	53550065 	cmppl	r5, #101	; 0x65
     27c:	76654442 	strbtvc	r4, [r5], -r2, asr #8
     280:	00656369 	rsbeq	r6, r5, r9, ror #6
     284:	6e69616d 	powvsez	f6, f1, #5.0
     288:	6e6f6c00 	cdpvs	12, 6, cr6, cr15, cr0, {0}
     28c:	6f6c2067 	svcvs	0x006c2067
     290:	7520676e 	strvc	r6, [r0, #-1902]!	; 0xfffff892
     294:	6769736e 	strbvs	r7, [r9, -lr, ror #6]!
     298:	2064656e 	rsbcs	r6, r4, lr, ror #10
     29c:	00746e69 	rsbseq	r6, r4, r9, ror #28
     2a0:	5f727470 	svcpl	0x00727470
     2a4:	625f6e69 	subsvs	r6, pc, #1680	; 0x690
     2a8:	65666675 	strbvs	r6, [r6, #-1653]!	; 0xfffff98b
     2ac:	53550072 	cmppl	r5, #114	; 0x72
     2b0:	4f435f42 	svcmi	0x00435f42
     2b4:	4f52544e 	svcmi	0x0052544e
     2b8:	54535f4c 	ldrbpl	r5, [r3], #-3916	; 0xfffff0b4
     2bc:	5f454741 	svcpl	0x00454741
     2c0:	54415453 	strbpl	r5, [r1], #-1107	; 0xfffffbad
     2c4:	495f5355 	ldmdbmi	pc, {r0, r2, r4, r6, r8, r9, ip, lr}^	; <UNPREDICTABLE>
     2c8:	5355004e 	cmppl	r5, #78	; 0x4e
     2cc:	4f435f42 	svcmi	0x00435f42
     2d0:	4f52544e 	svcmi	0x0052544e
     2d4:	54535f4c 	ldrbpl	r5, [r3], #-3916	; 0xfffff0b4
     2d8:	5f454741 	svcpl	0x00454741
     2dc:	41544144 	cmpmi	r4, r4, asr #2
     2e0:	54554f5f 	ldrbpl	r4, [r5], #-3935	; 0xfffff0a1
     2e4:	62737500 	rsbsvs	r7, r3, #0, 10
     2e8:	69766564 	ldmdbvs	r6!, {r2, r5, r6, r8, sl, sp, lr}^
     2ec:	55006563 	strpl	r6, [r0, #-1379]	; 0xfffffa9d
     2f0:	435f4253 	cmpmi	pc, #805306373	; 0x30000005
     2f4:	52544e4f 	subspl	r4, r4, #1264	; 0x4f0
     2f8:	535f4c4f 	cmppl	pc, #20224	; 0x4f00
     2fc:	45474154 	strbmi	r4, [r7, #-340]	; 0xfffffeac
     300:	4154535f 	cmpmi	r4, pc, asr r3
     304:	5f535554 	svcpl	0x00535554
     308:	0054554f 	subseq	r5, r4, pc, asr #10
     30c:	676e6f6c 	strbvs	r6, [lr, -ip, ror #30]!
     310:	6e6f6c20 	cdpvs	12, 6, cr6, cr15, cr0, {1}
     314:	6e692067 	cdpvs	0, 6, cr2, cr9, cr7, {3}
     318:	616d0074 	smcvs	53252	; 0xd004
     31c:	632e6e69 			; <UNDEFINED> instruction: 0x632e6e69
     320:	42535500 	subsmi	r5, r3, #0, 10
     324:	5645445f 			; <UNDEFINED> instruction: 0x5645445f
     328:	5f454349 	svcpl	0x00454349
     32c:	54415453 	strbpl	r5, [r1], #-1107	; 0xfffffbad
     330:	55535f45 	ldrbpl	r5, [r3, #-3909]	; 0xfffff0bb
     334:	4e455053 	mcrmi	0, 2, r5, cr5, cr3, {2}
     338:	00444544 	subeq	r4, r4, r4, asr #10
     33c:	74696e49 	strbtvc	r6, [r9], #-3657	; 0xfffff1b7
     340:	736e6f43 	cmnvc	lr, #268	; 0x10c
     344:	00656c6f 	rsbeq	r6, r5, pc, ror #24
     348:	726f6873 	rsbvc	r6, pc, #7536640	; 0x730000
     34c:	6e692074 	mcrvs	0, 3, r2, cr9, cr4, {3}
     350:	73750074 	cmnvc	r5, #116	; 0x74
     354:	54554f62 	ldrbpl	r4, [r5], #-3938	; 0xfffff09e
     358:	62737500 	rsbsvs	r7, r3, #0, 10
     35c:	55004e49 	strpl	r4, [r0, #-3657]	; 0xfffff1b7
     360:	30545241 	subscc	r5, r4, r1, asr #4
     364:	48746e49 	ldmdami	r4!, {r0, r3, r6, r9, sl, fp, sp, lr}^
     368:	6c646e61 	stclvs	14, cr6, [r4], #-388	; 0xfffffe7c
     36c:	75007265 	strvc	r7, [r0, #-613]	; 0xfffffd9b
     370:	50323369 	eorspl	r3, r2, r9, ror #6
     374:	43766572 	cmnmi	r6, #478150656	; 0x1c800000
     378:	746e756f 	strbtvc	r7, [lr], #-1391	; 0xfffffa91
     37c:	6f425f00 	svcvs	0x00425f00
     380:	70006c6f 	andvc	r6, r0, pc, ror #24
     384:	6f5f7274 	svcvs	0x005f7274
     388:	625f7475 	subsvs	r7, pc, #1962934272	; 0x75000000
     38c:	65666675 	strbvs	r6, [r6, #-1653]!	; 0xfffff98b
     390:	3a440072 	bcc	1100560 <_etext+0x10fde2d>
     394:	726f575c 	rsbvc	r5, pc, #92, 14	; 0x1700000
     398:	6170736b 	cmnvs	r0, fp, ror #6
     39c:	745c6563 	ldrbvc	r6, [ip], #-1379	; 0xfffffa9d
     3a0:	43617669 	cmnmi	r1, #110100480	; 0x6900000
     3a4:	6f72705c 	svcvs	0x0072705c
     3a8:	7463656a 	strbtvc	r6, [r3], #-1386	; 0xfffffa96
     3ac:	73755c73 	cmnvc	r5, #29440	; 0x7300
     3b0:	78655f62 	stmdavc	r5!, {r1, r5, r6, r8, r9, sl, fp, ip, lr}^
     3b4:	6c757000 	ldclvs	0, cr7, [r5], #-0
     3b8:	63617453 	cmnvs	r1, #1392508928	; 0x53000000
     3bc:	7570006b 	ldrbvc	r0, [r0, #-107]!	; 0xffffff95
     3c0:	7365446c 	cmnvc	r5, #108, 8	; 0x6c000000
     3c4:	655f0074 	ldrbvs	r0, [pc, #-116]	; 358 <main+0x3c>
     3c8:	74786574 	ldrbtvc	r6, [r8], #-1396	; 0xfffffa8c
     3cc:	64655f00 	strbtvs	r5, [r5], #-3840	; 0xfffff100
     3d0:	00617461 	rsbeq	r7, r1, r1, ror #8
     3d4:	72617473 	rsbvc	r7, r1, #1929379840	; 0x73000000
     3d8:	5f707574 	svcpl	0x00707574
     3dc:	2e636367 	cdpcs	3, 6, cr6, cr3, cr7, {3}
     3e0:	6e490063 	cdpvs	0, 4, cr0, cr9, cr3, {3}
     3e4:	66654474 			; <UNDEFINED> instruction: 0x66654474
     3e8:	746c7561 	strbtvc	r7, [ip], #-1377	; 0xfffffa9f
     3ec:	646e6148 	strbtvs	r6, [lr], #-328	; 0xfffffeb8
     3f0:	0072656c 	rsbseq	r6, r2, ip, ror #10
     3f4:	6c756146 	ldfvse	f6, [r5], #-280	; 0xfffffee8
     3f8:	52534974 	subspl	r4, r3, #116, 18	; 0x1d0000
     3fc:	705f6700 	subsvc	r6, pc, r0, lsl #14
     400:	65566e66 	ldrbvs	r6, [r6, #-3686]	; 0xfffff19a
     404:	726f7463 	rsbvc	r7, pc, #1660944384	; 0x63000000
     408:	75700073 	ldrbvc	r0, [r0, #-115]!	; 0xffffff8d
     40c:	6372536c 	cmnvs	r2, #108, 6	; 0xb0000001
     410:	73655200 	cmnvc	r5, #0, 4
     414:	53497465 	movtpl	r7, #37989	; 0x9465
     418:	6d4e0052 	stclvs	0, cr0, [lr, #-328]	; 0xfffffeb8
     41c:	00525369 	subseq	r5, r2, r9, ror #6
     420:	72416176 	subvc	r6, r1, #-2147483619	; 0x8000001d
     424:	75005067 	strvc	r5, [r0, #-103]	; 0xffffff99
     428:	42323369 	eorsmi	r3, r2, #-1543503871	; 0xa4000001
     42c:	00647561 	rsbeq	r7, r4, r1, ror #10
     430:	74536370 	ldrbvc	r6, [r3], #-880	; 0xfffffc90
     434:	676e6972 			; <UNDEFINED> instruction: 0x676e6972
     438:	33697500 	cmncc	r9, #0, 10
     43c:	6c615632 	stclvs	6, cr5, [r1], #-200	; 0xffffff38
     440:	75006575 	strvc	r6, [r0, #-1397]	; 0xfffffa8b
     444:	00786449 	rsbseq	r6, r8, r9, asr #8
     448:	54524155 	ldrbpl	r4, [r2], #-341	; 0xfffffeab
     44c:	74697277 	strbtvc	r7, [r9], #-631	; 0xfffffd89
     450:	69750065 	ldmdbvs	r5!, {r0, r2, r5, r6}^
     454:	6f433233 	svcvs	0x00433233
     458:	00746e75 	rsbseq	r6, r4, r5, ror lr
     45c:	69755f67 	ldmdbvs	r5!, {r0, r1, r2, r5, r6, r8, r9, sl, fp, ip, lr}^
     460:	41553233 	cmpmi	r5, r3, lsr r2
     464:	65505452 	ldrbvs	r5, [r0, #-1106]	; 0xfffffbae
     468:	68706972 	ldmdavs	r0!, {r1, r4, r5, r6, r8, fp, sp, lr}^
     46c:	69466300 	stmdbvs	r6, {r8, r9, sp, lr}^
     470:	55006c6c 	strpl	r6, [r0, #-3180]	; 0xfffff394
     474:	53545241 	cmppl	r4, #268435460	; 0x10000004
     478:	6f696474 	svcvs	0x00696474
     47c:	666e6f43 	strbtvs	r6, [lr], -r3, asr #30
     480:	75006769 	strvc	r6, [r0, #-1897]	; 0xfffff897
     484:	50323369 	eorspl	r3, r2, r9, ror #6
     488:	4e74726f 	cdpmi	2, 7, cr7, cr4, cr15, {3}
     48c:	5f006d75 	svcpl	0x00006d75
     490:	5f61765f 	svcpl	0x0061765f
     494:	7473696c 	ldrbtvc	r6, [r3], #-2412	; 0xfffff694
     498:	755f6700 	ldrbvc	r6, [pc, #-1792]	; fffffda0 <_ebss+0xdffffb80>
     49c:	42323369 	eorsmi	r3, r2, #-1543503871	; 0xa4000001
     4a0:	00657361 	rsbeq	r7, r5, r1, ror #6
     4a4:	54524155 	ldrbpl	r4, [r2], #-341	; 0xfffffeab
     4a8:	69727076 	ldmdbvs	r2!, {r1, r2, r4, r5, r6, ip, sp, lr}^
     4ac:	0066746e 	rsbeq	r7, r6, lr, ror #8
     4b0:	61684363 	cmnvs	r8, r3, ror #6
     4b4:	69750072 	ldmdbvs	r5!, {r1, r4, r5, r6}^
     4b8:	654e3233 	strbvs	r3, [lr, #-563]	; 0xfffffdcd
     4bc:	41550067 	cmpmi	r5, r7, rrx
     4c0:	72705452 	rsbsvc	r5, r0, #1375731712	; 0x52000000
     4c4:	66746e69 	ldrbtvs	r6, [r4], -r9, ror #28
     4c8:	33697500 	cmncc	r9, #0, 10
     4cc:	63725332 	cmnvs	r2, #-939524096	; 0xc8000000
     4d0:	636f6c43 	cmnvs	pc, #17152	; 0x4300
     4d4:	5f5f006b 	svcpl	0x005f006b
     4d8:	38746e69 	ldmdacc	r4!, {r0, r3, r5, r6, r9, sl, fp, sp, lr}^
     4dc:	5f00745f 	svcpl	0x0000745f
     4e0:	0070615f 	rsbseq	r6, r0, pc, asr r1
     4e4:	766e6f63 	strbtvc	r6, [lr], -r3, ror #30
     4e8:	00747265 	rsbseq	r7, r4, r5, ror #4
     4ec:	32336975 	eorscc	r6, r3, #1916928	; 0x1d4000
     4f0:	006e654c 	rsbeq	r6, lr, ip, asr #10
     4f4:	2e2f2e2e 	cdpcs	14, 2, cr2, cr15, cr14, {1}
     4f8:	69542f2e 	ldmdbvs	r4, {r1, r2, r3, r5, r8, r9, sl, fp, sp}^
     4fc:	61576176 	cmpvs	r7, r6, ror r1
     500:	752f6572 	strvc	r6, [pc, #-1394]!	; ffffff96 <_ebss+0xdffffd76>
     504:	736c6974 	cmnvc	ip, #116, 18	; 0x1d0000
     508:	7261752f 	rsbvc	r7, r1, #197132288	; 0xbc00000
     50c:	64747374 	ldrbtvs	r7, [r4], #-884	; 0xfffffc8c
     510:	632e6f69 			; <UNDEFINED> instruction: 0x632e6f69
     514:	705f6700 	subsvc	r6, pc, r0, lsl #14
     518:	78654863 	stmdavc	r5!, {r0, r1, r5, r6, fp, lr}^
     51c:	53637000 	cmnpl	r3, #0
     520:	62007274 	andvs	r7, r0, #116, 4	; 0x40000007
     524:	7473614c 	ldrbtvc	r6, [r3], #-332	; 0xfffffeb4
     528:	43736157 	cmnmi	r3, #-1073741803	; 0xc0000015
     52c:	5f5f0052 	svcpl	0x005f0052
     530:	33746e69 	cmncc	r4, #1680	; 0x690
     534:	00745f32 	rsbseq	r5, r4, r2, lsr pc
     538:	32336975 	eorscc	r6, r3, #1916928	; 0x1d4000
     53c:	00786449 	rsbseq	r6, r8, r9, asr #8
     540:	6e675f5f 	mcrvs	15, 3, r5, cr7, cr15, {2}
     544:	765f6375 			; <UNDEFINED> instruction: 0x765f6375
     548:	696c5f61 	stmdbvs	ip!, {r0, r5, r6, r8, r9, sl, fp, ip, lr}^
     54c:	55007473 	strpl	r7, [r0, #-1139]	; 0xfffffb8d
     550:	67545241 	ldrbvs	r5, [r4, -r1, asr #4]
     554:	00637465 	rsbeq	r7, r3, r5, ror #8
     558:	69755f67 	ldmdbvs	r5!, {r0, r1, r2, r5, r6, r8, r9, sl, fp, ip, lr}^
     55c:	41553233 	cmpmi	r5, r3, lsr r2
     560:	61425452 	cmpvs	r2, r2, asr r4
     564:	75006573 	strvc	r6, [r0, #-1395]	; 0xfffffa8d
     568:	50323369 	eorspl	r3, r2, r9, ror #6
     56c:	7000736f 	andvc	r7, r0, pc, ror #6
     570:	66754263 	ldrbtvs	r4, [r5], -r3, ror #4
     574:	52415500 	subpl	r5, r1, #0, 10
     578:	74656754 	strbtvc	r6, [r5], #-1876	; 0xfffff8ac
     57c:	67610073 			; <UNDEFINED> instruction: 0x67610073
     580:	006e6961 	rsbeq	r6, lr, r1, ror #18
     584:	73756c66 	cmnvc	r5, #26112	; 0x6600
     588:	78725f68 	ldmdavc	r2!, {r3, r5, r6, r8, r9, sl, fp, ip, lr}^
     58c:	6f666966 	svcvs	0x00666966
     590:	5f6e6f00 	svcpl	0x006e6f00
     594:	5f627375 	svcpl	0x00627375
     598:	65736572 	ldrbvs	r6, [r3, #-1394]!	; 0xfffffa8e
     59c:	65725f74 	ldrbvs	r5, [r2, #-3956]!	; 0xfffff08c
     5a0:	76696563 	strbtvc	r6, [r9], -r3, ror #10
     5a4:	55006465 	strpl	r6, [r0, #-1125]	; 0xfffffb9b
     5a8:	6e454253 	mcrvs	2, 2, r4, cr5, cr3, {2}
     5ac:	696f7064 	stmdbvs	pc!, {r2, r5, r6, ip, sp, lr}^	; <UNPREDICTABLE>
     5b0:	6553746e 	ldrbvs	r7, [r3, #-1134]	; 0xfffffb92
     5b4:	7700646e 	strvc	r6, [r0, -lr, ror #8]
     5b8:	65746972 	ldrbvs	r6, [r4, #-2418]!	; 0xfffff68e
     5bc:	6b636150 	blvs	18d8b04 <_etext+0x18d63d1>
     5c0:	72007465 	andvc	r7, r0, #1694498816	; 0x65000000
     5c4:	5f646165 	svcpl	0x00646165
     5c8:	6b636170 	blvs	18d8b90 <_etext+0x18d645d>
     5cc:	55007465 	strpl	r7, [r0, #-1125]	; 0xfffffb9b
     5d0:	69504253 	ldmdbvs	r0, {r0, r1, r4, r6, r9, lr}^
     5d4:	696e496e 	stmdbvs	lr!, {r1, r2, r3, r5, r6, r8, fp, lr}^
     5d8:	6c616974 			; <UNDEFINED> instruction: 0x6c616974
     5dc:	00657a69 	rsbeq	r7, r5, r9, ror #20
     5e0:	74697277 	strbtvc	r7, [r9], #-631	; 0xfffffd89
     5e4:	46785465 	ldrbtmi	r5, [r8], -r5, ror #8
     5e8:	004f4649 	subeq	r4, pc, r9, asr #12
     5ec:	47425355 	smlsldmi	r5, r2, r5, r3
     5f0:	6e457465 	cdpvs	4, 4, cr7, cr5, cr5, {3}
     5f4:	696f7064 	stmdbvs	pc!, {r2, r5, r6, ip, sp, lr}^	; <UNPREDICTABLE>
     5f8:	7453746e 	ldrbvc	r7, [r3], #-1134	; 0xfffffb92
     5fc:	73757461 	cmnvc	r5, #1627389952	; 0x61000000
     600:	42535500 	subsmi	r5, r3, #0, 10
     604:	65746e49 	ldrbvs	r6, [r4, #-3657]!	; 0xfffff1b7
     608:	70757272 	rsbsvc	r7, r5, r2, ror r2
     60c:	696e4974 	stmdbvs	lr!, {r2, r4, r5, r6, r8, fp, lr}^
     610:	6c616974 			; <UNDEFINED> instruction: 0x6c616974
     614:	00657a69 	rsbeq	r7, r5, r9, ror #20
     618:	44425355 	strbmi	r5, [r2], #-853	; 0xfffffcab
     61c:	63697665 	cmnvs	r9, #105906176	; 0x6500000
     620:	74654765 	strbtvc	r4, [r5], #-1893	; 0xfffff89b
     624:	53746e49 	cmnpl	r4, #1168	; 0x490
     628:	75746174 	ldrbvc	r6, [r4, #-372]!	; 0xfffffe8c
     62c:	73750073 	cmnvc	r5, #115	; 0x73
     630:	76655f62 	strbtvc	r5, [r5], -r2, ror #30
     634:	73746e65 	cmnvc	r4, #1616	; 0x650
     638:	5f6e6f00 	svcpl	0x006e6f00
     63c:	70646e65 	rsbvc	r6, r4, r5, ror #28
     640:	746e696f 	strbtvc	r6, [lr], #-2415	; 0xfffff691
     644:	6e61685f 	mcrvs	8, 3, r6, cr1, cr15, {2}
     648:	00656c64 	rsbeq	r6, r5, r4, ror #24
     64c:	47425355 	smlsldmi	r5, r2, r5, r3
     650:	63527465 	cmpvs	r2, #1694498816	; 0x65000000
     654:	74794276 	ldrbtvc	r4, [r9], #-630	; 0xfffffd8a
     658:	55007365 	strpl	r7, [r0, #-869]	; 0xfffffc9b
     65c:	455f4253 	ldrbmi	r4, [pc, #-595]	; 411 <zero_loop+0x29>
     660:	4f50444e 	svcmi	0x0050444e
     664:	5f544e49 	svcpl	0x00544e49
     668:	45505954 	ldrbmi	r5, [r0, #-2388]	; 0xfffff6ac
     66c:	4e4f435f 	mcrmi	3, 2, r4, cr15, cr15, {2}
     670:	4c4f5254 	sfmmi	f5, 2, [pc], {84}	; 0x54
     674:	42535500 	subsmi	r5, r3, #0, 10
     678:	69766544 	ldmdbvs	r6!, {r2, r6, r8, sl, sp, lr}^
     67c:	6e496563 	cdpvs	5, 4, cr6, cr9, cr3, {3}
     680:	55007469 	strpl	r7, [r0, #-1129]	; 0xfffffb97
     684:	6e454253 	mcrvs	2, 2, r4, cr5, cr3, {2}
     688:	696f7064 	stmdbvs	pc!, {r2, r5, r6, ip, sp, lr}^	; <UNPREDICTABLE>
     68c:	6341746e 	movtvs	r7, #5230	; 0x146e
     690:	6e65006b 	cdpvs	0, 6, cr0, cr5, cr11, {3}
     694:	696f7064 	stmdbvs	pc!, {r2, r5, r6, ip, sp, lr}^	; <UNPREDICTABLE>
     698:	6e49746e 	cdpvs	4, 4, cr7, cr9, cr14, {3}
     69c:	55006f66 	strpl	r6, [r0, #-3942]	; 0xfffff09a
     6a0:	6e494253 	mcrvs	2, 2, r4, cr9, cr3, {2}
     6a4:	73655274 	cmnvc	r5, #116, 4	; 0x40000007
     6a8:	61487465 	cmpvs	r8, r5, ror #8
     6ac:	656c646e 	strbvs	r6, [ip, #-1134]!	; 0xfffffb92
     6b0:	53550072 	cmppl	r5, #114	; 0x72
     6b4:	74655342 	strbtvc	r5, [r5], #-834	; 0xfffffcbe
     6b8:	69766544 	ldmdbvs	r6!, {r2, r6, r8, sl, sp, lr}^
     6bc:	64416563 	strbvs	r6, [r1], #-1379	; 0xfffffa9d
     6c0:	73736572 	cmnvc	r3, #478150656	; 0x1c800000
     6c4:	696e6900 	stmdbvs	lr!, {r8, fp, sp, lr}^
     6c8:	6c616974 			; <UNDEFINED> instruction: 0x6c616974
     6cc:	5f657a69 	svcpl	0x00657a69
     6d0:	65726f63 	ldrbvs	r6, [r2, #-3939]!	; 0xfffff09d
     6d4:	6e657300 	cdpvs	3, 6, cr7, cr5, cr0, {0}
     6d8:	70655f64 	rsbvc	r5, r5, r4, ror #30
     6dc:	7461645f 	strbtvc	r6, [r1], #-1119	; 0xfffffba1
     6e0:	73690061 	cmnvc	r9, #97	; 0x61
     6e4:	62756f44 	rsbsvs	r6, r5, #68, 30	; 0x110
     6e8:	7542656c 	strbvc	r6, [r2, #-1388]	; 0xfffffa94
     6ec:	72656666 	rsbvc	r6, r5, #106954752	; 0x6600000
     6f0:	00676e69 	rsbeq	r6, r7, r9, ror #28
     6f4:	666e6f63 	strbtvs	r6, [lr], -r3, ror #30
     6f8:	72756769 	rsbsvc	r6, r5, #27525120	; 0x1a40000
     6fc:	6e695f65 	cdpvs	15, 6, cr5, cr9, cr5, {3}
     700:	646e655f 	strbtvs	r6, [lr], #-1375	; 0xfffffaa1
     704:	6e696f70 	mcrvs	15, 3, r6, cr9, cr0, {3}
     708:	6f430074 	svcvs	0x00430074
     70c:	6769666e 	strbvs	r6, [r9, -lr, ror #12]!
     710:	54657275 	strbtpl	r7, [r5], #-629	; 0xfffffd8b
     714:	46785278 			; <UNDEFINED> instruction: 0x46785278
     718:	534f4649 	movtpl	r4, #63049	; 0xf649
     71c:	00657a69 	rsbeq	r7, r5, r9, ror #20
     720:	61656c63 	cmnvs	r5, r3, ror #24
     724:	6e695f72 	mcrvs	15, 3, r5, cr9, cr2, {3}
     728:	616c6674 	smcvs	50788	; 0xc664
     72c:	6f630067 	svcvs	0x00630067
     730:	6769666e 	strbvs	r6, [r9, -lr, ror #12]!
     734:	5f657275 	svcpl	0x00657275
     738:	5f74756f 	svcpl	0x0074756f
     73c:	70646e65 	rsbvc	r6, r4, r5, ror #28
     740:	746e696f 	strbtvc	r6, [lr], #-2415	; 0xfffff691
     744:	6e6f4300 	cdpvs	3, 6, cr4, cr15, cr0, {0}
     748:	75676966 	strbvc	r6, [r7, #-2406]!	; 0xfffff69a
     74c:	6e456572 	mcrvs	5, 2, r6, cr5, cr2, {3}
     750:	696f7064 	stmdbvs	pc!, {r2, r5, r6, ip, sp, lr}^	; <UNPREDICTABLE>
     754:	0030746e 	eorseq	r7, r0, lr, ror #8
     758:	2e2f2e2e 	cdpcs	14, 2, cr2, cr15, cr14, {1}
     75c:	72732f2e 	rsbsvc	r2, r3, #46, 30	; 0xb8
     760:	72642f63 	rsbvc	r2, r4, #396	; 0x18c
     764:	72657669 	rsbvc	r7, r5, #110100480	; 0x6900000
     768:	6273752f 	rsbsvs	r7, r3, #197132288	; 0xbc00000
     76c:	6273752f 	rsbsvs	r7, r3, #197132288	; 0xbc00000
     770:	72645f64 	rsbvc	r5, r4, #100, 30	; 0x190
     774:	72657669 	rsbvc	r7, r5, #110100480	; 0x6900000
     778:	4400632e 	strmi	r6, [r0], #-814	; 0xfffffcd2
     77c:	6e6f6365 	cdpvs	3, 6, cr6, cr15, cr5, {3}
     780:	75676966 	strbvc	r6, [r7, #-2406]!	; 0xfffff69a
     784:	6e456572 	mcrvs	5, 2, r6, cr5, cr2, {3}
     788:	696f7064 	stmdbvs	pc!, {r2, r5, r6, ip, sp, lr}^	; <UNPREDICTABLE>
     78c:	6f00746e 	svcvs	0x0000746e
     790:	6e695f6e 	cdpvs	15, 6, cr5, cr9, cr14, {3}
     794:	6172745f 	cmnvs	r2, pc, asr r4
     798:	6566736e 	strbvs	r7, [r6, #-878]!	; 0xfffffc92
     79c:	6f635f72 	svcvs	0x00635f72
     7a0:	656c706d 	strbvs	r7, [ip, #-109]!	; 0xffffff93
     7a4:	00646574 	rsbeq	r6, r4, r4, ror r5
     7a8:	64616572 	strbtvs	r6, [r1], #-1394	; 0xfffffa8e
     7ac:	6b636150 	blvs	18d8cf4 <_etext+0x18d65c1>
     7b0:	69007465 	stmdbvs	r0, {r0, r2, r5, r6, sl, ip, sp, lr}
     7b4:	6c46746e 	cfstrdvs	mvd7, [r6], {110}	; 0x6e
     7b8:	00736761 	rsbseq	r6, r3, r1, ror #14
     7bc:	42425355 	submi	r5, r2, #1409286145	; 0x54000001
     7c0:	6f437375 	svcvs	0x00437375
     7c4:	63656e6e 	cmnvs	r5, #1760	; 0x6e0
     7c8:	63620074 	cmnvs	r2, #116	; 0x74
     7cc:	6100746e 	tstvs	r0, lr, ror #8
     7d0:	73656363 	cmnvc	r5, #-1946157055	; 0x8c000001
     7d4:	7a695373 	bvc	1a555a8 <_etext+0x1a52e75>
     7d8:	6e650065 	cdpvs	0, 6, cr0, cr5, cr5, {3}
     7dc:	696f7064 	stmdbvs	pc!, {r2, r5, r6, ip, sp, lr}^	; <UNPREDICTABLE>
     7e0:	635f746e 	cmpvs	pc, #1845493760	; 0x6e000000
     7e4:	735f6c74 	cmpvc	pc, #116, 24	; 0x7400
     7e8:	75746174 	ldrbvc	r6, [r4, #-372]!	; 0xfffffe8c
     7ec:	65730073 	ldrbvs	r0, [r3, #-115]!	; 0xffffff8d
     7f0:	65645f74 	strbvs	r5, [r4, #-3956]!	; 0xfffff08c
     7f4:	65636976 	strbvs	r6, [r3, #-2422]!	; 0xfffff68a
     7f8:	6464615f 	strbtvs	r6, [r4], #-351	; 0xfffffea1
     7fc:	73736572 	cmnvc	r3, #478150656	; 0x1c800000
     800:	756c6600 	strbvc	r6, [ip, #-1536]!	; 0xfffffa00
     804:	745f6873 	ldrbvc	r6, [pc], #-2163	; 80c <UARTvprintf+0x294>
     808:	66696678 			; <UNDEFINED> instruction: 0x66696678
     80c:	6f43006f 	svcvs	0x0043006f
     810:	6769666e 	strbvs	r6, [r9, -lr, ror #12]!
     814:	4f657275 	svcmi	0x00657275
     818:	6e455455 	mcrvs	4, 2, r5, cr5, cr5, {2}
     81c:	696f7064 	stmdbvs	pc!, {r2, r5, r6, ip, sp, lr}^	; <UNPREDICTABLE>
     820:	5500746e 	strpl	r7, [r0, #-1134]	; 0xfffffb92
     824:	49444253 	stmdbmi	r4, {r0, r1, r4, r6, r9, lr}^
     828:	6148746e 	cmpvs	r8, lr, ror #8
     82c:	656c646e 	strbvs	r6, [ip, #-1134]!	; 0xfffffb92
     830:	6e6f0072 	mcrvs	0, 3, r0, cr15, cr2, {3}
     834:	74756f5f 	ldrbtvc	r6, [r5], #-3935	; 0xfffff0a1
     838:	6172745f 	cmnvs	r2, pc, asr r4
     83c:	6566736e 	strbvs	r7, [r6, #-878]!	; 0xfffffc92
     840:	6f635f72 	svcvs	0x00635f72
     844:	656c706d 	strbvs	r7, [ip, #-109]!	; 0xffffff93
     848:	00646574 	rsbeq	r6, r4, r4, ror r5
     84c:	45425355 	strbmi	r5, [r2, #-853]	; 0xfffffcab
     850:	6f70646e 	svcvs	0x0070646e
     854:	54746e69 	ldrbtpl	r6, [r4], #-3689	; 0xfffff197
     858:	00657079 	rsbeq	r7, r5, r9, ror r0
     85c:	49425355 	stmdbmi	r2, {r0, r2, r4, r6, r8, r9, ip, lr}^
     860:	6c46746e 	cfstrdvs	mvd7, [r6], {110}	; 0x6e
     864:	6c436761 	mcrrvs	7, 6, r6, r3, cr1
     868:	00726165 	rsbseq	r6, r2, r5, ror #2
     86c:	43425355 	movtmi	r5, #9045	; 0x2355
     870:	4965726f 	stmdbmi	r5!, {r0, r1, r2, r3, r5, r6, r9, ip, sp, lr}^
     874:	6974696e 	ldmdbvs	r4!, {r1, r2, r3, r5, r6, r8, fp, sp, lr}^
     878:	7a696c61 	bvc	1a5ba04 <_etext+0x1a592d1>
     87c:	53550065 	cmppl	r5, #101	; 0x65
     880:	4e455f42 	cdpmi	15, 4, cr5, cr5, cr2, {2}
     884:	494f5044 	stmdbmi	pc, {r2, r6, ip, lr}^	; <UNPREDICTABLE>
     888:	545f544e 	ldrbpl	r5, [pc], #-1102	; 890 <UARTvprintf+0x318>
     88c:	5f455059 	svcpl	0x00455059
     890:	4b4c5542 	blmi	1315da0 <_etext+0x131366d>
     894:	74656700 	strbtvc	r6, [r5], #-1792	; 0xfffff900
     898:	7663725f 			; <UNDEFINED> instruction: 0x7663725f
     89c:	6361705f 	cmnvs	r1, #95	; 0x5f
     8a0:	5f74656b 	svcpl	0x0074656b
     8a4:	657a6973 	ldrbvs	r6, [sl, #-2419]!	; 0xfffff68d
     8a8:	42535500 	subsmi	r5, r3, #0, 10
     8ac:	444e455f 	strbmi	r4, [lr], #-1375	; 0xfffffaa1
     8b0:	4e494f50 	mcrmi	15, 2, r4, cr9, cr0, {2}
     8b4:	59545f54 	ldmdbpl	r4, {r2, r4, r6, r8, r9, sl, fp, ip, lr}^
     8b8:	495f4550 	ldmdbmi	pc, {r4, r6, r8, sl, lr}^	; <UNPREDICTABLE>
     8bc:	48434f53 	stmdami	r3, {r0, r1, r4, r6, r8, r9, sl, fp, lr}^
     8c0:	4f4e4f52 	svcmi	0x004e4f52
     8c4:	46005355 			; <UNDEFINED> instruction: 0x46005355
     8c8:	6873756c 	ldmdavs	r3!, {r2, r3, r5, r6, r8, sl, ip, sp, lr}^
     8cc:	69467852 	stmdbvs	r6, {r1, r4, r6, fp, ip, sp, lr}^
     8d0:	45006f66 	strmi	r6, [r0, #-3942]	; 0xfffff09a
     8d4:	6d754e50 	ldclvs	14, cr4, [r5, #-320]!	; 0xfffffec0
     8d8:	6e6f6300 	cdpvs	3, 6, cr6, cr15, cr0, {0}
     8dc:	6c6f7274 	sfmvs	f7, 2, [pc], #-464	; 714 <UARTvprintf+0x19c>
     8e0:	6172745f 	cmnvs	r2, pc, asr r4
     8e4:	6566736e 	strbvs	r7, [r6, #-878]!	; 0xfffffc92
     8e8:	61685f72 	smcvs	34290	; 0x85f2
     8ec:	656c646e 	strbvs	r6, [ip, #-1134]!	; 0xfffffb92
     8f0:	42535500 	subsmi	r5, r3, #0, 10
     8f4:	44737542 	ldrbtmi	r7, [r3], #-1346	; 0xfffffabe
     8f8:	6f637369 	svcvs	0x00637369
     8fc:	63656e6e 	cmnvs	r5, #1760	; 0x6e0
     900:	69750074 	ldmdbvs	r5!, {r2, r4, r5, r6}^
     904:	74533233 	ldrbvc	r3, [r3], #-563	; 0xfffffdcd
     908:	73757461 	cmnvc	r5, #1627389952	; 0x61000000
     90c:	74656700 	strbtvc	r6, [r5], #-1792	; 0xfffff900
     910:	746e695f 	strbtvc	r6, [lr], #-2399	; 0xfffff6a1
     914:	6174735f 	cmnvs	r4, pc, asr r3
     918:	00737574 	rsbseq	r7, r3, r4, ror r5
     91c:	755f6e6f 	ldrbvc	r6, [pc, #-3695]	; fffffab5 <_ebss+0xdffff895>
     920:	705f6273 	subsvc	r6, pc, r3, ror r2	; <UNPREDICTABLE>
     924:	656c6c6f 	strbvs	r6, [ip, #-3183]!	; 0xfffff391
     928:	50450064 	subpl	r0, r5, r4, rrx
     92c:	5478614d 	ldrbtpl	r6, [r8], #-333	; 0xfffffeb3
     930:	46785278 			; <UNDEFINED> instruction: 0x46785278
     934:	524f4649 	subpl	r4, pc, #76546048	; 0x4900000
     938:	69536d61 	ldmdbvs	r3, {r0, r5, r6, r8, sl, fp, sp, lr}^
     93c:	6900657a 	stmdbvs	r0, {r1, r3, r4, r5, r6, r8, sl, sp, lr}
     940:	45785473 	ldrbmi	r5, [r8, #-1139]!	; 0xfffffb8d
     944:	6f70646e 	svcvs	0x0070646e
     948:	00746e69 	rsbseq	r6, r4, r9, ror #28
     94c:	6e497065 	cdpvs	0, 4, cr7, cr9, cr5, {3}
     950:	46006f66 	strmi	r6, [r0], -r6, ror #30
     954:	6873756c 	ldmdavs	r3!, {r2, r3, r5, r6, r8, sl, ip, sp, lr}^
     958:	69467854 	stmdbvs	r6, {r2, r4, r6, fp, ip, sp, lr}^
     95c:	55006f66 	strpl	r6, [r0, #-3942]	; 0xfffff09a
     960:	76454253 			; <UNDEFINED> instruction: 0x76454253
     964:	73746e65 	cmnvc	r4, #1616	; 0x650
     968:	6e6f4300 	cdpvs	3, 6, cr4, cr15, cr0, {0}
     96c:	75676966 	strbvc	r6, [r7, #-2406]!	; 0xfffff69a
     970:	4e496572 	mcrmi	5, 2, r6, cr9, cr2, {3}
     974:	70646e45 	rsbvc	r6, r4, r5, asr #28
     978:	746e696f 	strbtvc	r6, [lr], #-2415	; 0xfffff691
     97c:	5f6e6f00 	svcpl	0x006e6f00
     980:	5f74756f 	svcpl	0x0074756f
     984:	61746164 	cmnvs	r4, r4, ror #2
     988:	6365725f 	cmnvs	r5, #-268435451	; 0xf0000005
     98c:	65766965 	ldrbvs	r6, [r6, #-2405]!	; 0xfffff69b
     990:	73750064 	cmnvc	r5, #100	; 0x64
     994:	72645f62 	rsbvc	r5, r4, #392	; 0x188
     998:	72657669 	rsbvc	r7, r5, #110100480	; 0x6900000
     99c:	46494600 	strbmi	r4, [r9], -r0, lsl #12
     9a0:	6d61524f 	sfmvs	f5, 2, [r1, #-316]!	; 0xfffffec4
     9a4:	72646441 	rsbvc	r6, r4, #1090519040	; 0x41000000
     9a8:	696e6900 	stmdbvs	lr!, {r8, fp, sp, lr}^
     9ac:	6c616974 			; <UNDEFINED> instruction: 0x6c616974
     9b0:	5f657a69 	svcpl	0x00657a69
     9b4:	6f697067 	svcvs	0x00697067
     9b8:	6e69705f 	mcrvs	0, 3, r7, cr9, cr15, {2}
     9bc:	69750073 	ldmdbvs	r5!, {r0, r1, r4, r5, r6}^
     9c0:	6c654438 	cfstrdvs	mvd4, [r5], #-224	; 0xffffff20
     9c4:	77007961 	strvc	r7, [r0, -r1, ror #18]
     9c8:	65746972 	ldrbvs	r6, [r4, #-2418]!	; 0xfffff68e
     9cc:	6361705f 	cmnvs	r1, #95	; 0x5f
     9d0:	0074656b 	rsbseq	r6, r4, fp, ror #10
     9d4:	32336975 	eorscc	r6, r3, #1916928	; 0x1d4000
     9d8:	53746e49 	cmnpl	r4, #1168	; 0x490
     9dc:	75746174 	ldrbvc	r6, [r4, #-372]!	; 0xfffffe8c
     9e0:	555f0073 	ldrbpl	r0, [pc, #-115]	; 975 <UARTvprintf+0x3fd>
     9e4:	455f4253 	ldrbmi	r4, [pc, #-595]	; 799 <UARTvprintf+0x221>
     9e8:	6f70646e 	svcvs	0x0070646e
     9ec:	5f746e69 	svcpl	0x00746e69
     9f0:	65707954 	ldrbvs	r7, [r0, #-2388]!	; 0xfffff6ac
     9f4:	5355005f 	cmppl	r5, #95	; 0x5f
     9f8:	4e455f42 	cdpmi	15, 4, cr5, cr5, cr2, {2}
     9fc:	494f5044 	stmdbmi	pc, {r2, r6, ip, lr}^	; <UNPREDICTABLE>
     a00:	545f544e 	ldrbpl	r5, [pc], #-1102	; a08 <GPIOPadConfigSet+0x3c>
     a04:	5f455059 	svcpl	0x00455059
     a08:	45544e49 	ldrbmi	r4, [r4, #-3657]	; 0xfffff1b7
     a0c:	50555252 	subspl	r5, r5, r2, asr r2
     a10:	73690054 	cmnvc	r9, #84	; 0x54
     a14:	7473614c 	ldrbtvc	r6, [r3], #-332	; 0xfffffeb4
     a18:	6b636150 	blvs	18d8f60 <_etext+0x18d682d>
     a1c:	70007465 	andvc	r7, r0, r5, ror #8
     a20:	696c6c6f 	stmdbvs	ip!, {r0, r1, r2, r3, r5, r6, sl, fp, sp, lr}^
     a24:	4500676e 	strmi	r6, [r0, #-1902]	; 0xfffff892
     a28:	43585450 	cmpmi	r8, #80, 8	; 0x50000000
     a2c:	616c4653 	cmnvs	ip, r3, asr r6
     a30:	64007367 	strvs	r7, [r0], #-871	; 0xfffffc99
     a34:	6f637369 	svcvs	0x00637369
     a38:	63656e6e 	cmnvs	r5, #1760	; 0x6e0
     a3c:	65720074 	ldrbvs	r0, [r2, #-116]!	; 0xffffff8c
     a40:	78526461 	ldmdavc	r2, {r0, r5, r6, sl, sp, lr}^
     a44:	4f464946 	svcmi	0x00464946
     a48:	78616d00 	stmdavc	r1!, {r8, sl, fp, sp, lr}^
     a4c:	6b636150 	blvs	18d8f94 <_etext+0x18d6861>
     a50:	69537465 	ldmdbvs	r3, {r0, r2, r5, r6, sl, ip, sp, lr}^
     a54:	6100657a 	tstvs	r0, sl, ror r5
     a58:	655f6b63 	ldrbvs	r6, [pc, #-2915]	; fffffefd <_ebss+0xdffffcdd>
     a5c:	63725f70 	cmnvs	r2, #112, 30	; 0x1c0
     a60:	70650076 	rsbvc	r0, r5, r6, ror r0
     a64:	65707954 	ldrbvs	r7, [r0, #-2388]!	; 0xfffff6ac
     a68:	42535500 	subsmi	r5, r3, #0, 10
     a6c:	76697244 	strbtvc	r7, [r9], -r4, asr #4
     a70:	77007265 	strvc	r7, [r0, -r5, ror #4]
     a74:	65646e49 	strbvs	r6, [r4, #-3657]!	; 0xfffff1b7
     a78:	53550078 	cmppl	r5, #120	; 0x78
     a7c:	6e454442 	cdpvs	4, 4, cr4, cr5, cr2, {2}
     a80:	656c6261 	strbvs	r6, [ip, #-609]!	; 0xfffffd9f
     a84:	62737500 	rsbsvs	r7, r3, #0, 10
     a88:	7665645f 			; <UNDEFINED> instruction: 0x7665645f
     a8c:	00656369 	rsbeq	r6, r5, r9, ror #6
     a90:	745f6e69 	ldrbvc	r6, [pc], #-3689	; a98 <GPIOPadConfigSet+0xcc>
     a94:	736e6172 	cmnvc	lr, #-2147483620	; 0x8000001c
     a98:	5f726566 	svcpl	0x00726566
     a9c:	706d6f63 	rsbvc	r6, sp, r3, ror #30
     aa0:	6574656c 	ldrbvs	r6, [r4, #-1388]!	; 0xfffffa94
     aa4:	61685f64 	cmnvs	r8, r4, ror #30
     aa8:	656c646e 	strbvs	r6, [ip, #-1134]!	; 0xfffffb92
     aac:	53550072 	cmppl	r5, #114	; 0x72
     ab0:	73654442 	cmnvc	r5, #1107296256	; 0x42000000
     ab4:	70697263 	rsbvc	r7, r9, r3, ror #4
     ab8:	00726f74 	rsbseq	r6, r2, r4, ror pc
     abc:	69766564 	ldmdbvs	r6!, {r2, r5, r6, r8, sl, sp, lr}^
     ac0:	645f6563 	ldrbvs	r6, [pc], #-1379	; ac8 <GPIOPadConfigSet+0xfc>
     ac4:	72637365 	rsbvc	r7, r3, #-1811939327	; 0x94000001
     ac8:	6f747069 	svcvs	0x00747069
     acc:	65640072 	strbvs	r0, [r4, #-114]!	; 0xffffff8e
     ad0:	64615f76 	strbtvs	r5, [r1], #-3958	; 0xfffff08a
     ad4:	62007264 	andvs	r7, r0, #100, 4	; 0x40000006
     ad8:	65446463 	strbvs	r6, [r4, #-1123]	; 0xfffffb9d
     adc:	65636976 	strbvs	r6, [r3, #-2422]!	; 0xfffff68a
     ae0:	61567700 	cmpvs	r6, r0, lsl #14
     ae4:	0065756c 	rsbeq	r7, r5, ip, ror #10
     ae8:	6e614d69 	cdpvs	13, 6, cr4, cr1, cr9, {3}
     aec:	63616675 	cmnvs	r1, #122683392	; 0x7500000
     af0:	65727574 	ldrbvs	r7, [r2, #-1396]!	; 0xfffffa8c
     af4:	50690072 	rsbpl	r0, r9, r2, ror r0
     af8:	75646f72 	strbvc	r6, [r4, #-3954]!	; 0xfffff08e
     afc:	69007463 	stmdbvs	r0, {r0, r1, r5, r6, sl, ip, sp, lr}
     b00:	6f725064 	svcvs	0x00725064
     b04:	74637564 	strbtvc	r7, [r3], #-1380	; 0xfffffa9c
     b08:	526d6200 	rsbpl	r6, sp, #0, 4
     b0c:	65757165 	ldrbvs	r7, [r5, #-357]!	; 0xfffffe9b
     b10:	79547473 	ldmdbvc	r4, {r0, r1, r4, r5, r6, sl, ip, sp, lr}^
     b14:	62006570 	andvs	r6, r0, #112, 10	; 0x1c000000
     b18:	53556463 	cmppl	r5, #1660944384	; 0x63000000
     b1c:	6e650042 	cdpvs	0, 6, cr0, cr5, cr2, {2}
     b20:	696f7064 	stmdbvs	pc!, {r2, r5, r6, ip, sp, lr}^	; <UNPREDICTABLE>
     b24:	7453746e 	ldrbvc	r7, [r3], #-1134	; 0xfffffb92
     b28:	73757461 	cmnvc	r5, #1627389952	; 0x61000000
     b2c:	65446200 	strbvs	r6, [r4, #-512]	; 0xfffffe00
     b30:	65636976 	strbvs	r6, [r3, #-2422]!	; 0xfffff68a
     b34:	43627553 	cmnmi	r2, #348127232	; 0x14c00000
     b38:	7373616c 	cmnvc	r3, #108, 2
     b3c:	65536900 	ldrbvs	r6, [r3, #-2304]	; 0xfffff700
     b40:	6c616972 			; <UNDEFINED> instruction: 0x6c616972
     b44:	626d754e 	rsbvs	r7, sp, #327155712	; 0x13800000
     b48:	5f007265 	svcpl	0x00007265
     b4c:	4e55465f 	mrcmi	6, 2, r4, cr5, cr15, {2}
     b50:	4f495443 	svcmi	0x00495443
     b54:	005f5f4e 	subseq	r5, pc, lr, asr #30
     b58:	2e2f2e2e 	cdpcs	14, 2, cr2, cr15, cr14, {1}
     b5c:	72732f2e 	rsbsvc	r2, r3, #46, 30	; 0xb8
     b60:	72642f63 	rsbvc	r2, r4, #396	; 0x18c
     b64:	72657669 	rsbvc	r7, r5, #110100480	; 0x6900000
     b68:	6273752f 	rsbsvs	r7, r3, #197132288	; 0xbc00000
     b6c:	6273752f 	rsbsvs	r7, r3, #197132288	; 0xbc00000
     b70:	72665f64 	rsbvc	r5, r6, #100, 30	; 0x190
     b74:	77656d61 	strbvc	r6, [r5, -r1, ror #26]!
     b78:	2e6b726f 	cdpcs	2, 6, cr7, cr11, cr15, {3}
     b7c:	44620063 	strbtmi	r0, [r2], #-99	; 0xffffff9d
     b80:	72637365 	rsbvc	r7, r3, #-1811939327	; 0x94000001
     b84:	6f747069 	svcvs	0x00747069
     b88:	70795472 	rsbsvc	r5, r9, r2, ror r4
     b8c:	72700065 	rsbsvc	r0, r0, #101	; 0x65
     b90:	7365636f 	cmnvc	r5, #-1140850687	; 0xbc000001
     b94:	65725f73 	ldrbvs	r5, [r2, #-3955]!	; 0xfffff08d
     b98:	73657571 	cmnvc	r5, #473956352	; 0x1c400000
     b9c:	6d620074 	stclvs	0, cr0, [r2, #-464]!	; 0xfffffe30
     ba0:	75716552 	ldrbvc	r6, [r1, #-1362]!	; 0xfffffaae
     ba4:	54747365 	ldrbtpl	r7, [r4], #-869	; 0xfffffc9b
     ba8:	44657079 	strbtmi	r7, [r5], #-121	; 0xffffff87
     bac:	55007269 	strpl	r7, [r0, #-617]	; 0xfffffd97
     bb0:	65524253 	ldrbvs	r4, [r2, #-595]	; 0xfffffdad
     bb4:	73657571 	cmnvc	r5, #473956352	; 0x1c400000
     bb8:	65640074 	strbvs	r0, [r4, #-116]!	; 0xffffff8c
     bbc:	42677562 	rsbmi	r7, r7, #411041792	; 0x18800000
     bc0:	65666675 	strbvs	r6, [r6, #-1653]!	; 0xfffff98b
     bc4:	53550072 	cmppl	r5, #114	; 0x72
     bc8:	6e494442 	cdpvs	4, 4, cr4, cr9, cr2, {2}
     bcc:	75007469 	strvc	r7, [r0, #-1129]	; 0xfffffb97
     bd0:	5f646273 	svcpl	0x00646273
     bd4:	646e6168 	strbtvs	r6, [lr], #-360	; 0xfffffe98
     bd8:	6400656c 	strvs	r6, [r0], #-1388	; 0xfffffa94
     bdc:	72637365 	rsbvc	r7, r3, #-1811939327	; 0x94000001
     be0:	6f747069 	svcvs	0x00747069
     be4:	79745f72 	ldmdbvc	r4!, {r1, r4, r5, r6, r8, r9, sl, fp, ip, lr}^
     be8:	62006570 	andvs	r6, r0, #112, 10	; 0x1c000000
     bec:	5078614d 	rsbspl	r6, r8, sp, asr #2
     bf0:	656b6361 	strbvs	r6, [fp, #-865]!	; 0xfffffc9f
     bf4:	7a695374 	bvc	1a559cc <_etext+0x1a53299>
     bf8:	70003065 	andvc	r3, r0, r5, rrx
     bfc:	65636f72 	strbvs	r6, [r3, #-3954]!	; 0xfffff08e
     c00:	635f7373 	cmpvs	pc, #-872415231	; 0xcc000001
     c04:	72746e6f 	rsbsvc	r6, r4, #1776	; 0x6f0
     c08:	745f6c6f 	ldrbvc	r6, [pc], #-3183	; c10 <SysCtlClockSet+0x24>
     c0c:	736e6172 	cmnvc	lr, #-2147483620	; 0x8000001c
     c10:	5f726566 	svcpl	0x00726566
     c14:	67617473 			; <UNDEFINED> instruction: 0x67617473
     c18:	65730065 	ldrbvs	r0, [r3, #-101]!	; 0xffffff9b
     c1c:	5f707574 	svcpl	0x00707574
     c20:	61746164 	cmnvs	r4, r4, ror #2
     c24:	6365725f 	cmnvs	r5, #-268435451	; 0xf0000005
     c28:	65766965 	ldrbvs	r6, [r6, #-2405]!	; 0xfffff69b
     c2c:	61685f64 	cmnvs	r8, r4, ror #30
     c30:	656c646e 	strbvs	r6, [ip, #-1134]!	; 0xfffffb92
     c34:	6f6c0072 	svcvs	0x006c0072
     c38:	6e696767 	cdpvs	7, 6, cr6, cr9, cr7, {3}
     c3c:	65725f67 	ldrbvs	r5, [r2, #-3943]!	; 0xfffff099
     c40:	73657571 	cmnvc	r5, #473956352	; 0x1c400000
     c44:	6e695f74 	mcrvs	15, 3, r5, cr9, cr4, {3}
     c48:	62006f66 	andvs	r6, r0, #408	; 0x198
     c4c:	69766544 	ldmdbvs	r6!, {r2, r6, r8, sl, sp, lr}^
     c50:	72506563 	subsvc	r6, r0, #415236096	; 0x18c00000
     c54:	636f746f 	cmnvs	pc, #1862270976	; 0x6f000000
     c58:	62006c6f 	andvs	r6, r0, #28416	; 0x6f00
     c5c:	75716552 	ldrbvc	r6, [r1, #-1362]!	; 0xfffffaae
     c60:	00747365 	rsbseq	r7, r4, r5, ror #6
     c64:	636f7270 	cmnvs	pc, #112, 4
     c68:	5f737365 	svcpl	0x00737365
     c6c:	6e617473 	mcrvs	4, 3, r7, cr1, cr3, {3}
     c70:	64726164 	ldrbtvs	r6, [r2], #-356	; 0xfffffe9c
     c74:	7665645f 			; <UNDEFINED> instruction: 0x7665645f
     c78:	5f656369 	svcpl	0x00656369
     c7c:	75716572 	ldrbvc	r6, [r1, #-1394]!	; 0xfffffa8e
     c80:	00747365 	rsbseq	r7, r4, r5, ror #6
     c84:	6d754e62 	ldclvs	14, cr4, [r5, #-392]!	; 0xfffffe78
     c88:	666e6f43 	strbtvs	r6, [lr], -r3, asr #30
     c8c:	72756769 	rsbsvc	r6, r5, #27525120	; 0x1a40000
     c90:	6f697461 	svcvs	0x00697461
     c94:	6200736e 	andvs	r7, r0, #-1207959551	; 0xb8000001
     c98:	69766544 	ldmdbvs	r6!, {r2, r6, r8, sl, sp, lr}^
     c9c:	6c436563 	cfstr64vs	mvdx6, [r3], {99}	; 0x63
     ca0:	00737361 	rsbseq	r7, r3, r1, ror #6
     ca4:	70646e65 	rsbvc	r6, r4, r5, ror #28
     ca8:	746e696f 	strbtvc	r6, [lr], #-2415	; 0xfffff691
     cac:	6d756e5f 	ldclvs	14, cr6, [r5, #-380]!	; 0xfffffe84
     cb0:	00726562 	rsbseq	r6, r2, r2, ror #10
     cb4:	5f627375 	svcpl	0x00627375
     cb8:	65736572 	ldrbvs	r6, [r3, #-1394]!	; 0xfffffa8e
     cbc:	65725f74 	ldrbvs	r5, [r2, #-3956]!	; 0xfffff08c
     cc0:	76696563 	strbtvc	r6, [r9], -r3, ror #10
     cc4:	685f6465 	ldmdavs	pc, {r0, r2, r5, r6, sl, sp, lr}^	; <UNPREDICTABLE>
     cc8:	6c646e61 	stclvs	14, cr6, [r4], #-388	; 0xfffffe7c
     ccc:	62007265 	andvs	r7, r0, #1342177286	; 0x50000006
     cd0:	7165526d 	cmnvc	r5, sp, ror #4
     cd4:	74736575 	ldrbtvc	r6, [r3], #-1397	; 0xfffffa8b
     cd8:	65707954 	ldrbvs	r7, [r0, #-2388]!	; 0xfffff6ac
     cdc:	65707954 	ldrbvs	r7, [r0, #-2388]!	; 0xfffff6ac
     ce0:	654c6200 	strbvs	r6, [ip, #-512]	; 0xfffffe00
     ce4:	6874676e 	ldmdavs	r4!, {r1, r2, r3, r5, r6, r8, r9, sl, sp, lr}^
     ce8:	42535500 	subsmi	r5, r3, #0, 10
     cec:	61736944 	cmnvs	r3, r4, asr #18
     cf0:	00656c62 	rsbeq	r6, r5, r2, ror #24
     cf4:	49425355 	stmdbmi	r2, {r0, r2, r4, r6, r8, r9, ip, lr}^
     cf8:	7265746e 	rsbvc	r7, r5, #1845493760	; 0x6e000000
     cfc:	74707572 	ldrbtvc	r7, [r0], #-1394	; 0xfffffa8e
     d00:	74617453 	strbtvc	r7, [r1], #-1107	; 0xfffffbad
     d04:	65007375 	strvs	r7, [r0, #-885]	; 0xfffffc8b
     d08:	6f50646e 	svcvs	0x0050646e
     d0c:	54746e69 	ldrbtpl	r6, [r4], #-3689	; 0xfffff197
     d10:	00657079 	rsbeq	r7, r5, r9, ror r0
     d14:	63736564 	cmnvs	r3, #100, 10	; 0x19000000
     d18:	74706972 	ldrbtvc	r6, [r0], #-2418	; 0xfffff68e
     d1c:	6c5f726f 	lfmvs	f7, 2, [pc], {111}	; 0x6f
     d20:	74676e65 	strbtvc	r6, [r7], #-3685	; 0xfffff19b
     d24:	4c770068 	ldclmi	0, cr0, [r7], #-416	; 0xfffffe60
     d28:	74676e65 	strbtvc	r6, [r7], #-3685	; 0xfffff19b
     d2c:	79620068 	stmdbvc	r2!, {r3, r5, r6}^
     d30:	635f6574 	cmpvs	pc, #116, 10	; 0x1d000000
     d34:	746e756f 	strbtvc	r7, [lr], #-1391	; 0xfffffa91
     d38:	526d6200 	rsbpl	r6, sp, #0, 4
     d3c:	65757165 	ldrbvs	r7, [r5, #-357]!	; 0xfffffe9b
     d40:	79547473 	ldmdbvc	r4, {r0, r1, r4, r5, r6, sl, ip, sp, lr}^
     d44:	65526570 	ldrbvs	r6, [r2, #-1392]	; 0xfffffa90
     d48:	74007663 	strvc	r7, [r0], #-1635	; 0xfffff99d
     d4c:	67676972 			; <UNDEFINED> instruction: 0x67676972
     d50:	55007265 	strpl	r7, [r0, #-613]	; 0xfffffd9b
     d54:	45444253 	strbmi	r4, [r4, #-595]	; 0xfffffdad
     d58:	6f70646e 	svcvs	0x0070646e
     d5c:	48746e69 	ldmdami	r4!, {r0, r3, r5, r6, r9, sl, fp, sp, lr}^
     d60:	6c646e61 	stclvs	14, cr6, [r4], #-388	; 0xfffffe7c
     d64:	69007265 	stmdbvs	r0, {r0, r2, r5, r6, r9, ip, sp, lr}
     d68:	6e655664 	cdpvs	6, 6, cr5, cr5, cr4, {3}
     d6c:	00726f64 	rsbseq	r6, r2, r4, ror #30
     d70:	72747363 	rsbsvc	r7, r4, #-1946157055	; 0x8c000001
     d74:	00676e69 	rsbeq	r6, r7, r9, ror #28
     d78:	5f676f6c 	svcpl	0x00676f6c
     d7c:	75626564 	strbvc	r6, [r2, #-1380]!	; 0xfffffa9c
     d80:	6f6c0067 	svcvs	0x006c0067
     d84:	65645f67 	strbvs	r5, [r4, #-3943]!	; 0xfffff099
     d88:	5f677562 	svcpl	0x00677562
     d8c:	61727261 	cmnvs	r2, r1, ror #4
     d90:	72610079 	rsbvc	r0, r1, #121	; 0x79
     d94:	5f007367 	svcpl	0x00007367
     d98:	5f676f6c 	svcpl	0x00676f6c
     d9c:	6f727265 	svcvs	0x00727265
     da0:	4f4c0072 	svcmi	0x004c0072
     da4:	454c5f47 	strbmi	r5, [ip, #-3911]	; 0xfffff0b9
     da8:	5f4c4556 	svcpl	0x004c4556
     dac:	4f464e49 	svcmi	0x00464e49
     db0:	54414d52 	strbpl	r4, [r1], #-3410	; 0xfffff2ae
     db4:	004e4f49 	subeq	r4, lr, r9, asr #30
     db8:	4c676f4c 	stclmi	15, cr6, [r7], #-304	; 0xfffffed0
     dbc:	6c657665 	stclvs	6, cr7, [r5], #-404	; 0xfffffe6c
     dc0:	65675f00 	strbvs	r5, [r7, #-3840]!	; 0xfffff100
     dc4:	6f6c5f74 	svcvs	0x006c5f74
     dc8:	656c5f67 	strbvs	r5, [ip, #-3943]!	; 0xfffff099
     dcc:	5f6c6576 	svcpl	0x006c6576
     dd0:	69727473 	ldmdbvs	r2!, {r0, r1, r4, r5, r6, sl, ip, sp, lr}^
     dd4:	6600676e 	strvs	r6, [r0], -lr, ror #14
     dd8:	616d726f 	cmnvs	sp, pc, ror #4
     ddc:	2e2e0074 	mcrcs	0, 1, r0, cr14, cr4, {3}
     de0:	2f2e2e2f 	svccs	0x002e2e2f
     de4:	2f637273 	svccs	0x00637273
     de8:	76697264 	strbtvc	r7, [r9], -r4, ror #4
     dec:	752f7265 	strvc	r7, [pc, #-613]!	; b8f <IntPriorityGet+0xb>
     df0:	6c2f6273 	sfmvs	f6, 4, [pc], #-460	; c2c <SysCtlClockSet+0x40>
     df4:	645f676f 	ldrbvs	r6, [pc], #-1903	; dfc <SysCtlClockGet+0x114>
     df8:	67756265 	ldrbvs	r6, [r5, -r5, ror #4]!
     dfc:	6c00632e 	stcvs	3, cr6, [r0], {46}	; 0x2e
     e00:	695f676f 	ldmdbvs	pc, {r0, r1, r2, r3, r5, r6, r8, r9, sl, sp, lr}^	; <UNPREDICTABLE>
     e04:	006f666e 	rsbeq	r6, pc, lr, ror #12
     e08:	5f474f4c 	svcpl	0x00474f4c
     e0c:	4556454c 	ldrbmi	r4, [r6, #-1356]	; 0xfffffab4
     e10:	52455f4c 	subpl	r5, r5, #76, 30	; 0x130
     e14:	00524f52 	subseq	r4, r2, r2, asr pc
     e18:	5f474f4c 	svcpl	0x00474f4c
     e1c:	4556454c 	ldrbmi	r4, [r6, #-1356]	; 0xfffffab4
     e20:	45445f4c 	strbmi	r5, [r4, #-3916]	; 0xfffff0b4
     e24:	00475542 	subeq	r5, r7, r2, asr #10
     e28:	5f676f6c 	svcpl	0x00676f6c
     e2c:	6576656c 	ldrbvs	r6, [r6, #-1388]!	; 0xfffffa94
     e30:	6573006c 	ldrbvs	r0, [r3, #-108]!	; 0xffffff94
     e34:	62654474 	rsbvs	r4, r5, #116, 8	; 0x74000000
     e38:	654c6775 	strbvs	r6, [ip, #-1909]	; 0xfffff88b
     e3c:	006c6576 	rsbeq	r6, ip, r6, ror r5
     e40:	314e5a5f 	cmpcc	lr, pc, asr sl
     e44:	62654434 	rsbvs	r4, r5, #52, 8	; 0x34000000
     e48:	6e496775 	mcrvs	7, 2, r6, cr9, cr5, {3}
     e4c:	66726574 			; <UNDEFINED> instruction: 0x66726574
     e50:	33656361 	cmncc	r5, #-2080374783	; 0x84000001
     e54:	45676f6c 	strbmi	r6, [r7, #-3948]!	; 0xfffff094
     e58:	65443031 	strbvs	r3, [r4, #-49]	; 0xffffffcf
     e5c:	4c677562 	cfstr64mi	mvdx7, [r7], #-392	; 0xfffffe78
     e60:	6c657665 	stclvs	6, cr7, [r5], #-404	; 0xfffffe6c
     e64:	7a634b50 	bvc	18d3bac <_etext+0x18d1479>
     e68:	4e5a5f00 	cdpmi	15, 5, cr5, cr10, cr0, {0}
     e6c:	65443431 	strbvs	r3, [r4, #-1073]	; 0xfffffbcf
     e70:	49677562 	stmdbmi	r7!, {r1, r5, r6, r8, sl, ip, sp, lr}^
     e74:	7265746e 	rsbvc	r7, r5, #1845493760	; 0x6e000000
     e78:	65636166 	strbvs	r6, [r3, #-358]!	; 0xfffffe9a
     e7c:	76453443 	strbvc	r3, [r5], -r3, asr #8
     e80:	42454400 	submi	r4, r5, #0, 8
     e84:	575f4755 			; <UNDEFINED> instruction: 0x575f4755
     e88:	70004e52 	andvc	r4, r0, r2, asr lr
     e8c:	6c694663 	stclvs	6, cr4, [r9], #-396	; 0xfffffe74
     e90:	6d616e65 	stclvs	14, cr6, [r1, #-404]!	; 0xfffffe6c
     e94:	45440065 	strbmi	r0, [r4, #-101]	; 0xffffff9b
     e98:	5f475542 	svcpl	0x00475542
     e9c:	00525245 	subseq	r5, r2, r5, asr #4
     ea0:	75626544 	strbvc	r6, [r2, #-1348]!	; 0xfffffabc
     ea4:	746e4967 	strbtvc	r4, [lr], #-2407	; 0xfffff699
     ea8:	61667265 	cmnvs	r6, r5, ror #4
     eac:	5f006563 	svcpl	0x00006563
     eb0:	424f4c47 	submi	r4, pc, #18176	; 0x4700
     eb4:	5f5f4c41 	svcpl	0x005f4c41
     eb8:	5f627573 	svcpl	0x00627573
     ebc:	5f5f5f49 	svcpl	0x005f5f49
     ec0:	6f727265 	svcvs	0x00727265
     ec4:	005f5f72 	subseq	r5, pc, r2, ror pc	; <UNPREDICTABLE>
     ec8:	314e5a5f 	cmpcc	lr, pc, asr sl
     ecc:	62654434 	rsbvs	r4, r5, #52, 8	; 0x34000000
     ed0:	6e496775 	mcrvs	7, 2, r6, cr9, cr5, {3}
     ed4:	66726574 			; <UNDEFINED> instruction: 0x66726574
     ed8:	43656361 	cmnmi	r5, #-2080374783	; 0x84000001
     edc:	00764532 	rsbseq	r4, r6, r2, lsr r5
     ee0:	55424544 	strbpl	r4, [r2, #-1348]	; 0xfffffabc
     ee4:	564c5f47 	strbpl	r5, [ip], -r7, asr #30
     ee8:	45440030 	strbmi	r0, [r4, #-48]	; 0xffffffd0
     eec:	5f475542 	svcpl	0x00475542
     ef0:	0031564c 	eorseq	r5, r1, ip, asr #12
     ef4:	55424544 	strbpl	r4, [r2, #-1348]	; 0xfffffabc
     ef8:	564c5f47 	strbpl	r5, [ip], -r7, asr #30
     efc:	5f5f0032 	svcpl	0x005f0032
     f00:	74696e69 	strbtvc	r6, [r9], #-3689	; 0xfffff197
     f04:	696c6169 	stmdbvs	ip!, {r0, r3, r5, r6, r8, sp, lr}^
     f08:	705f657a 	subsvc	r6, pc, sl, ror r5	; <UNPREDICTABLE>
     f0c:	62656400 	rsbvs	r6, r5, #0, 8
     f10:	654c6775 	strbvs	r6, [ip, #-1909]	; 0xfffff88b
     f14:	006c6576 	rsbeq	r6, ip, r6, ror r5
     f18:	55424544 	strbpl	r4, [r2, #-1348]	; 0xfffffabc
     f1c:	4f4c5f47 	svcmi	0x004c5f47
     f20:	5a5f0047 	bpl	17c1044 <_etext+0x17be911>
     f24:	4434314e 	ldrtmi	r3, [r4], #-334	; 0xfffffeb2
     f28:	67756265 	ldrbvs	r6, [r5, -r5, ror #4]!
     f2c:	65746e49 	ldrbvs	r6, [r4, #-3657]!	; 0xfffff1b7
     f30:	63616672 	cmnvs	r1, #119537664	; 0x7200000
     f34:	73333165 	teqvc	r3, #1073741849	; 0x40000019
     f38:	65447465 	strbvs	r7, [r4, #-1125]	; 0xfffffb9b
     f3c:	4c677562 	cfstr64mi	mvdx7, [r7], #-392	; 0xfffffe78
     f40:	6c657665 	stclvs	6, cr7, [r5], #-404	; 0xfffffe6c
     f44:	44303145 	ldrtmi	r3, [r0], #-325	; 0xfffffebb
     f48:	67756265 	ldrbvs	r6, [r5, -r5, ror #4]!
     f4c:	6576654c 	ldrbvs	r6, [r6, #-1356]!	; 0xfffffab4
     f50:	7953006c 	ldmdbvc	r3, {r2, r3, r5, r6}^
     f54:	6d657473 	cfstrdvs	mvd7, [r5, #-460]!	; 0xfffffe34
     f58:	75626544 	strbvc	r6, [r2, #-1348]!	; 0xfffffabc
     f5c:	5f5f0067 	svcpl	0x005f0067
     f60:	74617473 	strbtvc	r7, [r1], #-1139	; 0xfffffb8d
     f64:	695f6369 	ldmdbvs	pc, {r0, r3, r5, r6, r8, r9, sp, lr}^	; <UNPREDICTABLE>
     f68:	6974696e 	ldmdbvs	r4!, {r1, r2, r3, r5, r6, r8, fp, sp, lr}^
     f6c:	7a696c61 	bvc	1a5c0f8 <_etext+0x1a599c5>
     f70:	6f697461 	svcvs	0x00697461
     f74:	6e615f6e 	cdpvs	15, 6, cr5, cr1, cr14, {3}
     f78:	65645f64 	strbvs	r5, [r4, #-3940]!	; 0xfffff09c
     f7c:	75727473 	ldrbvc	r7, [r2, #-1139]!	; 0xfffffb8d
     f80:	6f697463 	svcvs	0x00697463
     f84:	00305f6e 	eorseq	r5, r0, lr, ror #30
     f88:	72705f5f 	rsbsvc	r5, r0, #380	; 0x17c
     f8c:	69726f69 	ldmdbvs	r2!, {r0, r3, r5, r6, r8, r9, sl, fp, sp, lr}^
     f90:	75007974 	strvc	r7, [r0, #-2420]	; 0xfffff68c
     f94:	4c323369 	ldcmi	3, cr3, [r2], #-420	; 0xfffffe5c
     f98:	00656e69 	rsbeq	r6, r5, r9, ror #28
     f9c:	20554e47 	subscs	r4, r5, r7, asr #28
     fa0:	312b2b43 			; <UNDEFINED> instruction: 0x312b2b43
     fa4:	30312031 	eorscc	r2, r1, r1, lsr r0
     fa8:	312e322e 			; <UNDEFINED> instruction: 0x312e322e
     fac:	32303220 	eorscc	r3, r0, #32, 4
     fb0:	30313130 	eorscc	r3, r1, r0, lsr r1
     fb4:	72282033 	eorvc	r2, r8, #51	; 0x33
     fb8:	61656c65 	cmnvs	r5, r5, ror #24
     fbc:	20296573 	eorcs	r6, r9, r3, ror r5
     fc0:	68746d2d 	ldmdavs	r4!, {r0, r2, r3, r5, r8, sl, fp, sp, lr}^
     fc4:	20626d75 	rsbcs	r6, r2, r5, ror sp
     fc8:	70636d2d 	rsbvc	r6, r3, sp, lsr #26
     fcc:	6f633d75 	svcvs	0x00633d75
     fd0:	78657472 	stmdavc	r5!, {r1, r4, r5, r6, sl, ip, sp, lr}^
     fd4:	20346d2d 	eorscs	r6, r4, sp, lsr #26
     fd8:	70666d2d 	rsbvc	r6, r6, sp, lsr #26
     fdc:	70663d75 	rsbvc	r3, r6, r5, ror sp
     fe0:	732d3476 			; <UNDEFINED> instruction: 0x732d3476
     fe4:	31642d70 	smccc	17104	; 0x42d0
     fe8:	6d2d2036 	stcvs	0, cr2, [sp, #-216]!	; 0xffffff28
     fec:	616f6c66 	cmnvs	pc, r6, ror #24
     ff0:	62612d74 	rsbvs	r2, r1, #116, 26	; 0x1d00
     ff4:	61683d69 	cmnvs	r8, r9, ror #26
     ff8:	2d206472 	cfstrscs	mvf6, [r0, #-456]!	; 0xfffffe38
     ffc:	6372616d 	cmnvs	r2, #1073741851	; 0x4000001b
    1000:	72613d68 	rsbvc	r3, r1, #104, 26	; 0x1a00
    1004:	6537766d 	ldrvs	r7, [r7, #-1645]!	; 0xfffff993
    1008:	662b6d2d 	strtvs	r6, [fp], -sp, lsr #26
    100c:	672d2070 			; <UNDEFINED> instruction: 0x672d2070
    1010:	304f2d20 	subcc	r2, pc, r0, lsr #26
    1014:	74732d20 	ldrbtvc	r2, [r3], #-3360	; 0xfffff2e0
    1018:	2b633d64 	blcs	18d05b0 <_etext+0x18cde7d>
    101c:	2031312b 	eorscs	r3, r1, fp, lsr #2
    1020:	7566662d 	strbvc	r6, [r6, #-1581]!	; 0xfffff9d3
    1024:	6974636e 	ldmdbvs	r4!, {r1, r2, r3, r5, r6, r8, r9, sp, lr}^
    1028:	732d6e6f 			; <UNDEFINED> instruction: 0x732d6e6f
    102c:	69746365 	ldmdbvs	r4!, {r0, r2, r5, r6, r8, r9, sp, lr}^
    1030:	20736e6f 	rsbscs	r6, r3, pc, ror #28
    1034:	6164662d 	cmnvs	r4, sp, lsr #12
    1038:	732d6174 			; <UNDEFINED> instruction: 0x732d6174
    103c:	69746365 	ldmdbvs	r4!, {r0, r2, r5, r6, r8, r9, sp, lr}^
    1040:	20736e6f 	rsbscs	r6, r3, pc, ror #28
    1044:	6f6e662d 	svcvs	0x006e662d
    1048:	6378652d 	cmnvs	r8, #188743680	; 0xb400000
    104c:	69747065 	ldmdbvs	r4!, {r0, r2, r5, r6, ip, sp, lr}^
    1050:	00736e6f 	rsbseq	r6, r3, pc, ror #28
    1054:	73696874 	cmnvc	r9, #116, 16	; 0x740000
    1058:	2f2e2e00 	svccs	0x002e2e00
    105c:	732f2e2e 			; <UNDEFINED> instruction: 0x732f2e2e
    1060:	642f6372 	strtvs	r6, [pc], #-882	; 1068 <USBDeviceInit+0x20>
    1064:	65766972 	ldrbvs	r6, [r6, #-2418]!	; 0xfffff68e
    1068:	65642f72 	strbvs	r2, [r4, #-3954]!	; 0xfffff08e
    106c:	2e677562 	cdpcs	5, 6, cr7, cr7, cr2, {3}
    1070:	00707063 	rsbseq	r7, r0, r3, rrx
    1074:	55424544 	strbpl	r4, [r2, #-1348]	; 0xfffffabc
    1078:	414d5f47 	cmpmi	sp, r7, asr #30
    107c:	504f5f58 	subpl	r5, pc, r8, asr pc	; <UNPREDICTABLE>
    1080:	Address 0x00001080 is out of bounds.


Disassembly of section .comment:

00000000 <.comment>:
   0:	3a434347 	bcc	10d0d24 <_etext+0x10ce5f1>
   4:	4e472820 	cdpmi	8, 4, cr2, cr7, cr0, {1}
   8:	72412055 	subvc	r2, r1, #85	; 0x55
   c:	6d45206d 	stclvs	0, cr2, [r5, #-436]	; 0xfffffe4c
  10:	64646562 	strbtvs	r6, [r4], #-1378	; 0xfffffa9e
  14:	54206465 	strtpl	r6, [r0], #-1125	; 0xfffffb9b
  18:	636c6f6f 	cmnvs	ip, #444	; 0x1bc
  1c:	6e696168 	powvsez	f6, f1, #0.0
  20:	2d303120 	ldfcss	f3, [r0, #-128]!	; 0xffffff80
  24:	30323032 	eorscc	r3, r2, r2, lsr r0
  28:	2d34712d 	ldfcss	f7, [r4, #-180]!	; 0xffffff4c
  2c:	6f6a616d 	svcvs	0x006a616d
  30:	31202972 			; <UNDEFINED> instruction: 0x31202972
  34:	2e322e30 	mrccs	14, 1, r2, cr2, cr0, {1}
  38:	30322031 	eorscc	r2, r2, r1, lsr r0
  3c:	31313032 	teqcc	r1, r2, lsr r0
  40:	28203330 	stmdacs	r0!, {r4, r5, r8, r9, ip, sp}
  44:	656c6572 	strbvs	r6, [ip, #-1394]!	; 0xfffffa8e
  48:	29657361 	stmdbcs	r5!, {r0, r5, r6, r8, r9, ip, sp, lr}^
	...

Disassembly of section .ARM.attributes:

00000000 <.ARM.attributes>:
   0:	00003141 	andeq	r3, r0, r1, asr #2
   4:	61656100 	cmnvs	r5, r0, lsl #2
   8:	01006962 	tsteq	r0, r2, ror #18
   c:	00000027 	andeq	r0, r0, r7, lsr #32
  10:	2d453705 	stclcs	7, cr3, [r5, #-20]	; 0xffffffec
  14:	0d06004d 	stceq	0, cr0, [r6, #-308]	; 0xfffffecc
  18:	02094d07 	andeq	r4, r9, #448	; 0x1c0
  1c:	0412060a 	ldreq	r0, [r2], #-1546	; 0xfffff9f6
  20:	01150114 	tsteq	r5, r4, lsl r1
  24:	01180317 	tsteq	r8, r7, lsl r3
  28:	011b011a 	tsteq	fp, sl, lsl r1
  2c:	061e011c 			; <UNDEFINED> instruction: 0x061e011c
  30:	Address 0x00000030 is out of bounds.


Disassembly of section .debug_frame:

00000000 <.debug_frame>:
   0:	0000000c 	andeq	r0, r0, ip
   4:	ffffffff 			; <UNDEFINED> instruction: 0xffffffff
   8:	7c020001 	stcvc	0, cr0, [r2], {1}
   c:	000d0c0e 	andeq	r0, sp, lr, lsl #24
  10:	0000001c 	andeq	r0, r0, ip, lsl r0
  14:	00000000 	andeq	r0, r0, r0
  18:	0000026c 	andeq	r0, r0, ip, ror #4
  1c:	0000000e 	andeq	r0, r0, lr
  20:	87040e41 	strhi	r0, [r4, -r1, asr #28]
  24:	070d4101 	streq	r4, [sp, -r1, lsl #2]
  28:	420d0d42 	andmi	r0, sp, #4224	; 0x1080
  2c:	00000ec7 	andeq	r0, r0, r7, asr #29
  30:	00000018 	andeq	r0, r0, r8, lsl r0
	...
  3c:	00000028 	andeq	r0, r0, r8, lsr #32
  40:	87080e41 	strhi	r0, [r8, -r1, asr #28]
  44:	41018e02 	tstmi	r1, r2, lsl #28
  48:	0000070d 	andeq	r0, r0, sp, lsl #14
  4c:	00000018 	andeq	r0, r0, r8, lsl r0
  50:	00000000 	andeq	r0, r0, r0
  54:	0000027a 	andeq	r0, r0, sl, ror r2
  58:	0000000c 	andeq	r0, r0, ip
  5c:	87080e41 	strhi	r0, [r8, -r1, asr #28]
  60:	41018e02 	tstmi	r1, r2, lsl #28
  64:	0000070d 	andeq	r0, r0, sp, lsl #14
  68:	00000018 	andeq	r0, r0, r8, lsl r0
  6c:	00000000 	andeq	r0, r0, r0
  70:	00000288 	andeq	r0, r0, r8, lsl #5
  74:	00000054 	andeq	r0, r0, r4, asr r0
  78:	87080e41 	strhi	r0, [r8, -r1, asr #28]
  7c:	41018e02 	tstmi	r1, r2, lsl #28
  80:	0000070d 	andeq	r0, r0, sp, lsl #14
  84:	00000018 	andeq	r0, r0, r8, lsl r0
	...
  90:	00000014 	andeq	r0, r0, r4, lsl r0
  94:	87080e41 	strhi	r0, [r8, -r1, asr #28]
  98:	41018e02 	tstmi	r1, r2, lsl #28
  9c:	0000070d 	andeq	r0, r0, sp, lsl #14
  a0:	0000001c 	andeq	r0, r0, ip, lsl r0
  a4:	00000000 	andeq	r0, r0, r0
  a8:	000002dc 	ldrdeq	r0, [r0], -ip
  ac:	00000040 	andeq	r0, r0, r0, asr #32
  b0:	87040e41 	strhi	r0, [r4, -r1, asr #28]
  b4:	070d4101 	streq	r4, [sp, -r1, lsl #2]
  b8:	420d0d57 	andmi	r0, sp, #5568	; 0x15c0
  bc:	00000ec7 	andeq	r0, r0, r7, asr #29
  c0:	0000001c 	andeq	r0, r0, ip, lsl r0
  c4:	00000000 	andeq	r0, r0, r0
  c8:	0000031c 	andeq	r0, r0, ip, lsl r3
  cc:	0000009c 	muleq	r0, ip, r0
  d0:	840c0e41 	strhi	r0, [ip], #-3649	; 0xfffff1bf
  d4:	8e028703 	cdphi	7, 0, cr8, cr2, cr3, {0}
  d8:	180e4101 	stmdane	lr, {r0, r8, lr}
  dc:	00070d41 	andeq	r0, r7, r1, asr #26
  e0:	0000000c 	andeq	r0, r0, ip
  e4:	ffffffff 			; <UNDEFINED> instruction: 0xffffffff
  e8:	7c020001 	stcvc	0, cr0, [r2], {1}
  ec:	000d0c0e 	andeq	r0, sp, lr, lsl #24
  f0:	00000020 	andeq	r0, r0, r0, lsr #32
  f4:	000000e0 	andeq	r0, r0, r0, ror #1
  f8:	000003b8 			; <UNDEFINED> instruction: 0x000003b8
  fc:	00000064 	andeq	r0, r0, r4, rrx
 100:	87080e41 	strhi	r0, [r8, -r1, asr #28]
 104:	41018e02 	tstmi	r1, r2, lsl #28
 108:	0d41100e 	stcleq	0, cr1, [r1, #-56]	; 0xffffffc8
 10c:	080e6407 	stmdaeq	lr, {r0, r1, r2, sl, sp, lr}
 110:	000d0d41 	andeq	r0, sp, r1, asr #26
 114:	00000014 	andeq	r0, r0, r4, lsl r0
 118:	000000e0 	andeq	r0, r0, r0, ror #1
 11c:	00000424 	andeq	r0, r0, r4, lsr #8
 120:	00000006 	andeq	r0, r0, r6
 124:	87040e41 	strhi	r0, [r4, -r1, asr #28]
 128:	070d4101 	streq	r4, [sp, -r1, lsl #2]
 12c:	00000018 	andeq	r0, r0, r8, lsl r0
 130:	000000e0 	andeq	r0, r0, r0, ror #1
 134:	0000042c 	andeq	r0, r0, ip, lsr #8
 138:	00000024 	andeq	r0, r0, r4, lsr #32
 13c:	87080e41 	strhi	r0, [r8, -r1, asr #28]
 140:	41018e02 	tstmi	r1, r2, lsl #28
 144:	0000070d 	andeq	r0, r0, sp, lsl #14
 148:	00000014 	andeq	r0, r0, r4, lsl r0
 14c:	000000e0 	andeq	r0, r0, r0, ror #1
 150:	00000450 	andeq	r0, r0, r0, asr r4
 154:	00000006 	andeq	r0, r0, r6
 158:	87040e41 	strhi	r0, [r4, -r1, asr #28]
 15c:	070d4101 	streq	r4, [sp, -r1, lsl #2]
 160:	0000000c 	andeq	r0, r0, ip
 164:	ffffffff 			; <UNDEFINED> instruction: 0xffffffff
 168:	7c020001 	stcvc	0, cr0, [r2], {1}
 16c:	000d0c0e 	andeq	r0, sp, lr, lsl #24
 170:	00000020 	andeq	r0, r0, r0, lsr #32
 174:	00000160 	andeq	r0, r0, r0, ror #2
 178:	00000458 	andeq	r0, r0, r8, asr r4
 17c:	00000090 	muleq	r0, r0, r0
 180:	87080e41 	strhi	r0, [r8, -r1, asr #28]
 184:	41018e02 	tstmi	r1, r2, lsl #28
 188:	0d41180e 	stcleq	8, cr1, [r1, #-56]	; 0xffffffc8
 18c:	080e7a07 	stmdaeq	lr, {r0, r1, r2, r9, fp, ip, sp, lr}
 190:	000d0d41 	andeq	r0, sp, r1, asr #26
 194:	00000020 	andeq	r0, r0, r0, lsr #32
 198:	00000160 	andeq	r0, r0, r0, ror #2
 19c:	000004e8 	andeq	r0, r0, r8, ror #9
 1a0:	00000090 	muleq	r0, r0, r0
 1a4:	87080e41 	strhi	r0, [r8, -r1, asr #28]
 1a8:	41018e02 	tstmi	r1, r2, lsl #28
 1ac:	0d41180e 	stcleq	8, cr1, [r1, #-56]	; 0xffffffc8
 1b0:	080e7e07 	stmdaeq	lr, {r0, r1, r2, r9, sl, fp, ip, sp, lr}
 1b4:	000d0d41 	andeq	r0, sp, r1, asr #26
 1b8:	00000020 	andeq	r0, r0, r0, lsr #32
 1bc:	00000160 	andeq	r0, r0, r0, ror #2
 1c0:	00000000 	andeq	r0, r0, r0
 1c4:	00000114 	andeq	r0, r0, r4, lsl r1
 1c8:	87080e41 	strhi	r0, [r8, -r1, asr #28]
 1cc:	41018e02 	tstmi	r1, r2, lsl #28
 1d0:	0d41180e 	stcleq	8, cr1, [r1, #-56]	; 0xffffffc8
 1d4:	0e7a0207 	cdpeq	2, 7, cr0, cr10, cr7, {0}
 1d8:	0d0d4108 	stfeqs	f4, [sp, #-32]	; 0xffffffe0
 1dc:	00000018 	andeq	r0, r0, r8, lsl r0
 1e0:	00000160 	andeq	r0, r0, r0, ror #2
 1e4:	00000000 	andeq	r0, r0, r0
 1e8:	0000001c 	andeq	r0, r0, ip, lsl r0
 1ec:	87080e41 	strhi	r0, [r8, -r1, asr #28]
 1f0:	41018e02 	tstmi	r1, r2, lsl #28
 1f4:	0000070d 	andeq	r0, r0, sp, lsl #14
 1f8:	00000024 	andeq	r0, r0, r4, lsr #32
 1fc:	00000160 	andeq	r0, r0, r0, ror #2
 200:	00000578 	andeq	r0, r0, r8, ror r5
 204:	00000408 	andeq	r0, r0, r8, lsl #8
 208:	87080e41 	strhi	r0, [r8, -r1, asr #28]
 20c:	41018e02 	tstmi	r1, r2, lsl #28
 210:	0d41400e 	stcleq	0, cr4, [r1, #-56]	; 0xffffffc8
 214:	01fb0307 	mvnseq	r0, r7, lsl #6
 218:	0d41080e 	stcleq	8, cr0, [r1, #-56]	; 0xffffffc8
 21c:	0000000d 	andeq	r0, r0, sp
 220:	00000038 	andeq	r0, r0, r8, lsr r0
 224:	00000160 	andeq	r0, r0, r0, ror #2
 228:	00000980 	andeq	r0, r0, r0, lsl #19
 22c:	00000024 	andeq	r0, r0, r4, lsr #32
 230:	80100e41 	andshi	r0, r0, r1, asr #28
 234:	82038104 	andhi	r8, r3, #4, 2
 238:	41018302 	tstmi	r1, r2, lsl #6
 23c:	0687180e 	streq	r1, [r7], lr, lsl #16
 240:	0e41058e 	cdpeq	5, 4, cr0, cr1, cr14, {4}
 244:	070d4120 	streq	r4, [sp, -r0, lsr #2]
 248:	41180e49 	tstmi	r8, r9, asr #28
 24c:	ce420d0d 	cdpgt	13, 4, cr0, cr2, cr13, {0}
 250:	41100ec7 	tstmi	r0, r7, asr #29
 254:	c0c1c2c3 	sbcgt	ip, r1, r3, asr #5
 258:	0000000e 	andeq	r0, r0, lr
 25c:	0000000c 	andeq	r0, r0, ip
 260:	ffffffff 			; <UNDEFINED> instruction: 0xffffffff
 264:	7c020001 	stcvc	0, cr0, [r2], {1}
 268:	000d0c0e 	andeq	r0, sp, lr, lsl #24
 26c:	00000024 	andeq	r0, r0, r4, lsr #32
 270:	0000025c 	andeq	r0, r0, ip, asr r2
 274:	00000ee8 	andeq	r0, r0, r8, ror #29
 278:	000000ac 	andeq	r0, r0, ip, lsr #1
 27c:	87040e41 	strhi	r0, [r4, -r1, asr #28]
 280:	100e4101 	andne	r4, lr, r1, lsl #2
 284:	7e070d41 	cdpvc	13, 0, cr0, cr7, cr1, {2}
 288:	0d41040e 	cfstrdeq	mvd0, [r1, #-56]	; 0xffffffc8
 28c:	0ec7420d 	cdpeq	2, 12, cr4, cr7, cr13, {0}
 290:	00000000 	andeq	r0, r0, r0
 294:	0000001c 	andeq	r0, r0, ip, lsl r0
 298:	0000025c 	andeq	r0, r0, ip, asr r2
 29c:	00000f94 	muleq	r0, r4, pc	; <UNPREDICTABLE>
 2a0:	00000020 	andeq	r0, r0, r0, lsr #32
 2a4:	87040e41 	strhi	r0, [r4, -r1, asr #28]
 2a8:	070d4101 	streq	r4, [sp, -r1, lsl #2]
 2ac:	420d0d49 	andmi	r0, sp, #4672	; 0x1240
 2b0:	00000ec7 	andeq	r0, r0, r7, asr #29
 2b4:	0000001c 	andeq	r0, r0, ip, lsl r0
 2b8:	0000025c 	andeq	r0, r0, ip, asr r2
 2bc:	00000fb4 			; <UNDEFINED> instruction: 0x00000fb4
 2c0:	00000020 	andeq	r0, r0, r0, lsr #32
 2c4:	87040e41 	strhi	r0, [r4, -r1, asr #28]
 2c8:	070d4101 	streq	r4, [sp, -r1, lsl #2]
 2cc:	420d0d49 	andmi	r0, sp, #4672	; 0x1240
 2d0:	00000ec7 	andeq	r0, r0, r7, asr #29
 2d4:	00000024 	andeq	r0, r0, r4, lsr #32
 2d8:	0000025c 	andeq	r0, r0, ip, asr r2
 2dc:	00000fd4 	ldrdeq	r0, [r0], -r4
 2e0:	00000020 	andeq	r0, r0, r0, lsr #32
 2e4:	87040e41 	strhi	r0, [r4, -r1, asr #28]
 2e8:	100e4101 	andne	r4, lr, r1, lsl #2
 2ec:	47070d41 	strmi	r0, [r7, -r1, asr #26]
 2f0:	0d41040e 	cfstrdeq	mvd0, [r1, #-56]	; 0xffffffc8
 2f4:	0ec7420d 	cdpeq	2, 12, cr4, cr7, cr13, {0}
 2f8:	00000000 	andeq	r0, r0, r0
 2fc:	0000001c 	andeq	r0, r0, ip, lsl r0
 300:	0000025c 	andeq	r0, r0, ip, asr r2
 304:	00000ff4 	strdeq	r0, [r0], -r4
 308:	00000054 	andeq	r0, r0, r4, asr r0
 30c:	87040e41 	strhi	r0, [r4, -r1, asr #28]
 310:	070d4101 	streq	r4, [sp, -r1, lsl #2]
 314:	420d0d5d 	andmi	r0, sp, #5952	; 0x1740
 318:	00000ec7 	andeq	r0, r0, r7, asr #29
 31c:	00000024 	andeq	r0, r0, r4, lsr #32
 320:	0000025c 	andeq	r0, r0, ip, asr r2
 324:	00001048 	andeq	r1, r0, r8, asr #32
 328:	00000090 	muleq	r0, r0, r0
 32c:	87040e41 	strhi	r0, [r4, -r1, asr #28]
 330:	100e4101 	andne	r4, lr, r1, lsl #2
 334:	78070d41 	stmdavc	r7, {r0, r6, r8, sl, fp}
 338:	0d41040e 	cfstrdeq	mvd0, [r1, #-56]	; 0xffffffc8
 33c:	0ec7420d 	cdpeq	2, 12, cr4, cr7, cr13, {0}
 340:	00000000 	andeq	r0, r0, r0
 344:	00000024 	andeq	r0, r0, r4, lsr #32
 348:	0000025c 	andeq	r0, r0, ip, asr r2
 34c:	000010d8 	ldrdeq	r1, [r0], -r8
 350:	00000038 	andeq	r0, r0, r8, lsr r0
 354:	87040e41 	strhi	r0, [r4, -r1, asr #28]
 358:	100e4101 	andne	r4, lr, r1, lsl #2
 35c:	52070d41 	andpl	r0, r7, #4160	; 0x1040
 360:	0d41040e 	cfstrdeq	mvd0, [r1, #-56]	; 0xffffffc8
 364:	0ec7420d 	cdpeq	2, 12, cr4, cr7, cr13, {0}
 368:	00000000 	andeq	r0, r0, r0
 36c:	00000024 	andeq	r0, r0, r4, lsr #32
 370:	0000025c 	andeq	r0, r0, ip, asr r2
 374:	00001110 	andeq	r1, r0, r0, lsl r1
 378:	00000034 	andeq	r0, r0, r4, lsr r0
 37c:	87040e41 	strhi	r0, [r4, -r1, asr #28]
 380:	100e4101 	andne	r4, lr, r1, lsl #2
 384:	51070d41 	tstpl	r7, r1, asr #26
 388:	0d41040e 	cfstrdeq	mvd0, [r1, #-56]	; 0xffffffc8
 38c:	0ec7420d 	cdpeq	2, 12, cr4, cr7, cr13, {0}
 390:	00000000 	andeq	r0, r0, r0
 394:	0000001c 	andeq	r0, r0, ip, lsl r0
 398:	0000025c 	andeq	r0, r0, ip, asr r2
 39c:	00001144 	andeq	r1, r0, r4, asr #2
 3a0:	00000020 	andeq	r0, r0, r0, lsr #32
 3a4:	87040e41 	strhi	r0, [r4, -r1, asr #28]
 3a8:	070d4101 	streq	r4, [sp, -r1, lsl #2]
 3ac:	420d0d49 	andmi	r0, sp, #4672	; 0x1240
 3b0:	00000ec7 	andeq	r0, r0, r7, asr #29
 3b4:	00000020 	andeq	r0, r0, r0, lsr #32
 3b8:	0000025c 	andeq	r0, r0, ip, asr r2
 3bc:	00000000 	andeq	r0, r0, r0
 3c0:	00000060 	andeq	r0, r0, r0, rrx
 3c4:	87080e41 	strhi	r0, [r8, -r1, asr #28]
 3c8:	41018e02 	tstmi	r1, r2, lsl #28
 3cc:	0d41100e 	stcleq	0, cr1, [r1, #-56]	; 0xffffffc8
 3d0:	080e6707 	stmdaeq	lr, {r0, r1, r2, r8, r9, sl, sp, lr}
 3d4:	000d0d41 	andeq	r0, sp, r1, asr #26
 3d8:	0000002c 	andeq	r0, r0, ip, lsr #32
 3dc:	0000025c 	andeq	r0, r0, ip, asr r2
 3e0:	00001164 	andeq	r1, r0, r4, ror #2
 3e4:	00000060 	andeq	r0, r0, r0, rrx
 3e8:	41100e41 	tstmi	r0, r1, asr #28
 3ec:	0687180e 	streq	r1, [r7], lr, lsl #16
 3f0:	0e41058e 	cdpeq	5, 4, cr0, cr1, cr14, {4}
 3f4:	070c4128 	streq	r4, [ip, -r8, lsr #2]
 3f8:	180e6520 	stmdane	lr, {r5, r8, sl, sp, lr}
 3fc:	420d0d41 	andmi	r0, sp, #4160	; 0x1040
 400:	100ec7ce 	andne	ip, lr, lr, asr #15
 404:	00000e41 	andeq	r0, r0, r1, asr #28
 408:	0000002c 	andeq	r0, r0, ip, lsr #32
 40c:	0000025c 	andeq	r0, r0, ip, asr r2
 410:	000011c4 	andeq	r1, r0, r4, asr #3
 414:	00000060 	andeq	r0, r0, r0, rrx
 418:	41100e41 	tstmi	r0, r1, asr #28
 41c:	0687180e 	streq	r1, [r7], lr, lsl #16
 420:	0e41058e 	cdpeq	5, 4, cr0, cr1, cr14, {4}
 424:	070c4128 	streq	r4, [ip, -r8, lsr #2]
 428:	180e6520 	stmdane	lr, {r5, r8, sl, sp, lr}
 42c:	420d0d41 	andmi	r0, sp, #4160	; 0x1040
 430:	100ec7ce 	andne	ip, lr, lr, asr #15
 434:	00000e41 	andeq	r0, r0, r1, asr #28
 438:	0000002c 	andeq	r0, r0, ip, lsr #32
 43c:	0000025c 	andeq	r0, r0, ip, asr r2
 440:	00001224 	andeq	r1, r0, r4, lsr #4
 444:	00000140 	andeq	r0, r0, r0, asr #2
 448:	41080e41 	tstmi	r8, r1, asr #28
 44c:	0484100e 	streq	r1, [r4], #14
 450:	0e410387 	cdpeq	3, 4, cr0, cr1, cr7, {4}
 454:	070d4130 	smladxeq	sp, r0, r1, r4
 458:	100e8902 	andne	r8, lr, r2, lsl #18
 45c:	410d0d41 	tstmi	sp, r1, asr #26
 460:	080ec4c7 	stmdaeq	lr, {r0, r1, r2, r6, r7, sl, lr, pc}
 464:	00000e41 	andeq	r0, r0, r1, asr #28
 468:	00000024 	andeq	r0, r0, r4, lsr #32
 46c:	0000025c 	andeq	r0, r0, ip, asr r2
 470:	00001364 	andeq	r1, r0, r4, ror #6
 474:	00000074 	andeq	r0, r0, r4, ror r0
 478:	87040e41 	strhi	r0, [r4, -r1, asr #28]
 47c:	180e4101 	stmdane	lr, {r0, r8, lr}
 480:	70070d41 	andvc	r0, r7, r1, asr #26
 484:	0d41040e 	cfstrdeq	mvd0, [r1, #-56]	; 0xffffffc8
 488:	0ec7420d 	cdpeq	2, 12, cr4, cr7, cr13, {0}
 48c:	00000000 	andeq	r0, r0, r0
 490:	00000024 	andeq	r0, r0, r4, lsr #32
 494:	0000025c 	andeq	r0, r0, ip, asr r2
 498:	000013d8 	ldrdeq	r1, [r0], -r8
 49c:	0000006c 	andeq	r0, r0, ip, rrx
 4a0:	87040e41 	strhi	r0, [r4, -r1, asr #28]
 4a4:	180e4101 	stmdane	lr, {r0, r8, lr}
 4a8:	6c070d41 	stcvs	13, cr0, [r7], {65}	; 0x41
 4ac:	0d41040e 	cfstrdeq	mvd0, [r1, #-56]	; 0xffffffc8
 4b0:	0ec7420d 	cdpeq	2, 12, cr4, cr7, cr13, {0}
 4b4:	00000000 	andeq	r0, r0, r0
 4b8:	00000020 	andeq	r0, r0, r0, lsr #32
 4bc:	0000025c 	andeq	r0, r0, ip, asr r2
 4c0:	00001444 	andeq	r1, r0, r4, asr #8
 4c4:	0000005c 	andeq	r0, r0, ip, asr r0
 4c8:	87080e41 	strhi	r0, [r8, -r1, asr #28]
 4cc:	41018e02 	tstmi	r1, r2, lsl #28
 4d0:	0d41180e 	stcleq	8, cr1, [r1, #-56]	; 0xffffffc8
 4d4:	080e6907 	stmdaeq	lr, {r0, r1, r2, r8, fp, sp, lr}
 4d8:	000d0d41 	andeq	r0, sp, r1, asr #26
 4dc:	00000020 	andeq	r0, r0, r0, lsr #32
 4e0:	0000025c 	andeq	r0, r0, ip, asr r2
 4e4:	000014a0 	andeq	r1, r0, r0, lsr #9
 4e8:	0000005c 	andeq	r0, r0, ip, asr r0
 4ec:	87080e41 	strhi	r0, [r8, -r1, asr #28]
 4f0:	41018e02 	tstmi	r1, r2, lsl #28
 4f4:	0d41180e 	stcleq	8, cr1, [r1, #-56]	; 0xffffffc8
 4f8:	080e6907 	stmdaeq	lr, {r0, r1, r2, r8, fp, sp, lr}
 4fc:	000d0d41 	andeq	r0, sp, r1, asr #26
 500:	00000020 	andeq	r0, r0, r0, lsr #32
 504:	0000025c 	andeq	r0, r0, ip, asr r2
 508:	00000000 	andeq	r0, r0, r0
 50c:	0000002a 	andeq	r0, r0, sl, lsr #32
 510:	87080e41 	strhi	r0, [r8, -r1, asr #28]
 514:	41018e02 	tstmi	r1, r2, lsl #28
 518:	0d41100e 	stcleq	0, cr1, [r1, #-56]	; 0xffffffc8
 51c:	080e5007 	stmdaeq	lr, {r0, r1, r2, ip, lr}
 520:	000d0d41 	andeq	r0, sp, r1, asr #26
 524:	00000024 	andeq	r0, r0, r4, lsr #32
 528:	0000025c 	andeq	r0, r0, ip, asr r2
 52c:	000014fc 	strdeq	r1, [r0], -ip
 530:	0000004c 	andeq	r0, r0, ip, asr #32
 534:	87040e41 	strhi	r0, [r4, -r1, asr #28]
 538:	100e4101 	andne	r4, lr, r1, lsl #2
 53c:	58070d41 	stmdapl	r7, {r0, r6, r8, sl, fp}
 540:	0d41040e 	cfstrdeq	mvd0, [r1, #-56]	; 0xffffffc8
 544:	0ec7420d 	cdpeq	2, 12, cr4, cr7, cr13, {0}
 548:	00000000 	andeq	r0, r0, r0
 54c:	00000024 	andeq	r0, r0, r4, lsr #32
 550:	0000025c 	andeq	r0, r0, ip, asr r2
 554:	00001548 	andeq	r1, r0, r8, asr #10
 558:	00000040 	andeq	r0, r0, r0, asr #32
 55c:	87040e41 	strhi	r0, [r4, -r1, asr #28]
 560:	100e4101 	andne	r4, lr, r1, lsl #2
 564:	55070d41 	strpl	r0, [r7, #-3393]	; 0xfffff2bf
 568:	0d41040e 	cfstrdeq	mvd0, [r1, #-56]	; 0xffffffc8
 56c:	0ec7420d 	cdpeq	2, 12, cr4, cr7, cr13, {0}
 570:	00000000 	andeq	r0, r0, r0
 574:	00000024 	andeq	r0, r0, r4, lsr #32
 578:	0000025c 	andeq	r0, r0, ip, asr r2
 57c:	00001588 	andeq	r1, r0, r8, lsl #11
 580:	0000008c 	andeq	r0, r0, ip, lsl #1
 584:	87040e41 	strhi	r0, [r4, -r1, asr #28]
 588:	100e4101 	andne	r4, lr, r1, lsl #2
 58c:	72070d41 	andvc	r0, r7, #4160	; 0x1040
 590:	0d41040e 	cfstrdeq	mvd0, [r1, #-56]	; 0xffffffc8
 594:	0ec7420d 	cdpeq	2, 12, cr4, cr7, cr13, {0}
 598:	00000000 	andeq	r0, r0, r0
 59c:	00000018 	andeq	r0, r0, r8, lsl r0
 5a0:	0000025c 	andeq	r0, r0, ip, asr r2
 5a4:	00001614 	andeq	r1, r0, r4, lsl r6
 5a8:	00000014 	andeq	r0, r0, r4, lsl r0
 5ac:	87080e41 	strhi	r0, [r8, -r1, asr #28]
 5b0:	41018e02 	tstmi	r1, r2, lsl #28
 5b4:	0000070d 	andeq	r0, r0, sp, lsl #14
 5b8:	00000024 	andeq	r0, r0, r4, lsr #32
 5bc:	0000025c 	andeq	r0, r0, ip, asr r2
 5c0:	00001628 	andeq	r1, r0, r8, lsr #12
 5c4:	00000016 	andeq	r0, r0, r6, lsl r0
 5c8:	87040e41 	strhi	r0, [r4, -r1, asr #28]
 5cc:	100e4101 	andne	r4, lr, r1, lsl #2
 5d0:	44070d41 	strmi	r0, [r7], #-3393	; 0xfffff2bf
 5d4:	0d41040e 	cfstrdeq	mvd0, [r1, #-56]	; 0xffffffc8
 5d8:	0ec7420d 	cdpeq	2, 12, cr4, cr7, cr13, {0}
 5dc:	00000000 	andeq	r0, r0, r0
 5e0:	00000024 	andeq	r0, r0, r4, lsr #32
 5e4:	0000025c 	andeq	r0, r0, ip, asr r2
 5e8:	00001640 	andeq	r1, r0, r0, asr #12
 5ec:	000000c0 	andeq	r0, r0, r0, asr #1
 5f0:	87040e41 	strhi	r0, [r4, -r1, asr #28]
 5f4:	180e4101 	stmdane	lr, {r0, r8, lr}
 5f8:	02070d41 	andeq	r0, r7, #4160	; 0x1040
 5fc:	41040e51 	tstmi	r4, r1, asr lr
 600:	c7420d0d 	strbgt	r0, [r2, -sp, lsl #26]
 604:	0000000e 	andeq	r0, r0, lr
 608:	00000024 	andeq	r0, r0, r4, lsr #32
 60c:	0000025c 	andeq	r0, r0, ip, asr r2
 610:	00001700 	andeq	r1, r0, r0, lsl #14
 614:	00000060 	andeq	r0, r0, r0, rrx
 618:	87040e41 	strhi	r0, [r4, -r1, asr #28]
 61c:	100e4101 	andne	r4, lr, r1, lsl #2
 620:	65070d41 	strvs	r0, [r7, #-3393]	; 0xfffff2bf
 624:	0d41040e 	cfstrdeq	mvd0, [r1, #-56]	; 0xffffffc8
 628:	0ec7420d 	cdpeq	2, 12, cr4, cr7, cr13, {0}
 62c:	00000000 	andeq	r0, r0, r0
 630:	00000020 	andeq	r0, r0, r0, lsr #32
 634:	0000025c 	andeq	r0, r0, ip, asr r2
 638:	00001760 	andeq	r1, r0, r0, ror #14
 63c:	0000008c 	andeq	r0, r0, ip, lsl #1
 640:	87080e41 	strhi	r0, [r8, -r1, asr #28]
 644:	41018e02 	tstmi	r1, r2, lsl #28
 648:	0d41100e 	stcleq	0, cr1, [r1, #-56]	; 0xffffffc8
 64c:	080e7f07 	stmdaeq	lr, {r0, r1, r2, r8, r9, sl, fp, ip, sp, lr}
 650:	000d0d41 	andeq	r0, sp, r1, asr #26
 654:	0000000c 	andeq	r0, r0, ip
 658:	ffffffff 			; <UNDEFINED> instruction: 0xffffffff
 65c:	7c020001 	stcvc	0, cr0, [r2], {1}
 660:	000d0c0e 	andeq	r0, sp, lr, lsl #24
 664:	00000020 	andeq	r0, r0, r0, lsr #32
 668:	00000654 	andeq	r0, r0, r4, asr r6
 66c:	000017ec 	andeq	r1, r0, ip, ror #15
 670:	00000030 	andeq	r0, r0, r0, lsr r0
 674:	87080e41 	strhi	r0, [r8, -r1, asr #28]
 678:	41018e02 	tstmi	r1, r2, lsl #28
 67c:	0d41100e 	stcleq	0, cr1, [r1, #-56]	; 0xffffffc8
 680:	080e4f07 	stmdaeq	lr, {r0, r1, r2, r8, r9, sl, fp, lr}
 684:	000d0d41 	andeq	r0, sp, r1, asr #26
 688:	00000018 	andeq	r0, r0, r8, lsl r0
 68c:	00000654 	andeq	r0, r0, r4, asr r6
 690:	00000000 	andeq	r0, r0, r0
 694:	00000014 	andeq	r0, r0, r4, lsl r0
 698:	87080e41 	strhi	r0, [r8, -r1, asr #28]
 69c:	41018e02 	tstmi	r1, r2, lsl #28
 6a0:	0000070d 	andeq	r0, r0, sp, lsl #14
 6a4:	00000018 	andeq	r0, r0, r8, lsl r0
 6a8:	00000654 	andeq	r0, r0, r4, asr r6
 6ac:	00000000 	andeq	r0, r0, r0
 6b0:	00000014 	andeq	r0, r0, r4, lsl r0
 6b4:	87080e41 	strhi	r0, [r8, -r1, asr #28]
 6b8:	41018e02 	tstmi	r1, r2, lsl #28
 6bc:	0000070d 	andeq	r0, r0, sp, lsl #14
 6c0:	00000020 	andeq	r0, r0, r0, lsr #32
 6c4:	00000654 	andeq	r0, r0, r4, asr r6
 6c8:	0000181c 	andeq	r1, r0, ip, lsl r8
 6cc:	000001f8 	strdeq	r0, [r0], -r8
 6d0:	87080e41 	strhi	r0, [r8, -r1, asr #28]
 6d4:	41018e02 	tstmi	r1, r2, lsl #28
 6d8:	0d41100e 	stcleq	0, cr1, [r1, #-56]	; 0xffffffc8
 6dc:	0eb90207 	cdpeq	2, 11, cr0, cr9, cr7, {0}
 6e0:	0d0d4108 	stfeqs	f4, [sp, #-32]	; 0xffffffe0
 6e4:	00000018 	andeq	r0, r0, r8, lsl r0
 6e8:	00000654 	andeq	r0, r0, r4, asr r6
 6ec:	00001a14 	andeq	r1, r0, r4, lsl sl
 6f0:	0000004c 	andeq	r0, r0, ip, asr #32
 6f4:	87080e41 	strhi	r0, [r8, -r1, asr #28]
 6f8:	41018e02 	tstmi	r1, r2, lsl #28
 6fc:	0000070d 	andeq	r0, r0, sp, lsl #14
 700:	00000020 	andeq	r0, r0, r0, lsr #32
 704:	00000654 	andeq	r0, r0, r4, asr r6
 708:	00001a60 	andeq	r1, r0, r0, ror #20
 70c:	000000c0 	andeq	r0, r0, r0, asr #1
 710:	87080e41 	strhi	r0, [r8, -r1, asr #28]
 714:	41018e02 	tstmi	r1, r2, lsl #28
 718:	0d41180e 	stcleq	8, cr1, [r1, #-56]	; 0xffffffc8
 71c:	0e4a0207 	cdpeq	2, 4, cr0, cr10, cr7, {0}
 720:	0d0d4108 	stfeqs	f4, [sp, #-32]	; 0xffffffe0
 724:	00000020 	andeq	r0, r0, r0, lsr #32
 728:	00000654 	andeq	r0, r0, r4, asr r6
 72c:	00001b20 	andeq	r1, r0, r0, lsr #22
 730:	00000034 	andeq	r0, r0, r4, lsr r0
 734:	87080e41 	strhi	r0, [r8, -r1, asr #28]
 738:	41018e02 	tstmi	r1, r2, lsl #28
 73c:	0d41100e 	stcleq	0, cr1, [r1, #-56]	; 0xffffffc8
 740:	080e5207 	stmdaeq	lr, {r0, r1, r2, r9, ip, lr}
 744:	000d0d41 	andeq	r0, sp, r1, asr #26
 748:	00000020 	andeq	r0, r0, r0, lsr #32
 74c:	00000654 	andeq	r0, r0, r4, asr r6
 750:	00001b54 	andeq	r1, r0, r4, asr fp
 754:	00000158 	andeq	r0, r0, r8, asr r1
 758:	87080e41 	strhi	r0, [r8, -r1, asr #28]
 75c:	41018e02 	tstmi	r1, r2, lsl #28
 760:	0d41100e 	stcleq	0, cr1, [r1, #-56]	; 0xffffffc8
 764:	0e980207 	cdpeq	2, 9, cr0, cr8, cr7, {0}
 768:	0d0d4108 	stfeqs	f4, [sp, #-32]	; 0xffffffe0
 76c:	00000020 	andeq	r0, r0, r0, lsr #32
 770:	00000654 	andeq	r0, r0, r4, asr r6
 774:	00001cac 	andeq	r1, r0, ip, lsr #25
 778:	00000030 	andeq	r0, r0, r0, lsr r0
 77c:	87080e41 	strhi	r0, [r8, -r1, asr #28]
 780:	41018e02 	tstmi	r1, r2, lsl #28
 784:	0d41100e 	stcleq	0, cr1, [r1, #-56]	; 0xffffffc8
 788:	080e4f07 	stmdaeq	lr, {r0, r1, r2, r8, r9, sl, fp, lr}
 78c:	000d0d41 	andeq	r0, sp, r1, asr #26
 790:	00000020 	andeq	r0, r0, r0, lsr #32
 794:	00000654 	andeq	r0, r0, r4, asr r6
 798:	00001cdc 	ldrdeq	r1, [r0], -ip
 79c:	00000058 	andeq	r0, r0, r8, asr r0
 7a0:	87080e41 	strhi	r0, [r8, -r1, asr #28]
 7a4:	41018e02 	tstmi	r1, r2, lsl #28
 7a8:	0d41100e 	stcleq	0, cr1, [r1, #-56]	; 0xffffffc8
 7ac:	080e6107 	stmdaeq	lr, {r0, r1, r2, r8, sp, lr}
 7b0:	000d0d41 	andeq	r0, sp, r1, asr #26
 7b4:	00000020 	andeq	r0, r0, r0, lsr #32
 7b8:	00000654 	andeq	r0, r0, r4, asr r6
 7bc:	00001d34 	andeq	r1, r0, r4, lsr sp
 7c0:	000000d8 	ldrdeq	r0, [r0], -r8
 7c4:	87080e41 	strhi	r0, [r8, -r1, asr #28]
 7c8:	41018e02 	tstmi	r1, r2, lsl #28
 7cc:	0d41200e 	stcleq	0, cr2, [r1, #-56]	; 0xffffffc8
 7d0:	0e580207 	cdpeq	2, 5, cr0, cr8, cr7, {0}
 7d4:	0d0d4108 	stfeqs	f4, [sp, #-32]	; 0xffffffe0
 7d8:	00000020 	andeq	r0, r0, r0, lsr #32
 7dc:	00000654 	andeq	r0, r0, r4, asr r6
 7e0:	00001e0c 	andeq	r1, r0, ip, lsl #28
 7e4:	0000002c 	andeq	r0, r0, ip, lsr #32
 7e8:	87080e41 	strhi	r0, [r8, -r1, asr #28]
 7ec:	41018e02 	tstmi	r1, r2, lsl #28
 7f0:	0d41100e 	stcleq	0, cr1, [r1, #-56]	; 0xffffffc8
 7f4:	080e4e07 	stmdaeq	lr, {r0, r1, r2, r9, sl, fp, lr}
 7f8:	000d0d41 	andeq	r0, sp, r1, asr #26
 7fc:	0000000c 	andeq	r0, r0, ip
 800:	ffffffff 			; <UNDEFINED> instruction: 0xffffffff
 804:	7c020001 	stcvc	0, cr0, [r2], {1}
 808:	000d0c0e 	andeq	r0, sp, lr, lsl #24
 80c:	00000020 	andeq	r0, r0, r0, lsr #32
 810:	000007fc 	strdeq	r0, [r0], -ip
 814:	00001e38 	andeq	r1, r0, r8, lsr lr
 818:	00000054 	andeq	r0, r0, r4, asr r0
 81c:	87080e41 	strhi	r0, [r8, -r1, asr #28]
 820:	41018e02 	tstmi	r1, r2, lsl #28
 824:	0d41200e 	stcleq	0, cr2, [r1, #-56]	; 0xffffffc8
 828:	080e6007 	stmdaeq	lr, {r0, r1, r2, sp, lr}
 82c:	000d0d41 	andeq	r0, sp, r1, asr #26
 830:	00000024 	andeq	r0, r0, r4, lsr #32
 834:	000007fc 	strdeq	r0, [r0], -ip
 838:	00001e8c 	andeq	r1, r0, ip, lsl #29
 83c:	00000048 	andeq	r0, r0, r8, asr #32
 840:	87040e41 	strhi	r0, [r4, -r1, asr #28]
 844:	100e4101 	andne	r4, lr, r1, lsl #2
 848:	55070d41 	strpl	r0, [r7, #-3393]	; 0xfffff2bf
 84c:	0d41040e 	cfstrdeq	mvd0, [r1, #-56]	; 0xffffffc8
 850:	0ec7420d 	cdpeq	2, 12, cr4, cr7, cr13, {0}
 854:	00000000 	andeq	r0, r0, r0
 858:	00000038 	andeq	r0, r0, r8, lsr r0
 85c:	000007fc 	strdeq	r0, [r0], -ip
 860:	00001ed4 	ldrdeq	r1, [r0], -r4
 864:	00000044 	andeq	r0, r0, r4, asr #32
 868:	80100e41 	andshi	r0, r0, r1, asr #28
 86c:	82038104 	andhi	r8, r3, #4, 2
 870:	41018302 	tstmi	r1, r2, lsl #6
 874:	0687180e 	streq	r1, [r7], lr, lsl #16
 878:	0e41058e 	cdpeq	5, 4, cr0, cr1, cr14, {4}
 87c:	070d4120 	streq	r4, [sp, -r0, lsr #2]
 880:	41180e54 	tstmi	r8, r4, asr lr
 884:	ce420d0d 	cdpgt	13, 4, cr0, cr2, cr13, {0}
 888:	41100ec7 	tstmi	r0, r7, asr #29
 88c:	c0c1c2c3 	sbcgt	ip, r1, r3, asr #5
 890:	0000000e 	andeq	r0, r0, lr
 894:	00000038 	andeq	r0, r0, r8, lsr r0
 898:	000007fc 	strdeq	r0, [r0], -ip
 89c:	00000000 	andeq	r0, r0, r0
 8a0:	00000044 	andeq	r0, r0, r4, asr #32
 8a4:	80100e41 	andshi	r0, r0, r1, asr #28
 8a8:	82038104 	andhi	r8, r3, #4, 2
 8ac:	41018302 	tstmi	r1, r2, lsl #6
 8b0:	0687180e 	streq	r1, [r7], lr, lsl #16
 8b4:	0e41058e 	cdpeq	5, 4, cr0, cr1, cr14, {4}
 8b8:	070d4120 	streq	r4, [sp, -r0, lsr #2]
 8bc:	41180e54 	tstmi	r8, r4, asr lr
 8c0:	ce420d0d 	cdpgt	13, 4, cr0, cr2, cr13, {0}
 8c4:	41100ec7 	tstmi	r0, r7, asr #29
 8c8:	c0c1c2c3 	sbcgt	ip, r1, r3, asr #5
 8cc:	0000000e 	andeq	r0, r0, lr
 8d0:	00000038 	andeq	r0, r0, r8, lsr r0
 8d4:	000007fc 	strdeq	r0, [r0], -ip
 8d8:	00001f18 	andeq	r1, r0, r8, lsl pc
 8dc:	00000044 	andeq	r0, r0, r4, asr #32
 8e0:	80100e41 	andshi	r0, r0, r1, asr #28
 8e4:	82038104 	andhi	r8, r3, #4, 2
 8e8:	41018302 	tstmi	r1, r2, lsl #6
 8ec:	0687180e 	streq	r1, [r7], lr, lsl #16
 8f0:	0e41058e 	cdpeq	5, 4, cr0, cr1, cr14, {4}
 8f4:	070d4120 	streq	r4, [sp, -r0, lsr #2]
 8f8:	41180e54 	tstmi	r8, r4, asr lr
 8fc:	ce420d0d 	cdpgt	13, 4, cr0, cr2, cr13, {0}
 900:	41100ec7 	tstmi	r0, r7, asr #29
 904:	c0c1c2c3 	sbcgt	ip, r1, r3, asr #5
 908:	0000000e 	andeq	r0, r0, lr
 90c:	0000000c 	andeq	r0, r0, ip
 910:	ffffffff 			; <UNDEFINED> instruction: 0xffffffff
 914:	7c020001 	stcvc	0, cr0, [r2], {1}
 918:	000d0c0e 	andeq	r0, sp, lr, lsl #24
 91c:	00000020 	andeq	r0, r0, r0, lsr #32
 920:	0000090c 	andeq	r0, r0, ip, lsl #18
 924:	00001f5c 	andeq	r1, r0, ip, asr pc
 928:	00000020 	andeq	r0, r0, r0, lsr #32
 92c:	87080e41 	strhi	r0, [r8, -r1, asr #28]
 930:	41018e02 	tstmi	r1, r2, lsl #28
 934:	0d41100e 	stcleq	0, cr1, [r1, #-56]	; 0xffffffc8
 938:	080e4907 	stmdaeq	lr, {r0, r1, r2, r8, fp, lr}
 93c:	000d0d41 	andeq	r0, sp, r1, asr #26
 940:	00000024 	andeq	r0, r0, r4, lsr #32
 944:	0000090c 	andeq	r0, r0, ip, lsl #18
 948:	00000000 	andeq	r0, r0, r0
 94c:	00000074 	andeq	r0, r0, r4, ror r0
 950:	87040e41 	strhi	r0, [r4, -r1, asr #28]
 954:	100e4101 	andne	r4, lr, r1, lsl #2
 958:	64070d41 	strvs	r0, [r7], #-3393	; 0xfffff2bf
 95c:	0d41040e 	cfstrdeq	mvd0, [r1, #-56]	; 0xffffffc8
 960:	0ec7420d 	cdpeq	2, 12, cr4, cr7, cr13, {0}
 964:	00000000 	andeq	r0, r0, r0
 968:	00000024 	andeq	r0, r0, r4, lsr #32
 96c:	0000090c 	andeq	r0, r0, ip, lsl #18
 970:	00000000 	andeq	r0, r0, r0
 974:	0000001c 	andeq	r0, r0, ip, lsl r0
 978:	87040e41 	strhi	r0, [r4, -r1, asr #28]
 97c:	100e4101 	andne	r4, lr, r1, lsl #2
 980:	47070d41 	strmi	r0, [r7, -r1, asr #26]
 984:	0d41040e 	cfstrdeq	mvd0, [r1, #-56]	; 0xffffffc8
 988:	0ec7420d 	cdpeq	2, 12, cr4, cr7, cr13, {0}
 98c:	00000000 	andeq	r0, r0, r0
 990:	00000024 	andeq	r0, r0, r4, lsr #32
 994:	0000090c 	andeq	r0, r0, ip, lsl #18
 998:	00000000 	andeq	r0, r0, r0
 99c:	00000024 	andeq	r0, r0, r4, lsr #32
 9a0:	87040e41 	strhi	r0, [r4, -r1, asr #28]
 9a4:	100e4101 	andne	r4, lr, r1, lsl #2
 9a8:	4b070d41 	blmi	1c3eb4 <_etext+0x1c1781>
 9ac:	0d41040e 	cfstrdeq	mvd0, [r1, #-56]	; 0xffffffc8
 9b0:	0ec7420d 	cdpeq	2, 12, cr4, cr7, cr13, {0}
 9b4:	00000000 	andeq	r0, r0, r0
 9b8:	00000030 	andeq	r0, r0, r0, lsr r0
 9bc:	0000090c 	andeq	r0, r0, ip, lsl #18
 9c0:	00000000 	andeq	r0, r0, r0
 9c4:	00000088 	andeq	r0, r0, r8, lsl #1
 9c8:	82080e41 	andhi	r0, r8, #1040	; 0x410
 9cc:	41018302 	tstmi	r1, r2, lsl #6
 9d0:	0487100e 	streq	r1, [r7], #14
 9d4:	0e41038e 	cdpeq	3, 4, cr0, cr1, cr14, {4}
 9d8:	070d4120 	streq	r4, [sp, -r0, lsr #2]
 9dc:	41100e71 	tstmi	r0, r1, ror lr
 9e0:	ce420d0d 	cdpgt	13, 4, cr0, cr2, cr13, {0}
 9e4:	41080ec7 	smlabtmi	r8, r7, lr, r0
 9e8:	000ec2c3 	andeq	ip, lr, r3, asr #5
 9ec:	00000020 	andeq	r0, r0, r0, lsr #32
 9f0:	0000090c 	andeq	r0, r0, ip, lsl #18
 9f4:	00000000 	andeq	r0, r0, r0
 9f8:	0000002c 	andeq	r0, r0, ip, lsr #32
 9fc:	87080e41 	strhi	r0, [r8, -r1, asr #28]
 a00:	41018e02 	tstmi	r1, r2, lsl #28
 a04:	0d41100e 	stcleq	0, cr1, [r1, #-56]	; 0xffffffc8
 a08:	080e4f07 	stmdaeq	lr, {r0, r1, r2, r8, r9, sl, fp, lr}
 a0c:	000d0d41 	andeq	r0, sp, r1, asr #26
 a10:	00000018 	andeq	r0, r0, r8, lsl r0
 a14:	0000090c 	andeq	r0, r0, ip, lsl #18
 a18:	00000000 	andeq	r0, r0, r0
 a1c:	00000010 	andeq	r0, r0, r0, lsl r0
 a20:	87080e41 	strhi	r0, [r8, -r1, asr #28]
 a24:	41018e02 	tstmi	r1, r2, lsl #28
 a28:	0000070d 	andeq	r0, r0, sp, lsl #14
