
Build/main.axf:     file format elf32-littlearm


Disassembly of section .text:

00000000 <g_pfnVectors>:
       0:	20002204 	andcs	r2, r0, r4, lsl #4
       4:	00000425 	andeq	r0, r0, r5, lsr #8
       8:	00000491 	muleq	r0, r1, r4
       c:	00000497 	muleq	r0, r7, r4
      10:	0000049d 	muleq	r0, sp, r4
      14:	0000049d 	muleq	r0, sp, r4
      18:	0000049d 	muleq	r0, sp, r4
	...
      2c:	0000049d 	muleq	r0, sp, r4
      30:	0000049d 	muleq	r0, sp, r4
      34:	00000000 	andeq	r0, r0, r0
      38:	0000049d 	muleq	r0, sp, r4
      3c:	0000049d 	muleq	r0, sp, r4
      40:	0000049d 	muleq	r0, sp, r4
      44:	0000049d 	muleq	r0, sp, r4
      48:	0000049d 	muleq	r0, sp, r4
      4c:	0000049d 	muleq	r0, sp, r4
      50:	0000049d 	muleq	r0, sp, r4
      54:	0000049d 	muleq	r0, sp, r4
      58:	0000049d 	muleq	r0, sp, r4
      5c:	0000049d 	muleq	r0, sp, r4
      60:	0000049d 	muleq	r0, sp, r4
      64:	0000049d 	muleq	r0, sp, r4
      68:	0000049d 	muleq	r0, sp, r4
      6c:	0000049d 	muleq	r0, sp, r4
      70:	0000049d 	muleq	r0, sp, r4
      74:	0000049d 	muleq	r0, sp, r4
      78:	0000049d 	muleq	r0, sp, r4
      7c:	0000049d 	muleq	r0, sp, r4
      80:	0000049d 	muleq	r0, sp, r4
      84:	0000049d 	muleq	r0, sp, r4
      88:	0000049d 	muleq	r0, sp, r4
      8c:	0000049d 	muleq	r0, sp, r4
      90:	0000049d 	muleq	r0, sp, r4
      94:	0000049d 	muleq	r0, sp, r4
      98:	0000049d 	muleq	r0, sp, r4
      9c:	0000049d 	muleq	r0, sp, r4
      a0:	0000049d 	muleq	r0, sp, r4
      a4:	0000049d 	muleq	r0, sp, r4
      a8:	0000049d 	muleq	r0, sp, r4
      ac:	0000049d 	muleq	r0, sp, r4
      b0:	0000049d 	muleq	r0, sp, r4
      b4:	0000049d 	muleq	r0, sp, r4
      b8:	0000049d 	muleq	r0, sp, r4
      bc:	0000049d 	muleq	r0, sp, r4
      c0:	0000049d 	muleq	r0, sp, r4
      c4:	0000049d 	muleq	r0, sp, r4
      c8:	0000049d 	muleq	r0, sp, r4
      cc:	0000049d 	muleq	r0, sp, r4
      d0:	0000049d 	muleq	r0, sp, r4
      d4:	0000049d 	muleq	r0, sp, r4
      d8:	0000049d 	muleq	r0, sp, r4
      dc:	0000049d 	muleq	r0, sp, r4
      e0:	0000049d 	muleq	r0, sp, r4
	...
      ec:	0000049d 	muleq	r0, sp, r4
      f0:	0000049d 	muleq	r0, sp, r4
      f4:	0000049d 	muleq	r0, sp, r4
      f8:	0000049d 	muleq	r0, sp, r4
      fc:	0000049d 	muleq	r0, sp, r4
     100:	0000049d 	muleq	r0, sp, r4
     104:	0000049d 	muleq	r0, sp, r4
     108:	0000049d 	muleq	r0, sp, r4
     10c:	0000049d 	muleq	r0, sp, r4
	...
     118:	0000049d 	muleq	r0, sp, r4
     11c:	0000049d 	muleq	r0, sp, r4
     120:	0000049d 	muleq	r0, sp, r4
     124:	0000049d 	muleq	r0, sp, r4
     128:	0000049d 	muleq	r0, sp, r4
     12c:	0000049d 	muleq	r0, sp, r4
     130:	0000049d 	muleq	r0, sp, r4
     134:	0000049d 	muleq	r0, sp, r4
     138:	0000049d 	muleq	r0, sp, r4
     13c:	0000049d 	muleq	r0, sp, r4
	...
     150:	0000049d 	muleq	r0, sp, r4
     154:	0000049d 	muleq	r0, sp, r4
     158:	0000049d 	muleq	r0, sp, r4
     15c:	0000049d 	muleq	r0, sp, r4
	...
     1b0:	0000049d 	muleq	r0, sp, r4
     1b4:	0000049d 	muleq	r0, sp, r4
     1b8:	0000049d 	muleq	r0, sp, r4
     1bc:	0000049d 	muleq	r0, sp, r4
     1c0:	0000049d 	muleq	r0, sp, r4
     1c4:	0000049d 	muleq	r0, sp, r4
     1c8:	0000049d 	muleq	r0, sp, r4
     1cc:	0000049d 	muleq	r0, sp, r4
     1d0:	0000049d 	muleq	r0, sp, r4
     1d4:	0000049d 	muleq	r0, sp, r4
     1d8:	0000049d 	muleq	r0, sp, r4
     1dc:	0000049d 	muleq	r0, sp, r4
     1e0:	0000049d 	muleq	r0, sp, r4
     1e4:	0000049d 	muleq	r0, sp, r4
     1e8:	0000049d 	muleq	r0, sp, r4
	...
     1f4:	0000049d 	muleq	r0, sp, r4
     1f8:	0000049d 	muleq	r0, sp, r4
     1fc:	0000049d 	muleq	r0, sp, r4
     200:	0000049d 	muleq	r0, sp, r4
     204:	0000049d 	muleq	r0, sp, r4
	...
     210:	0000049d 	muleq	r0, sp, r4
     214:	0000049d 	muleq	r0, sp, r4
     218:	0000049d 	muleq	r0, sp, r4
     21c:	0000049d 	muleq	r0, sp, r4
     220:	0000049d 	muleq	r0, sp, r4
     224:	0000049d 	muleq	r0, sp, r4
     228:	0000049d 	muleq	r0, sp, r4
     22c:	0000049d 	muleq	r0, sp, r4
     230:	0000049d 	muleq	r0, sp, r4
     234:	0000049d 	muleq	r0, sp, r4
     238:	0000049d 	muleq	r0, sp, r4
     23c:	0000049d 	muleq	r0, sp, r4
     240:	0000049d 	muleq	r0, sp, r4
     244:	0000049d 	muleq	r0, sp, r4
     248:	0000049d 	muleq	r0, sp, r4
     24c:	0000049d 	muleq	r0, sp, r4
     250:	0000049d 	muleq	r0, sp, r4
     254:	0000049d 	muleq	r0, sp, r4
     258:	0000049d 	muleq	r0, sp, r4
     25c:	0000049d 	muleq	r0, sp, r4
     260:	0000049d 	muleq	r0, sp, r4
     264:	0000049d 	muleq	r0, sp, r4
     268:	0000049d 	muleq	r0, sp, r4

0000026c <_Z11InitConsolev>:
     26c:	b580      	push	{r7, lr}
     26e:	af00      	add	r7, sp, #0
     270:	4810      	ldr	r0, [pc, #64]	; (2b4 <_Z11InitConsolev+0x48>)
     272:	f000 fcb7 	bl	be4 <SysCtlPeripheralEnable>
     276:	2001      	movs	r0, #1
     278:	f000 fc80 	bl	b7c <GPIOPinConfigure>
     27c:	f240 4001 	movw	r0, #1025	; 0x401
     280:	f000 fc7c 	bl	b7c <GPIOPinConfigure>
     284:	480c      	ldr	r0, [pc, #48]	; (2b8 <_Z11InitConsolev+0x4c>)
     286:	f000 fcad 	bl	be4 <SysCtlPeripheralEnable>
     28a:	2100      	movs	r1, #0
     28c:	480b      	ldr	r0, [pc, #44]	; (2bc <_Z11InitConsolev+0x50>)
     28e:	f000 fd9e 	bl	dce <UARTClockSourceSet>
     292:	2103      	movs	r1, #3
     294:	f04f 2040 	mov.w	r0, #1073758208	; 0x40004000
     298:	f000 fc6e 	bl	b78 <GPIOPinTypeUART>
     29c:	f000 fcb2 	bl	c04 <SysCtlClockGet>
     2a0:	4603      	mov	r3, r0
     2a2:	461a      	mov	r2, r3
     2a4:	f44f 2161 	mov.w	r1, #921600	; 0xe1000
     2a8:	2000      	movs	r0, #0
     2aa:	f000 f8fb 	bl	4a4 <UARTStdioConfig>
     2ae:	bf00      	nop
     2b0:	bd80      	pop	{r7, pc}
     2b2:	bf00      	nop
     2b4:	f0000800 			; <UNDEFINED> instruction: 0xf0000800
     2b8:	f0001800 			; <UNDEFINED> instruction: 0xf0001800
     2bc:	4000c000 	andmi	ip, r0, r0

000002c0 <_Z10eepromDumpmPh>:
     2c0:	b580      	push	{r7, lr}
     2c2:	b084      	sub	sp, #16
     2c4:	af00      	add	r7, sp, #0
     2c6:	6078      	str	r0, [r7, #4]
     2c8:	6039      	str	r1, [r7, #0]
     2ca:	2300      	movs	r3, #0
     2cc:	813b      	strh	r3, [r7, #8]
     2ce:	f107 0308 	add.w	r3, r7, #8
     2d2:	461a      	mov	r2, r3
     2d4:	2102      	movs	r1, #2
     2d6:	2050      	movs	r0, #80	; 0x50
     2d8:	f000 fe3e 	bl	f58 <I2C_WriteBytes>
     2dc:	4a19      	ldr	r2, [pc, #100]	; (344 <_Z10eepromDumpmPh+0x84>)
     2de:	f44f 5100 	mov.w	r1, #8192	; 0x2000
     2e2:	2050      	movs	r0, #80	; 0x50
     2e4:	f000 ff5c 	bl	11a0 <I2C_ReadBytes>
     2e8:	4817      	ldr	r0, [pc, #92]	; (348 <_Z10eepromDumpmPh+0x88>)
     2ea:	f000 fb6f 	bl	9cc <UARTprintf>
     2ee:	4817      	ldr	r0, [pc, #92]	; (34c <_Z10eepromDumpmPh+0x8c>)
     2f0:	f000 fb6c 	bl	9cc <UARTprintf>
     2f4:	2300      	movs	r3, #0
     2f6:	60fb      	str	r3, [r7, #12]
     2f8:	68fa      	ldr	r2, [r7, #12]
     2fa:	687b      	ldr	r3, [r7, #4]
     2fc:	429a      	cmp	r2, r3
     2fe:	d21a      	bcs.n	336 <_Z10eepromDumpmPh+0x76>
     300:	68fb      	ldr	r3, [r7, #12]
     302:	f003 030f 	and.w	r3, r3, #15
     306:	2b00      	cmp	r3, #0
     308:	d109      	bne.n	31e <_Z10eepromDumpmPh+0x5e>
     30a:	68fb      	ldr	r3, [r7, #12]
     30c:	2b00      	cmp	r3, #0
     30e:	d002      	beq.n	316 <_Z10eepromDumpmPh+0x56>
     310:	480f      	ldr	r0, [pc, #60]	; (350 <_Z10eepromDumpmPh+0x90>)
     312:	f000 fb5b 	bl	9cc <UARTprintf>
     316:	68f9      	ldr	r1, [r7, #12]
     318:	480e      	ldr	r0, [pc, #56]	; (354 <_Z10eepromDumpmPh+0x94>)
     31a:	f000 fb57 	bl	9cc <UARTprintf>
     31e:	683a      	ldr	r2, [r7, #0]
     320:	68fb      	ldr	r3, [r7, #12]
     322:	4413      	add	r3, r2
     324:	781b      	ldrb	r3, [r3, #0]
     326:	4619      	mov	r1, r3
     328:	480b      	ldr	r0, [pc, #44]	; (358 <_Z10eepromDumpmPh+0x98>)
     32a:	f000 fb4f 	bl	9cc <UARTprintf>
     32e:	68fb      	ldr	r3, [r7, #12]
     330:	3301      	adds	r3, #1
     332:	60fb      	str	r3, [r7, #12]
     334:	e7e0      	b.n	2f8 <_Z10eepromDumpmPh+0x38>
     336:	4809      	ldr	r0, [pc, #36]	; (35c <_Z10eepromDumpmPh+0x9c>)
     338:	f000 fb48 	bl	9cc <UARTprintf>
     33c:	bf00      	nop
     33e:	3710      	adds	r7, #16
     340:	46bd      	mov	sp, r7
     342:	bd80      	pop	{r7, pc}
     344:	20000004 	andcs	r0, r0, r4
     348:	00001c88 	andeq	r1, r0, r8, lsl #25
     34c:	00001ca0 	andeq	r1, r0, r0, lsr #25
     350:	00001cd8 	ldrdeq	r1, [r0], -r8
     354:	00001cdc 	ldrdeq	r1, [r0], -ip
     358:	00001ce4 	andeq	r1, r0, r4, ror #25
     35c:	00001cec 	andeq	r1, r0, ip, ror #25

00000360 <main>:
     360:	b580      	push	{r7, lr}
     362:	b086      	sub	sp, #24
     364:	af00      	add	r7, sp, #0
     366:	f64a 23aa 	movw	r3, #43690	; 0xaaaa
     36a:	60fb      	str	r3, [r7, #12]
     36c:	2300      	movs	r3, #0
     36e:	613b      	str	r3, [r7, #16]
     370:	4a28      	ldr	r2, [pc, #160]	; (414 <main+0xb4>)
     372:	1d3b      	adds	r3, r7, #4
     374:	e892 0003 	ldmia.w	r2, {r0, r1}
     378:	e883 0003 	stmia.w	r3, {r0, r1}
     37c:	f44f 7380 	mov.w	r3, #256	; 0x100
     380:	617b      	str	r3, [r7, #20]
     382:	f001 f87b 	bl	147c <PAD_SysClockSet>
     386:	f7ff ff71 	bl	26c <_Z11InitConsolev>
     38a:	f000 fdb9 	bl	f00 <I2C_Init>
     38e:	2000      	movs	r0, #0
     390:	f001 fb34 	bl	19fc <setEEPROMProtocol>
     394:	f44f 5200 	mov.w	r2, #8192	; 0x2000
     398:	21aa      	movs	r1, #170	; 0xaa
     39a:	481f      	ldr	r0, [pc, #124]	; (418 <main+0xb8>)
     39c:	f001 fc22 	bl	1be4 <memset>
     3a0:	491d      	ldr	r1, [pc, #116]	; (418 <main+0xb8>)
     3a2:	f44f 5000 	mov.w	r0, #8192	; 0x2000
     3a6:	f7ff ff8b 	bl	2c0 <_Z10eepromDumpmPh>
     3aa:	f107 030c 	add.w	r3, r7, #12
     3ae:	461a      	mov	r2, r3
     3b0:	2103      	movs	r1, #3
     3b2:	2020      	movs	r0, #32
     3b4:	f001 fb38 	bl	1a28 <eepromRead>
     3b8:	f44f 33a0 	mov.w	r3, #81920	; 0x14000
     3bc:	617b      	str	r3, [r7, #20]
     3be:	697b      	ldr	r3, [r7, #20]
     3c0:	3b01      	subs	r3, #1
     3c2:	617b      	str	r3, [r7, #20]
     3c4:	697b      	ldr	r3, [r7, #20]
     3c6:	2b00      	cmp	r3, #0
     3c8:	bf14      	ite	ne
     3ca:	2301      	movne	r3, #1
     3cc:	2300      	moveq	r3, #0
     3ce:	b2db      	uxtb	r3, r3
     3d0:	2b00      	cmp	r3, #0
     3d2:	d000      	beq.n	3d6 <main+0x76>
     3d4:	e7f3      	b.n	3be <main+0x5e>
     3d6:	f44f 33a0 	mov.w	r3, #81920	; 0x14000
     3da:	617b      	str	r3, [r7, #20]
     3dc:	697b      	ldr	r3, [r7, #20]
     3de:	3b01      	subs	r3, #1
     3e0:	617b      	str	r3, [r7, #20]
     3e2:	697b      	ldr	r3, [r7, #20]
     3e4:	2b00      	cmp	r3, #0
     3e6:	bf14      	ite	ne
     3e8:	2301      	movne	r3, #1
     3ea:	2300      	moveq	r3, #0
     3ec:	b2db      	uxtb	r3, r3
     3ee:	2b00      	cmp	r3, #0
     3f0:	d000      	beq.n	3f4 <main+0x94>
     3f2:	e7f3      	b.n	3dc <main+0x7c>
     3f4:	4809      	ldr	r0, [pc, #36]	; (41c <main+0xbc>)
     3f6:	f000 fae9 	bl	9cc <UARTprintf>
     3fa:	4907      	ldr	r1, [pc, #28]	; (418 <main+0xb8>)
     3fc:	f44f 5000 	mov.w	r0, #8192	; 0x2000
     400:	f7ff ff5e 	bl	2c0 <_Z10eepromDumpmPh>
     404:	f000 fbfe 	bl	c04 <SysCtlClockGet>
     408:	4603      	mov	r3, r0
     40a:	4619      	mov	r1, r3
     40c:	4804      	ldr	r0, [pc, #16]	; (420 <main+0xc0>)
     40e:	f000 fadd 	bl	9cc <UARTprintf>
     412:	e7fe      	b.n	412 <main+0xb2>
     414:	00001d38 	andeq	r1, r0, r8, lsr sp
     418:	20000004 	andcs	r0, r0, r4
     41c:	00001d04 	andeq	r1, r0, r4, lsl #26
     420:	00001d2c 	andeq	r1, r0, ip, lsr #26

00000424 <ResetISR>:
     424:	b580      	push	{r7, lr}
     426:	b082      	sub	sp, #8
     428:	af00      	add	r7, sp, #0
     42a:	4b13      	ldr	r3, [pc, #76]	; (478 <zero_loop+0x24>)
     42c:	607b      	str	r3, [r7, #4]
     42e:	4b13      	ldr	r3, [pc, #76]	; (47c <zero_loop+0x28>)
     430:	603b      	str	r3, [r7, #0]
     432:	e007      	b.n	444 <ResetISR+0x20>
     434:	687a      	ldr	r2, [r7, #4]
     436:	1d13      	adds	r3, r2, #4
     438:	607b      	str	r3, [r7, #4]
     43a:	683b      	ldr	r3, [r7, #0]
     43c:	1d19      	adds	r1, r3, #4
     43e:	6039      	str	r1, [r7, #0]
     440:	6812      	ldr	r2, [r2, #0]
     442:	601a      	str	r2, [r3, #0]
     444:	683b      	ldr	r3, [r7, #0]
     446:	4a0e      	ldr	r2, [pc, #56]	; (480 <zero_loop+0x2c>)
     448:	4293      	cmp	r3, r2
     44a:	d3f3      	bcc.n	434 <ResetISR+0x10>
     44c:	480e      	ldr	r0, [pc, #56]	; (488 <zero_loop+0x34>)
     44e:	490f      	ldr	r1, [pc, #60]	; (48c <zero_loop+0x38>)
     450:	f04f 0200 	mov.w	r2, #0

00000454 <zero_loop>:
     454:	4288      	cmp	r0, r1
     456:	bfb8      	it	lt
     458:	f840 2b04 	strlt.w	r2, [r0], #4
     45c:	dbfa      	blt.n	454 <zero_loop>
     45e:	4b09      	ldr	r3, [pc, #36]	; (484 <zero_loop+0x30>)
     460:	681b      	ldr	r3, [r3, #0]
     462:	4a08      	ldr	r2, [pc, #32]	; (484 <zero_loop+0x30>)
     464:	f443 0370 	orr.w	r3, r3, #15728640	; 0xf00000
     468:	6013      	str	r3, [r2, #0]
     46a:	f7ff ff79 	bl	360 <main>
     46e:	bf00      	nop
     470:	3708      	adds	r7, #8
     472:	46bd      	mov	sp, r7
     474:	bd80      	pop	{r7, pc}
     476:	bf00      	nop
     478:	00002067 	andeq	r2, r0, r7, rrx
     47c:	20000000 	andcs	r0, r0, r0
     480:	20000004 	andcs	r0, r0, r4
     484:	e000ed88 	and	lr, r0, r8, lsl #27
     488:	20000004 	andcs	r0, r0, r4
     48c:	20002250 	andcs	r2, r0, r0, asr r2

00000490 <NmiSR>:
     490:	b480      	push	{r7}
     492:	af00      	add	r7, sp, #0
     494:	e7fe      	b.n	494 <NmiSR+0x4>

00000496 <FaultISR>:
     496:	b480      	push	{r7}
     498:	af00      	add	r7, sp, #0
     49a:	e7fe      	b.n	49a <FaultISR+0x4>

0000049c <IntDefaultHandler>:
     49c:	b480      	push	{r7}
     49e:	af00      	add	r7, sp, #0
     4a0:	e7fe      	b.n	4a0 <IntDefaultHandler+0x4>
	...

000004a4 <UARTStdioConfig>:
     4a4:	b580      	push	{r7, lr}
     4a6:	b084      	sub	sp, #16
     4a8:	af00      	add	r7, sp, #0
     4aa:	60f8      	str	r0, [r7, #12]
     4ac:	60b9      	str	r1, [r7, #8]
     4ae:	607a      	str	r2, [r7, #4]
     4b0:	68fb      	ldr	r3, [r7, #12]
     4b2:	2b00      	cmp	r3, #0
     4b4:	d00a      	beq.n	4cc <UARTStdioConfig+0x28>
     4b6:	68fb      	ldr	r3, [r7, #12]
     4b8:	2b01      	cmp	r3, #1
     4ba:	d007      	beq.n	4cc <UARTStdioConfig+0x28>
     4bc:	68fb      	ldr	r3, [r7, #12]
     4be:	2b02      	cmp	r3, #2
     4c0:	d004      	beq.n	4cc <UARTStdioConfig+0x28>
     4c2:	f240 1153 	movw	r1, #339	; 0x153
     4c6:	4817      	ldr	r0, [pc, #92]	; (524 <UARTStdioConfig+0x80>)
     4c8:	f001 fafe 	bl	1ac8 <__error__>
     4cc:	4a16      	ldr	r2, [pc, #88]	; (528 <UARTStdioConfig+0x84>)
     4ce:	68fb      	ldr	r3, [r7, #12]
     4d0:	f852 3023 	ldr.w	r3, [r2, r3, lsl #2]
     4d4:	4618      	mov	r0, r3
     4d6:	f000 fb73 	bl	bc0 <SysCtlPeripheralPresent>
     4da:	4603      	mov	r3, r0
     4dc:	f083 0301 	eor.w	r3, r3, #1
     4e0:	b2db      	uxtb	r3, r3
     4e2:	2b00      	cmp	r3, #0
     4e4:	d119      	bne.n	51a <UARTStdioConfig+0x76>
     4e6:	4a11      	ldr	r2, [pc, #68]	; (52c <UARTStdioConfig+0x88>)
     4e8:	68fb      	ldr	r3, [r7, #12]
     4ea:	f852 3023 	ldr.w	r3, [r2, r3, lsl #2]
     4ee:	4a10      	ldr	r2, [pc, #64]	; (530 <UARTStdioConfig+0x8c>)
     4f0:	6013      	str	r3, [r2, #0]
     4f2:	4a0d      	ldr	r2, [pc, #52]	; (528 <UARTStdioConfig+0x84>)
     4f4:	68fb      	ldr	r3, [r7, #12]
     4f6:	f852 3023 	ldr.w	r3, [r2, r3, lsl #2]
     4fa:	4618      	mov	r0, r3
     4fc:	f000 fb72 	bl	be4 <SysCtlPeripheralEnable>
     500:	4b0b      	ldr	r3, [pc, #44]	; (530 <UARTStdioConfig+0x8c>)
     502:	6818      	ldr	r0, [r3, #0]
     504:	2360      	movs	r3, #96	; 0x60
     506:	68ba      	ldr	r2, [r7, #8]
     508:	6879      	ldr	r1, [r7, #4]
     50a:	f000 fc38 	bl	d7e <UARTConfigSetExpClk>
     50e:	4b08      	ldr	r3, [pc, #32]	; (530 <UARTStdioConfig+0x8c>)
     510:	681b      	ldr	r3, [r3, #0]
     512:	4618      	mov	r0, r3
     514:	f000 fc1a 	bl	d4c <UARTEnable>
     518:	e000      	b.n	51c <UARTStdioConfig+0x78>
     51a:	bf00      	nop
     51c:	3710      	adds	r7, #16
     51e:	46bd      	mov	sp, r7
     520:	bd80      	pop	{r7, pc}
     522:	bf00      	nop
     524:	00001d54 	andeq	r1, r0, r4, asr sp
     528:	00001d98 	muleq	r0, r8, sp
     52c:	00001d8c 	andeq	r1, r0, ip, lsl #27
     530:	20002204 	andcs	r2, r0, r4, lsl #4

00000534 <UARTwrite>:
     534:	b580      	push	{r7, lr}
     536:	b084      	sub	sp, #16
     538:	af00      	add	r7, sp, #0
     53a:	6078      	str	r0, [r7, #4]
     53c:	6039      	str	r1, [r7, #0]
     53e:	4b1f      	ldr	r3, [pc, #124]	; (5bc <UARTwrite+0x88>)
     540:	681b      	ldr	r3, [r3, #0]
     542:	2b00      	cmp	r3, #0
     544:	d104      	bne.n	550 <UARTwrite+0x1c>
     546:	f240 2101 	movw	r1, #513	; 0x201
     54a:	481d      	ldr	r0, [pc, #116]	; (5c0 <UARTwrite+0x8c>)
     54c:	f001 fabc 	bl	1ac8 <__error__>
     550:	687b      	ldr	r3, [r7, #4]
     552:	2b00      	cmp	r3, #0
     554:	d104      	bne.n	560 <UARTwrite+0x2c>
     556:	f240 2102 	movw	r1, #514	; 0x202
     55a:	4819      	ldr	r0, [pc, #100]	; (5c0 <UARTwrite+0x8c>)
     55c:	f001 fab4 	bl	1ac8 <__error__>
     560:	2300      	movs	r3, #0
     562:	60fb      	str	r3, [r7, #12]
     564:	e01e      	b.n	5a4 <UARTwrite+0x70>
     566:	687a      	ldr	r2, [r7, #4]
     568:	68fb      	ldr	r3, [r7, #12]
     56a:	4413      	add	r3, r2
     56c:	781b      	ldrb	r3, [r3, #0]
     56e:	2b0a      	cmp	r3, #10
     570:	d106      	bne.n	580 <UARTwrite+0x4c>
     572:	4b12      	ldr	r3, [pc, #72]	; (5bc <UARTwrite+0x88>)
     574:	681b      	ldr	r3, [r3, #0]
     576:	210d      	movs	r1, #13
     578:	4618      	mov	r0, r3
     57a:	f000 fc23 	bl	dc4 <UARTCharPut>
     57e:	e005      	b.n	58c <UARTwrite+0x58>
     580:	687a      	ldr	r2, [r7, #4]
     582:	68fb      	ldr	r3, [r7, #12]
     584:	4413      	add	r3, r2
     586:	781b      	ldrb	r3, [r3, #0]
     588:	2b00      	cmp	r3, #0
     58a:	d010      	beq.n	5ae <UARTwrite+0x7a>
     58c:	4b0b      	ldr	r3, [pc, #44]	; (5bc <UARTwrite+0x88>)
     58e:	6818      	ldr	r0, [r3, #0]
     590:	687a      	ldr	r2, [r7, #4]
     592:	68fb      	ldr	r3, [r7, #12]
     594:	4413      	add	r3, r2
     596:	781b      	ldrb	r3, [r3, #0]
     598:	4619      	mov	r1, r3
     59a:	f000 fc13 	bl	dc4 <UARTCharPut>
     59e:	68fb      	ldr	r3, [r7, #12]
     5a0:	3301      	adds	r3, #1
     5a2:	60fb      	str	r3, [r7, #12]
     5a4:	68fa      	ldr	r2, [r7, #12]
     5a6:	683b      	ldr	r3, [r7, #0]
     5a8:	429a      	cmp	r2, r3
     5aa:	d3dc      	bcc.n	566 <UARTwrite+0x32>
     5ac:	e000      	b.n	5b0 <UARTwrite+0x7c>
     5ae:	bf00      	nop
     5b0:	68fb      	ldr	r3, [r7, #12]
     5b2:	4618      	mov	r0, r3
     5b4:	3710      	adds	r7, #16
     5b6:	46bd      	mov	sp, r7
     5b8:	bd80      	pop	{r7, pc}
     5ba:	bf00      	nop
     5bc:	20002204 	andcs	r2, r0, r4, lsl #4
     5c0:	00001d54 	andeq	r1, r0, r4, asr sp

000005c4 <UARTvprintf>:
     5c4:	b580      	push	{r7, lr}
     5c6:	b08e      	sub	sp, #56	; 0x38
     5c8:	af00      	add	r7, sp, #0
     5ca:	6078      	str	r0, [r7, #4]
     5cc:	6039      	str	r1, [r7, #0]
     5ce:	687b      	ldr	r3, [r7, #4]
     5d0:	2b00      	cmp	r3, #0
     5d2:	f040 81ed 	bne.w	9b0 <UARTvprintf+0x3ec>
     5d6:	f44f 715b 	mov.w	r1, #876	; 0x36c
     5da:	48ae      	ldr	r0, [pc, #696]	; (894 <UARTvprintf+0x2d0>)
     5dc:	f001 fa74 	bl	1ac8 <__error__>
     5e0:	e1e6      	b.n	9b0 <UARTvprintf+0x3ec>
     5e2:	2300      	movs	r3, #0
     5e4:	637b      	str	r3, [r7, #52]	; 0x34
     5e6:	e002      	b.n	5ee <UARTvprintf+0x2a>
     5e8:	6b7b      	ldr	r3, [r7, #52]	; 0x34
     5ea:	3301      	adds	r3, #1
     5ec:	637b      	str	r3, [r7, #52]	; 0x34
     5ee:	687a      	ldr	r2, [r7, #4]
     5f0:	6b7b      	ldr	r3, [r7, #52]	; 0x34
     5f2:	4413      	add	r3, r2
     5f4:	781b      	ldrb	r3, [r3, #0]
     5f6:	2b25      	cmp	r3, #37	; 0x25
     5f8:	d005      	beq.n	606 <UARTvprintf+0x42>
     5fa:	687a      	ldr	r2, [r7, #4]
     5fc:	6b7b      	ldr	r3, [r7, #52]	; 0x34
     5fe:	4413      	add	r3, r2
     600:	781b      	ldrb	r3, [r3, #0]
     602:	2b00      	cmp	r3, #0
     604:	d1f0      	bne.n	5e8 <UARTvprintf+0x24>
     606:	6b79      	ldr	r1, [r7, #52]	; 0x34
     608:	6878      	ldr	r0, [r7, #4]
     60a:	f7ff ff93 	bl	534 <UARTwrite>
     60e:	687a      	ldr	r2, [r7, #4]
     610:	6b7b      	ldr	r3, [r7, #52]	; 0x34
     612:	4413      	add	r3, r2
     614:	607b      	str	r3, [r7, #4]
     616:	687b      	ldr	r3, [r7, #4]
     618:	781b      	ldrb	r3, [r3, #0]
     61a:	2b25      	cmp	r3, #37	; 0x25
     61c:	f040 81c7 	bne.w	9ae <UARTvprintf+0x3ea>
     620:	687b      	ldr	r3, [r7, #4]
     622:	3301      	adds	r3, #1
     624:	607b      	str	r3, [r7, #4]
     626:	2300      	movs	r3, #0
     628:	62fb      	str	r3, [r7, #44]	; 0x2c
     62a:	2320      	movs	r3, #32
     62c:	f887 3023 	strb.w	r3, [r7, #35]	; 0x23
     630:	687b      	ldr	r3, [r7, #4]
     632:	1c5a      	adds	r2, r3, #1
     634:	607a      	str	r2, [r7, #4]
     636:	781b      	ldrb	r3, [r3, #0]
     638:	3b25      	subs	r3, #37	; 0x25
     63a:	2b53      	cmp	r3, #83	; 0x53
     63c:	f200 81b2 	bhi.w	9a4 <UARTvprintf+0x3e0>
     640:	a201      	add	r2, pc, #4	; (adr r2, 648 <UARTvprintf+0x84>)
     642:	f852 f023 	ldr.w	pc, [r2, r3, lsl #2]
     646:	bf00      	nop
     648:	00000997 	muleq	r0, r7, r9
     64c:	000009a5 	andeq	r0, r0, r5, lsr #19
     650:	000009a5 	andeq	r0, r0, r5, lsr #19
     654:	000009a5 	andeq	r0, r0, r5, lsr #19
     658:	000009a5 	andeq	r0, r0, r5, lsr #19
     65c:	000009a5 	andeq	r0, r0, r5, lsr #19
     660:	000009a5 	andeq	r0, r0, r5, lsr #19
     664:	000009a5 	andeq	r0, r0, r5, lsr #19
     668:	000009a5 	andeq	r0, r0, r5, lsr #19
     66c:	000009a5 	andeq	r0, r0, r5, lsr #19
     670:	000009a5 	andeq	r0, r0, r5, lsr #19
     674:	00000799 	muleq	r0, r9, r7
     678:	00000799 	muleq	r0, r9, r7
     67c:	00000799 	muleq	r0, r9, r7
     680:	00000799 	muleq	r0, r9, r7
     684:	00000799 	muleq	r0, r9, r7
     688:	00000799 	muleq	r0, r9, r7
     68c:	00000799 	muleq	r0, r9, r7
     690:	00000799 	muleq	r0, r9, r7
     694:	00000799 	muleq	r0, r9, r7
     698:	00000799 	muleq	r0, r9, r7
     69c:	000009a5 	andeq	r0, r0, r5, lsr #19
     6a0:	000009a5 	andeq	r0, r0, r5, lsr #19
     6a4:	000009a5 	andeq	r0, r0, r5, lsr #19
     6a8:	000009a5 	andeq	r0, r0, r5, lsr #19
     6ac:	000009a5 	andeq	r0, r0, r5, lsr #19
     6b0:	000009a5 	andeq	r0, r0, r5, lsr #19
     6b4:	000009a5 	andeq	r0, r0, r5, lsr #19
     6b8:	000009a5 	andeq	r0, r0, r5, lsr #19
     6bc:	000009a5 	andeq	r0, r0, r5, lsr #19
     6c0:	000009a5 	andeq	r0, r0, r5, lsr #19
     6c4:	000009a5 	andeq	r0, r0, r5, lsr #19
     6c8:	000009a5 	andeq	r0, r0, r5, lsr #19
     6cc:	000009a5 	andeq	r0, r0, r5, lsr #19
     6d0:	000009a5 	andeq	r0, r0, r5, lsr #19
     6d4:	000009a5 	andeq	r0, r0, r5, lsr #19
     6d8:	000009a5 	andeq	r0, r0, r5, lsr #19
     6dc:	000009a5 	andeq	r0, r0, r5, lsr #19
     6e0:	000009a5 	andeq	r0, r0, r5, lsr #19
     6e4:	000009a5 	andeq	r0, r0, r5, lsr #19
     6e8:	000009a5 	andeq	r0, r0, r5, lsr #19
     6ec:	000009a5 	andeq	r0, r0, r5, lsr #19
     6f0:	000009a5 	andeq	r0, r0, r5, lsr #19
     6f4:	000009a5 	andeq	r0, r0, r5, lsr #19
     6f8:	000009a5 	andeq	r0, r0, r5, lsr #19
     6fc:	000009a5 	andeq	r0, r0, r5, lsr #19
     700:	000009a5 	andeq	r0, r0, r5, lsr #19
     704:	000009a5 	andeq	r0, r0, r5, lsr #19
     708:	000009a5 	andeq	r0, r0, r5, lsr #19
     70c:	000009a5 	andeq	r0, r0, r5, lsr #19
     710:	000009a5 	andeq	r0, r0, r5, lsr #19
     714:	00000879 	andeq	r0, r0, r9, ror r8
     718:	000009a5 	andeq	r0, r0, r5, lsr #19
     71c:	000009a5 	andeq	r0, r0, r5, lsr #19
     720:	000009a5 	andeq	r0, r0, r5, lsr #19
     724:	000009a5 	andeq	r0, r0, r5, lsr #19
     728:	000009a5 	andeq	r0, r0, r5, lsr #19
     72c:	000009a5 	andeq	r0, r0, r5, lsr #19
     730:	000009a5 	andeq	r0, r0, r5, lsr #19
     734:	000009a5 	andeq	r0, r0, r5, lsr #19
     738:	000009a5 	andeq	r0, r0, r5, lsr #19
     73c:	000009a5 	andeq	r0, r0, r5, lsr #19
     740:	000007cd 	andeq	r0, r0, sp, asr #15
     744:	000007e5 	andeq	r0, r0, r5, ror #15
     748:	000009a5 	andeq	r0, r0, r5, lsr #19
     74c:	000009a5 	andeq	r0, r0, r5, lsr #19
     750:	000009a5 	andeq	r0, r0, r5, lsr #19
     754:	000009a5 	andeq	r0, r0, r5, lsr #19
     758:	000007e5 	andeq	r0, r0, r5, ror #15
     75c:	000009a5 	andeq	r0, r0, r5, lsr #19
     760:	000009a5 	andeq	r0, r0, r5, lsr #19
     764:	000009a5 	andeq	r0, r0, r5, lsr #19
     768:	000009a5 	andeq	r0, r0, r5, lsr #19
     76c:	000009a5 	andeq	r0, r0, r5, lsr #19
     770:	000009a5 	andeq	r0, r0, r5, lsr #19
     774:	00000879 	andeq	r0, r0, r9, ror r8
     778:	000009a5 	andeq	r0, r0, r5, lsr #19
     77c:	000009a5 	andeq	r0, r0, r5, lsr #19
     780:	0000080f 	andeq	r0, r0, pc, lsl #16
     784:	000009a5 	andeq	r0, r0, r5, lsr #19
     788:	00000861 	andeq	r0, r0, r1, ror #16
     78c:	000009a5 	andeq	r0, r0, r5, lsr #19
     790:	000009a5 	andeq	r0, r0, r5, lsr #19
     794:	00000879 	andeq	r0, r0, r9, ror r8
     798:	687b      	ldr	r3, [r7, #4]
     79a:	3b01      	subs	r3, #1
     79c:	781b      	ldrb	r3, [r3, #0]
     79e:	2b30      	cmp	r3, #48	; 0x30
     7a0:	d105      	bne.n	7ae <UARTvprintf+0x1ea>
     7a2:	6afb      	ldr	r3, [r7, #44]	; 0x2c
     7a4:	2b00      	cmp	r3, #0
     7a6:	d102      	bne.n	7ae <UARTvprintf+0x1ea>
     7a8:	2330      	movs	r3, #48	; 0x30
     7aa:	f887 3023 	strb.w	r3, [r7, #35]	; 0x23
     7ae:	6afa      	ldr	r2, [r7, #44]	; 0x2c
     7b0:	4613      	mov	r3, r2
     7b2:	009b      	lsls	r3, r3, #2
     7b4:	4413      	add	r3, r2
     7b6:	005b      	lsls	r3, r3, #1
     7b8:	62fb      	str	r3, [r7, #44]	; 0x2c
     7ba:	687b      	ldr	r3, [r7, #4]
     7bc:	3b01      	subs	r3, #1
     7be:	781b      	ldrb	r3, [r3, #0]
     7c0:	461a      	mov	r2, r3
     7c2:	6afb      	ldr	r3, [r7, #44]	; 0x2c
     7c4:	4413      	add	r3, r2
     7c6:	3b30      	subs	r3, #48	; 0x30
     7c8:	62fb      	str	r3, [r7, #44]	; 0x2c
     7ca:	e731      	b.n	630 <UARTvprintf+0x6c>
     7cc:	683b      	ldr	r3, [r7, #0]
     7ce:	1d1a      	adds	r2, r3, #4
     7d0:	603a      	str	r2, [r7, #0]
     7d2:	681b      	ldr	r3, [r3, #0]
     7d4:	61bb      	str	r3, [r7, #24]
     7d6:	f107 0318 	add.w	r3, r7, #24
     7da:	2101      	movs	r1, #1
     7dc:	4618      	mov	r0, r3
     7de:	f7ff fea9 	bl	534 <UARTwrite>
     7e2:	e0e5      	b.n	9b0 <UARTvprintf+0x3ec>
     7e4:	683b      	ldr	r3, [r7, #0]
     7e6:	1d1a      	adds	r2, r3, #4
     7e8:	603a      	str	r2, [r7, #0]
     7ea:	681b      	ldr	r3, [r3, #0]
     7ec:	61bb      	str	r3, [r7, #24]
     7ee:	2300      	movs	r3, #0
     7f0:	633b      	str	r3, [r7, #48]	; 0x30
     7f2:	69bb      	ldr	r3, [r7, #24]
     7f4:	2b00      	cmp	r3, #0
     7f6:	da05      	bge.n	804 <UARTvprintf+0x240>
     7f8:	69bb      	ldr	r3, [r7, #24]
     7fa:	425b      	negs	r3, r3
     7fc:	61bb      	str	r3, [r7, #24]
     7fe:	2301      	movs	r3, #1
     800:	627b      	str	r3, [r7, #36]	; 0x24
     802:	e001      	b.n	808 <UARTvprintf+0x244>
     804:	2300      	movs	r3, #0
     806:	627b      	str	r3, [r7, #36]	; 0x24
     808:	230a      	movs	r3, #10
     80a:	62bb      	str	r3, [r7, #40]	; 0x28
     80c:	e03f      	b.n	88e <UARTvprintf+0x2ca>
     80e:	683b      	ldr	r3, [r7, #0]
     810:	1d1a      	adds	r2, r3, #4
     812:	603a      	str	r2, [r7, #0]
     814:	681b      	ldr	r3, [r3, #0]
     816:	61fb      	str	r3, [r7, #28]
     818:	2300      	movs	r3, #0
     81a:	637b      	str	r3, [r7, #52]	; 0x34
     81c:	e002      	b.n	824 <UARTvprintf+0x260>
     81e:	6b7b      	ldr	r3, [r7, #52]	; 0x34
     820:	3301      	adds	r3, #1
     822:	637b      	str	r3, [r7, #52]	; 0x34
     824:	69fa      	ldr	r2, [r7, #28]
     826:	6b7b      	ldr	r3, [r7, #52]	; 0x34
     828:	4413      	add	r3, r2
     82a:	781b      	ldrb	r3, [r3, #0]
     82c:	2b00      	cmp	r3, #0
     82e:	d1f6      	bne.n	81e <UARTvprintf+0x25a>
     830:	6b79      	ldr	r1, [r7, #52]	; 0x34
     832:	69f8      	ldr	r0, [r7, #28]
     834:	f7ff fe7e 	bl	534 <UARTwrite>
     838:	6afa      	ldr	r2, [r7, #44]	; 0x2c
     83a:	6b7b      	ldr	r3, [r7, #52]	; 0x34
     83c:	429a      	cmp	r2, r3
     83e:	f240 80b7 	bls.w	9b0 <UARTvprintf+0x3ec>
     842:	6afa      	ldr	r2, [r7, #44]	; 0x2c
     844:	6b7b      	ldr	r3, [r7, #52]	; 0x34
     846:	1ad3      	subs	r3, r2, r3
     848:	62fb      	str	r3, [r7, #44]	; 0x2c
     84a:	e003      	b.n	854 <UARTvprintf+0x290>
     84c:	2101      	movs	r1, #1
     84e:	4812      	ldr	r0, [pc, #72]	; (898 <UARTvprintf+0x2d4>)
     850:	f7ff fe70 	bl	534 <UARTwrite>
     854:	6afb      	ldr	r3, [r7, #44]	; 0x2c
     856:	1e5a      	subs	r2, r3, #1
     858:	62fa      	str	r2, [r7, #44]	; 0x2c
     85a:	2b00      	cmp	r3, #0
     85c:	d1f6      	bne.n	84c <UARTvprintf+0x288>
     85e:	e0a7      	b.n	9b0 <UARTvprintf+0x3ec>
     860:	683b      	ldr	r3, [r7, #0]
     862:	1d1a      	adds	r2, r3, #4
     864:	603a      	str	r2, [r7, #0]
     866:	681b      	ldr	r3, [r3, #0]
     868:	61bb      	str	r3, [r7, #24]
     86a:	2300      	movs	r3, #0
     86c:	633b      	str	r3, [r7, #48]	; 0x30
     86e:	230a      	movs	r3, #10
     870:	62bb      	str	r3, [r7, #40]	; 0x28
     872:	2300      	movs	r3, #0
     874:	627b      	str	r3, [r7, #36]	; 0x24
     876:	e00a      	b.n	88e <UARTvprintf+0x2ca>
     878:	683b      	ldr	r3, [r7, #0]
     87a:	1d1a      	adds	r2, r3, #4
     87c:	603a      	str	r2, [r7, #0]
     87e:	681b      	ldr	r3, [r3, #0]
     880:	61bb      	str	r3, [r7, #24]
     882:	2300      	movs	r3, #0
     884:	633b      	str	r3, [r7, #48]	; 0x30
     886:	2310      	movs	r3, #16
     888:	62bb      	str	r3, [r7, #40]	; 0x28
     88a:	2300      	movs	r3, #0
     88c:	627b      	str	r3, [r7, #36]	; 0x24
     88e:	2301      	movs	r3, #1
     890:	637b      	str	r3, [r7, #52]	; 0x34
     892:	e00b      	b.n	8ac <UARTvprintf+0x2e8>
     894:	00001d54 	andeq	r1, r0, r4, asr sp
     898:	00001d80 	andeq	r1, r0, r0, lsl #27
     89c:	6b7b      	ldr	r3, [r7, #52]	; 0x34
     89e:	6aba      	ldr	r2, [r7, #40]	; 0x28
     8a0:	fb02 f303 	mul.w	r3, r2, r3
     8a4:	637b      	str	r3, [r7, #52]	; 0x34
     8a6:	6afb      	ldr	r3, [r7, #44]	; 0x2c
     8a8:	3b01      	subs	r3, #1
     8aa:	62fb      	str	r3, [r7, #44]	; 0x2c
     8ac:	6b7b      	ldr	r3, [r7, #52]	; 0x34
     8ae:	6aba      	ldr	r2, [r7, #40]	; 0x28
     8b0:	fb03 f202 	mul.w	r2, r3, r2
     8b4:	69bb      	ldr	r3, [r7, #24]
     8b6:	429a      	cmp	r2, r3
     8b8:	d809      	bhi.n	8ce <UARTvprintf+0x30a>
     8ba:	6b7b      	ldr	r3, [r7, #52]	; 0x34
     8bc:	6aba      	ldr	r2, [r7, #40]	; 0x28
     8be:	fb03 f202 	mul.w	r2, r3, r2
     8c2:	6abb      	ldr	r3, [r7, #40]	; 0x28
     8c4:	fbb2 f3f3 	udiv	r3, r2, r3
     8c8:	6b7a      	ldr	r2, [r7, #52]	; 0x34
     8ca:	429a      	cmp	r2, r3
     8cc:	d0e6      	beq.n	89c <UARTvprintf+0x2d8>
     8ce:	6a7b      	ldr	r3, [r7, #36]	; 0x24
     8d0:	2b00      	cmp	r3, #0
     8d2:	d002      	beq.n	8da <UARTvprintf+0x316>
     8d4:	6afb      	ldr	r3, [r7, #44]	; 0x2c
     8d6:	3b01      	subs	r3, #1
     8d8:	62fb      	str	r3, [r7, #44]	; 0x2c
     8da:	6a7b      	ldr	r3, [r7, #36]	; 0x24
     8dc:	2b00      	cmp	r3, #0
     8de:	d00e      	beq.n	8fe <UARTvprintf+0x33a>
     8e0:	f897 3023 	ldrb.w	r3, [r7, #35]	; 0x23
     8e4:	2b30      	cmp	r3, #48	; 0x30
     8e6:	d10a      	bne.n	8fe <UARTvprintf+0x33a>
     8e8:	6b3b      	ldr	r3, [r7, #48]	; 0x30
     8ea:	1c5a      	adds	r2, r3, #1
     8ec:	633a      	str	r2, [r7, #48]	; 0x30
     8ee:	f107 0238 	add.w	r2, r7, #56	; 0x38
     8f2:	4413      	add	r3, r2
     8f4:	222d      	movs	r2, #45	; 0x2d
     8f6:	f803 2c30 	strb.w	r2, [r3, #-48]
     8fa:	2300      	movs	r3, #0
     8fc:	627b      	str	r3, [r7, #36]	; 0x24
     8fe:	6afb      	ldr	r3, [r7, #44]	; 0x2c
     900:	2b01      	cmp	r3, #1
     902:	d916      	bls.n	932 <UARTvprintf+0x36e>
     904:	6afb      	ldr	r3, [r7, #44]	; 0x2c
     906:	2b0f      	cmp	r3, #15
     908:	d813      	bhi.n	932 <UARTvprintf+0x36e>
     90a:	6afb      	ldr	r3, [r7, #44]	; 0x2c
     90c:	3b01      	subs	r3, #1
     90e:	62fb      	str	r3, [r7, #44]	; 0x2c
     910:	e00c      	b.n	92c <UARTvprintf+0x368>
     912:	6b3b      	ldr	r3, [r7, #48]	; 0x30
     914:	1c5a      	adds	r2, r3, #1
     916:	633a      	str	r2, [r7, #48]	; 0x30
     918:	f107 0238 	add.w	r2, r7, #56	; 0x38
     91c:	4413      	add	r3, r2
     91e:	f897 2023 	ldrb.w	r2, [r7, #35]	; 0x23
     922:	f803 2c30 	strb.w	r2, [r3, #-48]
     926:	6afb      	ldr	r3, [r7, #44]	; 0x2c
     928:	3b01      	subs	r3, #1
     92a:	62fb      	str	r3, [r7, #44]	; 0x2c
     92c:	6afb      	ldr	r3, [r7, #44]	; 0x2c
     92e:	2b00      	cmp	r3, #0
     930:	d1ef      	bne.n	912 <UARTvprintf+0x34e>
     932:	6a7b      	ldr	r3, [r7, #36]	; 0x24
     934:	2b00      	cmp	r3, #0
     936:	d024      	beq.n	982 <UARTvprintf+0x3be>
     938:	6b3b      	ldr	r3, [r7, #48]	; 0x30
     93a:	1c5a      	adds	r2, r3, #1
     93c:	633a      	str	r2, [r7, #48]	; 0x30
     93e:	f107 0238 	add.w	r2, r7, #56	; 0x38
     942:	4413      	add	r3, r2
     944:	222d      	movs	r2, #45	; 0x2d
     946:	f803 2c30 	strb.w	r2, [r3, #-48]
     94a:	e01a      	b.n	982 <UARTvprintf+0x3be>
     94c:	481d      	ldr	r0, [pc, #116]	; (9c4 <UARTvprintf+0x400>)
     94e:	69ba      	ldr	r2, [r7, #24]
     950:	6b7b      	ldr	r3, [r7, #52]	; 0x34
     952:	fbb2 f3f3 	udiv	r3, r2, r3
     956:	6aba      	ldr	r2, [r7, #40]	; 0x28
     958:	fbb3 f2f2 	udiv	r2, r3, r2
     95c:	6ab9      	ldr	r1, [r7, #40]	; 0x28
     95e:	fb01 f202 	mul.w	r2, r1, r2
     962:	1a9b      	subs	r3, r3, r2
     964:	18c2      	adds	r2, r0, r3
     966:	6b3b      	ldr	r3, [r7, #48]	; 0x30
     968:	1c59      	adds	r1, r3, #1
     96a:	6339      	str	r1, [r7, #48]	; 0x30
     96c:	7812      	ldrb	r2, [r2, #0]
     96e:	f107 0138 	add.w	r1, r7, #56	; 0x38
     972:	440b      	add	r3, r1
     974:	f803 2c30 	strb.w	r2, [r3, #-48]
     978:	6b7a      	ldr	r2, [r7, #52]	; 0x34
     97a:	6abb      	ldr	r3, [r7, #40]	; 0x28
     97c:	fbb2 f3f3 	udiv	r3, r2, r3
     980:	637b      	str	r3, [r7, #52]	; 0x34
     982:	6b7b      	ldr	r3, [r7, #52]	; 0x34
     984:	2b00      	cmp	r3, #0
     986:	d1e1      	bne.n	94c <UARTvprintf+0x388>
     988:	f107 0308 	add.w	r3, r7, #8
     98c:	6b39      	ldr	r1, [r7, #48]	; 0x30
     98e:	4618      	mov	r0, r3
     990:	f7ff fdd0 	bl	534 <UARTwrite>
     994:	e00c      	b.n	9b0 <UARTvprintf+0x3ec>
     996:	687b      	ldr	r3, [r7, #4]
     998:	3b01      	subs	r3, #1
     99a:	2101      	movs	r1, #1
     99c:	4618      	mov	r0, r3
     99e:	f7ff fdc9 	bl	534 <UARTwrite>
     9a2:	e005      	b.n	9b0 <UARTvprintf+0x3ec>
     9a4:	2105      	movs	r1, #5
     9a6:	4808      	ldr	r0, [pc, #32]	; (9c8 <UARTvprintf+0x404>)
     9a8:	f7ff fdc4 	bl	534 <UARTwrite>
     9ac:	e000      	b.n	9b0 <UARTvprintf+0x3ec>
     9ae:	bf00      	nop
     9b0:	687b      	ldr	r3, [r7, #4]
     9b2:	781b      	ldrb	r3, [r3, #0]
     9b4:	2b00      	cmp	r3, #0
     9b6:	f47f ae14 	bne.w	5e2 <UARTvprintf+0x1e>
     9ba:	bf00      	nop
     9bc:	bf00      	nop
     9be:	3738      	adds	r7, #56	; 0x38
     9c0:	46bd      	mov	sp, r7
     9c2:	bd80      	pop	{r7, pc}
     9c4:	00001d40 	andeq	r1, r0, r0, asr #26
     9c8:	00001d84 	andeq	r1, r0, r4, lsl #27

000009cc <UARTprintf>:
     9cc:	b40f      	push	{r0, r1, r2, r3}
     9ce:	b580      	push	{r7, lr}
     9d0:	b082      	sub	sp, #8
     9d2:	af00      	add	r7, sp, #0
     9d4:	f107 0314 	add.w	r3, r7, #20
     9d8:	607b      	str	r3, [r7, #4]
     9da:	6879      	ldr	r1, [r7, #4]
     9dc:	6938      	ldr	r0, [r7, #16]
     9de:	f7ff fdf1 	bl	5c4 <UARTvprintf>
     9e2:	bf00      	nop
     9e4:	3708      	adds	r7, #8
     9e6:	46bd      	mov	sp, r7
     9e8:	e8bd 4080 	ldmia.w	sp!, {r7, lr}
     9ec:	b004      	add	sp, #16
     9ee:	4770      	bx	lr

000009f0 <GPIODirModeSet>:
     9f0:	f8d0 3400 	ldr.w	r3, [r0, #1024]	; 0x400
     9f4:	f012 0f01 	tst.w	r2, #1
     9f8:	bf14      	ite	ne
     9fa:	430b      	orrne	r3, r1
     9fc:	438b      	biceq	r3, r1
     9fe:	f8c0 3400 	str.w	r3, [r0, #1024]	; 0x400
     a02:	f8d0 3420 	ldr.w	r3, [r0, #1056]	; 0x420
     a06:	0792      	lsls	r2, r2, #30
     a08:	bf4c      	ite	mi
     a0a:	4319      	orrmi	r1, r3
     a0c:	ea23 0101 	bicpl.w	r1, r3, r1
     a10:	f8c0 1420 	str.w	r1, [r0, #1056]	; 0x420
     a14:	4770      	bx	lr
	...

00000a18 <GPIOPadConfigSet>:
     a18:	b5f0      	push	{r4, r5, r6, r7, lr}
     a1a:	4c4e      	ldr	r4, [pc, #312]	; (b54 <GPIOPadConfigSet+0x13c>)
     a1c:	6825      	ldr	r5, [r4, #0]
     a1e:	4c4e      	ldr	r4, [pc, #312]	; (b58 <GPIOPadConfigSet+0x140>)
     a20:	402c      	ands	r4, r5
     a22:	4d4e      	ldr	r5, [pc, #312]	; (b5c <GPIOPadConfigSet+0x144>)
     a24:	42ac      	cmp	r4, r5
     a26:	d106      	bne.n	a36 <GPIOPadConfigSet+0x1e>
     a28:	07d5      	lsls	r5, r2, #31
     a2a:	d421      	bmi.n	a70 <GPIOPadConfigSet+0x58>
     a2c:	f8d0 4500 	ldr.w	r4, [r0, #1280]	; 0x500
     a30:	ea24 0401 	bic.w	r4, r4, r1
     a34:	e01f      	b.n	a76 <GPIOPadConfigSet+0x5e>
     a36:	f3c2 1741 	ubfx	r7, r2, #5, #2
     a3a:	2500      	movs	r5, #0
     a3c:	f04f 0c03 	mov.w	ip, #3
     a40:	fa41 f405 	asr.w	r4, r1, r5
     a44:	07e4      	lsls	r4, r4, #31
     a46:	d50f      	bpl.n	a68 <GPIOPadConfigSet+0x50>
     a48:	f8d0 6fc4 	ldr.w	r6, [r0, #4036]	; 0xfc4
     a4c:	006c      	lsls	r4, r5, #1
     a4e:	fa0c fe04 	lsl.w	lr, ip, r4
     a52:	ea26 060e 	bic.w	r6, r6, lr
     a56:	f8c0 6fc4 	str.w	r6, [r0, #4036]	; 0xfc4
     a5a:	f8d0 6fc4 	ldr.w	r6, [r0, #4036]	; 0xfc4
     a5e:	fa07 f404 	lsl.w	r4, r7, r4
     a62:	4334      	orrs	r4, r6
     a64:	f8c0 4fc4 	str.w	r4, [r0, #4036]	; 0xfc4
     a68:	3501      	adds	r5, #1
     a6a:	2d08      	cmp	r5, #8
     a6c:	d1e8      	bne.n	a40 <GPIOPadConfigSet+0x28>
     a6e:	e7db      	b.n	a28 <GPIOPadConfigSet+0x10>
     a70:	f8d0 4500 	ldr.w	r4, [r0, #1280]	; 0x500
     a74:	430c      	orrs	r4, r1
     a76:	f8c0 4500 	str.w	r4, [r0, #1280]	; 0x500
     a7a:	f8d0 4504 	ldr.w	r4, [r0, #1284]	; 0x504
     a7e:	0797      	lsls	r7, r2, #30
     a80:	bf4c      	ite	mi
     a82:	430c      	orrmi	r4, r1
     a84:	438c      	bicpl	r4, r1
     a86:	f8c0 4504 	str.w	r4, [r0, #1284]	; 0x504
     a8a:	f8d0 4508 	ldr.w	r4, [r0, #1288]	; 0x508
     a8e:	0756      	lsls	r6, r2, #29
     a90:	bf4c      	ite	mi
     a92:	430c      	orrmi	r4, r1
     a94:	438c      	bicpl	r4, r1
     a96:	f8c0 4508 	str.w	r4, [r0, #1288]	; 0x508
     a9a:	f8d0 4518 	ldr.w	r4, [r0, #1304]	; 0x518
     a9e:	0715      	lsls	r5, r2, #28
     aa0:	bf4c      	ite	mi
     aa2:	430c      	orrmi	r4, r1
     aa4:	438c      	bicpl	r4, r1
     aa6:	f8c0 4518 	str.w	r4, [r0, #1304]	; 0x518
     aaa:	4c2a      	ldr	r4, [pc, #168]	; (b54 <GPIOPadConfigSet+0x13c>)
     aac:	6825      	ldr	r5, [r4, #0]
     aae:	4c2a      	ldr	r4, [pc, #168]	; (b58 <GPIOPadConfigSet+0x140>)
     ab0:	402c      	ands	r4, r5
     ab2:	4d2a      	ldr	r5, [pc, #168]	; (b5c <GPIOPadConfigSet+0x144>)
     ab4:	42ac      	cmp	r4, r5
     ab6:	d008      	beq.n	aca <GPIOPadConfigSet+0xb2>
     ab8:	f012 0f10 	tst.w	r2, #16
     abc:	f8d0 253c 	ldr.w	r2, [r0, #1340]	; 0x53c
     ac0:	bf14      	ite	ne
     ac2:	430a      	orrne	r2, r1
     ac4:	438a      	biceq	r2, r1
     ac6:	f8c0 253c 	str.w	r2, [r0, #1340]	; 0x53c
     aca:	f8d0 250c 	ldr.w	r2, [r0, #1292]	; 0x50c
     ace:	07dc      	lsls	r4, r3, #31
     ad0:	bf4c      	ite	mi
     ad2:	430a      	orrmi	r2, r1
     ad4:	438a      	bicpl	r2, r1
     ad6:	f8c0 250c 	str.w	r2, [r0, #1292]	; 0x50c
     ada:	f8d0 2510 	ldr.w	r2, [r0, #1296]	; 0x510
     ade:	079f      	lsls	r7, r3, #30
     ae0:	bf4c      	ite	mi
     ae2:	430a      	orrmi	r2, r1
     ae4:	438a      	bicpl	r2, r1
     ae6:	f8c0 2510 	str.w	r2, [r0, #1296]	; 0x510
     aea:	f8d0 2514 	ldr.w	r2, [r0, #1300]	; 0x514
     aee:	075e      	lsls	r6, r3, #29
     af0:	bf4c      	ite	mi
     af2:	430a      	orrmi	r2, r1
     af4:	438a      	bicpl	r2, r1
     af6:	f8c0 2514 	str.w	r2, [r0, #1300]	; 0x514
     afa:	f8d0 251c 	ldr.w	r2, [r0, #1308]	; 0x51c
     afe:	071d      	lsls	r5, r3, #28
     b00:	bf4c      	ite	mi
     b02:	430a      	orrmi	r2, r1
     b04:	438a      	bicpl	r2, r1
     b06:	f8c0 251c 	str.w	r2, [r0, #1308]	; 0x51c
     b0a:	4a12      	ldr	r2, [pc, #72]	; (b54 <GPIOPadConfigSet+0x13c>)
     b0c:	6814      	ldr	r4, [r2, #0]
     b0e:	4a12      	ldr	r2, [pc, #72]	; (b58 <GPIOPadConfigSet+0x140>)
     b10:	4022      	ands	r2, r4
     b12:	4c12      	ldr	r4, [pc, #72]	; (b5c <GPIOPadConfigSet+0x144>)
     b14:	42a2      	cmp	r2, r4
     b16:	d010      	beq.n	b3a <GPIOPadConfigSet+0x122>
     b18:	f8d0 2544 	ldr.w	r2, [r0, #1348]	; 0x544
     b1c:	059c      	lsls	r4, r3, #22
     b1e:	bf4c      	ite	mi
     b20:	430a      	orrmi	r2, r1
     b22:	438a      	bicpl	r2, r1
     b24:	f8c0 2544 	str.w	r2, [r0, #1348]	; 0x544
     b28:	f8d0 2540 	ldr.w	r2, [r0, #1344]	; 0x540
     b2c:	f413 7f40 	tst.w	r3, #768	; 0x300
     b30:	bf14      	ite	ne
     b32:	430a      	orrne	r2, r1
     b34:	438a      	biceq	r2, r1
     b36:	f8c0 2540 	str.w	r2, [r0, #1344]	; 0x540
     b3a:	b92b      	cbnz	r3, b48 <GPIOPadConfigSet+0x130>
     b3c:	f8d0 3528 	ldr.w	r3, [r0, #1320]	; 0x528
     b40:	4319      	orrs	r1, r3
     b42:	f8c0 1528 	str.w	r1, [r0, #1320]	; 0x528
     b46:	bdf0      	pop	{r4, r5, r6, r7, pc}
     b48:	f8d0 3528 	ldr.w	r3, [r0, #1320]	; 0x528
     b4c:	ea23 0101 	bic.w	r1, r3, r1
     b50:	e7f7      	b.n	b42 <GPIOPadConfigSet+0x12a>
     b52:	bf00      	nop
     b54:	400fe000 	andmi	lr, pc, r0
     b58:	70ff0000 	rscsvc	r0, pc, r0
     b5c:	10050000 	andne	r0, r5, r0

00000b60 <GPIOPinTypeComparatorOutput>:
     b60:	b510      	push	{r4, lr}
     b62:	2202      	movs	r2, #2
     b64:	460c      	mov	r4, r1
     b66:	f7ff ff43 	bl	9f0 <GPIODirModeSet>
     b6a:	4621      	mov	r1, r4
     b6c:	2308      	movs	r3, #8
     b6e:	e8bd 4010 	ldmia.w	sp!, {r4, lr}
     b72:	2201      	movs	r2, #1
     b74:	f7ff bf50 	b.w	a18 <GPIOPadConfigSet>

00000b78 <GPIOPinTypeUART>:
     b78:	f7ff bff2 	b.w	b60 <GPIOPinTypeComparatorOutput>

00000b7c <GPIOPinConfigure>:
     b7c:	4b0e      	ldr	r3, [pc, #56]	; (bb8 <GPIOPinConfigure+0x3c>)
     b7e:	f3c0 4107 	ubfx	r1, r0, #16, #8
     b82:	b510      	push	{r4, lr}
     b84:	2201      	movs	r2, #1
     b86:	6edc      	ldr	r4, [r3, #108]	; 0x6c
     b88:	408a      	lsls	r2, r1
     b8a:	004b      	lsls	r3, r1, #1
     b8c:	4222      	tst	r2, r4
     b8e:	bf18      	it	ne
     b90:	3301      	addne	r3, #1
     b92:	4a0a      	ldr	r2, [pc, #40]	; (bbc <GPIOPinConfigure+0x40>)
     b94:	f852 2023 	ldr.w	r2, [r2, r3, lsl #2]
     b98:	f3c0 2407 	ubfx	r4, r0, #8, #8
     b9c:	f8d2 352c 	ldr.w	r3, [r2, #1324]	; 0x52c
     ba0:	210f      	movs	r1, #15
     ba2:	40a1      	lsls	r1, r4
     ba4:	f000 000f 	and.w	r0, r0, #15
     ba8:	ea23 0301 	bic.w	r3, r3, r1
     bac:	40a0      	lsls	r0, r4
     bae:	4318      	orrs	r0, r3
     bb0:	f8c2 052c 	str.w	r0, [r2, #1324]	; 0x52c
     bb4:	bd10      	pop	{r4, pc}
     bb6:	bf00      	nop
     bb8:	400fe000 	andmi	lr, pc, r0
     bbc:	00001da4 	andeq	r1, r0, r4, lsr #27

00000bc0 <SysCtlPeripheralPresent>:
     bc0:	4b07      	ldr	r3, [pc, #28]	; (be0 <SysCtlPeripheralPresent+0x20>)
     bc2:	f3c0 2207 	ubfx	r2, r0, #8, #8
     bc6:	0080      	lsls	r0, r0, #2
     bc8:	4413      	add	r3, r2
     bca:	f400 707f 	and.w	r0, r0, #1020	; 0x3fc
     bce:	ea40 1043 	orr.w	r0, r0, r3, lsl #5
     bd2:	f040 4084 	orr.w	r0, r0, #1107296256	; 0x42000000
     bd6:	6800      	ldr	r0, [r0, #0]
     bd8:	3800      	subs	r0, #0
     bda:	bf18      	it	ne
     bdc:	2001      	movne	r0, #1
     bde:	4770      	bx	lr
     be0:	400fe300 	andmi	lr, pc, r0, lsl #6

00000be4 <SysCtlPeripheralEnable>:
     be4:	4b06      	ldr	r3, [pc, #24]	; (c00 <SysCtlPeripheralEnable+0x1c>)
     be6:	f3c0 2207 	ubfx	r2, r0, #8, #8
     bea:	0080      	lsls	r0, r0, #2
     bec:	4413      	add	r3, r2
     bee:	f400 707f 	and.w	r0, r0, #1020	; 0x3fc
     bf2:	ea40 1043 	orr.w	r0, r0, r3, lsl #5
     bf6:	f040 4084 	orr.w	r0, r0, #1107296256	; 0x42000000
     bfa:	2301      	movs	r3, #1
     bfc:	6003      	str	r3, [r0, #0]
     bfe:	4770      	bx	lr
     c00:	400fe600 	andmi	lr, pc, r0, lsl #12

00000c04 <SysCtlClockGet>:
     c04:	4b48      	ldr	r3, [pc, #288]	; (d28 <SysCtlClockGet+0x124>)
     c06:	6e19      	ldr	r1, [r3, #96]	; 0x60
     c08:	6f1b      	ldr	r3, [r3, #112]	; 0x70
     c0a:	2b00      	cmp	r3, #0
     c0c:	b570      	push	{r4, r5, r6, lr}
     c0e:	da12      	bge.n	c36 <SysCtlClockGet+0x32>
     c10:	f003 0270 	and.w	r2, r3, #112	; 0x70
     c14:	2a20      	cmp	r2, #32
     c16:	f000 8082 	beq.w	d1e <SysCtlClockGet+0x11a>
     c1a:	d805      	bhi.n	c28 <SysCtlClockGet+0x24>
     c1c:	2a00      	cmp	r2, #0
     c1e:	d057      	beq.n	cd0 <SysCtlClockGet+0xcc>
     c20:	2a10      	cmp	r2, #16
     c22:	d05f      	beq.n	ce4 <SysCtlClockGet+0xe0>
     c24:	2000      	movs	r0, #0
     c26:	bd70      	pop	{r4, r5, r6, pc}
     c28:	2a30      	cmp	r2, #48	; 0x30
     c2a:	d07a      	beq.n	d22 <SysCtlClockGet+0x11e>
     c2c:	2a70      	cmp	r2, #112	; 0x70
     c2e:	d1f9      	bne.n	c24 <SysCtlClockGet+0x20>
     c30:	f44f 4000 	mov.w	r0, #32768	; 0x8000
     c34:	e053      	b.n	cde <SysCtlClockGet+0xda>
     c36:	f001 0230 	and.w	r2, r1, #48	; 0x30
     c3a:	2a20      	cmp	r2, #32
     c3c:	d06d      	beq.n	d1a <SysCtlClockGet+0x116>
     c3e:	d842      	bhi.n	cc6 <SysCtlClockGet+0xc2>
     c40:	2a00      	cmp	r2, #0
     c42:	d045      	beq.n	cd0 <SysCtlClockGet+0xcc>
     c44:	2a10      	cmp	r2, #16
     c46:	d1ed      	bne.n	c24 <SysCtlClockGet+0x20>
     c48:	4838      	ldr	r0, [pc, #224]	; (d2c <SysCtlClockGet+0x128>)
     c4a:	f411 6f00 	tst.w	r1, #2048	; 0x800
     c4e:	d152      	bne.n	cf6 <SysCtlClockGet+0xf2>
     c50:	4d35      	ldr	r5, [pc, #212]	; (d28 <SysCtlClockGet+0x124>)
     c52:	f8d5 4160 	ldr.w	r4, [r5, #352]	; 0x160
     c56:	f8d5 2164 	ldr.w	r2, [r5, #356]	; 0x164
     c5a:	f3c2 2604 	ubfx	r6, r2, #8, #5
     c5e:	f002 021f 	and.w	r2, r2, #31
     c62:	3201      	adds	r2, #1
     c64:	fb06 2202 	mla	r2, r6, r2, r2
     c68:	0052      	lsls	r2, r2, #1
     c6a:	fbb0 f0f2 	udiv	r0, r0, r2
     c6e:	f3c4 0209 	ubfx	r2, r4, #0, #10
     c72:	f3c4 2489 	ubfx	r4, r4, #10, #10
     c76:	4344      	muls	r4, r0
     c78:	0aa4      	lsrs	r4, r4, #10
     c7a:	fb00 4002 	mla	r0, r0, r2, r4
     c7e:	692a      	ldr	r2, [r5, #16]
     c80:	f402 4270 	and.w	r2, r2, #61440	; 0xf000
     c84:	f5b2 4f80 	cmp.w	r2, #16384	; 0x4000
     c88:	f441 0180 	orr.w	r1, r1, #4194304	; 0x400000
     c8c:	d036      	beq.n	cfc <SysCtlClockGet+0xf8>
     c8e:	d82b      	bhi.n	ce8 <SysCtlClockGet+0xe4>
     c90:	f5b2 5f00 	cmp.w	r2, #8192	; 0x2000
     c94:	d034      	beq.n	d00 <SysCtlClockGet+0xfc>
     c96:	f5b2 5f40 	cmp.w	r2, #12288	; 0x3000
     c9a:	4a25      	ldr	r2, [pc, #148]	; (d30 <SysCtlClockGet+0x12c>)
     c9c:	bf18      	it	ne
     c9e:	f04f 32ff 	movne.w	r2, #4294967295
     ca2:	024d      	lsls	r5, r1, #9
     ca4:	d50b      	bpl.n	cbe <SysCtlClockGet+0xba>
     ca6:	2b00      	cmp	r3, #0
     ca8:	da31      	bge.n	d0e <SysCtlClockGet+0x10a>
     caa:	005c      	lsls	r4, r3, #1
     cac:	d52c      	bpl.n	d08 <SysCtlClockGet+0x104>
     cae:	0519      	lsls	r1, r3, #20
     cb0:	d42a      	bmi.n	d08 <SysCtlClockGet+0x104>
     cb2:	0040      	lsls	r0, r0, #1
     cb4:	f3c3 5386 	ubfx	r3, r3, #22, #7
     cb8:	3301      	adds	r3, #1
     cba:	fbb0 f0f3 	udiv	r0, r0, r3
     cbe:	4290      	cmp	r0, r2
     cc0:	bf28      	it	cs
     cc2:	4610      	movcs	r0, r2
     cc4:	e7af      	b.n	c26 <SysCtlClockGet+0x22>
     cc6:	2a30      	cmp	r2, #48	; 0x30
     cc8:	d1ac      	bne.n	c24 <SysCtlClockGet+0x20>
     cca:	f247 5030 	movw	r0, #30000	; 0x7530
     cce:	e7bc      	b.n	c4a <SysCtlClockGet+0x46>
     cd0:	4a18      	ldr	r2, [pc, #96]	; (d34 <SysCtlClockGet+0x130>)
     cd2:	f3c1 1084 	ubfx	r0, r1, #6, #5
     cd6:	2b00      	cmp	r3, #0
     cd8:	f852 0020 	ldr.w	r0, [r2, r0, lsl #2]
     cdc:	dab5      	bge.n	c4a <SysCtlClockGet+0x46>
     cde:	f413 6f00 	tst.w	r3, #2048	; 0x800
     ce2:	e7b4      	b.n	c4e <SysCtlClockGet+0x4a>
     ce4:	4811      	ldr	r0, [pc, #68]	; (d2c <SysCtlClockGet+0x128>)
     ce6:	e7fa      	b.n	cde <SysCtlClockGet+0xda>
     ce8:	f5b2 4fe0 	cmp.w	r2, #28672	; 0x7000
     cec:	d00a      	beq.n	d04 <SysCtlClockGet+0x100>
     cee:	f5b2 4f10 	cmp.w	r2, #36864	; 0x9000
     cf2:	4a11      	ldr	r2, [pc, #68]	; (d38 <SysCtlClockGet+0x134>)
     cf4:	e7d2      	b.n	c9c <SysCtlClockGet+0x98>
     cf6:	f04f 32ff 	mov.w	r2, #4294967295
     cfa:	e7d2      	b.n	ca2 <SysCtlClockGet+0x9e>
     cfc:	4a0f      	ldr	r2, [pc, #60]	; (d3c <SysCtlClockGet+0x138>)
     cfe:	e7d0      	b.n	ca2 <SysCtlClockGet+0x9e>
     d00:	4a0f      	ldr	r2, [pc, #60]	; (d40 <SysCtlClockGet+0x13c>)
     d02:	e7ce      	b.n	ca2 <SysCtlClockGet+0x9e>
     d04:	4a0f      	ldr	r2, [pc, #60]	; (d44 <SysCtlClockGet+0x140>)
     d06:	e7cc      	b.n	ca2 <SysCtlClockGet+0x9e>
     d08:	f3c3 53c5 	ubfx	r3, r3, #23, #6
     d0c:	e7d4      	b.n	cb8 <SysCtlClockGet+0xb4>
     d0e:	f3c1 51c3 	ubfx	r1, r1, #23, #4
     d12:	3101      	adds	r1, #1
     d14:	fbb0 f0f1 	udiv	r0, r0, r1
     d18:	e7d1      	b.n	cbe <SysCtlClockGet+0xba>
     d1a:	480b      	ldr	r0, [pc, #44]	; (d48 <SysCtlClockGet+0x144>)
     d1c:	e795      	b.n	c4a <SysCtlClockGet+0x46>
     d1e:	480a      	ldr	r0, [pc, #40]	; (d48 <SysCtlClockGet+0x144>)
     d20:	e7dd      	b.n	cde <SysCtlClockGet+0xda>
     d22:	f247 5030 	movw	r0, #30000	; 0x7530
     d26:	e7da      	b.n	cde <SysCtlClockGet+0xda>
     d28:	400fe000 	andmi	lr, pc, r0
     d2c:	00f42400 	rscseq	r2, r4, r0, lsl #8
     d30:	02faf080 	rscseq	pc, sl, #128	; 0x80
     d34:	00001e34 	andeq	r1, r0, r4, lsr lr
     d38:	01312d00 	teqeq	r1, r0, lsl #26
     d3c:	02625a00 	rsbeq	r5, r2, #0, 20
     d40:	04c4b400 	strbeq	fp, [r4], #1024	; 0x400
     d44:	017d7840 	cmneq	sp, r0, asr #16
     d48:	003d0900 	eorseq	r0, sp, r0, lsl #18

00000d4c <UARTEnable>:
     d4c:	6ac3      	ldr	r3, [r0, #44]	; 0x2c
     d4e:	f043 0310 	orr.w	r3, r3, #16
     d52:	62c3      	str	r3, [r0, #44]	; 0x2c
     d54:	6b03      	ldr	r3, [r0, #48]	; 0x30
     d56:	f443 7340 	orr.w	r3, r3, #768	; 0x300
     d5a:	f043 0301 	orr.w	r3, r3, #1
     d5e:	6303      	str	r3, [r0, #48]	; 0x30
     d60:	4770      	bx	lr

00000d62 <UARTDisable>:
     d62:	6983      	ldr	r3, [r0, #24]
     d64:	071b      	lsls	r3, r3, #28
     d66:	d4fc      	bmi.n	d62 <UARTDisable>
     d68:	6ac3      	ldr	r3, [r0, #44]	; 0x2c
     d6a:	f023 0310 	bic.w	r3, r3, #16
     d6e:	62c3      	str	r3, [r0, #44]	; 0x2c
     d70:	6b03      	ldr	r3, [r0, #48]	; 0x30
     d72:	f423 7340 	bic.w	r3, r3, #768	; 0x300
     d76:	f023 0301 	bic.w	r3, r3, #1
     d7a:	6303      	str	r3, [r0, #48]	; 0x30
     d7c:	4770      	bx	lr

00000d7e <UARTConfigSetExpClk>:
     d7e:	b570      	push	{r4, r5, r6, lr}
     d80:	461e      	mov	r6, r3
     d82:	f7ff ffee 	bl	d62 <UARTDisable>
     d86:	6b03      	ldr	r3, [r0, #48]	; 0x30
     d88:	ebb1 1f02 	cmp.w	r1, r2, lsl #4
     d8c:	bf34      	ite	cc
     d8e:	f043 0320 	orrcc.w	r3, r3, #32
     d92:	f023 0320 	biccs.w	r3, r3, #32
     d96:	ea4f 04c1 	mov.w	r4, r1, lsl #3
     d9a:	bf38      	it	cc
     d9c:	0852      	lsrcc	r2, r2, #1
     d9e:	fbb4 f1f2 	udiv	r1, r4, r2
     da2:	f101 0101 	add.w	r1, r1, #1
     da6:	bf34      	ite	cc
     da8:	6303      	strcc	r3, [r0, #48]	; 0x30
     daa:	6303      	strcs	r3, [r0, #48]	; 0x30
     dac:	09cb      	lsrs	r3, r1, #7
     dae:	6243      	str	r3, [r0, #36]	; 0x24
     db0:	f3c1 0145 	ubfx	r1, r1, #1, #6
     db4:	2300      	movs	r3, #0
     db6:	6281      	str	r1, [r0, #40]	; 0x28
     db8:	62c6      	str	r6, [r0, #44]	; 0x2c
     dba:	e8bd 4070 	ldmia.w	sp!, {r4, r5, r6, lr}
     dbe:	6183      	str	r3, [r0, #24]
     dc0:	f7ff bfc4 	b.w	d4c <UARTEnable>

00000dc4 <UARTCharPut>:
     dc4:	6983      	ldr	r3, [r0, #24]
     dc6:	069b      	lsls	r3, r3, #26
     dc8:	d4fc      	bmi.n	dc4 <UARTCharPut>
     dca:	6001      	str	r1, [r0, #0]
     dcc:	4770      	bx	lr

00000dce <UARTClockSourceSet>:
     dce:	f8c0 1fc8 	str.w	r1, [r0, #4040]	; 0xfc8
     dd2:	4770      	bx	lr

00000dd4 <GET_SHIFTBITS_MASK>:
     dd4:	b480      	push	{r7}
     dd6:	b085      	sub	sp, #20
     dd8:	af00      	add	r7, sp, #0
     dda:	6078      	str	r0, [r7, #4]
     ddc:	687b      	ldr	r3, [r7, #4]
     dde:	60fb      	str	r3, [r7, #12]
     de0:	68fb      	ldr	r3, [r7, #12]
     de2:	2b00      	cmp	r3, #0
     de4:	d009      	beq.n	dfa <GET_SHIFTBITS_MASK+0x26>
     de6:	68fb      	ldr	r3, [r7, #12]
     de8:	f003 0301 	and.w	r3, r3, #1
     dec:	2b00      	cmp	r3, #0
     dee:	d103      	bne.n	df8 <GET_SHIFTBITS_MASK+0x24>
     df0:	68fb      	ldr	r3, [r7, #12]
     df2:	085b      	lsrs	r3, r3, #1
     df4:	60fb      	str	r3, [r7, #12]
     df6:	e7f3      	b.n	de0 <GET_SHIFTBITS_MASK+0xc>
     df8:	bf00      	nop
     dfa:	68fb      	ldr	r3, [r7, #12]
     dfc:	4618      	mov	r0, r3
     dfe:	3714      	adds	r7, #20
     e00:	46bd      	mov	sp, r7
     e02:	f85d 7b04 	ldr.w	r7, [sp], #4
     e06:	4770      	bx	lr

00000e08 <GET_MASK_POS>:
     e08:	b480      	push	{r7}
     e0a:	b085      	sub	sp, #20
     e0c:	af00      	add	r7, sp, #0
     e0e:	6078      	str	r0, [r7, #4]
     e10:	2300      	movs	r3, #0
     e12:	60fb      	str	r3, [r7, #12]
     e14:	687b      	ldr	r3, [r7, #4]
     e16:	60bb      	str	r3, [r7, #8]
     e18:	68bb      	ldr	r3, [r7, #8]
     e1a:	2b00      	cmp	r3, #0
     e1c:	d00c      	beq.n	e38 <GET_MASK_POS+0x30>
     e1e:	68bb      	ldr	r3, [r7, #8]
     e20:	f003 0301 	and.w	r3, r3, #1
     e24:	2b00      	cmp	r3, #0
     e26:	d106      	bne.n	e36 <GET_MASK_POS+0x2e>
     e28:	68fb      	ldr	r3, [r7, #12]
     e2a:	3301      	adds	r3, #1
     e2c:	60fb      	str	r3, [r7, #12]
     e2e:	68bb      	ldr	r3, [r7, #8]
     e30:	085b      	lsrs	r3, r3, #1
     e32:	60bb      	str	r3, [r7, #8]
     e34:	e7f0      	b.n	e18 <GET_MASK_POS+0x10>
     e36:	bf00      	nop
     e38:	68fb      	ldr	r3, [r7, #12]
     e3a:	4618      	mov	r0, r3
     e3c:	3714      	adds	r7, #20
     e3e:	46bd      	mov	sp, r7
     e40:	f85d 7b04 	ldr.w	r7, [sp], #4
     e44:	4770      	bx	lr
	...

00000e48 <PAD_GPIOI2CPinConfig>:
     e48:	b5b0      	push	{r4, r5, r7, lr}
     e4a:	b082      	sub	sp, #8
     e4c:	af00      	add	r7, sp, #0
     e4e:	2300      	movs	r3, #0
     e50:	607b      	str	r3, [r7, #4]
     e52:	2101      	movs	r1, #1
     e54:	4824      	ldr	r0, [pc, #144]	; (ee8 <PAD_GPIOI2CPinConfig+0xa0>)
     e56:	f000 fc4d 	bl	16f4 <PAD_SysPeripheralClockEnable>
     e5a:	4b24      	ldr	r3, [pc, #144]	; (eec <PAD_GPIOI2CPinConfig+0xa4>)
     e5c:	681b      	ldr	r3, [r3, #0]
     e5e:	4a23      	ldr	r2, [pc, #140]	; (eec <PAD_GPIOI2CPinConfig+0xa4>)
     e60:	f043 030c 	orr.w	r3, r3, #12
     e64:	6013      	str	r3, [r2, #0]
     e66:	4b22      	ldr	r3, [pc, #136]	; (ef0 <PAD_GPIOI2CPinConfig+0xa8>)
     e68:	681b      	ldr	r3, [r3, #0]
     e6a:	4a21      	ldr	r2, [pc, #132]	; (ef0 <PAD_GPIOI2CPinConfig+0xa8>)
     e6c:	f043 0308 	orr.w	r3, r3, #8
     e70:	6013      	str	r3, [r2, #0]
     e72:	4b20      	ldr	r3, [pc, #128]	; (ef4 <PAD_GPIOI2CPinConfig+0xac>)
     e74:	681b      	ldr	r3, [r3, #0]
     e76:	4a1f      	ldr	r2, [pc, #124]	; (ef4 <PAD_GPIOI2CPinConfig+0xac>)
     e78:	f043 030c 	orr.w	r3, r3, #12
     e7c:	6013      	str	r3, [r2, #0]
     e7e:	4b1e      	ldr	r3, [pc, #120]	; (ef8 <PAD_GPIOI2CPinConfig+0xb0>)
     e80:	681b      	ldr	r3, [r3, #0]
     e82:	4a1d      	ldr	r2, [pc, #116]	; (ef8 <PAD_GPIOI2CPinConfig+0xb0>)
     e84:	f043 030c 	orr.w	r3, r3, #12
     e88:	6013      	str	r3, [r2, #0]
     e8a:	4b1c      	ldr	r3, [pc, #112]	; (efc <PAD_GPIOI2CPinConfig+0xb4>)
     e8c:	681b      	ldr	r3, [r3, #0]
     e8e:	607b      	str	r3, [r7, #4]
     e90:	687b      	ldr	r3, [r7, #4]
     e92:	f423 6470 	bic.w	r4, r3, #3840	; 0xf00
     e96:	f44f 6070 	mov.w	r0, #3840	; 0xf00
     e9a:	f7ff ff9b 	bl	dd4 <GET_SHIFTBITS_MASK>
     e9e:	4603      	mov	r3, r0
     ea0:	f003 0503 	and.w	r5, r3, #3
     ea4:	f44f 6070 	mov.w	r0, #3840	; 0xf00
     ea8:	f7ff ffae 	bl	e08 <GET_MASK_POS>
     eac:	4603      	mov	r3, r0
     eae:	fa05 f303 	lsl.w	r3, r5, r3
     eb2:	4323      	orrs	r3, r4
     eb4:	607b      	str	r3, [r7, #4]
     eb6:	687b      	ldr	r3, [r7, #4]
     eb8:	f023 04f0 	bic.w	r4, r3, #240	; 0xf0
     ebc:	20f0      	movs	r0, #240	; 0xf0
     ebe:	f7ff ff89 	bl	dd4 <GET_SHIFTBITS_MASK>
     ec2:	4603      	mov	r3, r0
     ec4:	f003 0503 	and.w	r5, r3, #3
     ec8:	20f0      	movs	r0, #240	; 0xf0
     eca:	f7ff ff9d 	bl	e08 <GET_MASK_POS>
     ece:	4603      	mov	r3, r0
     ed0:	fa05 f303 	lsl.w	r3, r5, r3
     ed4:	4323      	orrs	r3, r4
     ed6:	607b      	str	r3, [r7, #4]
     ed8:	4a08      	ldr	r2, [pc, #32]	; (efc <PAD_GPIOI2CPinConfig+0xb4>)
     eda:	687b      	ldr	r3, [r7, #4]
     edc:	6013      	str	r3, [r2, #0]
     ede:	bf00      	nop
     ee0:	3708      	adds	r7, #8
     ee2:	46bd      	mov	sp, r7
     ee4:	bdb0      	pop	{r4, r5, r7, pc}
     ee6:	bf00      	nop
     ee8:	400fe608 	andmi	lr, pc, r8, lsl #12
     eec:	40005420 	andmi	r5, r0, r0, lsr #8
     ef0:	4000550c 	andmi	r5, r0, ip, lsl #10
     ef4:	4000551c 	andmi	r5, r0, ip, lsl r5
     ef8:	40005500 	andmi	r5, r0, r0, lsl #10
     efc:	4000552c 	andmi	r5, r0, ip, lsr #10

00000f00 <I2C_Init>:
     f00:	b580      	push	{r7, lr}
     f02:	b082      	sub	sp, #8
     f04:	af00      	add	r7, sp, #0
     f06:	4b0f      	ldr	r3, [pc, #60]	; (f44 <I2C_Init+0x44>)
     f08:	607b      	str	r3, [r7, #4]
     f0a:	2100      	movs	r1, #0
     f0c:	480e      	ldr	r0, [pc, #56]	; (f48 <I2C_Init+0x48>)
     f0e:	f000 fbf1 	bl	16f4 <PAD_SysPeripheralClockEnable>
     f12:	f7ff ff99 	bl	e48 <PAD_GPIOI2CPinConfig>
     f16:	4b0d      	ldr	r3, [pc, #52]	; (f4c <I2C_Init+0x4c>)
     f18:	2210      	movs	r2, #16
     f1a:	601a      	str	r2, [r3, #0]
     f1c:	f7ff fe72 	bl	c04 <SysCtlClockGet>
     f20:	4601      	mov	r1, r0
     f22:	687a      	ldr	r2, [r7, #4]
     f24:	4613      	mov	r3, r2
     f26:	009b      	lsls	r3, r3, #2
     f28:	4413      	add	r3, r2
     f2a:	009b      	lsls	r3, r3, #2
     f2c:	fbb1 f3f3 	udiv	r3, r1, r3
     f30:	4a07      	ldr	r2, [pc, #28]	; (f50 <I2C_Init+0x50>)
     f32:	3b01      	subs	r3, #1
     f34:	6013      	str	r3, [r2, #0]
     f36:	4b07      	ldr	r3, [pc, #28]	; (f54 <I2C_Init+0x54>)
     f38:	22da      	movs	r2, #218	; 0xda
     f3a:	601a      	str	r2, [r3, #0]
     f3c:	bf00      	nop
     f3e:	3708      	adds	r7, #8
     f40:	46bd      	mov	sp, r7
     f42:	bd80      	pop	{r7, pc}
     f44:	000186a0 	andeq	r8, r1, r0, lsr #13
     f48:	400fe620 	andmi	lr, pc, r0, lsr #12
     f4c:	40020020 	andmi	r0, r2, r0, lsr #32
     f50:	4002000c 	andmi	r0, r2, ip
     f54:	40020024 	andmi	r0, r2, r4, lsr #32

00000f58 <I2C_WriteBytes>:
     f58:	b580      	push	{r7, lr}
     f5a:	b088      	sub	sp, #32
     f5c:	af00      	add	r7, sp, #0
     f5e:	4603      	mov	r3, r0
     f60:	60b9      	str	r1, [r7, #8]
     f62:	607a      	str	r2, [r7, #4]
     f64:	73fb      	strb	r3, [r7, #15]
     f66:	2301      	movs	r3, #1
     f68:	77fb      	strb	r3, [r7, #31]
     f6a:	2300      	movs	r3, #0
     f6c:	61bb      	str	r3, [r7, #24]
     f6e:	2301      	movs	r3, #1
     f70:	617b      	str	r3, [r7, #20]
     f72:	f997 300f 	ldrsb.w	r3, [r7, #15]
     f76:	2b00      	cmp	r3, #0
     f78:	da06      	bge.n	f88 <I2C_WriteBytes+0x30>
     f7a:	2300      	movs	r3, #0
     f7c:	77fb      	strb	r3, [r7, #31]
     f7e:	212d      	movs	r1, #45	; 0x2d
     f80:	4883      	ldr	r0, [pc, #524]	; (1190 <I2C_WriteBytes+0x238>)
     f82:	f000 fda1 	bl	1ac8 <__error__>
     f86:	e0f5      	b.n	1174 <I2C_WriteBytes+0x21c>
     f88:	7bfb      	ldrb	r3, [r7, #15]
     f8a:	005b      	lsls	r3, r3, #1
     f8c:	4a81      	ldr	r2, [pc, #516]	; (1194 <I2C_WriteBytes+0x23c>)
     f8e:	b2db      	uxtb	r3, r3
     f90:	6013      	str	r3, [r2, #0]
     f92:	69bb      	ldr	r3, [r7, #24]
     f94:	1c5a      	adds	r2, r3, #1
     f96:	61ba      	str	r2, [r7, #24]
     f98:	687a      	ldr	r2, [r7, #4]
     f9a:	4413      	add	r3, r2
     f9c:	781a      	ldrb	r2, [r3, #0]
     f9e:	4b7e      	ldr	r3, [pc, #504]	; (1198 <I2C_WriteBytes+0x240>)
     fa0:	601a      	str	r2, [r3, #0]
     fa2:	4b7e      	ldr	r3, [pc, #504]	; (119c <I2C_WriteBytes+0x244>)
     fa4:	681b      	ldr	r3, [r3, #0]
     fa6:	f003 0340 	and.w	r3, r3, #64	; 0x40
     faa:	2b00      	cmp	r3, #0
     fac:	d004      	beq.n	fb8 <I2C_WriteBytes+0x60>
     fae:	697b      	ldr	r3, [r7, #20]
     fb0:	2b00      	cmp	r3, #0
     fb2:	d001      	beq.n	fb8 <I2C_WriteBytes+0x60>
     fb4:	2301      	movs	r3, #1
     fb6:	e000      	b.n	fba <I2C_WriteBytes+0x62>
     fb8:	2300      	movs	r3, #0
     fba:	2b00      	cmp	r3, #0
     fbc:	d000      	beq.n	fc0 <I2C_WriteBytes+0x68>
     fbe:	e7f0      	b.n	fa2 <I2C_WriteBytes+0x4a>
     fc0:	697b      	ldr	r3, [r7, #20]
     fc2:	2b00      	cmp	r3, #0
     fc4:	d106      	bne.n	fd4 <I2C_WriteBytes+0x7c>
     fc6:	2137      	movs	r1, #55	; 0x37
     fc8:	4871      	ldr	r0, [pc, #452]	; (1190 <I2C_WriteBytes+0x238>)
     fca:	f000 fd7d 	bl	1ac8 <__error__>
     fce:	2300      	movs	r3, #0
     fd0:	77fb      	strb	r3, [r7, #31]
     fd2:	e0cf      	b.n	1174 <I2C_WriteBytes+0x21c>
     fd4:	68bb      	ldr	r3, [r7, #8]
     fd6:	2b01      	cmp	r3, #1
     fd8:	d108      	bne.n	fec <I2C_WriteBytes+0x94>
     fda:	4b70      	ldr	r3, [pc, #448]	; (119c <I2C_WriteBytes+0x244>)
     fdc:	681b      	ldr	r3, [r3, #0]
     fde:	f023 0317 	bic.w	r3, r3, #23
     fe2:	4a6e      	ldr	r2, [pc, #440]	; (119c <I2C_WriteBytes+0x244>)
     fe4:	f043 0303 	orr.w	r3, r3, #3
     fe8:	6013      	str	r3, [r2, #0]
     fea:	e007      	b.n	ffc <I2C_WriteBytes+0xa4>
     fec:	4b6b      	ldr	r3, [pc, #428]	; (119c <I2C_WriteBytes+0x244>)
     fee:	681b      	ldr	r3, [r3, #0]
     ff0:	f023 0317 	bic.w	r3, r3, #23
     ff4:	4a69      	ldr	r2, [pc, #420]	; (119c <I2C_WriteBytes+0x244>)
     ff6:	f043 0303 	orr.w	r3, r3, #3
     ffa:	6013      	str	r3, [r2, #0]
     ffc:	68bb      	ldr	r3, [r7, #8]
     ffe:	2b01      	cmp	r3, #1
    1000:	f000 8084 	beq.w	110c <I2C_WriteBytes+0x1b4>
    1004:	2301      	movs	r3, #1
    1006:	617b      	str	r3, [r7, #20]
    1008:	4b64      	ldr	r3, [pc, #400]	; (119c <I2C_WriteBytes+0x244>)
    100a:	681b      	ldr	r3, [r3, #0]
    100c:	f003 0301 	and.w	r3, r3, #1
    1010:	2b00      	cmp	r3, #0
    1012:	bf14      	ite	ne
    1014:	2301      	movne	r3, #1
    1016:	2300      	moveq	r3, #0
    1018:	b2db      	uxtb	r3, r3
    101a:	2b00      	cmp	r3, #0
    101c:	d000      	beq.n	1020 <I2C_WriteBytes+0xc8>
    101e:	e7f3      	b.n	1008 <I2C_WriteBytes+0xb0>
    1020:	697b      	ldr	r3, [r7, #20]
    1022:	2b00      	cmp	r3, #0
    1024:	d005      	beq.n	1032 <I2C_WriteBytes+0xda>
    1026:	4b5d      	ldr	r3, [pc, #372]	; (119c <I2C_WriteBytes+0x244>)
    1028:	681b      	ldr	r3, [r3, #0]
    102a:	f003 0302 	and.w	r3, r3, #2
    102e:	2b00      	cmp	r3, #0
    1030:	d001      	beq.n	1036 <I2C_WriteBytes+0xde>
    1032:	2301      	movs	r3, #1
    1034:	e000      	b.n	1038 <I2C_WriteBytes+0xe0>
    1036:	2300      	movs	r3, #0
    1038:	2b00      	cmp	r3, #0
    103a:	d019      	beq.n	1070 <I2C_WriteBytes+0x118>
    103c:	4b57      	ldr	r3, [pc, #348]	; (119c <I2C_WriteBytes+0x244>)
    103e:	681b      	ldr	r3, [r3, #0]
    1040:	f003 0310 	and.w	r3, r3, #16
    1044:	2b00      	cmp	r3, #0
    1046:	bf0c      	ite	eq
    1048:	2301      	moveq	r3, #1
    104a:	2300      	movne	r3, #0
    104c:	b2db      	uxtb	r3, r3
    104e:	2b00      	cmp	r3, #0
    1050:	d007      	beq.n	1062 <I2C_WriteBytes+0x10a>
    1052:	4b52      	ldr	r3, [pc, #328]	; (119c <I2C_WriteBytes+0x244>)
    1054:	681b      	ldr	r3, [r3, #0]
    1056:	f023 0317 	bic.w	r3, r3, #23
    105a:	4a50      	ldr	r2, [pc, #320]	; (119c <I2C_WriteBytes+0x244>)
    105c:	f043 0304 	orr.w	r3, r3, #4
    1060:	6013      	str	r3, [r2, #0]
    1062:	214d      	movs	r1, #77	; 0x4d
    1064:	484a      	ldr	r0, [pc, #296]	; (1190 <I2C_WriteBytes+0x238>)
    1066:	f000 fd2f 	bl	1ac8 <__error__>
    106a:	2300      	movs	r3, #0
    106c:	77fb      	strb	r3, [r7, #31]
    106e:	e081      	b.n	1174 <I2C_WriteBytes+0x21c>
    1070:	69bb      	ldr	r3, [r7, #24]
    1072:	1c5a      	adds	r2, r3, #1
    1074:	61ba      	str	r2, [r7, #24]
    1076:	687a      	ldr	r2, [r7, #4]
    1078:	4413      	add	r3, r2
    107a:	781a      	ldrb	r2, [r3, #0]
    107c:	4b46      	ldr	r3, [pc, #280]	; (1198 <I2C_WriteBytes+0x240>)
    107e:	601a      	str	r2, [r3, #0]
    1080:	69ba      	ldr	r2, [r7, #24]
    1082:	68bb      	ldr	r3, [r7, #8]
    1084:	429a      	cmp	r2, r3
    1086:	d008      	beq.n	109a <I2C_WriteBytes+0x142>
    1088:	4b44      	ldr	r3, [pc, #272]	; (119c <I2C_WriteBytes+0x244>)
    108a:	681b      	ldr	r3, [r3, #0]
    108c:	f023 0317 	bic.w	r3, r3, #23
    1090:	4a42      	ldr	r2, [pc, #264]	; (119c <I2C_WriteBytes+0x244>)
    1092:	f043 0301 	orr.w	r3, r3, #1
    1096:	6013      	str	r3, [r2, #0]
    1098:	e033      	b.n	1102 <I2C_WriteBytes+0x1aa>
    109a:	4b40      	ldr	r3, [pc, #256]	; (119c <I2C_WriteBytes+0x244>)
    109c:	681b      	ldr	r3, [r3, #0]
    109e:	f023 0317 	bic.w	r3, r3, #23
    10a2:	4a3e      	ldr	r2, [pc, #248]	; (119c <I2C_WriteBytes+0x244>)
    10a4:	f043 0305 	orr.w	r3, r3, #5
    10a8:	6013      	str	r3, [r2, #0]
    10aa:	2301      	movs	r3, #1
    10ac:	617b      	str	r3, [r7, #20]
    10ae:	697b      	ldr	r3, [r7, #20]
    10b0:	3b01      	subs	r3, #1
    10b2:	617b      	str	r3, [r7, #20]
    10b4:	697b      	ldr	r3, [r7, #20]
    10b6:	2b00      	cmp	r3, #0
    10b8:	bf14      	ite	ne
    10ba:	2301      	movne	r3, #1
    10bc:	2300      	moveq	r3, #0
    10be:	b2db      	uxtb	r3, r3
    10c0:	2b00      	cmp	r3, #0
    10c2:	d000      	beq.n	10c6 <I2C_WriteBytes+0x16e>
    10c4:	e7f3      	b.n	10ae <I2C_WriteBytes+0x156>
    10c6:	4b35      	ldr	r3, [pc, #212]	; (119c <I2C_WriteBytes+0x244>)
    10c8:	681b      	ldr	r3, [r3, #0]
    10ca:	f003 0301 	and.w	r3, r3, #1
    10ce:	2b00      	cmp	r3, #0
    10d0:	bf14      	ite	ne
    10d2:	2301      	movne	r3, #1
    10d4:	2300      	moveq	r3, #0
    10d6:	b2db      	uxtb	r3, r3
    10d8:	2b00      	cmp	r3, #0
    10da:	d000      	beq.n	10de <I2C_WriteBytes+0x186>
    10dc:	e7f3      	b.n	10c6 <I2C_WriteBytes+0x16e>
    10de:	4b2f      	ldr	r3, [pc, #188]	; (119c <I2C_WriteBytes+0x244>)
    10e0:	681b      	ldr	r3, [r3, #0]
    10e2:	f003 0302 	and.w	r3, r3, #2
    10e6:	2b00      	cmp	r3, #0
    10e8:	bf14      	ite	ne
    10ea:	2301      	movne	r3, #1
    10ec:	2300      	moveq	r3, #0
    10ee:	b2db      	uxtb	r3, r3
    10f0:	2b00      	cmp	r3, #0
    10f2:	d006      	beq.n	1102 <I2C_WriteBytes+0x1aa>
    10f4:	215c      	movs	r1, #92	; 0x5c
    10f6:	4826      	ldr	r0, [pc, #152]	; (1190 <I2C_WriteBytes+0x238>)
    10f8:	f000 fce6 	bl	1ac8 <__error__>
    10fc:	2300      	movs	r3, #0
    10fe:	77fb      	strb	r3, [r7, #31]
    1100:	e038      	b.n	1174 <I2C_WriteBytes+0x21c>
    1102:	69ba      	ldr	r2, [r7, #24]
    1104:	68bb      	ldr	r3, [r7, #8]
    1106:	429a      	cmp	r2, r3
    1108:	d034      	beq.n	1174 <I2C_WriteBytes+0x21c>
    110a:	e77b      	b.n	1004 <I2C_WriteBytes+0xac>
    110c:	2301      	movs	r3, #1
    110e:	617b      	str	r3, [r7, #20]
    1110:	697b      	ldr	r3, [r7, #20]
    1112:	3b01      	subs	r3, #1
    1114:	617b      	str	r3, [r7, #20]
    1116:	697b      	ldr	r3, [r7, #20]
    1118:	2b00      	cmp	r3, #0
    111a:	bf14      	ite	ne
    111c:	2301      	movne	r3, #1
    111e:	2300      	moveq	r3, #0
    1120:	b2db      	uxtb	r3, r3
    1122:	2b00      	cmp	r3, #0
    1124:	d000      	beq.n	1128 <I2C_WriteBytes+0x1d0>
    1126:	e7f3      	b.n	1110 <I2C_WriteBytes+0x1b8>
    1128:	4b1c      	ldr	r3, [pc, #112]	; (119c <I2C_WriteBytes+0x244>)
    112a:	681b      	ldr	r3, [r3, #0]
    112c:	f003 0301 	and.w	r3, r3, #1
    1130:	2b00      	cmp	r3, #0
    1132:	bf14      	ite	ne
    1134:	2301      	movne	r3, #1
    1136:	2300      	moveq	r3, #0
    1138:	b2db      	uxtb	r3, r3
    113a:	2b00      	cmp	r3, #0
    113c:	d000      	beq.n	1140 <I2C_WriteBytes+0x1e8>
    113e:	e7f3      	b.n	1128 <I2C_WriteBytes+0x1d0>
    1140:	4b16      	ldr	r3, [pc, #88]	; (119c <I2C_WriteBytes+0x244>)
    1142:	681b      	ldr	r3, [r3, #0]
    1144:	f003 0302 	and.w	r3, r3, #2
    1148:	2b00      	cmp	r3, #0
    114a:	bf14      	ite	ne
    114c:	2301      	movne	r3, #1
    114e:	2300      	moveq	r3, #0
    1150:	b2db      	uxtb	r3, r3
    1152:	2b00      	cmp	r3, #0
    1154:	d006      	beq.n	1164 <I2C_WriteBytes+0x20c>
    1156:	2300      	movs	r3, #0
    1158:	77fb      	strb	r3, [r7, #31]
    115a:	2169      	movs	r1, #105	; 0x69
    115c:	480c      	ldr	r0, [pc, #48]	; (1190 <I2C_WriteBytes+0x238>)
    115e:	f000 fcb3 	bl	1ac8 <__error__>
    1162:	e007      	b.n	1174 <I2C_WriteBytes+0x21c>
    1164:	4b0d      	ldr	r3, [pc, #52]	; (119c <I2C_WriteBytes+0x244>)
    1166:	681b      	ldr	r3, [r3, #0]
    1168:	f023 0317 	bic.w	r3, r3, #23
    116c:	4a0b      	ldr	r2, [pc, #44]	; (119c <I2C_WriteBytes+0x244>)
    116e:	f043 0304 	orr.w	r3, r3, #4
    1172:	6013      	str	r3, [r2, #0]
    1174:	4b09      	ldr	r3, [pc, #36]	; (119c <I2C_WriteBytes+0x244>)
    1176:	681b      	ldr	r3, [r3, #0]
    1178:	f023 0317 	bic.w	r3, r3, #23
    117c:	4a07      	ldr	r2, [pc, #28]	; (119c <I2C_WriteBytes+0x244>)
    117e:	f043 0304 	orr.w	r3, r3, #4
    1182:	6013      	str	r3, [r2, #0]
    1184:	7ffb      	ldrb	r3, [r7, #31]
    1186:	4618      	mov	r0, r3
    1188:	3720      	adds	r7, #32
    118a:	46bd      	mov	sp, r7
    118c:	bd80      	pop	{r7, pc}
    118e:	bf00      	nop
    1190:	00001ea0 	andeq	r1, r0, r0, lsr #29
    1194:	40020000 	andmi	r0, r2, r0
    1198:	40020008 	andmi	r0, r2, r8
    119c:	40020004 	andmi	r0, r2, r4

000011a0 <I2C_ReadBytes>:
    11a0:	b580      	push	{r7, lr}
    11a2:	b088      	sub	sp, #32
    11a4:	af00      	add	r7, sp, #0
    11a6:	60f8      	str	r0, [r7, #12]
    11a8:	60b9      	str	r1, [r7, #8]
    11aa:	607a      	str	r2, [r7, #4]
    11ac:	2301      	movs	r3, #1
    11ae:	77fb      	strb	r3, [r7, #31]
    11b0:	2300      	movs	r3, #0
    11b2:	61bb      	str	r3, [r7, #24]
    11b4:	2301      	movs	r3, #1
    11b6:	617b      	str	r3, [r7, #20]
    11b8:	68fb      	ldr	r3, [r7, #12]
    11ba:	2b7f      	cmp	r3, #127	; 0x7f
    11bc:	d902      	bls.n	11c4 <I2C_ReadBytes+0x24>
    11be:	2300      	movs	r3, #0
    11c0:	77fb      	strb	r3, [r7, #31]
    11c2:	e10c      	b.n	13de <I2C_ReadBytes+0x23e>
    11c4:	68fb      	ldr	r3, [r7, #12]
    11c6:	005b      	lsls	r3, r3, #1
    11c8:	4a8b      	ldr	r2, [pc, #556]	; (13f8 <I2C_ReadBytes+0x258>)
    11ca:	f043 0301 	orr.w	r3, r3, #1
    11ce:	6013      	str	r3, [r2, #0]
    11d0:	4b8a      	ldr	r3, [pc, #552]	; (13fc <I2C_ReadBytes+0x25c>)
    11d2:	681b      	ldr	r3, [r3, #0]
    11d4:	f003 0340 	and.w	r3, r3, #64	; 0x40
    11d8:	2b00      	cmp	r3, #0
    11da:	d004      	beq.n	11e6 <I2C_ReadBytes+0x46>
    11dc:	697b      	ldr	r3, [r7, #20]
    11de:	2b00      	cmp	r3, #0
    11e0:	d001      	beq.n	11e6 <I2C_ReadBytes+0x46>
    11e2:	2301      	movs	r3, #1
    11e4:	e000      	b.n	11e8 <I2C_ReadBytes+0x48>
    11e6:	2300      	movs	r3, #0
    11e8:	2b00      	cmp	r3, #0
    11ea:	d000      	beq.n	11ee <I2C_ReadBytes+0x4e>
    11ec:	e7f0      	b.n	11d0 <I2C_ReadBytes+0x30>
    11ee:	697b      	ldr	r3, [r7, #20]
    11f0:	2b00      	cmp	r3, #0
    11f2:	d106      	bne.n	1202 <I2C_ReadBytes+0x62>
    11f4:	2184      	movs	r1, #132	; 0x84
    11f6:	4882      	ldr	r0, [pc, #520]	; (1400 <I2C_ReadBytes+0x260>)
    11f8:	f000 fc66 	bl	1ac8 <__error__>
    11fc:	2300      	movs	r3, #0
    11fe:	77fb      	strb	r3, [r7, #31]
    1200:	e0ed      	b.n	13de <I2C_ReadBytes+0x23e>
    1202:	68bb      	ldr	r3, [r7, #8]
    1204:	2b01      	cmp	r3, #1
    1206:	d108      	bne.n	121a <I2C_ReadBytes+0x7a>
    1208:	4b7c      	ldr	r3, [pc, #496]	; (13fc <I2C_ReadBytes+0x25c>)
    120a:	681b      	ldr	r3, [r3, #0]
    120c:	f023 031f 	bic.w	r3, r3, #31
    1210:	4a7a      	ldr	r2, [pc, #488]	; (13fc <I2C_ReadBytes+0x25c>)
    1212:	f043 0303 	orr.w	r3, r3, #3
    1216:	6013      	str	r3, [r2, #0]
    1218:	e007      	b.n	122a <I2C_ReadBytes+0x8a>
    121a:	4b78      	ldr	r3, [pc, #480]	; (13fc <I2C_ReadBytes+0x25c>)
    121c:	681b      	ldr	r3, [r3, #0]
    121e:	f023 031f 	bic.w	r3, r3, #31
    1222:	4a76      	ldr	r2, [pc, #472]	; (13fc <I2C_ReadBytes+0x25c>)
    1224:	f043 030b 	orr.w	r3, r3, #11
    1228:	6013      	str	r3, [r2, #0]
    122a:	68bb      	ldr	r3, [r7, #8]
    122c:	2b01      	cmp	r3, #1
    122e:	f000 8099 	beq.w	1364 <I2C_ReadBytes+0x1c4>
    1232:	2301      	movs	r3, #1
    1234:	617b      	str	r3, [r7, #20]
    1236:	697b      	ldr	r3, [r7, #20]
    1238:	3b01      	subs	r3, #1
    123a:	617b      	str	r3, [r7, #20]
    123c:	697b      	ldr	r3, [r7, #20]
    123e:	2b00      	cmp	r3, #0
    1240:	bf14      	ite	ne
    1242:	2301      	movne	r3, #1
    1244:	2300      	moveq	r3, #0
    1246:	b2db      	uxtb	r3, r3
    1248:	2b00      	cmp	r3, #0
    124a:	d000      	beq.n	124e <I2C_ReadBytes+0xae>
    124c:	e7f3      	b.n	1236 <I2C_ReadBytes+0x96>
    124e:	4b6b      	ldr	r3, [pc, #428]	; (13fc <I2C_ReadBytes+0x25c>)
    1250:	681b      	ldr	r3, [r3, #0]
    1252:	f003 0301 	and.w	r3, r3, #1
    1256:	2b00      	cmp	r3, #0
    1258:	bf14      	ite	ne
    125a:	2301      	movne	r3, #1
    125c:	2300      	moveq	r3, #0
    125e:	b2db      	uxtb	r3, r3
    1260:	2b00      	cmp	r3, #0
    1262:	d000      	beq.n	1266 <I2C_ReadBytes+0xc6>
    1264:	e7f3      	b.n	124e <I2C_ReadBytes+0xae>
    1266:	4b65      	ldr	r3, [pc, #404]	; (13fc <I2C_ReadBytes+0x25c>)
    1268:	681b      	ldr	r3, [r3, #0]
    126a:	f003 0302 	and.w	r3, r3, #2
    126e:	2b00      	cmp	r3, #0
    1270:	bf14      	ite	ne
    1272:	2301      	movne	r3, #1
    1274:	2300      	moveq	r3, #0
    1276:	b2db      	uxtb	r3, r3
    1278:	2b00      	cmp	r3, #0
    127a:	d019      	beq.n	12b0 <I2C_ReadBytes+0x110>
    127c:	4b5f      	ldr	r3, [pc, #380]	; (13fc <I2C_ReadBytes+0x25c>)
    127e:	681b      	ldr	r3, [r3, #0]
    1280:	f003 0310 	and.w	r3, r3, #16
    1284:	2b00      	cmp	r3, #0
    1286:	bf0c      	ite	eq
    1288:	2301      	moveq	r3, #1
    128a:	2300      	movne	r3, #0
    128c:	b2db      	uxtb	r3, r3
    128e:	2b00      	cmp	r3, #0
    1290:	d007      	beq.n	12a2 <I2C_ReadBytes+0x102>
    1292:	4b5a      	ldr	r3, [pc, #360]	; (13fc <I2C_ReadBytes+0x25c>)
    1294:	681b      	ldr	r3, [r3, #0]
    1296:	f023 0317 	bic.w	r3, r3, #23
    129a:	4a58      	ldr	r2, [pc, #352]	; (13fc <I2C_ReadBytes+0x25c>)
    129c:	f043 0304 	orr.w	r3, r3, #4
    12a0:	6013      	str	r3, [r2, #0]
    12a2:	219a      	movs	r1, #154	; 0x9a
    12a4:	4856      	ldr	r0, [pc, #344]	; (1400 <I2C_ReadBytes+0x260>)
    12a6:	f000 fc0f 	bl	1ac8 <__error__>
    12aa:	2300      	movs	r3, #0
    12ac:	77fb      	strb	r3, [r7, #31]
    12ae:	e096      	b.n	13de <I2C_ReadBytes+0x23e>
    12b0:	4b54      	ldr	r3, [pc, #336]	; (1404 <I2C_ReadBytes+0x264>)
    12b2:	6819      	ldr	r1, [r3, #0]
    12b4:	69bb      	ldr	r3, [r7, #24]
    12b6:	1c5a      	adds	r2, r3, #1
    12b8:	61ba      	str	r2, [r7, #24]
    12ba:	687a      	ldr	r2, [r7, #4]
    12bc:	4413      	add	r3, r2
    12be:	b2ca      	uxtb	r2, r1
    12c0:	701a      	strb	r2, [r3, #0]
    12c2:	68bb      	ldr	r3, [r7, #8]
    12c4:	3b01      	subs	r3, #1
    12c6:	69ba      	ldr	r2, [r7, #24]
    12c8:	429a      	cmp	r2, r3
    12ca:	d13e      	bne.n	134a <I2C_ReadBytes+0x1aa>
    12cc:	4b4b      	ldr	r3, [pc, #300]	; (13fc <I2C_ReadBytes+0x25c>)
    12ce:	681b      	ldr	r3, [r3, #0]
    12d0:	f023 031f 	bic.w	r3, r3, #31
    12d4:	4a49      	ldr	r2, [pc, #292]	; (13fc <I2C_ReadBytes+0x25c>)
    12d6:	f043 0305 	orr.w	r3, r3, #5
    12da:	6013      	str	r3, [r2, #0]
    12dc:	f44f 5300 	mov.w	r3, #8192	; 0x2000
    12e0:	617b      	str	r3, [r7, #20]
    12e2:	697b      	ldr	r3, [r7, #20]
    12e4:	3b01      	subs	r3, #1
    12e6:	617b      	str	r3, [r7, #20]
    12e8:	697b      	ldr	r3, [r7, #20]
    12ea:	2b00      	cmp	r3, #0
    12ec:	bf14      	ite	ne
    12ee:	2301      	movne	r3, #1
    12f0:	2300      	moveq	r3, #0
    12f2:	b2db      	uxtb	r3, r3
    12f4:	2b00      	cmp	r3, #0
    12f6:	d000      	beq.n	12fa <I2C_ReadBytes+0x15a>
    12f8:	e7f3      	b.n	12e2 <I2C_ReadBytes+0x142>
    12fa:	4b40      	ldr	r3, [pc, #256]	; (13fc <I2C_ReadBytes+0x25c>)
    12fc:	681b      	ldr	r3, [r3, #0]
    12fe:	f003 0301 	and.w	r3, r3, #1
    1302:	2b00      	cmp	r3, #0
    1304:	bf14      	ite	ne
    1306:	2301      	movne	r3, #1
    1308:	2300      	moveq	r3, #0
    130a:	b2db      	uxtb	r3, r3
    130c:	2b00      	cmp	r3, #0
    130e:	d000      	beq.n	1312 <I2C_ReadBytes+0x172>
    1310:	e7f3      	b.n	12fa <I2C_ReadBytes+0x15a>
    1312:	4b3a      	ldr	r3, [pc, #232]	; (13fc <I2C_ReadBytes+0x25c>)
    1314:	681b      	ldr	r3, [r3, #0]
    1316:	f003 0302 	and.w	r3, r3, #2
    131a:	2b00      	cmp	r3, #0
    131c:	bf14      	ite	ne
    131e:	2301      	movne	r3, #1
    1320:	2300      	moveq	r3, #0
    1322:	b2db      	uxtb	r3, r3
    1324:	2b00      	cmp	r3, #0
    1326:	d006      	beq.n	1336 <I2C_ReadBytes+0x196>
    1328:	21a6      	movs	r1, #166	; 0xa6
    132a:	4835      	ldr	r0, [pc, #212]	; (1400 <I2C_ReadBytes+0x260>)
    132c:	f000 fbcc 	bl	1ac8 <__error__>
    1330:	2300      	movs	r3, #0
    1332:	77fb      	strb	r3, [r7, #31]
    1334:	e053      	b.n	13de <I2C_ReadBytes+0x23e>
    1336:	4b33      	ldr	r3, [pc, #204]	; (1404 <I2C_ReadBytes+0x264>)
    1338:	6819      	ldr	r1, [r3, #0]
    133a:	69bb      	ldr	r3, [r7, #24]
    133c:	1c5a      	adds	r2, r3, #1
    133e:	61ba      	str	r2, [r7, #24]
    1340:	687a      	ldr	r2, [r7, #4]
    1342:	4413      	add	r3, r2
    1344:	b2ca      	uxtb	r2, r1
    1346:	701a      	strb	r2, [r3, #0]
    1348:	e007      	b.n	135a <I2C_ReadBytes+0x1ba>
    134a:	4b2c      	ldr	r3, [pc, #176]	; (13fc <I2C_ReadBytes+0x25c>)
    134c:	681b      	ldr	r3, [r3, #0]
    134e:	f023 031f 	bic.w	r3, r3, #31
    1352:	4a2a      	ldr	r2, [pc, #168]	; (13fc <I2C_ReadBytes+0x25c>)
    1354:	f043 0309 	orr.w	r3, r3, #9
    1358:	6013      	str	r3, [r2, #0]
    135a:	69ba      	ldr	r2, [r7, #24]
    135c:	68bb      	ldr	r3, [r7, #8]
    135e:	429a      	cmp	r2, r3
    1360:	d03d      	beq.n	13de <I2C_ReadBytes+0x23e>
    1362:	e766      	b.n	1232 <I2C_ReadBytes+0x92>
    1364:	2301      	movs	r3, #1
    1366:	617b      	str	r3, [r7, #20]
    1368:	697b      	ldr	r3, [r7, #20]
    136a:	3b01      	subs	r3, #1
    136c:	617b      	str	r3, [r7, #20]
    136e:	697b      	ldr	r3, [r7, #20]
    1370:	2b00      	cmp	r3, #0
    1372:	bf14      	ite	ne
    1374:	2301      	movne	r3, #1
    1376:	2300      	moveq	r3, #0
    1378:	b2db      	uxtb	r3, r3
    137a:	2b00      	cmp	r3, #0
    137c:	d000      	beq.n	1380 <I2C_ReadBytes+0x1e0>
    137e:	e7f3      	b.n	1368 <I2C_ReadBytes+0x1c8>
    1380:	4b1e      	ldr	r3, [pc, #120]	; (13fc <I2C_ReadBytes+0x25c>)
    1382:	681b      	ldr	r3, [r3, #0]
    1384:	f003 0301 	and.w	r3, r3, #1
    1388:	2b00      	cmp	r3, #0
    138a:	bf14      	ite	ne
    138c:	2301      	movne	r3, #1
    138e:	2300      	moveq	r3, #0
    1390:	b2db      	uxtb	r3, r3
    1392:	2b00      	cmp	r3, #0
    1394:	d000      	beq.n	1398 <I2C_ReadBytes+0x1f8>
    1396:	e7f3      	b.n	1380 <I2C_ReadBytes+0x1e0>
    1398:	4b18      	ldr	r3, [pc, #96]	; (13fc <I2C_ReadBytes+0x25c>)
    139a:	681b      	ldr	r3, [r3, #0]
    139c:	f003 0302 	and.w	r3, r3, #2
    13a0:	2b00      	cmp	r3, #0
    13a2:	bf14      	ite	ne
    13a4:	2301      	movne	r3, #1
    13a6:	2300      	moveq	r3, #0
    13a8:	b2db      	uxtb	r3, r3
    13aa:	2b00      	cmp	r3, #0
    13ac:	d006      	beq.n	13bc <I2C_ReadBytes+0x21c>
    13ae:	21b7      	movs	r1, #183	; 0xb7
    13b0:	4813      	ldr	r0, [pc, #76]	; (1400 <I2C_ReadBytes+0x260>)
    13b2:	f000 fb89 	bl	1ac8 <__error__>
    13b6:	2300      	movs	r3, #0
    13b8:	77fb      	strb	r3, [r7, #31]
    13ba:	e010      	b.n	13de <I2C_ReadBytes+0x23e>
    13bc:	4b0f      	ldr	r3, [pc, #60]	; (13fc <I2C_ReadBytes+0x25c>)
    13be:	681b      	ldr	r3, [r3, #0]
    13c0:	f023 031f 	bic.w	r3, r3, #31
    13c4:	4a0d      	ldr	r2, [pc, #52]	; (13fc <I2C_ReadBytes+0x25c>)
    13c6:	f043 0304 	orr.w	r3, r3, #4
    13ca:	6013      	str	r3, [r2, #0]
    13cc:	4b0d      	ldr	r3, [pc, #52]	; (1404 <I2C_ReadBytes+0x264>)
    13ce:	6819      	ldr	r1, [r3, #0]
    13d0:	69bb      	ldr	r3, [r7, #24]
    13d2:	1c5a      	adds	r2, r3, #1
    13d4:	61ba      	str	r2, [r7, #24]
    13d6:	687a      	ldr	r2, [r7, #4]
    13d8:	4413      	add	r3, r2
    13da:	b2ca      	uxtb	r2, r1
    13dc:	701a      	strb	r2, [r3, #0]
    13de:	4b07      	ldr	r3, [pc, #28]	; (13fc <I2C_ReadBytes+0x25c>)
    13e0:	681b      	ldr	r3, [r3, #0]
    13e2:	f023 031f 	bic.w	r3, r3, #31
    13e6:	4a05      	ldr	r2, [pc, #20]	; (13fc <I2C_ReadBytes+0x25c>)
    13e8:	f043 0304 	orr.w	r3, r3, #4
    13ec:	6013      	str	r3, [r2, #0]
    13ee:	7ffb      	ldrb	r3, [r7, #31]
    13f0:	4618      	mov	r0, r3
    13f2:	3720      	adds	r7, #32
    13f4:	46bd      	mov	sp, r7
    13f6:	bd80      	pop	{r7, pc}
    13f8:	40020000 	andmi	r0, r2, r0
    13fc:	40020004 	andmi	r0, r2, r4
    1400:	00001ea0 	andeq	r1, r0, r0, lsr #29
    1404:	40020008 	andmi	r0, r2, r8

00001408 <GET_SHIFTBITS_MASK>:
    1408:	b480      	push	{r7}
    140a:	b085      	sub	sp, #20
    140c:	af00      	add	r7, sp, #0
    140e:	6078      	str	r0, [r7, #4]
    1410:	687b      	ldr	r3, [r7, #4]
    1412:	60fb      	str	r3, [r7, #12]
    1414:	68fb      	ldr	r3, [r7, #12]
    1416:	2b00      	cmp	r3, #0
    1418:	d009      	beq.n	142e <GET_SHIFTBITS_MASK+0x26>
    141a:	68fb      	ldr	r3, [r7, #12]
    141c:	f003 0301 	and.w	r3, r3, #1
    1420:	2b00      	cmp	r3, #0
    1422:	d103      	bne.n	142c <GET_SHIFTBITS_MASK+0x24>
    1424:	68fb      	ldr	r3, [r7, #12]
    1426:	085b      	lsrs	r3, r3, #1
    1428:	60fb      	str	r3, [r7, #12]
    142a:	e7f3      	b.n	1414 <GET_SHIFTBITS_MASK+0xc>
    142c:	bf00      	nop
    142e:	68fb      	ldr	r3, [r7, #12]
    1430:	4618      	mov	r0, r3
    1432:	3714      	adds	r7, #20
    1434:	46bd      	mov	sp, r7
    1436:	f85d 7b04 	ldr.w	r7, [sp], #4
    143a:	4770      	bx	lr

0000143c <GET_MASK_POS>:
    143c:	b480      	push	{r7}
    143e:	b085      	sub	sp, #20
    1440:	af00      	add	r7, sp, #0
    1442:	6078      	str	r0, [r7, #4]
    1444:	2300      	movs	r3, #0
    1446:	60fb      	str	r3, [r7, #12]
    1448:	687b      	ldr	r3, [r7, #4]
    144a:	60bb      	str	r3, [r7, #8]
    144c:	68bb      	ldr	r3, [r7, #8]
    144e:	2b00      	cmp	r3, #0
    1450:	d00c      	beq.n	146c <GET_MASK_POS+0x30>
    1452:	68bb      	ldr	r3, [r7, #8]
    1454:	f003 0301 	and.w	r3, r3, #1
    1458:	2b00      	cmp	r3, #0
    145a:	d106      	bne.n	146a <GET_MASK_POS+0x2e>
    145c:	68fb      	ldr	r3, [r7, #12]
    145e:	3301      	adds	r3, #1
    1460:	60fb      	str	r3, [r7, #12]
    1462:	68bb      	ldr	r3, [r7, #8]
    1464:	085b      	lsrs	r3, r3, #1
    1466:	60bb      	str	r3, [r7, #8]
    1468:	e7f0      	b.n	144c <GET_MASK_POS+0x10>
    146a:	bf00      	nop
    146c:	68fb      	ldr	r3, [r7, #12]
    146e:	4618      	mov	r0, r3
    1470:	3714      	adds	r7, #20
    1472:	46bd      	mov	sp, r7
    1474:	f85d 7b04 	ldr.w	r7, [sp], #4
    1478:	4770      	bx	lr
	...

0000147c <PAD_SysClockSet>:
    147c:	b5b0      	push	{r4, r5, r7, lr}
    147e:	b082      	sub	sp, #8
    1480:	af00      	add	r7, sp, #0
    1482:	2300      	movs	r3, #0
    1484:	607b      	str	r3, [r7, #4]
    1486:	4b97      	ldr	r3, [pc, #604]	; (16e4 <PAD_SysClockSet+0x268>)
    1488:	681b      	ldr	r3, [r3, #0]
    148a:	4a96      	ldr	r2, [pc, #600]	; (16e4 <PAD_SysClockSet+0x268>)
    148c:	f043 0340 	orr.w	r3, r3, #64	; 0x40
    1490:	6013      	str	r3, [r2, #0]
    1492:	4b95      	ldr	r3, [pc, #596]	; (16e8 <PAD_SysClockSet+0x26c>)
    1494:	681b      	ldr	r3, [r3, #0]
    1496:	f423 6400 	bic.w	r4, r3, #2048	; 0x800
    149a:	f44f 6000 	mov.w	r0, #2048	; 0x800
    149e:	f7ff ffb3 	bl	1408 <GET_SHIFTBITS_MASK>
    14a2:	4603      	mov	r3, r0
    14a4:	f003 0501 	and.w	r5, r3, #1
    14a8:	f44f 6000 	mov.w	r0, #2048	; 0x800
    14ac:	f7ff ffc6 	bl	143c <GET_MASK_POS>
    14b0:	4603      	mov	r3, r0
    14b2:	fa05 f303 	lsl.w	r3, r5, r3
    14b6:	4a8c      	ldr	r2, [pc, #560]	; (16e8 <PAD_SysClockSet+0x26c>)
    14b8:	4323      	orrs	r3, r4
    14ba:	6013      	str	r3, [r2, #0]
    14bc:	4b8b      	ldr	r3, [pc, #556]	; (16ec <PAD_SysClockSet+0x270>)
    14be:	681b      	ldr	r3, [r3, #0]
    14c0:	f423 6400 	bic.w	r4, r3, #2048	; 0x800
    14c4:	f44f 6000 	mov.w	r0, #2048	; 0x800
    14c8:	f7ff ff9e 	bl	1408 <GET_SHIFTBITS_MASK>
    14cc:	4603      	mov	r3, r0
    14ce:	f003 0501 	and.w	r5, r3, #1
    14d2:	f44f 6000 	mov.w	r0, #2048	; 0x800
    14d6:	f7ff ffb1 	bl	143c <GET_MASK_POS>
    14da:	4603      	mov	r3, r0
    14dc:	fa05 f303 	lsl.w	r3, r5, r3
    14e0:	4a82      	ldr	r2, [pc, #520]	; (16ec <PAD_SysClockSet+0x270>)
    14e2:	4323      	orrs	r3, r4
    14e4:	6013      	str	r3, [r2, #0]
    14e6:	f44f 0080 	mov.w	r0, #4194304	; 0x400000
    14ea:	f7ff ff8d 	bl	1408 <GET_SHIFTBITS_MASK>
    14ee:	f44f 0080 	mov.w	r0, #4194304	; 0x400000
    14f2:	f7ff ffa3 	bl	143c <GET_MASK_POS>
    14f6:	4b7c      	ldr	r3, [pc, #496]	; (16e8 <PAD_SysClockSet+0x26c>)
    14f8:	681b      	ldr	r3, [r3, #0]
    14fa:	4a7b      	ldr	r2, [pc, #492]	; (16e8 <PAD_SysClockSet+0x26c>)
    14fc:	f423 0380 	bic.w	r3, r3, #4194304	; 0x400000
    1500:	6013      	str	r3, [r2, #0]
    1502:	4b7a      	ldr	r3, [pc, #488]	; (16ec <PAD_SysClockSet+0x270>)
    1504:	681b      	ldr	r3, [r3, #0]
    1506:	f023 4400 	bic.w	r4, r3, #2147483648	; 0x80000000
    150a:	f04f 4000 	mov.w	r0, #2147483648	; 0x80000000
    150e:	f7ff ff7b 	bl	1408 <GET_SHIFTBITS_MASK>
    1512:	4603      	mov	r3, r0
    1514:	f003 0501 	and.w	r5, r3, #1
    1518:	f04f 4000 	mov.w	r0, #2147483648	; 0x80000000
    151c:	f7ff ff8e 	bl	143c <GET_MASK_POS>
    1520:	4603      	mov	r3, r0
    1522:	fa05 f303 	lsl.w	r3, r5, r3
    1526:	4a71      	ldr	r2, [pc, #452]	; (16ec <PAD_SysClockSet+0x270>)
    1528:	4323      	orrs	r3, r4
    152a:	6013      	str	r3, [r2, #0]
    152c:	4b6e      	ldr	r3, [pc, #440]	; (16e8 <PAD_SysClockSet+0x26c>)
    152e:	681b      	ldr	r3, [r3, #0]
    1530:	f423 64f8 	bic.w	r4, r3, #1984	; 0x7c0
    1534:	f44f 60f8 	mov.w	r0, #1984	; 0x7c0
    1538:	f7ff ff66 	bl	1408 <GET_SHIFTBITS_MASK>
    153c:	4603      	mov	r3, r0
    153e:	f003 0515 	and.w	r5, r3, #21
    1542:	f44f 60f8 	mov.w	r0, #1984	; 0x7c0
    1546:	f7ff ff79 	bl	143c <GET_MASK_POS>
    154a:	4603      	mov	r3, r0
    154c:	fa05 f303 	lsl.w	r3, r5, r3
    1550:	4a65      	ldr	r2, [pc, #404]	; (16e8 <PAD_SysClockSet+0x26c>)
    1552:	4323      	orrs	r3, r4
    1554:	6013      	str	r3, [r2, #0]
    1556:	2030      	movs	r0, #48	; 0x30
    1558:	f7ff ff56 	bl	1408 <GET_SHIFTBITS_MASK>
    155c:	2030      	movs	r0, #48	; 0x30
    155e:	f7ff ff6d 	bl	143c <GET_MASK_POS>
    1562:	4b61      	ldr	r3, [pc, #388]	; (16e8 <PAD_SysClockSet+0x26c>)
    1564:	681b      	ldr	r3, [r3, #0]
    1566:	4a60      	ldr	r2, [pc, #384]	; (16e8 <PAD_SysClockSet+0x26c>)
    1568:	f023 0330 	bic.w	r3, r3, #48	; 0x30
    156c:	6013      	str	r3, [r2, #0]
    156e:	2070      	movs	r0, #112	; 0x70
    1570:	f7ff ff4a 	bl	1408 <GET_SHIFTBITS_MASK>
    1574:	2070      	movs	r0, #112	; 0x70
    1576:	f7ff ff61 	bl	143c <GET_MASK_POS>
    157a:	4b5c      	ldr	r3, [pc, #368]	; (16ec <PAD_SysClockSet+0x270>)
    157c:	681b      	ldr	r3, [r3, #0]
    157e:	4a5b      	ldr	r2, [pc, #364]	; (16ec <PAD_SysClockSet+0x270>)
    1580:	f023 0370 	bic.w	r3, r3, #112	; 0x70
    1584:	6013      	str	r3, [r2, #0]
    1586:	f44f 5000 	mov.w	r0, #8192	; 0x2000
    158a:	f7ff ff3d 	bl	1408 <GET_SHIFTBITS_MASK>
    158e:	f44f 5000 	mov.w	r0, #8192	; 0x2000
    1592:	f7ff ff53 	bl	143c <GET_MASK_POS>
    1596:	4b54      	ldr	r3, [pc, #336]	; (16e8 <PAD_SysClockSet+0x26c>)
    1598:	681b      	ldr	r3, [r3, #0]
    159a:	4a53      	ldr	r2, [pc, #332]	; (16e8 <PAD_SysClockSet+0x26c>)
    159c:	f423 5300 	bic.w	r3, r3, #8192	; 0x2000
    15a0:	6013      	str	r3, [r2, #0]
    15a2:	f44f 5000 	mov.w	r0, #8192	; 0x2000
    15a6:	f7ff ff2f 	bl	1408 <GET_SHIFTBITS_MASK>
    15aa:	f44f 5000 	mov.w	r0, #8192	; 0x2000
    15ae:	f7ff ff45 	bl	143c <GET_MASK_POS>
    15b2:	4b4e      	ldr	r3, [pc, #312]	; (16ec <PAD_SysClockSet+0x270>)
    15b4:	681b      	ldr	r3, [r3, #0]
    15b6:	4a4d      	ldr	r2, [pc, #308]	; (16ec <PAD_SysClockSet+0x270>)
    15b8:	f423 5300 	bic.w	r3, r3, #8192	; 0x2000
    15bc:	6013      	str	r3, [r2, #0]
    15be:	4b4a      	ldr	r3, [pc, #296]	; (16e8 <PAD_SysClockSet+0x26c>)
    15c0:	681b      	ldr	r3, [r3, #0]
    15c2:	f023 64f0 	bic.w	r4, r3, #125829120	; 0x7800000
    15c6:	f04f 60f0 	mov.w	r0, #125829120	; 0x7800000
    15ca:	f7ff ff1d 	bl	1408 <GET_SHIFTBITS_MASK>
    15ce:	4603      	mov	r3, r0
    15d0:	f003 0503 	and.w	r5, r3, #3
    15d4:	f04f 60f0 	mov.w	r0, #125829120	; 0x7800000
    15d8:	f7ff ff30 	bl	143c <GET_MASK_POS>
    15dc:	4603      	mov	r3, r0
    15de:	fa05 f303 	lsl.w	r3, r5, r3
    15e2:	4a41      	ldr	r2, [pc, #260]	; (16e8 <PAD_SysClockSet+0x26c>)
    15e4:	4323      	orrs	r3, r4
    15e6:	6013      	str	r3, [r2, #0]
    15e8:	4b40      	ldr	r3, [pc, #256]	; (16ec <PAD_SysClockSet+0x270>)
    15ea:	681b      	ldr	r3, [r3, #0]
    15ec:	f023 4480 	bic.w	r4, r3, #1073741824	; 0x40000000
    15f0:	f04f 4080 	mov.w	r0, #1073741824	; 0x40000000
    15f4:	f7ff ff08 	bl	1408 <GET_SHIFTBITS_MASK>
    15f8:	4603      	mov	r3, r0
    15fa:	f003 0501 	and.w	r5, r3, #1
    15fe:	f04f 4080 	mov.w	r0, #1073741824	; 0x40000000
    1602:	f7ff ff1b 	bl	143c <GET_MASK_POS>
    1606:	4603      	mov	r3, r0
    1608:	fa05 f303 	lsl.w	r3, r5, r3
    160c:	4a37      	ldr	r2, [pc, #220]	; (16ec <PAD_SysClockSet+0x270>)
    160e:	4323      	orrs	r3, r4
    1610:	6013      	str	r3, [r2, #0]
    1612:	4b36      	ldr	r3, [pc, #216]	; (16ec <PAD_SysClockSet+0x270>)
    1614:	681b      	ldr	r3, [r3, #0]
    1616:	f023 54fc 	bic.w	r4, r3, #528482304	; 0x1f800000
    161a:	f04f 50fc 	mov.w	r0, #528482304	; 0x1f800000
    161e:	f7ff fef3 	bl	1408 <GET_SHIFTBITS_MASK>
    1622:	4603      	mov	r3, r0
    1624:	f003 0502 	and.w	r5, r3, #2
    1628:	f04f 50fc 	mov.w	r0, #528482304	; 0x1f800000
    162c:	f7ff ff06 	bl	143c <GET_MASK_POS>
    1630:	4603      	mov	r3, r0
    1632:	fa05 f303 	lsl.w	r3, r5, r3
    1636:	4a2d      	ldr	r2, [pc, #180]	; (16ec <PAD_SysClockSet+0x270>)
    1638:	4323      	orrs	r3, r4
    163a:	6013      	str	r3, [r2, #0]
    163c:	f44f 0080 	mov.w	r0, #4194304	; 0x400000
    1640:	f7ff fee2 	bl	1408 <GET_SHIFTBITS_MASK>
    1644:	f44f 0080 	mov.w	r0, #4194304	; 0x400000
    1648:	f7ff fef8 	bl	143c <GET_MASK_POS>
    164c:	4b27      	ldr	r3, [pc, #156]	; (16ec <PAD_SysClockSet+0x270>)
    164e:	681b      	ldr	r3, [r3, #0]
    1650:	4a26      	ldr	r2, [pc, #152]	; (16ec <PAD_SysClockSet+0x270>)
    1652:	f423 0380 	bic.w	r3, r3, #4194304	; 0x400000
    1656:	6013      	str	r3, [r2, #0]
    1658:	4b23      	ldr	r3, [pc, #140]	; (16e8 <PAD_SysClockSet+0x26c>)
    165a:	681b      	ldr	r3, [r3, #0]
    165c:	f423 0480 	bic.w	r4, r3, #4194304	; 0x400000
    1660:	f44f 0080 	mov.w	r0, #4194304	; 0x400000
    1664:	f7ff fed0 	bl	1408 <GET_SHIFTBITS_MASK>
    1668:	4603      	mov	r3, r0
    166a:	f003 0501 	and.w	r5, r3, #1
    166e:	f44f 0080 	mov.w	r0, #4194304	; 0x400000
    1672:	f7ff fee3 	bl	143c <GET_MASK_POS>
    1676:	4603      	mov	r3, r0
    1678:	fa05 f303 	lsl.w	r3, r5, r3
    167c:	4a1a      	ldr	r2, [pc, #104]	; (16e8 <PAD_SysClockSet+0x26c>)
    167e:	4323      	orrs	r3, r4
    1680:	6013      	str	r3, [r2, #0]
    1682:	f44f 4300 	mov.w	r3, #32768	; 0x8000
    1686:	607b      	str	r3, [r7, #4]
    1688:	687b      	ldr	r3, [r7, #4]
    168a:	2b00      	cmp	r3, #0
    168c:	d10a      	bne.n	16a4 <PAD_SysClockSet+0x228>
    168e:	4b18      	ldr	r3, [pc, #96]	; (16f0 <PAD_SysClockSet+0x274>)
    1690:	681b      	ldr	r3, [r3, #0]
    1692:	f003 0340 	and.w	r3, r3, #64	; 0x40
    1696:	2b00      	cmp	r3, #0
    1698:	d103      	bne.n	16a2 <PAD_SysClockSet+0x226>
    169a:	687b      	ldr	r3, [r7, #4]
    169c:	3b01      	subs	r3, #1
    169e:	607b      	str	r3, [r7, #4]
    16a0:	e7f2      	b.n	1688 <PAD_SysClockSet+0x20c>
    16a2:	bf00      	nop
    16a4:	f44f 6000 	mov.w	r0, #2048	; 0x800
    16a8:	f7ff feae 	bl	1408 <GET_SHIFTBITS_MASK>
    16ac:	f44f 6000 	mov.w	r0, #2048	; 0x800
    16b0:	f7ff fec4 	bl	143c <GET_MASK_POS>
    16b4:	4b0c      	ldr	r3, [pc, #48]	; (16e8 <PAD_SysClockSet+0x26c>)
    16b6:	681b      	ldr	r3, [r3, #0]
    16b8:	4a0b      	ldr	r2, [pc, #44]	; (16e8 <PAD_SysClockSet+0x26c>)
    16ba:	f423 6300 	bic.w	r3, r3, #2048	; 0x800
    16be:	6013      	str	r3, [r2, #0]
    16c0:	f44f 6000 	mov.w	r0, #2048	; 0x800
    16c4:	f7ff fea0 	bl	1408 <GET_SHIFTBITS_MASK>
    16c8:	f44f 6000 	mov.w	r0, #2048	; 0x800
    16cc:	f7ff feb6 	bl	143c <GET_MASK_POS>
    16d0:	4b06      	ldr	r3, [pc, #24]	; (16ec <PAD_SysClockSet+0x270>)
    16d2:	681b      	ldr	r3, [r3, #0]
    16d4:	4a05      	ldr	r2, [pc, #20]	; (16ec <PAD_SysClockSet+0x270>)
    16d6:	f423 6300 	bic.w	r3, r3, #2048	; 0x800
    16da:	6013      	str	r3, [r2, #0]
    16dc:	bf00      	nop
    16de:	3708      	adds	r7, #8
    16e0:	46bd      	mov	sp, r7
    16e2:	bdb0      	pop	{r4, r5, r7, pc}
    16e4:	400fe058 	andmi	lr, pc, r8, asr r0	; <UNPREDICTABLE>
    16e8:	400fe060 	andmi	lr, pc, r0, rrx
    16ec:	400fe070 	andmi	lr, pc, r0, ror r0	; <UNPREDICTABLE>
    16f0:	400fe050 	andmi	lr, pc, r0, asr r0	; <UNPREDICTABLE>

000016f4 <PAD_SysPeripheralClockEnable>:
    16f4:	b480      	push	{r7}
    16f6:	b083      	sub	sp, #12
    16f8:	af00      	add	r7, sp, #0
    16fa:	6078      	str	r0, [r7, #4]
    16fc:	460b      	mov	r3, r1
    16fe:	70fb      	strb	r3, [r7, #3]
    1700:	687b      	ldr	r3, [r7, #4]
    1702:	4a44      	ldr	r2, [pc, #272]	; (1814 <PAD_SysPeripheralClockEnable+0x120>)
    1704:	4293      	cmp	r3, r2
    1706:	d845      	bhi.n	1794 <PAD_SysPeripheralClockEnable+0xa0>
    1708:	687b      	ldr	r3, [r7, #4]
    170a:	4a43      	ldr	r2, [pc, #268]	; (1818 <PAD_SysPeripheralClockEnable+0x124>)
    170c:	4293      	cmp	r3, r2
    170e:	d37a      	bcc.n	1806 <PAD_SysPeripheralClockEnable+0x112>
    1710:	687a      	ldr	r2, [r7, #4]
    1712:	4b42      	ldr	r3, [pc, #264]	; (181c <PAD_SysPeripheralClockEnable+0x128>)
    1714:	4413      	add	r3, r2
    1716:	2b1c      	cmp	r3, #28
    1718:	d875      	bhi.n	1806 <PAD_SysPeripheralClockEnable+0x112>
    171a:	a201      	add	r2, pc, #4	; (adr r2, 1720 <PAD_SysPeripheralClockEnable+0x2c>)
    171c:	f852 f023 	ldr.w	pc, [r2, r3, lsl #2]
    1720:	000017df 	ldrdeq	r1, [r0], -pc	; <UNPREDICTABLE>
    1724:	00001807 	andeq	r1, r0, r7, lsl #16
    1728:	00001807 	andeq	r1, r0, r7, lsl #16
    172c:	00001807 	andeq	r1, r0, r7, lsl #16
    1730:	000017b5 			; <UNDEFINED> instruction: 0x000017b5
    1734:	00001807 	andeq	r1, r0, r7, lsl #16
    1738:	00001807 	andeq	r1, r0, r7, lsl #16
    173c:	00001807 	andeq	r1, r0, r7, lsl #16
    1740:	00001807 	andeq	r1, r0, r7, lsl #16
    1744:	00001807 	andeq	r1, r0, r7, lsl #16
    1748:	00001807 	andeq	r1, r0, r7, lsl #16
    174c:	00001807 	andeq	r1, r0, r7, lsl #16
    1750:	00001807 	andeq	r1, r0, r7, lsl #16
    1754:	00001807 	andeq	r1, r0, r7, lsl #16
    1758:	00001807 	andeq	r1, r0, r7, lsl #16
    175c:	00001807 	andeq	r1, r0, r7, lsl #16
    1760:	00001807 	andeq	r1, r0, r7, lsl #16
    1764:	00001807 	andeq	r1, r0, r7, lsl #16
    1768:	00001807 	andeq	r1, r0, r7, lsl #16
    176c:	00001807 	andeq	r1, r0, r7, lsl #16
    1770:	00001807 	andeq	r1, r0, r7, lsl #16
    1774:	00001807 	andeq	r1, r0, r7, lsl #16
    1778:	00001807 	andeq	r1, r0, r7, lsl #16
    177c:	00001807 	andeq	r1, r0, r7, lsl #16
    1780:	000017cb 	andeq	r1, r0, fp, asr #15
    1784:	00001807 	andeq	r1, r0, r7, lsl #16
    1788:	00001807 	andeq	r1, r0, r7, lsl #16
    178c:	00001807 	andeq	r1, r0, r7, lsl #16
    1790:	0000179f 	muleq	r0, pc, r7	; <UNPREDICTABLE>
    1794:	687b      	ldr	r3, [r7, #4]
    1796:	4a22      	ldr	r2, [pc, #136]	; (1820 <PAD_SysPeripheralClockEnable+0x12c>)
    1798:	4293      	cmp	r3, r2
    179a:	d02a      	beq.n	17f2 <PAD_SysPeripheralClockEnable+0xfe>
    179c:	e033      	b.n	1806 <PAD_SysPeripheralClockEnable+0x112>
    179e:	4b1d      	ldr	r3, [pc, #116]	; (1814 <PAD_SysPeripheralClockEnable+0x120>)
    17a0:	681b      	ldr	r3, [r3, #0]
    17a2:	78fa      	ldrb	r2, [r7, #3]
    17a4:	2101      	movs	r1, #1
    17a6:	fa01 f202 	lsl.w	r2, r1, r2
    17aa:	4611      	mov	r1, r2
    17ac:	4a19      	ldr	r2, [pc, #100]	; (1814 <PAD_SysPeripheralClockEnable+0x120>)
    17ae:	430b      	orrs	r3, r1
    17b0:	6013      	str	r3, [r2, #0]
    17b2:	e029      	b.n	1808 <PAD_SysPeripheralClockEnable+0x114>
    17b4:	4b1b      	ldr	r3, [pc, #108]	; (1824 <PAD_SysPeripheralClockEnable+0x130>)
    17b6:	681b      	ldr	r3, [r3, #0]
    17b8:	78fa      	ldrb	r2, [r7, #3]
    17ba:	2101      	movs	r1, #1
    17bc:	fa01 f202 	lsl.w	r2, r1, r2
    17c0:	4611      	mov	r1, r2
    17c2:	4a18      	ldr	r2, [pc, #96]	; (1824 <PAD_SysPeripheralClockEnable+0x130>)
    17c4:	430b      	orrs	r3, r1
    17c6:	6013      	str	r3, [r2, #0]
    17c8:	e01e      	b.n	1808 <PAD_SysPeripheralClockEnable+0x114>
    17ca:	4b17      	ldr	r3, [pc, #92]	; (1828 <PAD_SysPeripheralClockEnable+0x134>)
    17cc:	681b      	ldr	r3, [r3, #0]
    17ce:	78fa      	ldrb	r2, [r7, #3]
    17d0:	2101      	movs	r1, #1
    17d2:	fa01 f202 	lsl.w	r2, r1, r2
    17d6:	4611      	mov	r1, r2
    17d8:	4a13      	ldr	r2, [pc, #76]	; (1828 <PAD_SysPeripheralClockEnable+0x134>)
    17da:	430b      	orrs	r3, r1
    17dc:	6013      	str	r3, [r2, #0]
    17de:	4b0e      	ldr	r3, [pc, #56]	; (1818 <PAD_SysPeripheralClockEnable+0x124>)
    17e0:	681b      	ldr	r3, [r3, #0]
    17e2:	78fa      	ldrb	r2, [r7, #3]
    17e4:	2101      	movs	r1, #1
    17e6:	fa01 f202 	lsl.w	r2, r1, r2
    17ea:	4611      	mov	r1, r2
    17ec:	4a0a      	ldr	r2, [pc, #40]	; (1818 <PAD_SysPeripheralClockEnable+0x124>)
    17ee:	430b      	orrs	r3, r1
    17f0:	6013      	str	r3, [r2, #0]
    17f2:	4b0b      	ldr	r3, [pc, #44]	; (1820 <PAD_SysPeripheralClockEnable+0x12c>)
    17f4:	681b      	ldr	r3, [r3, #0]
    17f6:	78fa      	ldrb	r2, [r7, #3]
    17f8:	2101      	movs	r1, #1
    17fa:	fa01 f202 	lsl.w	r2, r1, r2
    17fe:	4611      	mov	r1, r2
    1800:	4a07      	ldr	r2, [pc, #28]	; (1820 <PAD_SysPeripheralClockEnable+0x12c>)
    1802:	430b      	orrs	r3, r1
    1804:	6013      	str	r3, [r2, #0]
    1806:	bf00      	nop
    1808:	bf00      	nop
    180a:	370c      	adds	r7, #12
    180c:	46bd      	mov	sp, r7
    180e:	f85d 7b04 	ldr.w	r7, [sp], #4
    1812:	4770      	bx	lr
    1814:	400fe620 	andmi	lr, pc, r0, lsr #12
    1818:	400fe604 	andmi	lr, pc, r4, lsl #12
    181c:	bff019fc 	svclt	0x00f019fc
    1820:	400fe65c 	andmi	lr, pc, ip, asr r6	; <UNPREDICTABLE>
    1824:	400fe608 	andmi	lr, pc, r8, lsl #12
    1828:	400fe61c 	andmi	lr, pc, ip, lsl r6	; <UNPREDICTABLE>

0000182c <SPI_WriteBytes>:
    182c:	b580      	push	{r7, lr}
    182e:	b082      	sub	sp, #8
    1830:	af00      	add	r7, sp, #0
    1832:	6078      	str	r0, [r7, #4]
    1834:	6039      	str	r1, [r7, #0]
    1836:	4b05      	ldr	r3, [pc, #20]	; (184c <SPI_WriteBytes+0x20>)
    1838:	681b      	ldr	r3, [r3, #0]
    183a:	683a      	ldr	r2, [r7, #0]
    183c:	6879      	ldr	r1, [r7, #4]
    183e:	4618      	mov	r0, r3
    1840:	f000 f818 	bl	1874 <_ZN12SPIInterface5writeEmPv>
    1844:	bf00      	nop
    1846:	3708      	adds	r7, #8
    1848:	46bd      	mov	sp, r7
    184a:	bd80      	pop	{r7, pc}
    184c:	20002208 	andcs	r2, r0, r8, lsl #4

00001850 <SPI_ReadBytes>:
    1850:	b580      	push	{r7, lr}
    1852:	b082      	sub	sp, #8
    1854:	af00      	add	r7, sp, #0
    1856:	6078      	str	r0, [r7, #4]
    1858:	6039      	str	r1, [r7, #0]
    185a:	4b05      	ldr	r3, [pc, #20]	; (1870 <SPI_ReadBytes+0x20>)
    185c:	681b      	ldr	r3, [r3, #0]
    185e:	683a      	ldr	r2, [r7, #0]
    1860:	6879      	ldr	r1, [r7, #4]
    1862:	4618      	mov	r0, r3
    1864:	f000 f874 	bl	1950 <_ZN12SPIInterface4readEmPv>
    1868:	bf00      	nop
    186a:	3708      	adds	r7, #8
    186c:	46bd      	mov	sp, r7
    186e:	bd80      	pop	{r7, pc}
    1870:	20002208 	andcs	r2, r0, r8, lsl #4

00001874 <_ZN12SPIInterface5writeEmPv>:
    1874:	b580      	push	{r7, lr}
    1876:	b088      	sub	sp, #32
    1878:	af02      	add	r7, sp, #8
    187a:	60f8      	str	r0, [r7, #12]
    187c:	60b9      	str	r1, [r7, #8]
    187e:	607a      	str	r2, [r7, #4]
    1880:	2300      	movs	r3, #0
    1882:	75fb      	strb	r3, [r7, #23]
    1884:	68bb      	ldr	r3, [r7, #8]
    1886:	2b00      	cmp	r3, #0
    1888:	d048      	beq.n	191c <_ZN12SPIInterface5writeEmPv+0xa8>
    188a:	68fb      	ldr	r3, [r7, #12]
    188c:	68ba      	ldr	r2, [r7, #8]
    188e:	619a      	str	r2, [r3, #24]
    1890:	68fb      	ldr	r3, [r7, #12]
    1892:	2200      	movs	r2, #0
    1894:	621a      	str	r2, [r3, #32]
    1896:	68fb      	ldr	r3, [r7, #12]
    1898:	687a      	ldr	r2, [r7, #4]
    189a:	611a      	str	r2, [r3, #16]
    189c:	68fb      	ldr	r3, [r7, #12]
    189e:	681a      	ldr	r2, [r3, #0]
    18a0:	68bb      	ldr	r3, [r7, #8]
    18a2:	9300      	str	r3, [sp, #0]
    18a4:	4613      	mov	r3, r2
    18a6:	4a24      	ldr	r2, [pc, #144]	; (1938 <_ZN12SPIInterface5writeEmPv+0xc4>)
    18a8:	2100      	movs	r1, #0
    18aa:	4824      	ldr	r0, [pc, #144]	; (193c <_ZN12SPIInterface5writeEmPv+0xc8>)
    18ac:	f000 f956 	bl	1b5c <_ZN14DebugInterface3logE10DebugLevelPKcz>
    18b0:	68fb      	ldr	r3, [r7, #12]
    18b2:	699a      	ldr	r2, [r3, #24]
    18b4:	68fb      	ldr	r3, [r7, #12]
    18b6:	6a1b      	ldr	r3, [r3, #32]
    18b8:	429a      	cmp	r2, r3
    18ba:	d907      	bls.n	18cc <_ZN12SPIInterface5writeEmPv+0x58>
    18bc:	4b20      	ldr	r3, [pc, #128]	; (1940 <_ZN12SPIInterface5writeEmPv+0xcc>)
    18be:	681b      	ldr	r3, [r3, #0]
    18c0:	f003 0308 	and.w	r3, r3, #8
    18c4:	2b00      	cmp	r3, #0
    18c6:	d101      	bne.n	18cc <_ZN12SPIInterface5writeEmPv+0x58>
    18c8:	2301      	movs	r3, #1
    18ca:	e000      	b.n	18ce <_ZN12SPIInterface5writeEmPv+0x5a>
    18cc:	2300      	movs	r3, #0
    18ce:	2b00      	cmp	r3, #0
    18d0:	d00b      	beq.n	18ea <_ZN12SPIInterface5writeEmPv+0x76>
    18d2:	68fb      	ldr	r3, [r7, #12]
    18d4:	691a      	ldr	r2, [r3, #16]
    18d6:	68fb      	ldr	r3, [r7, #12]
    18d8:	6a1b      	ldr	r3, [r3, #32]
    18da:	1c58      	adds	r0, r3, #1
    18dc:	68f9      	ldr	r1, [r7, #12]
    18de:	6208      	str	r0, [r1, #32]
    18e0:	4413      	add	r3, r2
    18e2:	781a      	ldrb	r2, [r3, #0]
    18e4:	4b17      	ldr	r3, [pc, #92]	; (1944 <_ZN12SPIInterface5writeEmPv+0xd0>)
    18e6:	601a      	str	r2, [r3, #0]
    18e8:	e7e2      	b.n	18b0 <_ZN12SPIInterface5writeEmPv+0x3c>
    18ea:	68fb      	ldr	r3, [r7, #12]
    18ec:	699a      	ldr	r2, [r3, #24]
    18ee:	68fb      	ldr	r3, [r7, #12]
    18f0:	6a1b      	ldr	r3, [r3, #32]
    18f2:	429a      	cmp	r2, r3
    18f4:	bf8c      	ite	hi
    18f6:	2301      	movhi	r3, #1
    18f8:	2300      	movls	r3, #0
    18fa:	b2db      	uxtb	r3, r3
    18fc:	2b00      	cmp	r3, #0
    18fe:	d016      	beq.n	192e <_ZN12SPIInterface5writeEmPv+0xba>
    1900:	68fb      	ldr	r3, [r7, #12]
    1902:	681b      	ldr	r3, [r3, #0]
    1904:	4a10      	ldr	r2, [pc, #64]	; (1948 <_ZN12SPIInterface5writeEmPv+0xd4>)
    1906:	2100      	movs	r1, #0
    1908:	480c      	ldr	r0, [pc, #48]	; (193c <_ZN12SPIInterface5writeEmPv+0xc8>)
    190a:	f000 f927 	bl	1b5c <_ZN14DebugInterface3logE10DebugLevelPKcz>
    190e:	4b0f      	ldr	r3, [pc, #60]	; (194c <_ZN12SPIInterface5writeEmPv+0xd8>)
    1910:	681b      	ldr	r3, [r3, #0]
    1912:	4a0e      	ldr	r2, [pc, #56]	; (194c <_ZN12SPIInterface5writeEmPv+0xd8>)
    1914:	f043 0308 	orr.w	r3, r3, #8
    1918:	6013      	str	r3, [r2, #0]
    191a:	e008      	b.n	192e <_ZN12SPIInterface5writeEmPv+0xba>
    191c:	68fb      	ldr	r3, [r7, #12]
    191e:	681b      	ldr	r3, [r3, #0]
    1920:	4a09      	ldr	r2, [pc, #36]	; (1948 <_ZN12SPIInterface5writeEmPv+0xd4>)
    1922:	2104      	movs	r1, #4
    1924:	4805      	ldr	r0, [pc, #20]	; (193c <_ZN12SPIInterface5writeEmPv+0xc8>)
    1926:	f000 f919 	bl	1b5c <_ZN14DebugInterface3logE10DebugLevelPKcz>
    192a:	2301      	movs	r3, #1
    192c:	75fb      	strb	r3, [r7, #23]
    192e:	7dfb      	ldrb	r3, [r7, #23]
    1930:	4618      	mov	r0, r3
    1932:	3718      	adds	r7, #24
    1934:	46bd      	mov	sp, r7
    1936:	bd80      	pop	{r7, pc}
    1938:	00001f38 	andeq	r1, r0, r8, lsr pc
    193c:	2000224c 	andcs	r2, r0, ip, asr #4
    1940:	4000800c 	andmi	r8, r0, ip
    1944:	40008008 	andmi	r8, r0, r8
    1948:	00001f5c 	andeq	r1, r0, ip, asr pc
    194c:	40008014 	andmi	r8, r0, r4, lsl r0

00001950 <_ZN12SPIInterface4readEmPv>:
    1950:	b590      	push	{r4, r7, lr}
    1952:	b089      	sub	sp, #36	; 0x24
    1954:	af02      	add	r7, sp, #8
    1956:	60f8      	str	r0, [r7, #12]
    1958:	60b9      	str	r1, [r7, #8]
    195a:	607a      	str	r2, [r7, #4]
    195c:	2300      	movs	r3, #0
    195e:	75fb      	strb	r3, [r7, #23]
    1960:	68bb      	ldr	r3, [r7, #8]
    1962:	2b00      	cmp	r3, #0
    1964:	d032      	beq.n	19cc <_ZN12SPIInterface4readEmPv+0x7c>
    1966:	68fb      	ldr	r3, [r7, #12]
    1968:	2200      	movs	r2, #0
    196a:	625a      	str	r2, [r3, #36]	; 0x24
    196c:	68fb      	ldr	r3, [r7, #12]
    196e:	699a      	ldr	r2, [r3, #24]
    1970:	68fb      	ldr	r3, [r7, #12]
    1972:	61da      	str	r2, [r3, #28]
    1974:	68fb      	ldr	r3, [r7, #12]
    1976:	687a      	ldr	r2, [r7, #4]
    1978:	615a      	str	r2, [r3, #20]
    197a:	68fb      	ldr	r3, [r7, #12]
    197c:	681a      	ldr	r2, [r3, #0]
    197e:	68fb      	ldr	r3, [r7, #12]
    1980:	699b      	ldr	r3, [r3, #24]
    1982:	9300      	str	r3, [sp, #0]
    1984:	4613      	mov	r3, r2
    1986:	4a18      	ldr	r2, [pc, #96]	; (19e8 <_ZN12SPIInterface4readEmPv+0x98>)
    1988:	2100      	movs	r1, #0
    198a:	4818      	ldr	r0, [pc, #96]	; (19ec <_ZN12SPIInterface4readEmPv+0x9c>)
    198c:	f000 f8e6 	bl	1b5c <_ZN14DebugInterface3logE10DebugLevelPKcz>
    1990:	68fb      	ldr	r3, [r7, #12]
    1992:	69da      	ldr	r2, [r3, #28]
    1994:	68fb      	ldr	r3, [r7, #12]
    1996:	6a5b      	ldr	r3, [r3, #36]	; 0x24
    1998:	429a      	cmp	r2, r3
    199a:	d007      	beq.n	19ac <_ZN12SPIInterface4readEmPv+0x5c>
    199c:	4b14      	ldr	r3, [pc, #80]	; (19f0 <_ZN12SPIInterface4readEmPv+0xa0>)
    199e:	681b      	ldr	r3, [r3, #0]
    19a0:	f003 0304 	and.w	r3, r3, #4
    19a4:	2b00      	cmp	r3, #0
    19a6:	d001      	beq.n	19ac <_ZN12SPIInterface4readEmPv+0x5c>
    19a8:	2301      	movs	r3, #1
    19aa:	e000      	b.n	19ae <_ZN12SPIInterface4readEmPv+0x5e>
    19ac:	2300      	movs	r3, #0
    19ae:	2b00      	cmp	r3, #0
    19b0:	d015      	beq.n	19de <_ZN12SPIInterface4readEmPv+0x8e>
    19b2:	4b10      	ldr	r3, [pc, #64]	; (19f4 <_ZN12SPIInterface4readEmPv+0xa4>)
    19b4:	681c      	ldr	r4, [r3, #0]
    19b6:	68fb      	ldr	r3, [r7, #12]
    19b8:	695a      	ldr	r2, [r3, #20]
    19ba:	68fb      	ldr	r3, [r7, #12]
    19bc:	6a5b      	ldr	r3, [r3, #36]	; 0x24
    19be:	1c58      	adds	r0, r3, #1
    19c0:	68f9      	ldr	r1, [r7, #12]
    19c2:	6248      	str	r0, [r1, #36]	; 0x24
    19c4:	4413      	add	r3, r2
    19c6:	b2e2      	uxtb	r2, r4
    19c8:	701a      	strb	r2, [r3, #0]
    19ca:	e7e1      	b.n	1990 <_ZN12SPIInterface4readEmPv+0x40>
    19cc:	68fb      	ldr	r3, [r7, #12]
    19ce:	681b      	ldr	r3, [r3, #0]
    19d0:	4a09      	ldr	r2, [pc, #36]	; (19f8 <_ZN12SPIInterface4readEmPv+0xa8>)
    19d2:	2104      	movs	r1, #4
    19d4:	4805      	ldr	r0, [pc, #20]	; (19ec <_ZN12SPIInterface4readEmPv+0x9c>)
    19d6:	f000 f8c1 	bl	1b5c <_ZN14DebugInterface3logE10DebugLevelPKcz>
    19da:	2301      	movs	r3, #1
    19dc:	75fb      	strb	r3, [r7, #23]
    19de:	7dfb      	ldrb	r3, [r7, #23]
    19e0:	4618      	mov	r0, r3
    19e2:	371c      	adds	r7, #28
    19e4:	46bd      	mov	sp, r7
    19e6:	bd90      	pop	{r4, r7, pc}
    19e8:	00001f80 	andeq	r1, r0, r0, lsl #31
    19ec:	2000224c 	andcs	r2, r0, ip, asr #4
    19f0:	4000800c 	andmi	r8, r0, ip
    19f4:	40008008 	andmi	r8, r0, r8
    19f8:	00001fa4 	andeq	r1, r0, r4, lsr #31

000019fc <setEEPROMProtocol>:
    19fc:	b480      	push	{r7}
    19fe:	b083      	sub	sp, #12
    1a00:	af00      	add	r7, sp, #0
    1a02:	6078      	str	r0, [r7, #4]
    1a04:	687b      	ldr	r3, [r7, #4]
    1a06:	2b01      	cmp	r3, #1
    1a08:	d803      	bhi.n	1a12 <setEEPROMProtocol+0x16>
    1a0a:	4a06      	ldr	r2, [pc, #24]	; (1a24 <setEEPROMProtocol+0x28>)
    1a0c:	687b      	ldr	r3, [r7, #4]
    1a0e:	6013      	str	r3, [r2, #0]
    1a10:	e002      	b.n	1a18 <setEEPROMProtocol+0x1c>
    1a12:	4b04      	ldr	r3, [pc, #16]	; (1a24 <setEEPROMProtocol+0x28>)
    1a14:	22ff      	movs	r2, #255	; 0xff
    1a16:	601a      	str	r2, [r3, #0]
    1a18:	bf00      	nop
    1a1a:	370c      	adds	r7, #12
    1a1c:	46bd      	mov	sp, r7
    1a1e:	f85d 7b04 	ldr.w	r7, [sp], #4
    1a22:	4770      	bx	lr
    1a24:	20000000 	andcs	r0, r0, r0

00001a28 <eepromRead>:
    1a28:	b580      	push	{r7, lr}
    1a2a:	b086      	sub	sp, #24
    1a2c:	af00      	add	r7, sp, #0
    1a2e:	60f8      	str	r0, [r7, #12]
    1a30:	60b9      	str	r1, [r7, #8]
    1a32:	607a      	str	r2, [r7, #4]
    1a34:	4b21      	ldr	r3, [pc, #132]	; (1abc <eepromRead+0x94>)
    1a36:	681b      	ldr	r3, [r3, #0]
    1a38:	2b00      	cmp	r3, #0
    1a3a:	d116      	bne.n	1a6a <eepromRead+0x42>
    1a3c:	68fb      	ldr	r3, [r7, #12]
    1a3e:	0a1b      	lsrs	r3, r3, #8
    1a40:	b2db      	uxtb	r3, r3
    1a42:	f003 031f 	and.w	r3, r3, #31
    1a46:	b2db      	uxtb	r3, r3
    1a48:	753b      	strb	r3, [r7, #20]
    1a4a:	68fb      	ldr	r3, [r7, #12]
    1a4c:	b2db      	uxtb	r3, r3
    1a4e:	757b      	strb	r3, [r7, #21]
    1a50:	f107 0314 	add.w	r3, r7, #20
    1a54:	461a      	mov	r2, r3
    1a56:	2102      	movs	r1, #2
    1a58:	2050      	movs	r0, #80	; 0x50
    1a5a:	f7ff fa7d 	bl	f58 <I2C_WriteBytes>
    1a5e:	687a      	ldr	r2, [r7, #4]
    1a60:	68b9      	ldr	r1, [r7, #8]
    1a62:	2050      	movs	r0, #80	; 0x50
    1a64:	f7ff fb9c 	bl	11a0 <I2C_ReadBytes>
    1a68:	e023      	b.n	1ab2 <eepromRead+0x8a>
    1a6a:	4b14      	ldr	r3, [pc, #80]	; (1abc <eepromRead+0x94>)
    1a6c:	681b      	ldr	r3, [r3, #0]
    1a6e:	2b01      	cmp	r3, #1
    1a70:	d11f      	bne.n	1ab2 <eepromRead+0x8a>
    1a72:	68fb      	ldr	r3, [r7, #12]
    1a74:	0a1b      	lsrs	r3, r3, #8
    1a76:	b2db      	uxtb	r3, r3
    1a78:	f003 0307 	and.w	r3, r3, #7
    1a7c:	b2db      	uxtb	r3, r3
    1a7e:	f043 0330 	orr.w	r3, r3, #48	; 0x30
    1a82:	b2db      	uxtb	r3, r3
    1a84:	743b      	strb	r3, [r7, #16]
    1a86:	68fb      	ldr	r3, [r7, #12]
    1a88:	b2db      	uxtb	r3, r3
    1a8a:	747b      	strb	r3, [r7, #17]
    1a8c:	8a3a      	ldrh	r2, [r7, #16]
    1a8e:	4b0c      	ldr	r3, [pc, #48]	; (1ac0 <eepromRead+0x98>)
    1a90:	801a      	strh	r2, [r3, #0]
    1a92:	4b0c      	ldr	r3, [pc, #48]	; (1ac4 <eepromRead+0x9c>)
    1a94:	2202      	movs	r2, #2
    1a96:	2100      	movs	r1, #0
    1a98:	4618      	mov	r0, r3
    1a9a:	f000 f8a3 	bl	1be4 <memset>
    1a9e:	f107 0310 	add.w	r3, r7, #16
    1aa2:	4619      	mov	r1, r3
    1aa4:	2004      	movs	r0, #4
    1aa6:	f7ff fec1 	bl	182c <SPI_WriteBytes>
    1aaa:	6879      	ldr	r1, [r7, #4]
    1aac:	68b8      	ldr	r0, [r7, #8]
    1aae:	f7ff fecf 	bl	1850 <SPI_ReadBytes>
    1ab2:	bf00      	nop
    1ab4:	3718      	adds	r7, #24
    1ab6:	46bd      	mov	sp, r7
    1ab8:	bd80      	pop	{r7, pc}
    1aba:	bf00      	nop
    1abc:	20000000 	andcs	r0, r0, r0
    1ac0:	2000220c 	andcs	r2, r0, ip, lsl #4
    1ac4:	2000220e 	andcs	r2, r0, lr, lsl #4

00001ac8 <__error__>:
    1ac8:	b580      	push	{r7, lr}
    1aca:	b082      	sub	sp, #8
    1acc:	af00      	add	r7, sp, #0
    1ace:	6078      	str	r0, [r7, #4]
    1ad0:	6039      	str	r1, [r7, #0]
    1ad2:	683a      	ldr	r2, [r7, #0]
    1ad4:	6879      	ldr	r1, [r7, #4]
    1ad6:	4803      	ldr	r0, [pc, #12]	; (1ae4 <__error__+0x1c>)
    1ad8:	f7fe ff78 	bl	9cc <UARTprintf>
    1adc:	bf00      	nop
    1ade:	3708      	adds	r7, #8
    1ae0:	46bd      	mov	sp, r7
    1ae2:	bd80      	pop	{r7, pc}
    1ae4:	00002010 	andeq	r2, r0, r0, lsl r0

00001ae8 <_ZL21_get_log_level_string10DebugLevel>:
    1ae8:	b480      	push	{r7}
    1aea:	b083      	sub	sp, #12
    1aec:	af00      	add	r7, sp, #0
    1aee:	4603      	mov	r3, r0
    1af0:	71fb      	strb	r3, [r7, #7]
    1af2:	79fb      	ldrb	r3, [r7, #7]
    1af4:	2b05      	cmp	r3, #5
    1af6:	d81b      	bhi.n	1b30 <_ZL21_get_log_level_string10DebugLevel+0x48>
    1af8:	a201      	add	r2, pc, #4	; (adr r2, 1b00 <_ZL21_get_log_level_string10DebugLevel+0x18>)
    1afa:	f852 f023 	ldr.w	pc, [r2, r3, lsl #2]
    1afe:	bf00      	nop
    1b00:	00001b19 	andeq	r1, r0, r9, lsl fp
    1b04:	00001b1d 	andeq	r1, r0, sp, lsl fp
    1b08:	00001b21 	andeq	r1, r0, r1, lsr #22
    1b0c:	00001b25 	andeq	r1, r0, r5, lsr #22
    1b10:	00001b29 	andeq	r1, r0, r9, lsr #22
    1b14:	00001b2d 	andeq	r1, r0, sp, lsr #22
    1b18:	4b09      	ldr	r3, [pc, #36]	; (1b40 <_ZL21_get_log_level_string10DebugLevel+0x58>)
    1b1a:	e00a      	b.n	1b32 <_ZL21_get_log_level_string10DebugLevel+0x4a>
    1b1c:	4b09      	ldr	r3, [pc, #36]	; (1b44 <_ZL21_get_log_level_string10DebugLevel+0x5c>)
    1b1e:	e008      	b.n	1b32 <_ZL21_get_log_level_string10DebugLevel+0x4a>
    1b20:	4b09      	ldr	r3, [pc, #36]	; (1b48 <_ZL21_get_log_level_string10DebugLevel+0x60>)
    1b22:	e006      	b.n	1b32 <_ZL21_get_log_level_string10DebugLevel+0x4a>
    1b24:	4b09      	ldr	r3, [pc, #36]	; (1b4c <_ZL21_get_log_level_string10DebugLevel+0x64>)
    1b26:	e004      	b.n	1b32 <_ZL21_get_log_level_string10DebugLevel+0x4a>
    1b28:	4b09      	ldr	r3, [pc, #36]	; (1b50 <_ZL21_get_log_level_string10DebugLevel+0x68>)
    1b2a:	e002      	b.n	1b32 <_ZL21_get_log_level_string10DebugLevel+0x4a>
    1b2c:	4b09      	ldr	r3, [pc, #36]	; (1b54 <_ZL21_get_log_level_string10DebugLevel+0x6c>)
    1b2e:	e000      	b.n	1b32 <_ZL21_get_log_level_string10DebugLevel+0x4a>
    1b30:	4b09      	ldr	r3, [pc, #36]	; (1b58 <_ZL21_get_log_level_string10DebugLevel+0x70>)
    1b32:	4618      	mov	r0, r3
    1b34:	370c      	adds	r7, #12
    1b36:	46bd      	mov	sp, r7
    1b38:	f85d 7b04 	ldr.w	r7, [sp], #4
    1b3c:	4770      	bx	lr
    1b3e:	bf00      	nop
    1b40:	00002020 	andeq	r2, r0, r0, lsr #32
    1b44:	00002024 	andeq	r2, r0, r4, lsr #32
    1b48:	00002028 	andeq	r2, r0, r8, lsr #32
    1b4c:	0000202c 	andeq	r2, r0, ip, lsr #32
    1b50:	00002030 	andeq	r2, r0, r0, lsr r0
    1b54:	00002034 	andeq	r2, r0, r4, lsr r0
    1b58:	00002038 	andeq	r2, r0, r8, lsr r0

00001b5c <_ZN14DebugInterface3logE10DebugLevelPKcz>:
    1b5c:	b40c      	push	{r2, r3}
    1b5e:	b580      	push	{r7, lr}
    1b60:	b084      	sub	sp, #16
    1b62:	af00      	add	r7, sp, #0
    1b64:	6078      	str	r0, [r7, #4]
    1b66:	460b      	mov	r3, r1
    1b68:	70fb      	strb	r3, [r7, #3]
    1b6a:	f107 031c 	add.w	r3, r7, #28
    1b6e:	60fb      	str	r3, [r7, #12]
    1b70:	78fa      	ldrb	r2, [r7, #3]
    1b72:	687b      	ldr	r3, [r7, #4]
    1b74:	681b      	ldr	r3, [r3, #0]
    1b76:	429a      	cmp	r2, r3
    1b78:	d323      	bcc.n	1bc2 <_ZN14DebugInterface3logE10DebugLevelPKcz+0x66>
    1b7a:	78fb      	ldrb	r3, [r7, #3]
    1b7c:	4618      	mov	r0, r3
    1b7e:	f7ff ffb3 	bl	1ae8 <_ZL21_get_log_level_string10DebugLevel>
    1b82:	4603      	mov	r3, r0
    1b84:	4619      	mov	r1, r3
    1b86:	4812      	ldr	r0, [pc, #72]	; (1bd0 <_ZN14DebugInterface3logE10DebugLevelPKcz+0x74>)
    1b88:	f7fe ff20 	bl	9cc <UARTprintf>
    1b8c:	78fb      	ldrb	r3, [r7, #3]
    1b8e:	2b04      	cmp	r3, #4
    1b90:	d002      	beq.n	1b98 <_ZN14DebugInterface3logE10DebugLevelPKcz+0x3c>
    1b92:	2b05      	cmp	r3, #5
    1b94:	d004      	beq.n	1ba0 <_ZN14DebugInterface3logE10DebugLevelPKcz+0x44>
    1b96:	e007      	b.n	1ba8 <_ZN14DebugInterface3logE10DebugLevelPKcz+0x4c>
    1b98:	480e      	ldr	r0, [pc, #56]	; (1bd4 <_ZN14DebugInterface3logE10DebugLevelPKcz+0x78>)
    1b9a:	f7fe ff17 	bl	9cc <UARTprintf>
    1b9e:	e003      	b.n	1ba8 <_ZN14DebugInterface3logE10DebugLevelPKcz+0x4c>
    1ba0:	480d      	ldr	r0, [pc, #52]	; (1bd8 <_ZN14DebugInterface3logE10DebugLevelPKcz+0x7c>)
    1ba2:	f7fe ff13 	bl	9cc <UARTprintf>
    1ba6:	bf00      	nop
    1ba8:	68f9      	ldr	r1, [r7, #12]
    1baa:	69b8      	ldr	r0, [r7, #24]
    1bac:	f7fe fd0a 	bl	5c4 <UARTvprintf>
    1bb0:	78fb      	ldrb	r3, [r7, #3]
    1bb2:	2b03      	cmp	r3, #3
    1bb4:	d902      	bls.n	1bbc <_ZN14DebugInterface3logE10DebugLevelPKcz+0x60>
    1bb6:	4809      	ldr	r0, [pc, #36]	; (1bdc <_ZN14DebugInterface3logE10DebugLevelPKcz+0x80>)
    1bb8:	f7fe ff08 	bl	9cc <UARTprintf>
    1bbc:	4808      	ldr	r0, [pc, #32]	; (1be0 <_ZN14DebugInterface3logE10DebugLevelPKcz+0x84>)
    1bbe:	f7fe ff05 	bl	9cc <UARTprintf>
    1bc2:	bf00      	nop
    1bc4:	3710      	adds	r7, #16
    1bc6:	46bd      	mov	sp, r7
    1bc8:	e8bd 4080 	ldmia.w	sp!, {r7, lr}
    1bcc:	b002      	add	sp, #8
    1bce:	4770      	bx	lr
    1bd0:	00002044 	andeq	r2, r0, r4, asr #32
    1bd4:	0000204c 	andeq	r2, r0, ip, asr #32
    1bd8:	00002054 	andeq	r2, r0, r4, asr r0
    1bdc:	0000205c 	andeq	r2, r0, ip, asr r0
    1be0:	00002064 	andeq	r2, r0, r4, rrx

00001be4 <memset>:
    1be4:	0783      	lsls	r3, r0, #30
    1be6:	b530      	push	{r4, r5, lr}
    1be8:	d048      	beq.n	1c7c <memset+0x98>
    1bea:	1e54      	subs	r4, r2, #1
    1bec:	2a00      	cmp	r2, #0
    1bee:	d03f      	beq.n	1c70 <memset+0x8c>
    1bf0:	b2ca      	uxtb	r2, r1
    1bf2:	4603      	mov	r3, r0
    1bf4:	e001      	b.n	1bfa <memset+0x16>
    1bf6:	3c01      	subs	r4, #1
    1bf8:	d33a      	bcc.n	1c70 <memset+0x8c>
    1bfa:	f803 2b01 	strb.w	r2, [r3], #1
    1bfe:	079d      	lsls	r5, r3, #30
    1c00:	d1f9      	bne.n	1bf6 <memset+0x12>
    1c02:	2c03      	cmp	r4, #3
    1c04:	d92d      	bls.n	1c62 <memset+0x7e>
    1c06:	b2cd      	uxtb	r5, r1
    1c08:	ea45 2505 	orr.w	r5, r5, r5, lsl #8
    1c0c:	2c0f      	cmp	r4, #15
    1c0e:	ea45 4505 	orr.w	r5, r5, r5, lsl #16
    1c12:	d936      	bls.n	1c82 <memset+0x9e>
    1c14:	f1a4 0210 	sub.w	r2, r4, #16
    1c18:	f022 0c0f 	bic.w	ip, r2, #15
    1c1c:	f103 0e20 	add.w	lr, r3, #32
    1c20:	44e6      	add	lr, ip
    1c22:	ea4f 1c12 	mov.w	ip, r2, lsr #4
    1c26:	f103 0210 	add.w	r2, r3, #16
    1c2a:	e942 5504 	strd	r5, r5, [r2, #-16]
    1c2e:	e942 5502 	strd	r5, r5, [r2, #-8]
    1c32:	3210      	adds	r2, #16
    1c34:	4572      	cmp	r2, lr
    1c36:	d1f8      	bne.n	1c2a <memset+0x46>
    1c38:	f10c 0201 	add.w	r2, ip, #1
    1c3c:	f014 0f0c 	tst.w	r4, #12
    1c40:	eb03 1202 	add.w	r2, r3, r2, lsl #4
    1c44:	f004 0c0f 	and.w	ip, r4, #15
    1c48:	d013      	beq.n	1c72 <memset+0x8e>
    1c4a:	f1ac 0304 	sub.w	r3, ip, #4
    1c4e:	f023 0303 	bic.w	r3, r3, #3
    1c52:	3304      	adds	r3, #4
    1c54:	4413      	add	r3, r2
    1c56:	f842 5b04 	str.w	r5, [r2], #4
    1c5a:	4293      	cmp	r3, r2
    1c5c:	d1fb      	bne.n	1c56 <memset+0x72>
    1c5e:	f00c 0403 	and.w	r4, ip, #3
    1c62:	b12c      	cbz	r4, 1c70 <memset+0x8c>
    1c64:	b2ca      	uxtb	r2, r1
    1c66:	441c      	add	r4, r3
    1c68:	f803 2b01 	strb.w	r2, [r3], #1
    1c6c:	429c      	cmp	r4, r3
    1c6e:	d1fb      	bne.n	1c68 <memset+0x84>
    1c70:	bd30      	pop	{r4, r5, pc}
    1c72:	4664      	mov	r4, ip
    1c74:	4613      	mov	r3, r2
    1c76:	2c00      	cmp	r4, #0
    1c78:	d1f4      	bne.n	1c64 <memset+0x80>
    1c7a:	e7f9      	b.n	1c70 <memset+0x8c>
    1c7c:	4603      	mov	r3, r0
    1c7e:	4614      	mov	r4, r2
    1c80:	e7bf      	b.n	1c02 <memset+0x1e>
    1c82:	461a      	mov	r2, r3
    1c84:	46a4      	mov	ip, r4
    1c86:	e7e0      	b.n	1c4a <memset+0x66>
    1c88:	72617453 	rsbvc	r7, r1, #1392508928	; 0x53000000
    1c8c:	666f2074 			; <UNDEFINED> instruction: 0x666f2074
    1c90:	70656520 	rsbvc	r6, r5, r0, lsr #10
    1c94:	446d6f72 	strbtmi	r6, [sp], #-3954	; 0xfffff08e
    1c98:	0d706d75 	ldcleq	13, cr6, [r0, #-468]!	; 0xfffffe2c
    1c9c:	0000000a 	andeq	r0, r0, sl
    1ca0:	20202020 	eorcs	r2, r0, r0, lsr #32
    1ca4:	30302020 	eorscc	r2, r0, r0, lsr #32
    1ca8:	20313020 	eorscs	r3, r1, r0, lsr #32
    1cac:	30203230 	eorcc	r3, r0, r0, lsr r2
    1cb0:	34302033 	ldrtcc	r2, [r0], #-51	; 0xffffffcd
    1cb4:	20353020 	eorscs	r3, r5, r0, lsr #32
    1cb8:	30203630 	eorcc	r3, r0, r0, lsr r6
    1cbc:	38302037 	ldmdacc	r0!, {r0, r1, r2, r4, r5, sp}
    1cc0:	20393020 	eorscs	r3, r9, r0, lsr #32
    1cc4:	30206130 	eorcc	r6, r0, r0, lsr r1
    1cc8:	63302062 	teqvs	r0, #98	; 0x62
    1ccc:	20643020 	rsbcs	r3, r4, r0, lsr #32
    1cd0:	30206530 	eorcc	r6, r0, r0, lsr r5
    1cd4:	000a0d66 	andeq	r0, sl, r6, ror #26
    1cd8:	00000a0d 	andeq	r0, r0, sp, lsl #20
    1cdc:	78343025 	ldmdavc	r4!, {r0, r2, r5, ip, sp}
    1ce0:	0000203a 	andeq	r2, r0, sl, lsr r0
    1ce4:	78323025 	ldmdavc	r2!, {r0, r2, r5, ip, sp}
    1ce8:	00000020 	andeq	r0, r0, r0, lsr #32
    1cec:	6e450a0d 	vmlavs.f32	s1, s10, s26
    1cf0:	666f2064 	strbtvs	r2, [pc], -r4, rrx
    1cf4:	70656520 	rsbvc	r6, r5, r0, lsr #10
    1cf8:	446d6f72 	strbtmi	r6, [sp], #-3954	; 0xfffff08e
    1cfc:	0d706d75 	ldcleq	13, cr6, [r0, #-468]!	; 0xfffffe2c
    1d00:	0000000a 	andeq	r0, r0, sl
    1d04:	2d2d2d2d 	stccs	13, cr2, [sp, #-180]!	; 0xffffff4c
    1d08:	2d2d2d2d 	stccs	13, cr2, [sp, #-180]!	; 0xffffff4c
    1d0c:	2d2d2d2d 	stccs	13, cr2, [sp, #-180]!	; 0xffffff4c
    1d10:	432d2d2d 			; <UNDEFINED> instruction: 0x432d2d2d
    1d14:	4b434548 	blmi	10d323c <_etext+0x10d11d5>
    1d18:	2d2d2d2d 	stccs	13, cr2, [sp, #-180]!	; 0xffffff4c
    1d1c:	2d2d2d2d 	stccs	13, cr2, [sp, #-180]!	; 0xffffff4c
    1d20:	2d2d2d2d 	stccs	13, cr2, [sp, #-180]!	; 0xffffff4c
    1d24:	2d2d2d2d 	stccs	13, cr2, [sp, #-180]!	; 0xffffff4c
    1d28:	00000a0d 	andeq	r0, r0, sp, lsl #20
    1d2c:	636f6c43 	cmnvs	pc, #17152	; 0x4300
    1d30:	64253d6b 	strtvs	r3, [r5], #-3435	; 0xfffff295
    1d34:	00000a0d 	andeq	r0, r0, sp, lsl #20
    1d38:	0b0a0908 	bleq	284160 <_etext+0x2820f9>
    1d3c:	0f0e0d0c 	svceq	0x000e0d0c
    1d40:	33323130 	teqcc	r2, #48, 2
    1d44:	37363534 			; <UNDEFINED> instruction: 0x37363534
    1d48:	62613938 	rsbvs	r3, r1, #56, 18	; 0xe0000
    1d4c:	66656463 	strbtvs	r6, [r5], -r3, ror #8
    1d50:	00000000 	andeq	r0, r0, r0
    1d54:	2e2f2e2e 	cdpcs	14, 2, cr2, cr15, cr14, {1}
    1d58:	69542f2e 	ldmdbvs	r4, {r1, r2, r3, r5, r8, r9, sl, fp, sp}^
    1d5c:	61576176 	cmpvs	r7, r6, ror r1
    1d60:	752f6572 	strvc	r6, [pc, #-1394]!	; 17f6 <PAD_SysPeripheralClockEnable+0x102>
    1d64:	736c6974 	cmnvc	ip, #116, 18	; 0x1d0000
    1d68:	7261752f 	rsbvc	r7, r1, #197132288	; 0xbc00000
    1d6c:	64747374 	ldrbtvs	r7, [r4], #-884	; 0xfffffc8c
    1d70:	632e6f69 			; <UNDEFINED> instruction: 0x632e6f69
    1d74:	00000000 	andeq	r0, r0, r0
    1d78:	00082008 	andeq	r2, r8, r8
    1d7c:	00000a0d 	andeq	r0, r0, sp, lsl #20
    1d80:	00000020 	andeq	r0, r0, r0, lsr #32
    1d84:	4f525245 	svcmi	0x00525245
    1d88:	00000052 	andeq	r0, r0, r2, asr r0

00001d8c <g_ui32UARTBase>:
    1d8c:	4000c000 	andmi	ip, r0, r0
    1d90:	4000d000 	andmi	sp, r0, r0
    1d94:	4000e000 	andmi	lr, r0, r0

00001d98 <g_ui32UARTPeriph>:
    1d98:	f0001800 			; <UNDEFINED> instruction: 0xf0001800
    1d9c:	f0001801 			; <UNDEFINED> instruction: 0xf0001801
    1da0:	f0001802 			; <UNDEFINED> instruction: 0xf0001802

00001da4 <g_pui32GPIOBaseAddrs>:
    1da4:	40004000 	andmi	r4, r0, r0
    1da8:	40058000 	andmi	r8, r5, r0
    1dac:	40005000 	andmi	r5, r0, r0
    1db0:	40059000 	andmi	r9, r5, r0
    1db4:	40006000 	andmi	r6, r0, r0
    1db8:	4005a000 	andmi	sl, r5, r0
    1dbc:	40007000 	andmi	r7, r0, r0
    1dc0:	4005b000 	andmi	fp, r5, r0
    1dc4:	40024000 	andmi	r4, r2, r0
    1dc8:	4005c000 	andmi	ip, r5, r0
    1dcc:	40025000 	andmi	r5, r2, r0
    1dd0:	4005d000 	andmi	sp, r5, r0
    1dd4:	40026000 	andmi	r6, r2, r0
    1dd8:	4005e000 	andmi	lr, r5, r0
    1ddc:	40027000 	andmi	r7, r2, r0
    1de0:	4005f000 	andmi	pc, r5, r0
    1de4:	4003d000 	andmi	sp, r3, r0
    1de8:	40060000 	andmi	r0, r6, r0
    1dec:	40061000 	andmi	r1, r6, r0
    1df0:	40061000 	andmi	r1, r6, r0
    1df4:	40062000 	andmi	r2, r6, r0
    1df8:	40062000 	andmi	r2, r6, r0
    1dfc:	40063000 	andmi	r3, r6, r0
    1e00:	40063000 	andmi	r3, r6, r0
    1e04:	40064000 	andmi	r4, r6, r0
    1e08:	40064000 	andmi	r4, r6, r0
    1e0c:	40065000 	andmi	r5, r6, r0
    1e10:	40065000 	andmi	r5, r6, r0
    1e14:	40066000 	andmi	r6, r6, r0
    1e18:	40066000 	andmi	r6, r6, r0
    1e1c:	40067000 	andmi	r7, r6, r0
    1e20:	40067000 	andmi	r7, r6, r0
    1e24:	40068000 	andmi	r8, r6, r0
    1e28:	40068000 	andmi	r8, r6, r0
    1e2c:	40069000 	andmi	r9, r6, r0
    1e30:	40069000 	andmi	r9, r6, r0

00001e34 <g_pui32Xtals>:
    1e34:	000f4240 	andeq	r4, pc, r0, asr #4
    1e38:	001c2000 	andseq	r2, ip, r0
    1e3c:	001e8480 	andseq	r8, lr, r0, lsl #9
    1e40:	00258000 	eoreq	r8, r5, r0
    1e44:	00369e99 	mlaseq	r6, r9, lr, r9
    1e48:	00384000 	eorseq	r4, r8, r0
    1e4c:	003d0900 	eorseq	r0, sp, r0, lsl #18
    1e50:	003e8000 	eorseq	r8, lr, r0
    1e54:	004b0000 	subeq	r0, fp, r0
    1e58:	004c4b40 	subeq	r4, ip, r0, asr #22
    1e5c:	004e2000 	subeq	r2, lr, r0
    1e60:	005b8d80 	subseq	r8, fp, r0, lsl #27
    1e64:	005dc000 	subseq	ip, sp, r0
    1e68:	00708000 	rsbseq	r8, r0, r0
    1e6c:	007a1200 	rsbseq	r1, sl, r0, lsl #4
    1e70:	007d0000 	rsbseq	r0, sp, r0
    1e74:	00989680 	addseq	r9, r8, r0, lsl #13
    1e78:	00b71b00 	adcseq	r1, r7, r0, lsl #22
    1e7c:	00bb8000 	adcseq	r8, fp, r0
    1e80:	00cee8c0 	sbceq	lr, lr, r0, asr #17
    1e84:	00da7a64 	sbcseq	r7, sl, r4, ror #20
    1e88:	00f42400 	rscseq	r2, r4, r0, lsl #8
    1e8c:	00fa0000 	rscseq	r0, sl, r0
    1e90:	0112a880 	tsteq	r2, r0, lsl #17
    1e94:	01312d00 	teqeq	r1, r0, lsl #26
    1e98:	016e3600 	cmneq	lr, r0, lsl #12
    1e9c:	017d7840 	cmneq	sp, r0, asr #16
    1ea0:	2e2f2e2e 	cdpcs	14, 2, cr2, cr15, cr14, {1}
    1ea4:	72732f2e 	rsbsvc	r2, r3, #46, 30	; 0xb8
    1ea8:	72642f63 	rsbvc	r2, r4, #396	; 0x18c
    1eac:	72657669 	rsbvc	r7, r5, #110100480	; 0x6900000
    1eb0:	6332692f 	teqvs	r2, #770048	; 0xbc000
    1eb4:	7070632e 	rsbsvc	r6, r0, lr, lsr #6
    1eb8:	00000000 	andeq	r0, r0, r0
    1ebc:	00495053 	subeq	r5, r9, r3, asr r0
    1ec0:	25207325 	strcs	r7, [r0, #-805]!	; 0xfffffcdb
    1ec4:	6f6d2064 	svcvs	0x006d2064
    1ec8:	656c7564 	strbvs	r7, [ip, #-1380]!	; 0xfffffa9c
    1ecc:	20736920 	rsbscs	r6, r3, r0, lsr #18
    1ed0:	65726c61 	ldrbvs	r6, [r2, #-3169]!	; 0xfffff39f
    1ed4:	20796461 	rsbscs	r6, r9, r1, ror #8
    1ed8:	74696e69 	strbtvc	r6, [r9], #-3689	; 0xfffff197
    1edc:	696c6169 	stmdbvs	ip!, {r0, r3, r5, r6, r8, sp, lr}^
    1ee0:	2064657a 	rsbcs	r6, r4, sl, ror r5
    1ee4:	20646e61 	rsbcs	r6, r4, r1, ror #28
    1ee8:	64657375 	strbtvs	r7, [r5], #-885	; 0xfffffc8b
    1eec:	00002121 	andeq	r2, r0, r1, lsr #2
    1ef0:	25207325 	strcs	r7, [r0, #-805]!	; 0xfffffcdb
    1ef4:	6f6d2064 	svcvs	0x006d2064
    1ef8:	656c7564 	strbvs	r7, [ip, #-1380]!	; 0xfffffa9c
    1efc:	696e6920 	stmdbvs	lr!, {r5, r8, fp, sp, lr}^
    1f00:	6c616974 			; <UNDEFINED> instruction: 0x6c616974
    1f04:	20657a69 	rsbcs	r7, r5, r9, ror #20
    1f08:	6c696166 	stfvse	f6, [r9], #-408	; 0xfffffe68
    1f0c:	203a6465 	eorscs	r6, sl, r5, ror #8
    1f10:	6e727265 	cdpvs	2, 7, cr7, cr2, cr5, {3}
    1f14:	6425206f 	strtvs	r2, [r5], #-111	; 0xffffff91
    1f18:	00000000 	andeq	r0, r0, r0
    1f1c:	25207325 	strcs	r7, [r0, #-805]!	; 0xfffffcdb
    1f20:	72662064 	rsbvc	r2, r6, #100	; 0x64
    1f24:	20656d61 	rsbcs	r6, r5, r1, ror #26
    1f28:	74696e69 	strbtvc	r6, [r9], #-3689	; 0xfffff197
    1f2c:	7265203a 	rsbvc	r2, r5, #58	; 0x3a
    1f30:	206f6e72 	rsbcs	r6, pc, r2, ror lr	; <UNPREDICTABLE>
    1f34:	00006425 	andeq	r6, r0, r5, lsr #8
    1f38:	5d73255b 	cfldr64pl	mvdx2, [r3, #-364]!	; 0xfffffe94
    1f3c:	69725720 	ldmdbvs	r2!, {r5, r8, r9, sl, ip, lr}^
    1f40:	72206574 	eorvc	r6, r0, #116, 10	; 0x1d000000
    1f44:	65757165 	ldrbvs	r7, [r5, #-357]!	; 0xfffffe9b
    1f48:	77207473 			; <UNDEFINED> instruction: 0x77207473
    1f4c:	20687469 	rsbcs	r7, r8, r9, ror #8
    1f50:	73206425 			; <UNDEFINED> instruction: 0x73206425
    1f54:	21657a69 	cmncs	r5, r9, ror #20
    1f58:	00002121 	andeq	r2, r0, r1, lsr #2
    1f5c:	5d73255b 	cfldr64pl	mvdx2, [r3, #-364]!	; 0xfffffe94
    1f60:	69725720 	ldmdbvs	r2!, {r5, r8, r9, sl, ip, lr}^
    1f64:	72206574 	eorvc	r6, r0, #116, 10	; 0x1d000000
    1f68:	65757165 	ldrbvs	r7, [r5, #-357]!	; 0xfffffe9b
    1f6c:	77207473 			; <UNDEFINED> instruction: 0x77207473
    1f70:	20687469 	rsbcs	r7, r8, r9, ror #8
    1f74:	69732030 	ldmdbvs	r3!, {r4, r5, sp}^
    1f78:	2121657a 			; <UNDEFINED> instruction: 0x2121657a
    1f7c:	00000021 	andeq	r0, r0, r1, lsr #32
    1f80:	5d73255b 	cfldr64pl	mvdx2, [r3, #-364]!	; 0xfffffe94
    1f84:	61655220 	cmnvs	r5, r0, lsr #4
    1f88:	65722064 	ldrbvs	r2, [r2, #-100]!	; 0xffffff9c
    1f8c:	73657571 	cmnvc	r5, #473956352	; 0x1c400000
    1f90:	69772074 	ldmdbvs	r7!, {r2, r4, r5, r6, sp}^
    1f94:	25206874 	strcs	r6, [r0, #-2164]!	; 0xfffff78c
    1f98:	69732064 	ldmdbvs	r3!, {r2, r5, r6, sp}^
    1f9c:	2121657a 			; <UNDEFINED> instruction: 0x2121657a
    1fa0:	00000021 	andeq	r0, r0, r1, lsr #32
    1fa4:	5d73255b 	cfldr64pl	mvdx2, [r3, #-364]!	; 0xfffffe94
    1fa8:	61655220 	cmnvs	r5, r0, lsr #4
    1fac:	65722064 	ldrbvs	r2, [r2, #-100]!	; 0xffffff9c
    1fb0:	73657571 	cmnvc	r5, #473956352	; 0x1c400000
    1fb4:	69772074 	ldmdbvs	r7!, {r2, r4, r5, r6, sp}^
    1fb8:	30206874 	eorcc	r6, r0, r4, ror r8
    1fbc:	7a697320 	bvc	1a5ec44 <_etext+0x1a5cbdd>
    1fc0:	00000065 	andeq	r0, r0, r5, rrx
    1fc4:	2e2f2e2e 	cdpcs	14, 2, cr2, cr15, cr14, {1}
    1fc8:	72732f2e 	rsbsvc	r2, r3, #46, 30	; 0xb8
    1fcc:	72642f63 	rsbvc	r2, r4, #396	; 0x18c
    1fd0:	72657669 	rsbvc	r7, r5, #110100480	; 0x6900000
    1fd4:	6970732f 	ldmdbvs	r0!, {r0, r1, r2, r3, r5, r8, r9, ip, sp, lr}^
    1fd8:	7070632e 	rsbsvc	r6, r0, lr, lsr #6
    1fdc:	00000000 	andeq	r0, r0, r0
    1fe0:	20495053 	subcs	r5, r9, r3, asr r0
    1fe4:	74617473 	strbtvc	r7, [r1], #-1139	; 0xfffffb8d
    1fe8:	25207375 	strcs	r7, [r0, #-885]!	; 0xfffffc8b
    1fec:	0d783830 	ldcleq	8, cr3, [r8, #-192]!	; 0xffffff40
    1ff0:	0000000a 	andeq	r0, r0, sl
    1ff4:	20495053 	subcs	r5, r9, r3, asr r0
    1ff8:	65746e69 	ldrbvs	r6, [r4, #-3689]!	; 0xfffff197
    1ffc:	70757272 	rsbsvc	r7, r5, r2, ror r2
    2000:	74732074 	ldrbtvc	r2, [r3], #-116	; 0xffffff8c
    2004:	73757461 	cmnvc	r5, #1627389952	; 0x61000000
    2008:	38302520 	ldmdacc	r0!, {r5, r8, sl, sp}
    200c:	000a0d78 	andeq	r0, sl, r8, ror sp
    2010:	4245445b 	submi	r4, r5, #1526726656	; 0x5b000000
    2014:	205d4755 	subscs	r4, sp, r5, asr r7
    2018:	253a7325 	ldrcs	r7, [sl, #-805]!	; 0xfffffcdb
    201c:	000a0d64 	andeq	r0, sl, r4, ror #26
    2020:	0030564c 	eorseq	r5, r0, ip, asr #12
    2024:	0031564c 	eorseq	r5, r1, ip, asr #12
    2028:	0032564c 	eorseq	r5, r2, ip, asr #12
    202c:	00474f4c 	subeq	r4, r7, ip, asr #30
    2030:	004e5257 	subeq	r5, lr, r7, asr r2
    2034:	00525245 	subseq	r5, r2, r5, asr #4
    2038:	4f525245 	svcmi	0x00525245
    203c:	454c2052 	strbmi	r2, [ip, #-82]	; 0xffffffae
    2040:	004c4556 	subeq	r4, ip, r6, asr r5
    2044:	5d73255b 	cfldr64pl	mvdx2, [r3, #-364]!	; 0xfffffe94
    2048:	00000000 	andeq	r0, r0, r0
    204c:	33335b1b 	teqcc	r3, #27648	; 0x6c00
    2050:	0000006d 	andeq	r0, r0, sp, rrx
    2054:	31335b1b 	teqcc	r3, fp, lsl fp
    2058:	0000006d 	andeq	r0, r0, sp, rrx
    205c:	6d305b1b 	fldmdbxvs	r0!, {d5-d17}	;@ Deprecated
    2060:	00000000 	andeq	r0, r0, r0
    2064:	Address 0x00002064 is out of bounds.

