
Build/main.axf:     file format elf32-littlearm


Disassembly of section .text:

00000000 <g_pfnVectors>:
       0:	20002204 	andcs	r2, r0, r4, lsl #4
       4:	00000425 	andeq	r0, r0, r5, lsr #8
       8:	00000491 	muleq	r0, r1, r4
       c:	00000497 	muleq	r0, r7, r4
      10:	0000049d 	muleq	r0, sp, r4
      14:	0000049d 	muleq	r0, sp, r4
      18:	0000049d 	muleq	r0, sp, r4
	...
      2c:	0000049d 	muleq	r0, sp, r4
      30:	0000049d 	muleq	r0, sp, r4
      34:	00000000 	andeq	r0, r0, r0
      38:	0000049d 	muleq	r0, sp, r4
      3c:	0000049d 	muleq	r0, sp, r4
      40:	0000049d 	muleq	r0, sp, r4
      44:	0000049d 	muleq	r0, sp, r4
      48:	0000049d 	muleq	r0, sp, r4
      4c:	0000049d 	muleq	r0, sp, r4
      50:	0000049d 	muleq	r0, sp, r4
      54:	0000049d 	muleq	r0, sp, r4
      58:	0000049d 	muleq	r0, sp, r4
      5c:	0000049d 	muleq	r0, sp, r4
      60:	0000049d 	muleq	r0, sp, r4
      64:	0000049d 	muleq	r0, sp, r4
      68:	0000049d 	muleq	r0, sp, r4
      6c:	0000049d 	muleq	r0, sp, r4
      70:	0000049d 	muleq	r0, sp, r4
      74:	0000049d 	muleq	r0, sp, r4
      78:	0000049d 	muleq	r0, sp, r4
      7c:	0000049d 	muleq	r0, sp, r4
      80:	0000049d 	muleq	r0, sp, r4
      84:	0000049d 	muleq	r0, sp, r4
      88:	0000049d 	muleq	r0, sp, r4
      8c:	0000049d 	muleq	r0, sp, r4
      90:	0000049d 	muleq	r0, sp, r4
      94:	0000049d 	muleq	r0, sp, r4
      98:	0000049d 	muleq	r0, sp, r4
      9c:	0000049d 	muleq	r0, sp, r4
      a0:	0000049d 	muleq	r0, sp, r4
      a4:	0000049d 	muleq	r0, sp, r4
      a8:	0000049d 	muleq	r0, sp, r4
      ac:	0000049d 	muleq	r0, sp, r4
      b0:	0000049d 	muleq	r0, sp, r4
      b4:	0000049d 	muleq	r0, sp, r4
      b8:	0000049d 	muleq	r0, sp, r4
      bc:	0000049d 	muleq	r0, sp, r4
      c0:	0000049d 	muleq	r0, sp, r4
      c4:	0000049d 	muleq	r0, sp, r4
      c8:	0000049d 	muleq	r0, sp, r4
      cc:	0000049d 	muleq	r0, sp, r4
      d0:	0000049d 	muleq	r0, sp, r4
      d4:	0000049d 	muleq	r0, sp, r4
      d8:	0000049d 	muleq	r0, sp, r4
      dc:	0000049d 	muleq	r0, sp, r4
      e0:	0000049d 	muleq	r0, sp, r4
	...
      ec:	0000049d 	muleq	r0, sp, r4
      f0:	0000049d 	muleq	r0, sp, r4
      f4:	0000049d 	muleq	r0, sp, r4
      f8:	0000049d 	muleq	r0, sp, r4
      fc:	0000049d 	muleq	r0, sp, r4
     100:	0000049d 	muleq	r0, sp, r4
     104:	0000049d 	muleq	r0, sp, r4
     108:	0000049d 	muleq	r0, sp, r4
     10c:	0000049d 	muleq	r0, sp, r4
	...
     118:	0000049d 	muleq	r0, sp, r4
     11c:	0000049d 	muleq	r0, sp, r4
     120:	0000049d 	muleq	r0, sp, r4
     124:	0000049d 	muleq	r0, sp, r4
     128:	0000049d 	muleq	r0, sp, r4
     12c:	0000049d 	muleq	r0, sp, r4
     130:	0000049d 	muleq	r0, sp, r4
     134:	0000049d 	muleq	r0, sp, r4
     138:	0000049d 	muleq	r0, sp, r4
     13c:	0000049d 	muleq	r0, sp, r4
	...
     150:	0000049d 	muleq	r0, sp, r4
     154:	0000049d 	muleq	r0, sp, r4
     158:	0000049d 	muleq	r0, sp, r4
     15c:	0000049d 	muleq	r0, sp, r4
	...
     1b0:	0000049d 	muleq	r0, sp, r4
     1b4:	0000049d 	muleq	r0, sp, r4
     1b8:	0000049d 	muleq	r0, sp, r4
     1bc:	0000049d 	muleq	r0, sp, r4
     1c0:	0000049d 	muleq	r0, sp, r4
     1c4:	0000049d 	muleq	r0, sp, r4
     1c8:	0000049d 	muleq	r0, sp, r4
     1cc:	0000049d 	muleq	r0, sp, r4
     1d0:	0000049d 	muleq	r0, sp, r4
     1d4:	0000049d 	muleq	r0, sp, r4
     1d8:	0000049d 	muleq	r0, sp, r4
     1dc:	0000049d 	muleq	r0, sp, r4
     1e0:	0000049d 	muleq	r0, sp, r4
     1e4:	0000049d 	muleq	r0, sp, r4
     1e8:	0000049d 	muleq	r0, sp, r4
	...
     1f4:	0000049d 	muleq	r0, sp, r4
     1f8:	0000049d 	muleq	r0, sp, r4
     1fc:	0000049d 	muleq	r0, sp, r4
     200:	0000049d 	muleq	r0, sp, r4
     204:	0000049d 	muleq	r0, sp, r4
	...
     210:	0000049d 	muleq	r0, sp, r4
     214:	0000049d 	muleq	r0, sp, r4
     218:	0000049d 	muleq	r0, sp, r4
     21c:	0000049d 	muleq	r0, sp, r4
     220:	0000049d 	muleq	r0, sp, r4
     224:	0000049d 	muleq	r0, sp, r4
     228:	0000049d 	muleq	r0, sp, r4
     22c:	0000049d 	muleq	r0, sp, r4
     230:	0000049d 	muleq	r0, sp, r4
     234:	0000049d 	muleq	r0, sp, r4
     238:	0000049d 	muleq	r0, sp, r4
     23c:	0000049d 	muleq	r0, sp, r4
     240:	0000049d 	muleq	r0, sp, r4
     244:	0000049d 	muleq	r0, sp, r4
     248:	0000049d 	muleq	r0, sp, r4
     24c:	0000049d 	muleq	r0, sp, r4
     250:	0000049d 	muleq	r0, sp, r4
     254:	0000049d 	muleq	r0, sp, r4
     258:	0000049d 	muleq	r0, sp, r4
     25c:	0000049d 	muleq	r0, sp, r4
     260:	0000049d 	muleq	r0, sp, r4
     264:	0000049d 	muleq	r0, sp, r4
     268:	0000049d 	muleq	r0, sp, r4

0000026c <_Z11InitConsolev>:
     26c:	b580      	push	{r7, lr}
     26e:	af00      	add	r7, sp, #0
     270:	4810      	ldr	r0, [pc, #64]	; (2b4 <_Z11InitConsolev+0x48>)
     272:	f000 fcb7 	bl	be4 <SysCtlPeripheralEnable>
     276:	2001      	movs	r0, #1
     278:	f000 fc80 	bl	b7c <GPIOPinConfigure>
     27c:	f240 4001 	movw	r0, #1025	; 0x401
     280:	f000 fc7c 	bl	b7c <GPIOPinConfigure>
     284:	480c      	ldr	r0, [pc, #48]	; (2b8 <_Z11InitConsolev+0x4c>)
     286:	f000 fcad 	bl	be4 <SysCtlPeripheralEnable>
     28a:	2100      	movs	r1, #0
     28c:	480b      	ldr	r0, [pc, #44]	; (2bc <_Z11InitConsolev+0x50>)
     28e:	f000 fd9e 	bl	dce <UARTClockSourceSet>
     292:	2103      	movs	r1, #3
     294:	f04f 2040 	mov.w	r0, #1073758208	; 0x40004000
     298:	f000 fc6e 	bl	b78 <GPIOPinTypeUART>
     29c:	f000 fcb2 	bl	c04 <SysCtlClockGet>
     2a0:	4603      	mov	r3, r0
     2a2:	461a      	mov	r2, r3
     2a4:	f44f 2161 	mov.w	r1, #921600	; 0xe1000
     2a8:	2000      	movs	r0, #0
     2aa:	f000 f8fb 	bl	4a4 <UARTStdioConfig>
     2ae:	bf00      	nop
     2b0:	bd80      	pop	{r7, pc}
     2b2:	bf00      	nop
     2b4:	f0000800 			; <UNDEFINED> instruction: 0xf0000800
     2b8:	f0001800 			; <UNDEFINED> instruction: 0xf0001800
     2bc:	4000c000 	andmi	ip, r0, r0

000002c0 <_Z10eepromDumpmPh>:
     2c0:	b580      	push	{r7, lr}
     2c2:	b084      	sub	sp, #16
     2c4:	af00      	add	r7, sp, #0
     2c6:	6078      	str	r0, [r7, #4]
     2c8:	6039      	str	r1, [r7, #0]
     2ca:	2300      	movs	r3, #0
     2cc:	813b      	strh	r3, [r7, #8]
     2ce:	f107 0308 	add.w	r3, r7, #8
     2d2:	461a      	mov	r2, r3
     2d4:	2102      	movs	r1, #2
     2d6:	2050      	movs	r0, #80	; 0x50
     2d8:	f000 fe3e 	bl	f58 <I2C_WriteBytes>
     2dc:	4a19      	ldr	r2, [pc, #100]	; (344 <_Z10eepromDumpmPh+0x84>)
     2de:	f44f 5100 	mov.w	r1, #8192	; 0x2000
     2e2:	2050      	movs	r0, #80	; 0x50
     2e4:	f000 ff5c 	bl	11a0 <I2C_ReadBytes>
     2e8:	4817      	ldr	r0, [pc, #92]	; (348 <_Z10eepromDumpmPh+0x88>)
     2ea:	f000 fb6f 	bl	9cc <UARTprintf>
     2ee:	4817      	ldr	r0, [pc, #92]	; (34c <_Z10eepromDumpmPh+0x8c>)
     2f0:	f000 fb6c 	bl	9cc <UARTprintf>
     2f4:	2300      	movs	r3, #0
     2f6:	60fb      	str	r3, [r7, #12]
     2f8:	68fa      	ldr	r2, [r7, #12]
     2fa:	687b      	ldr	r3, [r7, #4]
     2fc:	429a      	cmp	r2, r3
     2fe:	d21a      	bcs.n	336 <_Z10eepromDumpmPh+0x76>
     300:	68fb      	ldr	r3, [r7, #12]
     302:	f003 030f 	and.w	r3, r3, #15
     306:	2b00      	cmp	r3, #0
     308:	d109      	bne.n	31e <_Z10eepromDumpmPh+0x5e>
     30a:	68fb      	ldr	r3, [r7, #12]
     30c:	2b00      	cmp	r3, #0
     30e:	d002      	beq.n	316 <_Z10eepromDumpmPh+0x56>
     310:	480f      	ldr	r0, [pc, #60]	; (350 <_Z10eepromDumpmPh+0x90>)
     312:	f000 fb5b 	bl	9cc <UARTprintf>
     316:	68f9      	ldr	r1, [r7, #12]
     318:	480e      	ldr	r0, [pc, #56]	; (354 <_Z10eepromDumpmPh+0x94>)
     31a:	f000 fb57 	bl	9cc <UARTprintf>
     31e:	683a      	ldr	r2, [r7, #0]
     320:	68fb      	ldr	r3, [r7, #12]
     322:	4413      	add	r3, r2
     324:	781b      	ldrb	r3, [r3, #0]
     326:	4619      	mov	r1, r3
     328:	480b      	ldr	r0, [pc, #44]	; (358 <_Z10eepromDumpmPh+0x98>)
     32a:	f000 fb4f 	bl	9cc <UARTprintf>
     32e:	68fb      	ldr	r3, [r7, #12]
     330:	3301      	adds	r3, #1
     332:	60fb      	str	r3, [r7, #12]
     334:	e7e0      	b.n	2f8 <_Z10eepromDumpmPh+0x38>
     336:	4809      	ldr	r0, [pc, #36]	; (35c <_Z10eepromDumpmPh+0x9c>)
     338:	f000 fb48 	bl	9cc <UARTprintf>
     33c:	bf00      	nop
     33e:	3710      	adds	r7, #16
     340:	46bd      	mov	sp, r7
     342:	bd80      	pop	{r7, pc}
     344:	20000004 	andcs	r0, r0, r4
     348:	00001c88 	andeq	r1, r0, r8, lsl #25
     34c:	00001ca0 	andeq	r1, r0, r0, lsr #25
     350:	00001cd8 	ldrdeq	r1, [r0], -r8
     354:	00001cdc 	ldrdeq	r1, [r0], -ip
     358:	00001ce4 	andeq	r1, r0, r4, ror #25
     35c:	00001cec 	andeq	r1, r0, ip, ror #25

00000360 <main>:
     360:	b580      	push	{r7, lr}
     362:	b086      	sub	sp, #24
     364:	af00      	add	r7, sp, #0
     366:	f64a 23aa 	movw	r3, #43690	; 0xaaaa
     36a:	60fb      	str	r3, [r7, #12]
     36c:	2300      	movs	r3, #0
     36e:	613b      	str	r3, [r7, #16]
     370:	4a28      	ldr	r2, [pc, #160]	; (414 <main+0xb4>)
     372:	1d3b      	adds	r3, r7, #4
     374:	e892 0003 	ldmia.w	r2, {r0, r1}
     378:	e883 0003 	stmia.w	r3, {r0, r1}
     37c:	f44f 7380 	mov.w	r3, #256	; 0x100
     380:	617b      	str	r3, [r7, #20]
     382:	f001 f87b 	bl	147c <PAD_SysClockSet>
     386:	f7ff ff71 	bl	26c <_Z11InitConsolev>
     38a:	f000 fdb9 	bl	f00 <I2C_Init>
     38e:	2000      	movs	r0, #0
     390:	f001 fb34 	bl	19fc <setEEPROMProtocol>
     394:	f44f 5200 	mov.w	r2, #8192	; 0x2000
     398:	21aa      	movs	r1, #170	; 0xaa
     39a:	481f      	ldr	r0, [pc, #124]	; (418 <main+0xb8>)
     39c:	f001 fc22 	bl	1be4 <memset>
     3a0:	491d      	ldr	r1, [pc, #116]	; (418 <main+0xb8>)
     3a2:	f44f 5000 	mov.w	r0, #8192	; 0x2000
     3a6:	f7ff ff8b 	bl	2c0 <_Z10eepromDumpmPh>
     3aa:	f107 030c 	add.w	r3, r7, #12
     3ae:	461a      	mov	r2, r3
     3b0:	2103      	movs	r1, #3
     3b2:	2020      	movs	r0, #32
     3b4:	f001 fb38 	bl	1a28 <eepromRead>
     3b8:	f44f 33a0 	mov.w	r3, #81920	; 0x14000
     3bc:	617b      	str	r3, [r7, #20]
     3be:	697b      	ldr	r3, [r7, #20]
     3c0:	3b01      	subs	r3, #1
     3c2:	617b      	str	r3, [r7, #20]
     3c4:	697b      	ldr	r3, [r7, #20]
     3c6:	2b00      	cmp	r3, #0
     3c8:	bf14      	ite	ne
     3ca:	2301      	movne	r3, #1
     3cc:	2300      	moveq	r3, #0
     3ce:	b2db      	uxtb	r3, r3
     3d0:	2b00      	cmp	r3, #0
     3d2:	d000      	beq.n	3d6 <main+0x76>
     3d4:	e7f3      	b.n	3be <main+0x5e>
     3d6:	f44f 33a0 	mov.w	r3, #81920	; 0x14000
     3da:	617b      	str	r3, [r7, #20]
     3dc:	697b      	ldr	r3, [r7, #20]
     3de:	3b01      	subs	r3, #1
     3e0:	617b      	str	r3, [r7, #20]
     3e2:	697b      	ldr	r3, [r7, #20]
     3e4:	2b00      	cmp	r3, #0
     3e6:	bf14      	ite	ne
     3e8:	2301      	movne	r3, #1
     3ea:	2300      	moveq	r3, #0
     3ec:	b2db      	uxtb	r3, r3
     3ee:	2b00      	cmp	r3, #0
     3f0:	d000      	beq.n	3f4 <main+0x94>
     3f2:	e7f3      	b.n	3dc <main+0x7c>
     3f4:	4809      	ldr	r0, [pc, #36]	; (41c <main+0xbc>)
     3f6:	f000 fae9 	bl	9cc <UARTprintf>
     3fa:	4907      	ldr	r1, [pc, #28]	; (418 <main+0xb8>)
     3fc:	f44f 5000 	mov.w	r0, #8192	; 0x2000
     400:	f7ff ff5e 	bl	2c0 <_Z10eepromDumpmPh>
     404:	f000 fbfe 	bl	c04 <SysCtlClockGet>
     408:	4603      	mov	r3, r0
     40a:	4619      	mov	r1, r3
     40c:	4804      	ldr	r0, [pc, #16]	; (420 <main+0xc0>)
     40e:	f000 fadd 	bl	9cc <UARTprintf>
     412:	e7fe      	b.n	412 <main+0xb2>
     414:	00001d38 	andeq	r1, r0, r8, lsr sp
     418:	20000004 	andcs	r0, r0, r4
     41c:	00001d04 	andeq	r1, r0, r4, lsl #26
     420:	00001d2c 	andeq	r1, r0, ip, lsr #26

00000424 <ResetISR>:
     424:	b580      	push	{r7, lr}
     426:	b082      	sub	sp, #8
     428:	af00      	add	r7, sp, #0
     42a:	4b13      	ldr	r3, [pc, #76]	; (478 <zero_loop+0x24>)
     42c:	607b      	str	r3, [r7, #4]
     42e:	4b13      	ldr	r3, [pc, #76]	; (47c <zero_loop+0x28>)
     430:	603b      	str	r3, [r7, #0]
     432:	e007      	b.n	444 <ResetISR+0x20>
     434:	687a      	ldr	r2, [r7, #4]
     436:	1d13      	adds	r3, r2, #4
     438:	607b      	str	r3, [r7, #4]
     43a:	683b      	ldr	r3, [r7, #0]
     43c:	1d19      	adds	r1, r3, #4
     43e:	6039      	str	r1, [r7, #0]
     440:	6812      	ldr	r2, [r2, #0]
     442:	601a      	str	r2, [r3, #0]
     444:	683b      	ldr	r3, [r7, #0]
     446:	4a0e      	ldr	r2, [pc, #56]	; (480 <zero_loop+0x2c>)
     448:	4293      	cmp	r3, r2
     44a:	d3f3      	bcc.n	434 <ResetISR+0x10>
     44c:	480e      	ldr	r0, [pc, #56]	; (488 <zero_loop+0x34>)
     44e:	490f      	ldr	r1, [pc, #60]	; (48c <zero_loop+0x38>)
     450:	f04f 0200 	mov.w	r2, #0

00000454 <zero_loop>:
     454:	4288      	cmp	r0, r1
     456:	bfb8      	it	lt
     458:	f840 2b04 	strlt.w	r2, [r0], #4
     45c:	dbfa      	blt.n	454 <zero_loop>
     45e:	4b09      	ldr	r3, [pc, #36]	; (484 <zero_loop+0x30>)
     460:	681b      	ldr	r3, [r3, #0]
     462:	4a08      	ldr	r2, [pc, #32]	; (484 <zero_loop+0x30>)
     464:	f443 0370 	orr.w	r3, r3, #15728640	; 0xf00000
     468:	6013      	str	r3, [r2, #0]
     46a:	f7ff ff79 	bl	360 <main>
     46e:	bf00      	nop
     470:	3708      	adds	r7, #8
     472:	46bd      	mov	sp, r7
     474:	bd80      	pop	{r7, pc}
     476:	bf00      	nop
     478:	00002067 	andeq	r2, r0, r7, rrx
     47c:	20000000 	andcs	r0, r0, r0
     480:	20000004 	andcs	r0, r0, r4
     484:	e000ed88 	and	lr, r0, r8, lsl #27
     488:	20000004 	andcs	r0, r0, r4
     48c:	20002250 	andcs	r2, r0, r0, asr r2

00000490 <NmiSR>:
     490:	b480      	push	{r7}
     492:	af00      	add	r7, sp, #0
     494:	e7fe      	b.n	494 <NmiSR+0x4>

00000496 <FaultISR>:
     496:	b480      	push	{r7}
     498:	af00      	add	r7, sp, #0
     49a:	e7fe      	b.n	49a <FaultISR+0x4>

0000049c <IntDefaultHandler>:
     49c:	b480      	push	{r7}
     49e:	af00      	add	r7, sp, #0
     4a0:	e7fe      	b.n	4a0 <IntDefaultHandler+0x4>
	...

000004a4 <UARTStdioConfig>:
     4a4:	b580      	push	{r7, lr}
     4a6:	b084      	sub	sp, #16
     4a8:	af00      	add	r7, sp, #0
     4aa:	60f8      	str	r0, [r7, #12]
     4ac:	60b9      	str	r1, [r7, #8]
     4ae:	607a      	str	r2, [r7, #4]
     4b0:	68fb      	ldr	r3, [r7, #12]
     4b2:	2b00      	cmp	r3, #0
     4b4:	d00a      	beq.n	4cc <UARTStdioConfig+0x28>
     4b6:	68fb      	ldr	r3, [r7, #12]
     4b8:	2b01      	cmp	r3, #1
     4ba:	d007      	beq.n	4cc <UARTStdioConfig+0x28>
     4bc:	68fb      	ldr	r3, [r7, #12]
     4be:	2b02      	cmp	r3, #2
     4c0:	d004      	beq.n	4cc <UARTStdioConfig+0x28>
     4c2:	f240 1153 	movw	r1, #339	; 0x153
     4c6:	4817      	ldr	r0, [pc, #92]	; (524 <UARTStdioConfig+0x80>)
     4c8:	f001 fafe 	bl	1ac8 <__error__>
     4cc:	4a16      	ldr	r2, [pc, #88]	; (528 <UARTStdioConfig+0x84>)
     4ce:	68fb      	ldr	r3, [r7, #12]
     4d0:	f852 3023 	ldr.w	r3, [r2, r3, lsl #2]
     4d4:	4618      	mov	r0, r3
     4d6:	f000 fb73 	bl	bc0 <SysCtlPeripheralPresent>
     4da:	4603      	mov	r3, r0
     4dc:	f083 0301 	eor.w	r3, r3, #1
     4e0:	b2db      	uxtb	r3, r3
     4e2:	2b00      	cmp	r3, #0
     4e4:	d119      	bne.n	51a <UARTStdioConfig+0x76>
     4e6:	4a11      	ldr	r2, [pc, #68]	; (52c <UARTStdioConfig+0x88>)
     4e8:	68fb      	ldr	r3, [r7, #12]
     4ea:	f852 3023 	ldr.w	r3, [r2, r3, lsl #2]
     4ee:	4a10      	ldr	r2, [pc, #64]	; (530 <UARTStdioConfig+0x8c>)
     4f0:	6013      	str	r3, [r2, #0]
     4f2:	4a0d      	ldr	r2, [pc, #52]	; (528 <UARTStdioConfig+0x84>)
     4f4:	68fb      	ldr	r3, [r7, #12]
     4f6:	f852 3023 	ldr.w	r3, [r2, r3, lsl #2]
     4fa:	4618      	mov	r0, r3
     4fc:	f000 fb72 	bl	be4 <SysCtlPeripheralEnable>
     500:	4b0b      	ldr	r3, [pc, #44]	; (530 <UARTStdioConfig+0x8c>)
     502:	6818      	ldr	r0, [r3, #0]
     504:	2360      	movs	r3, #96	; 0x60
     506:	68ba      	ldr	r2, [r7, #8]
     508:	6879      	ldr	r1, [r7, #4]
     50a:	f000 fc38 	bl	d7e <UARTConfigSetExpClk>
     50e:	4b08      	ldr	r3, [pc, #32]	; (530 <UARTStdioConfig+0x8c>)
     510:	681b      	ldr	r3, [r3, #0]
     512:	4618      	mov	r0, r3
     514:	f000 fc1a 	bl	d4c <UARTEnable>
     518:	e000      	b.n	51c <UARTStdioConfig+0x78>
     51a:	bf00      	nop
     51c:	3710      	adds	r7, #16
     51e:	46bd      	mov	sp, r7
     520:	bd80      	pop	{r7, pc}
     522:	bf00      	nop
     524:	00001d54 	andeq	r1, r0, r4, asr sp
     528:	00001d98 	muleq	r0, r8, sp
     52c:	00001d8c 	andeq	r1, r0, ip, lsl #27
     530:	20002204 	andcs	r2, r0, r4, lsl #4

00000534 <UARTwrite>:
     534:	b580      	push	{r7, lr}
     536:	b084      	sub	sp, #16
     538:	af00      	add	r7, sp, #0
     53a:	6078      	str	r0, [r7, #4]
     53c:	6039      	str	r1, [r7, #0]
     53e:	4b1f      	ldr	r3, [pc, #124]	; (5bc <UARTwrite+0x88>)
     540:	681b      	ldr	r3, [r3, #0]
     542:	2b00      	cmp	r3, #0
     544:	d104      	bne.n	550 <UARTwrite+0x1c>
     546:	f240 2101 	movw	r1, #513	; 0x201
     54a:	481d      	ldr	r0, [pc, #116]	; (5c0 <UARTwrite+0x8c>)
     54c:	f001 fabc 	bl	1ac8 <__error__>
     550:	687b      	ldr	r3, [r7, #4]
     552:	2b00      	cmp	r3, #0
     554:	d104      	bne.n	560 <UARTwrite+0x2c>
     556:	f240 2102 	movw	r1, #514	; 0x202
     55a:	4819      	ldr	r0, [pc, #100]	; (5c0 <UARTwrite+0x8c>)
     55c:	f001 fab4 	bl	1ac8 <__error__>
     560:	2300      	movs	r3, #0
     562:	60fb      	str	r3, [r7, #12]
     564:	e01e      	b.n	5a4 <UARTwrite+0x70>
     566:	687a      	ldr	r2, [r7, #4]
     568:	68fb      	ldr	r3, [r7, #12]
     56a:	4413      	add	r3, r2
     56c:	781b      	ldrb	r3, [r3, #0]
     56e:	2b0a      	cmp	r3, #10
     570:	d106      	bne.n	580 <UARTwrite+0x4c>
     572:	4b12      	ldr	r3, [pc, #72]	; (5bc <UARTwrite+0x88>)
     574:	681b      	ldr	r3, [r3, #0]
     576:	210d      	movs	r1, #13
     578:	4618      	mov	r0, r3
     57a:	f000 fc23 	bl	dc4 <UARTCharPut>
     57e:	e005      	b.n	58c <UARTwrite+0x58>
     580:	687a      	ldr	r2, [r7, #4]
     582:	68fb      	ldr	r3, [r7, #12]
     584:	4413      	add	r3, r2
     586:	781b      	ldrb	r3, [r3, #0]
     588:	2b00      	cmp	r3, #0
     58a:	d010      	beq.n	5ae <UARTwrite+0x7a>
     58c:	4b0b      	ldr	r3, [pc, #44]	; (5bc <UARTwrite+0x88>)
     58e:	6818      	ldr	r0, [r3, #0]
     590:	687a      	ldr	r2, [r7, #4]
     592:	68fb      	ldr	r3, [r7, #12]
     594:	4413      	add	r3, r2
     596:	781b      	ldrb	r3, [r3, #0]
     598:	4619      	mov	r1, r3
     59a:	f000 fc13 	bl	dc4 <UARTCharPut>
     59e:	68fb      	ldr	r3, [r7, #12]
     5a0:	3301      	adds	r3, #1
     5a2:	60fb      	str	r3, [r7, #12]
     5a4:	68fa      	ldr	r2, [r7, #12]
     5a6:	683b      	ldr	r3, [r7, #0]
     5a8:	429a      	cmp	r2, r3
     5aa:	d3dc      	bcc.n	566 <UARTwrite+0x32>
     5ac:	e000      	b.n	5b0 <UARTwrite+0x7c>
     5ae:	bf00      	nop
     5b0:	68fb      	ldr	r3, [r7, #12]
     5b2:	4618      	mov	r0, r3
     5b4:	3710      	adds	r7, #16
     5b6:	46bd      	mov	sp, r7
     5b8:	bd80      	pop	{r7, pc}
     5ba:	bf00      	nop
     5bc:	20002204 	andcs	r2, r0, r4, lsl #4
     5c0:	00001d54 	andeq	r1, r0, r4, asr sp

000005c4 <UARTvprintf>:
     5c4:	b580      	push	{r7, lr}
     5c6:	b08e      	sub	sp, #56	; 0x38
     5c8:	af00      	add	r7, sp, #0
     5ca:	6078      	str	r0, [r7, #4]
     5cc:	6039      	str	r1, [r7, #0]
     5ce:	687b      	ldr	r3, [r7, #4]
     5d0:	2b00      	cmp	r3, #0
     5d2:	f040 81ed 	bne.w	9b0 <UARTvprintf+0x3ec>
     5d6:	f44f 715b 	mov.w	r1, #876	; 0x36c
     5da:	48ae      	ldr	r0, [pc, #696]	; (894 <UARTvprintf+0x2d0>)
     5dc:	f001 fa74 	bl	1ac8 <__error__>
     5e0:	e1e6      	b.n	9b0 <UARTvprintf+0x3ec>
     5e2:	2300      	movs	r3, #0
     5e4:	637b      	str	r3, [r7, #52]	; 0x34
     5e6:	e002      	b.n	5ee <UARTvprintf+0x2a>
     5e8:	6b7b      	ldr	r3, [r7, #52]	; 0x34
     5ea:	3301      	adds	r3, #1
     5ec:	637b      	str	r3, [r7, #52]	; 0x34
     5ee:	687a      	ldr	r2, [r7, #4]
     5f0:	6b7b      	ldr	r3, [r7, #52]	; 0x34
     5f2:	4413      	add	r3, r2
     5f4:	781b      	ldrb	r3, [r3, #0]
     5f6:	2b25      	cmp	r3, #37	; 0x25
     5f8:	d005      	beq.n	606 <UARTvprintf+0x42>
     5fa:	687a      	ldr	r2, [r7, #4]
     5fc:	6b7b      	ldr	r3, [r7, #52]	; 0x34
     5fe:	4413      	add	r3, r2
     600:	781b      	ldrb	r3, [r3, #0]
     602:	2b00      	cmp	r3, #0
     604:	d1f0      	bne.n	5e8 <UARTvprintf+0x24>
     606:	6b79      	ldr	r1, [r7, #52]	; 0x34
     608:	6878      	ldr	r0, [r7, #4]
     60a:	f7ff ff93 	bl	534 <UARTwrite>
     60e:	687a      	ldr	r2, [r7, #4]
     610:	6b7b      	ldr	r3, [r7, #52]	; 0x34
     612:	4413      	add	r3, r2
     614:	607b      	str	r3, [r7, #4]
     616:	687b      	ldr	r3, [r7, #4]
     618:	781b      	ldrb	r3, [r3, #0]
     61a:	2b25      	cmp	r3, #37	; 0x25
     61c:	f040 81c7 	bne.w	9ae <UARTvprintf+0x3ea>
     620:	687b      	ldr	r3, [r7, #4]
     622:	3301      	adds	r3, #1
     624:	607b      	str	r3, [r7, #4]
     626:	2300      	movs	r3, #0
     628:	62fb      	str	r3, [r7, #44]	; 0x2c
     62a:	2320      	movs	r3, #32
     62c:	f887 3023 	strb.w	r3, [r7, #35]	; 0x23
     630:	687b      	ldr	r3, [r7, #4]
     632:	1c5a      	adds	r2, r3, #1
     634:	607a      	str	r2, [r7, #4]
     636:	781b      	ldrb	r3, [r3, #0]
     638:	3b25      	subs	r3, #37	; 0x25
     63a:	2b53      	cmp	r3, #83	; 0x53
     63c:	f200 81b2 	bhi.w	9a4 <UARTvprintf+0x3e0>
     640:	a201      	add	r2, pc, #4	; (adr r2, 648 <UARTvprintf+0x84>)
     642:	f852 f023 	ldr.w	pc, [r2, r3, lsl #2]
     646:	bf00      	nop
     648:	00000997 	muleq	r0, r7, r9
     64c:	000009a5 	andeq	r0, r0, r5, lsr #19
     650:	000009a5 	andeq	r0, r0, r5, lsr #19
     654:	000009a5 	andeq	r0, r0, r5, lsr #19
     658:	000009a5 	andeq	r0, r0, r5, lsr #19
     65c:	000009a5 	andeq	r0, r0, r5, lsr #19
     660:	000009a5 	andeq	r0, r0, r5, lsr #19
     664:	000009a5 	andeq	r0, r0, r5, lsr #19
     668:	000009a5 	andeq	r0, r0, r5, lsr #19
     66c:	000009a5 	andeq	r0, r0, r5, lsr #19
     670:	000009a5 	andeq	r0, r0, r5, lsr #19
     674:	00000799 	muleq	r0, r9, r7
     678:	00000799 	muleq	r0, r9, r7
     67c:	00000799 	muleq	r0, r9, r7
     680:	00000799 	muleq	r0, r9, r7
     684:	00000799 	muleq	r0, r9, r7
     688:	00000799 	muleq	r0, r9, r7
     68c:	00000799 	muleq	r0, r9, r7
     690:	00000799 	muleq	r0, r9, r7
     694:	00000799 	muleq	r0, r9, r7
     698:	00000799 	muleq	r0, r9, r7
     69c:	000009a5 	andeq	r0, r0, r5, lsr #19
     6a0:	000009a5 	andeq	r0, r0, r5, lsr #19
     6a4:	000009a5 	andeq	r0, r0, r5, lsr #19
     6a8:	000009a5 	andeq	r0, r0, r5, lsr #19
     6ac:	000009a5 	andeq	r0, r0, r5, lsr #19
     6b0:	000009a5 	andeq	r0, r0, r5, lsr #19
     6b4:	000009a5 	andeq	r0, r0, r5, lsr #19
     6b8:	000009a5 	andeq	r0, r0, r5, lsr #19
     6bc:	000009a5 	andeq	r0, r0, r5, lsr #19
     6c0:	000009a5 	andeq	r0, r0, r5, lsr #19
     6c4:	000009a5 	andeq	r0, r0, r5, lsr #19
     6c8:	000009a5 	andeq	r0, r0, r5, lsr #19
     6cc:	000009a5 	andeq	r0, r0, r5, lsr #19
     6d0:	000009a5 	andeq	r0, r0, r5, lsr #19
     6d4:	000009a5 	andeq	r0, r0, r5, lsr #19
     6d8:	000009a5 	andeq	r0, r0, r5, lsr #19
     6dc:	000009a5 	andeq	r0, r0, r5, lsr #19
     6e0:	000009a5 	andeq	r0, r0, r5, lsr #19
     6e4:	000009a5 	andeq	r0, r0, r5, lsr #19
     6e8:	000009a5 	andeq	r0, r0, r5, lsr #19
     6ec:	000009a5 	andeq	r0, r0, r5, lsr #19
     6f0:	000009a5 	andeq	r0, r0, r5, lsr #19
     6f4:	000009a5 	andeq	r0, r0, r5, lsr #19
     6f8:	000009a5 	andeq	r0, r0, r5, lsr #19
     6fc:	000009a5 	andeq	r0, r0, r5, lsr #19
     700:	000009a5 	andeq	r0, r0, r5, lsr #19
     704:	000009a5 	andeq	r0, r0, r5, lsr #19
     708:	000009a5 	andeq	r0, r0, r5, lsr #19
     70c:	000009a5 	andeq	r0, r0, r5, lsr #19
     710:	000009a5 	andeq	r0, r0, r5, lsr #19
     714:	00000879 	andeq	r0, r0, r9, ror r8
     718:	000009a5 	andeq	r0, r0, r5, lsr #19
     71c:	000009a5 	andeq	r0, r0, r5, lsr #19
     720:	000009a5 	andeq	r0, r0, r5, lsr #19
     724:	000009a5 	andeq	r0, r0, r5, lsr #19
     728:	000009a5 	andeq	r0, r0, r5, lsr #19
     72c:	000009a5 	andeq	r0, r0, r5, lsr #19
     730:	000009a5 	andeq	r0, r0, r5, lsr #19
     734:	000009a5 	andeq	r0, r0, r5, lsr #19
     738:	000009a5 	andeq	r0, r0, r5, lsr #19
     73c:	000009a5 	andeq	r0, r0, r5, lsr #19
     740:	000007cd 	andeq	r0, r0, sp, asr #15
     744:	000007e5 	andeq	r0, r0, r5, ror #15
     748:	000009a5 	andeq	r0, r0, r5, lsr #19
     74c:	000009a5 	andeq	r0, r0, r5, lsr #19
     750:	000009a5 	andeq	r0, r0, r5, lsr #19
     754:	000009a5 	andeq	r0, r0, r5, lsr #19
     758:	000007e5 	andeq	r0, r0, r5, ror #15
     75c:	000009a5 	andeq	r0, r0, r5, lsr #19
     760:	000009a5 	andeq	r0, r0, r5, lsr #19
     764:	000009a5 	andeq	r0, r0, r5, lsr #19
     768:	000009a5 	andeq	r0, r0, r5, lsr #19
     76c:	000009a5 	andeq	r0, r0, r5, lsr #19
     770:	000009a5 	andeq	r0, r0, r5, lsr #19
     774:	00000879 	andeq	r0, r0, r9, ror r8
     778:	000009a5 	andeq	r0, r0, r5, lsr #19
     77c:	000009a5 	andeq	r0, r0, r5, lsr #19
     780:	0000080f 	andeq	r0, r0, pc, lsl #16
     784:	000009a5 	andeq	r0, r0, r5, lsr #19
     788:	00000861 	andeq	r0, r0, r1, ror #16
     78c:	000009a5 	andeq	r0, r0, r5, lsr #19
     790:	000009a5 	andeq	r0, r0, r5, lsr #19
     794:	00000879 	andeq	r0, r0, r9, ror r8
     798:	687b      	ldr	r3, [r7, #4]
     79a:	3b01      	subs	r3, #1
     79c:	781b      	ldrb	r3, [r3, #0]
     79e:	2b30      	cmp	r3, #48	; 0x30
     7a0:	d105      	bne.n	7ae <UARTvprintf+0x1ea>
     7a2:	6afb      	ldr	r3, [r7, #44]	; 0x2c
     7a4:	2b00      	cmp	r3, #0
     7a6:	d102      	bne.n	7ae <UARTvprintf+0x1ea>
     7a8:	2330      	movs	r3, #48	; 0x30
     7aa:	f887 3023 	strb.w	r3, [r7, #35]	; 0x23
     7ae:	6afa      	ldr	r2, [r7, #44]	; 0x2c
     7b0:	4613      	mov	r3, r2
     7b2:	009b      	lsls	r3, r3, #2
     7b4:	4413      	add	r3, r2
     7b6:	005b      	lsls	r3, r3, #1
     7b8:	62fb      	str	r3, [r7, #44]	; 0x2c
     7ba:	687b      	ldr	r3, [r7, #4]
     7bc:	3b01      	subs	r3, #1
     7be:	781b      	ldrb	r3, [r3, #0]
     7c0:	461a      	mov	r2, r3
     7c2:	6afb      	ldr	r3, [r7, #44]	; 0x2c
     7c4:	4413      	add	r3, r2
     7c6:	3b30      	subs	r3, #48	; 0x30
     7c8:	62fb      	str	r3, [r7, #44]	; 0x2c
     7ca:	e731      	b.n	630 <UARTvprintf+0x6c>
     7cc:	683b      	ldr	r3, [r7, #0]
     7ce:	1d1a      	adds	r2, r3, #4
     7d0:	603a      	str	r2, [r7, #0]
     7d2:	681b      	ldr	r3, [r3, #0]
     7d4:	61bb      	str	r3, [r7, #24]
     7d6:	f107 0318 	add.w	r3, r7, #24
     7da:	2101      	movs	r1, #1
     7dc:	4618      	mov	r0, r3
     7de:	f7ff fea9 	bl	534 <UARTwrite>
     7e2:	e0e5      	b.n	9b0 <UARTvprintf+0x3ec>
     7e4:	683b      	ldr	r3, [r7, #0]
     7e6:	1d1a      	adds	r2, r3, #4
     7e8:	603a      	str	r2, [r7, #0]
     7ea:	681b      	ldr	r3, [r3, #0]
     7ec:	61bb      	str	r3, [r7, #24]
     7ee:	2300      	movs	r3, #0
     7f0:	633b      	str	r3, [r7, #48]	; 0x30
     7f2:	69bb      	ldr	r3, [r7, #24]
     7f4:	2b00      	cmp	r3, #0
     7f6:	da05      	bge.n	804 <UARTvprintf+0x240>
     7f8:	69bb      	ldr	r3, [r7, #24]
     7fa:	425b      	negs	r3, r3
     7fc:	61bb      	str	r3, [r7, #24]
     7fe:	2301      	movs	r3, #1
     800:	627b      	str	r3, [r7, #36]	; 0x24
     802:	e001      	b.n	808 <UARTvprintf+0x244>
     804:	2300      	movs	r3, #0
     806:	627b      	str	r3, [r7, #36]	; 0x24
     808:	230a      	movs	r3, #10
     80a:	62bb      	str	r3, [r7, #40]	; 0x28
     80c:	e03f      	b.n	88e <UARTvprintf+0x2ca>
     80e:	683b      	ldr	r3, [r7, #0]
     810:	1d1a      	adds	r2, r3, #4
     812:	603a      	str	r2, [r7, #0]
     814:	681b      	ldr	r3, [r3, #0]
     816:	61fb      	str	r3, [r7, #28]
     818:	2300      	movs	r3, #0
     81a:	637b      	str	r3, [r7, #52]	; 0x34
     81c:	e002      	b.n	824 <UARTvprintf+0x260>
     81e:	6b7b      	ldr	r3, [r7, #52]	; 0x34
     820:	3301      	adds	r3, #1
     822:	637b      	str	r3, [r7, #52]	; 0x34
     824:	69fa      	ldr	r2, [r7, #28]
     826:	6b7b      	ldr	r3, [r7, #52]	; 0x34
     828:	4413      	add	r3, r2
     82a:	781b      	ldrb	r3, [r3, #0]
     82c:	2b00      	cmp	r3, #0
     82e:	d1f6      	bne.n	81e <UARTvprintf+0x25a>
     830:	6b79      	ldr	r1, [r7, #52]	; 0x34
     832:	69f8      	ldr	r0, [r7, #28]
     834:	f7ff fe7e 	bl	534 <UARTwrite>
     838:	6afa      	ldr	r2, [r7, #44]	; 0x2c
     83a:	6b7b      	ldr	r3, [r7, #52]	; 0x34
     83c:	429a      	cmp	r2, r3
     83e:	f240 80b7 	bls.w	9b0 <UARTvprintf+0x3ec>
     842:	6afa      	ldr	r2, [r7, #44]	; 0x2c
     844:	6b7b      	ldr	r3, [r7, #52]	; 0x34
     846:	1ad3      	subs	r3, r2, r3
     848:	62fb      	str	r3, [r7, #44]	; 0x2c
     84a:	e003      	b.n	854 <UARTvprintf+0x290>
     84c:	2101      	movs	r1, #1
     84e:	4812      	ldr	r0, [pc, #72]	; (898 <UARTvprintf+0x2d4>)
     850:	f7ff fe70 	bl	534 <UARTwrite>
     854:	6afb      	ldr	r3, [r7, #44]	; 0x2c
     856:	1e5a      	subs	r2, r3, #1
     858:	62fa      	str	r2, [r7, #44]	; 0x2c
     85a:	2b00      	cmp	r3, #0
     85c:	d1f6      	bne.n	84c <UARTvprintf+0x288>
     85e:	e0a7      	b.n	9b0 <UARTvprintf+0x3ec>
     860:	683b      	ldr	r3, [r7, #0]
     862:	1d1a      	adds	r2, r3, #4
     864:	603a      	str	r2, [r7, #0]
     866:	681b      	ldr	r3, [r3, #0]
     868:	61bb      	str	r3, [r7, #24]
     86a:	2300      	movs	r3, #0
     86c:	633b      	str	r3, [r7, #48]	; 0x30
     86e:	230a      	movs	r3, #10
     870:	62bb      	str	r3, [r7, #40]	; 0x28
     872:	2300      	movs	r3, #0
     874:	627b      	str	r3, [r7, #36]	; 0x24
     876:	e00a      	b.n	88e <UARTvprintf+0x2ca>
     878:	683b      	ldr	r3, [r7, #0]
     87a:	1d1a      	adds	r2, r3, #4
     87c:	603a      	str	r2, [r7, #0]
     87e:	681b      	ldr	r3, [r3, #0]
     880:	61bb      	str	r3, [r7, #24]
     882:	2300      	movs	r3, #0
     884:	633b      	str	r3, [r7, #48]	; 0x30
     886:	2310      	movs	r3, #16
     888:	62bb      	str	r3, [r7, #40]	; 0x28
     88a:	2300      	movs	r3, #0
     88c:	627b      	str	r3, [r7, #36]	; 0x24
     88e:	2301      	movs	r3, #1
     890:	637b      	str	r3, [r7, #52]	; 0x34
     892:	e00b      	b.n	8ac <UARTvprintf+0x2e8>
     894:	00001d54 	andeq	r1, r0, r4, asr sp
     898:	00001d80 	andeq	r1, r0, r0, lsl #27
     89c:	6b7b      	ldr	r3, [r7, #52]	; 0x34
     89e:	6aba      	ldr	r2, [r7, #40]	; 0x28
     8a0:	fb02 f303 	mul.w	r3, r2, r3
     8a4:	637b      	str	r3, [r7, #52]	; 0x34
     8a6:	6afb      	ldr	r3, [r7, #44]	; 0x2c
     8a8:	3b01      	subs	r3, #1
     8aa:	62fb      	str	r3, [r7, #44]	; 0x2c
     8ac:	6b7b      	ldr	r3, [r7, #52]	; 0x34
     8ae:	6aba      	ldr	r2, [r7, #40]	; 0x28
     8b0:	fb03 f202 	mul.w	r2, r3, r2
     8b4:	69bb      	ldr	r3, [r7, #24]
     8b6:	429a      	cmp	r2, r3
     8b8:	d809      	bhi.n	8ce <UARTvprintf+0x30a>
     8ba:	6b7b      	ldr	r3, [r7, #52]	; 0x34
     8bc:	6aba      	ldr	r2, [r7, #40]	; 0x28
     8be:	fb03 f202 	mul.w	r2, r3, r2
     8c2:	6abb      	ldr	r3, [r7, #40]	; 0x28
     8c4:	fbb2 f3f3 	udiv	r3, r2, r3
     8c8:	6b7a      	ldr	r2, [r7, #52]	; 0x34
     8ca:	429a      	cmp	r2, r3
     8cc:	d0e6      	beq.n	89c <UARTvprintf+0x2d8>
     8ce:	6a7b      	ldr	r3, [r7, #36]	; 0x24
     8d0:	2b00      	cmp	r3, #0
     8d2:	d002      	beq.n	8da <UARTvprintf+0x316>
     8d4:	6afb      	ldr	r3, [r7, #44]	; 0x2c
     8d6:	3b01      	subs	r3, #1
     8d8:	62fb      	str	r3, [r7, #44]	; 0x2c
     8da:	6a7b      	ldr	r3, [r7, #36]	; 0x24
     8dc:	2b00      	cmp	r3, #0
     8de:	d00e      	beq.n	8fe <UARTvprintf+0x33a>
     8e0:	f897 3023 	ldrb.w	r3, [r7, #35]	; 0x23
     8e4:	2b30      	cmp	r3, #48	; 0x30
     8e6:	d10a      	bne.n	8fe <UARTvprintf+0x33a>
     8e8:	6b3b      	ldr	r3, [r7, #48]	; 0x30
     8ea:	1c5a      	adds	r2, r3, #1
     8ec:	633a      	str	r2, [r7, #48]	; 0x30
     8ee:	f107 0238 	add.w	r2, r7, #56	; 0x38
     8f2:	4413      	add	r3, r2
     8f4:	222d      	movs	r2, #45	; 0x2d
     8f6:	f803 2c30 	strb.w	r2, [r3, #-48]
     8fa:	2300      	movs	r3, #0
     8fc:	627b      	str	r3, [r7, #36]	; 0x24
     8fe:	6afb      	ldr	r3, [r7, #44]	; 0x2c
     900:	2b01      	cmp	r3, #1
     902:	d916      	bls.n	932 <UARTvprintf+0x36e>
     904:	6afb      	ldr	r3, [r7, #44]	; 0x2c
     906:	2b0f      	cmp	r3, #15
     908:	d813      	bhi.n	932 <UARTvprintf+0x36e>
     90a:	6afb      	ldr	r3, [r7, #44]	; 0x2c
     90c:	3b01      	subs	r3, #1
     90e:	62fb      	str	r3, [r7, #44]	; 0x2c
     910:	e00c      	b.n	92c <UARTvprintf+0x368>
     912:	6b3b      	ldr	r3, [r7, #48]	; 0x30
     914:	1c5a      	adds	r2, r3, #1
     916:	633a      	str	r2, [r7, #48]	; 0x30
     918:	f107 0238 	add.w	r2, r7, #56	; 0x38
     91c:	4413      	add	r3, r2
     91e:	f897 2023 	ldrb.w	r2, [r7, #35]	; 0x23
     922:	f803 2c30 	strb.w	r2, [r3, #-48]
     926:	6afb      	ldr	r3, [r7, #44]	; 0x2c
     928:	3b01      	subs	r3, #1
     92a:	62fb      	str	r3, [r7, #44]	; 0x2c
     92c:	6afb      	ldr	r3, [r7, #44]	; 0x2c
     92e:	2b00      	cmp	r3, #0
     930:	d1ef      	bne.n	912 <UARTvprintf+0x34e>
     932:	6a7b      	ldr	r3, [r7, #36]	; 0x24
     934:	2b00      	cmp	r3, #0
     936:	d024      	beq.n	982 <UARTvprintf+0x3be>
     938:	6b3b      	ldr	r3, [r7, #48]	; 0x30
     93a:	1c5a      	adds	r2, r3, #1
     93c:	633a      	str	r2, [r7, #48]	; 0x30
     93e:	f107 0238 	add.w	r2, r7, #56	; 0x38
     942:	4413      	add	r3, r2
     944:	222d      	movs	r2, #45	; 0x2d
     946:	f803 2c30 	strb.w	r2, [r3, #-48]
     94a:	e01a      	b.n	982 <UARTvprintf+0x3be>
     94c:	481d      	ldr	r0, [pc, #116]	; (9c4 <UARTvprintf+0x400>)
     94e:	69ba      	ldr	r2, [r7, #24]
     950:	6b7b      	ldr	r3, [r7, #52]	; 0x34
     952:	fbb2 f3f3 	udiv	r3, r2, r3
     956:	6aba      	ldr	r2, [r7, #40]	; 0x28
     958:	fbb3 f2f2 	udiv	r2, r3, r2
     95c:	6ab9      	ldr	r1, [r7, #40]	; 0x28
     95e:	fb01 f202 	mul.w	r2, r1, r2
     962:	1a9b      	subs	r3, r3, r2
     964:	18c2      	adds	r2, r0, r3
     966:	6b3b      	ldr	r3, [r7, #48]	; 0x30
     968:	1c59      	adds	r1, r3, #1
     96a:	6339      	str	r1, [r7, #48]	; 0x30
     96c:	7812      	ldrb	r2, [r2, #0]
     96e:	f107 0138 	add.w	r1, r7, #56	; 0x38
     972:	440b      	add	r3, r1
     974:	f803 2c30 	strb.w	r2, [r3, #-48]
     978:	6b7a      	ldr	r2, [r7, #52]	; 0x34
     97a:	6abb      	ldr	r3, [r7, #40]	; 0x28
     97c:	fbb2 f3f3 	udiv	r3, r2, r3
     980:	637b      	str	r3, [r7, #52]	; 0x34
     982:	6b7b      	ldr	r3, [r7, #52]	; 0x34
     984:	2b00      	cmp	r3, #0
     986:	d1e1      	bne.n	94c <UARTvprintf+0x388>
     988:	f107 0308 	add.w	r3, r7, #8
     98c:	6b39      	ldr	r1, [r7, #48]	; 0x30
     98e:	4618      	mov	r0, r3
     990:	f7ff fdd0 	bl	534 <UARTwrite>
     994:	e00c      	b.n	9b0 <UARTvprintf+0x3ec>
     996:	687b      	ldr	r3, [r7, #4]
     998:	3b01      	subs	r3, #1
     99a:	2101      	movs	r1, #1
     99c:	4618      	mov	r0, r3
     99e:	f7ff fdc9 	bl	534 <UARTwrite>
     9a2:	e005      	b.n	9b0 <UARTvprintf+0x3ec>
     9a4:	2105      	movs	r1, #5
     9a6:	4808      	ldr	r0, [pc, #32]	; (9c8 <UARTvprintf+0x404>)
     9a8:	f7ff fdc4 	bl	534 <UARTwrite>
     9ac:	e000      	b.n	9b0 <UARTvprintf+0x3ec>
     9ae:	bf00      	nop
     9b0:	687b      	ldr	r3, [r7, #4]
     9b2:	781b      	ldrb	r3, [r3, #0]
     9b4:	2b00      	cmp	r3, #0
     9b6:	f47f ae14 	bne.w	5e2 <UARTvprintf+0x1e>
     9ba:	bf00      	nop
     9bc:	bf00      	nop
     9be:	3738      	adds	r7, #56	; 0x38
     9c0:	46bd      	mov	sp, r7
     9c2:	bd80      	pop	{r7, pc}
     9c4:	00001d40 	andeq	r1, r0, r0, asr #26
     9c8:	00001d84 	andeq	r1, r0, r4, lsl #27

000009cc <UARTprintf>:
     9cc:	b40f      	push	{r0, r1, r2, r3}
     9ce:	b580      	push	{r7, lr}
     9d0:	b082      	sub	sp, #8
     9d2:	af00      	add	r7, sp, #0
     9d4:	f107 0314 	add.w	r3, r7, #20
     9d8:	607b      	str	r3, [r7, #4]
     9da:	6879      	ldr	r1, [r7, #4]
     9dc:	6938      	ldr	r0, [r7, #16]
     9de:	f7ff fdf1 	bl	5c4 <UARTvprintf>
     9e2:	bf00      	nop
     9e4:	3708      	adds	r7, #8
     9e6:	46bd      	mov	sp, r7
     9e8:	e8bd 4080 	ldmia.w	sp!, {r7, lr}
     9ec:	b004      	add	sp, #16
     9ee:	4770      	bx	lr

000009f0 <GPIODirModeSet>:
     9f0:	f8d0 3400 	ldr.w	r3, [r0, #1024]	; 0x400
     9f4:	f012 0f01 	tst.w	r2, #1
     9f8:	bf14      	ite	ne
     9fa:	430b      	orrne	r3, r1
     9fc:	438b      	biceq	r3, r1
     9fe:	f8c0 3400 	str.w	r3, [r0, #1024]	; 0x400
     a02:	f8d0 3420 	ldr.w	r3, [r0, #1056]	; 0x420
     a06:	0792      	lsls	r2, r2, #30
     a08:	bf4c      	ite	mi
     a0a:	4319      	orrmi	r1, r3
     a0c:	ea23 0101 	bicpl.w	r1, r3, r1
     a10:	f8c0 1420 	str.w	r1, [r0, #1056]	; 0x420
     a14:	4770      	bx	lr
	...

00000a18 <GPIOPadConfigSet>:
     a18:	b5f0      	push	{r4, r5, r6, r7, lr}
     a1a:	4c4e      	ldr	r4, [pc, #312]	; (b54 <GPIOPadConfigSet+0x13c>)
     a1c:	6825      	ldr	r5, [r4, #0]
     a1e:	4c4e      	ldr	r4, [pc, #312]	; (b58 <GPIOPadConfigSet+0x140>)
     a20:	402c      	ands	r4, r5
     a22:	4d4e      	ldr	r5, [pc, #312]	; (b5c <GPIOPadConfigSet+0x144>)
     a24:	42ac      	cmp	r4, r5
     a26:	d106      	bne.n	a36 <GPIOPadConfigSet+0x1e>
     a28:	07d5      	lsls	r5, r2, #31
     a2a:	d421      	bmi.n	a70 <GPIOPadConfigSet+0x58>
     a2c:	f8d0 4500 	ldr.w	r4, [r0, #1280]	; 0x500
     a30:	ea24 0401 	bic.w	r4, r4, r1
     a34:	e01f      	b.n	a76 <GPIOPadConfigSet+0x5e>
     a36:	f3c2 1741 	ubfx	r7, r2, #5, #2
     a3a:	2500      	movs	r5, #0
     a3c:	f04f 0c03 	mov.w	ip, #3
     a40:	fa41 f405 	asr.w	r4, r1, r5
     a44:	07e4      	lsls	r4, r4, #31
     a46:	d50f      	bpl.n	a68 <GPIOPadConfigSet+0x50>
     a48:	f8d0 6fc4 	ldr.w	r6, [r0, #4036]	; 0xfc4
     a4c:	006c      	lsls	r4, r5, #1
     a4e:	fa0c fe04 	lsl.w	lr, ip, r4
     a52:	ea26 060e 	bic.w	r6, r6, lr
     a56:	f8c0 6fc4 	str.w	r6, [r0, #4036]	; 0xfc4
     a5a:	f8d0 6fc4 	ldr.w	r6, [r0, #4036]	; 0xfc4
     a5e:	fa07 f404 	lsl.w	r4, r7, r4
     a62:	4334      	orrs	r4, r6
     a64:	f8c0 4fc4 	str.w	r4, [r0, #4036]	; 0xfc4
     a68:	3501      	adds	r5, #1
     a6a:	2d08      	cmp	r5, #8
     a6c:	d1e8      	bne.n	a40 <GPIOPadConfigSet+0x28>
     a6e:	e7db      	b.n	a28 <GPIOPadConfigSet+0x10>
     a70:	f8d0 4500 	ldr.w	r4, [r0, #1280]	; 0x500
     a74:	430c      	orrs	r4, r1
     a76:	f8c0 4500 	str.w	r4, [r0, #1280]	; 0x500
     a7a:	f8d0 4504 	ldr.w	r4, [r0, #1284]	; 0x504
     a7e:	0797      	lsls	r7, r2, #30
     a80:	bf4c      	ite	mi
     a82:	430c      	orrmi	r4, r1
     a84:	438c      	bicpl	r4, r1
     a86:	f8c0 4504 	str.w	r4, [r0, #1284]	; 0x504
     a8a:	f8d0 4508 	ldr.w	r4, [r0, #1288]	; 0x508
     a8e:	0756      	lsls	r6, r2, #29
     a90:	bf4c      	ite	mi
     a92:	430c      	orrmi	r4, r1
     a94:	438c      	bicpl	r4, r1
     a96:	f8c0 4508 	str.w	r4, [r0, #1288]	; 0x508
     a9a:	f8d0 4518 	ldr.w	r4, [r0, #1304]	; 0x518
     a9e:	0715      	lsls	r5, r2, #28
     aa0:	bf4c      	ite	mi
     aa2:	430c      	orrmi	r4, r1
     aa4:	438c      	bicpl	r4, r1
     aa6:	f8c0 4518 	str.w	r4, [r0, #1304]	; 0x518
     aaa:	4c2a      	ldr	r4, [pc, #168]	; (b54 <GPIOPadConfigSet+0x13c>)
     aac:	6825      	ldr	r5, [r4, #0]
     aae:	4c2a      	ldr	r4, [pc, #168]	; (b58 <GPIOPadConfigSet+0x140>)
     ab0:	402c      	ands	r4, r5
     ab2:	4d2a      	ldr	r5, [pc, #168]	; (b5c <GPIOPadConfigSet+0x144>)
     ab4:	42ac      	cmp	r4, r5
     ab6:	d008      	beq.n	aca <GPIOPadConfigSet+0xb2>
     ab8:	f012 0f10 	tst.w	r2, #16
     abc:	f8d0 253c 	ldr.w	r2, [r0, #1340]	; 0x53c
     ac0:	bf14      	ite	ne
     ac2:	430a      	orrne	r2, r1
     ac4:	438a      	biceq	r2, r1
     ac6:	f8c0 253c 	str.w	r2, [r0, #1340]	; 0x53c
     aca:	f8d0 250c 	ldr.w	r2, [r0, #1292]	; 0x50c
     ace:	07dc      	lsls	r4, r3, #31
     ad0:	bf4c      	ite	mi
     ad2:	430a      	orrmi	r2, r1
     ad4:	438a      	bicpl	r2, r1
     ad6:	f8c0 250c 	str.w	r2, [r0, #1292]	; 0x50c
     ada:	f8d0 2510 	ldr.w	r2, [r0, #1296]	; 0x510
     ade:	079f      	lsls	r7, r3, #30
     ae0:	bf4c      	ite	mi
     ae2:	430a      	orrmi	r2, r1
     ae4:	438a      	bicpl	r2, r1
     ae6:	f8c0 2510 	str.w	r2, [r0, #1296]	; 0x510
     aea:	f8d0 2514 	ldr.w	r2, [r0, #1300]	; 0x514
     aee:	075e      	lsls	r6, r3, #29
     af0:	bf4c      	ite	mi
     af2:	430a      	orrmi	r2, r1
     af4:	438a      	bicpl	r2, r1
     af6:	f8c0 2514 	str.w	r2, [r0, #1300]	; 0x514
     afa:	f8d0 251c 	ldr.w	r2, [r0, #1308]	; 0x51c
     afe:	071d      	lsls	r5, r3, #28
     b00:	bf4c      	ite	mi
     b02:	430a      	orrmi	r2, r1
     b04:	438a      	bicpl	r2, r1
     b06:	f8c0 251c 	str.w	r2, [r0, #1308]	; 0x51c
     b0a:	4a12      	ldr	r2, [pc, #72]	; (b54 <GPIOPadConfigSet+0x13c>)
     b0c:	6814      	ldr	r4, [r2, #0]
     b0e:	4a12      	ldr	r2, [pc, #72]	; (b58 <GPIOPadConfigSet+0x140>)
     b10:	4022      	ands	r2, r4
     b12:	4c12      	ldr	r4, [pc, #72]	; (b5c <GPIOPadConfigSet+0x144>)
     b14:	42a2      	cmp	r2, r4
     b16:	d010      	beq.n	b3a <GPIOPadConfigSet+0x122>
     b18:	f8d0 2544 	ldr.w	r2, [r0, #1348]	; 0x544
     b1c:	059c      	lsls	r4, r3, #22
     b1e:	bf4c      	ite	mi
     b20:	430a      	orrmi	r2, r1
     b22:	438a      	bicpl	r2, r1
     b24:	f8c0 2544 	str.w	r2, [r0, #1348]	; 0x544
     b28:	f8d0 2540 	ldr.w	r2, [r0, #1344]	; 0x540
     b2c:	f413 7f40 	tst.w	r3, #768	; 0x300
     b30:	bf14      	ite	ne
     b32:	430a      	orrne	r2, r1
     b34:	438a      	biceq	r2, r1
     b36:	f8c0 2540 	str.w	r2, [r0, #1344]	; 0x540
     b3a:	b92b      	cbnz	r3, b48 <GPIOPadConfigSet+0x130>
     b3c:	f8d0 3528 	ldr.w	r3, [r0, #1320]	; 0x528
     b40:	4319      	orrs	r1, r3
     b42:	f8c0 1528 	str.w	r1, [r0, #1320]	; 0x528
     b46:	bdf0      	pop	{r4, r5, r6, r7, pc}
     b48:	f8d0 3528 	ldr.w	r3, [r0, #1320]	; 0x528
     b4c:	ea23 0101 	bic.w	r1, r3, r1
     b50:	e7f7      	b.n	b42 <GPIOPadConfigSet+0x12a>
     b52:	bf00      	nop
     b54:	400fe000 	andmi	lr, pc, r0
     b58:	70ff0000 	rscsvc	r0, pc, r0
     b5c:	10050000 	andne	r0, r5, r0

00000b60 <GPIOPinTypeComparatorOutput>:
     b60:	b510      	push	{r4, lr}
     b62:	2202      	movs	r2, #2
     b64:	460c      	mov	r4, r1
     b66:	f7ff ff43 	bl	9f0 <GPIODirModeSet>
     b6a:	4621      	mov	r1, r4
     b6c:	2308      	movs	r3, #8
     b6e:	e8bd 4010 	ldmia.w	sp!, {r4, lr}
     b72:	2201      	movs	r2, #1
     b74:	f7ff bf50 	b.w	a18 <GPIOPadConfigSet>

00000b78 <GPIOPinTypeUART>:
     b78:	f7ff bff2 	b.w	b60 <GPIOPinTypeComparatorOutput>

00000b7c <GPIOPinConfigure>:
     b7c:	4b0e      	ldr	r3, [pc, #56]	; (bb8 <GPIOPinConfigure+0x3c>)
     b7e:	f3c0 4107 	ubfx	r1, r0, #16, #8
     b82:	b510      	push	{r4, lr}
     b84:	2201      	movs	r2, #1
     b86:	6edc      	ldr	r4, [r3, #108]	; 0x6c
     b88:	408a      	lsls	r2, r1
     b8a:	004b      	lsls	r3, r1, #1
     b8c:	4222      	tst	r2, r4
     b8e:	bf18      	it	ne
     b90:	3301      	addne	r3, #1
     b92:	4a0a      	ldr	r2, [pc, #40]	; (bbc <GPIOPinConfigure+0x40>)
     b94:	f852 2023 	ldr.w	r2, [r2, r3, lsl #2]
     b98:	f3c0 2407 	ubfx	r4, r0, #8, #8
     b9c:	f8d2 352c 	ldr.w	r3, [r2, #1324]	; 0x52c
     ba0:	210f      	movs	r1, #15
     ba2:	40a1      	lsls	r1, r4
     ba4:	f000 000f 	and.w	r0, r0, #15
     ba8:	ea23 0301 	bic.w	r3, r3, r1
     bac:	40a0      	lsls	r0, r4
     bae:	4318      	orrs	r0, r3
     bb0:	f8c2 052c 	str.w	r0, [r2, #1324]	; 0x52c
     bb4:	bd10      	pop	{r4, pc}
     bb6:	bf00      	nop
     bb8:	400fe000 	andmi	lr, pc, r0
     bbc:	00001da4 	andeq	r1, r0, r4, lsr #27

00000bc0 <SysCtlPeripheralPresent>:
     bc0:	4b07      	ldr	r3, [pc, #28]	; (be0 <SysCtlPeripheralPresent+0x20>)
     bc2:	f3c0 2207 	ubfx	r2, r0, #8, #8
     bc6:	0080      	lsls	r0, r0, #2
     bc8:	4413      	add	r3, r2
     bca:	f400 707f 	and.w	r0, r0, #1020	; 0x3fc
     bce:	ea40 1043 	orr.w	r0, r0, r3, lsl #5
     bd2:	f040 4084 	orr.w	r0, r0, #1107296256	; 0x42000000
     bd6:	6800      	ldr	r0, [r0, #0]
     bd8:	3800      	subs	r0, #0
     bda:	bf18      	it	ne
     bdc:	2001      	movne	r0, #1
     bde:	4770      	bx	lr
     be0:	400fe300 	andmi	lr, pc, r0, lsl #6

00000be4 <SysCtlPeripheralEnable>:
     be4:	4b06      	ldr	r3, [pc, #24]	; (c00 <SysCtlPeripheralEnable+0x1c>)
     be6:	f3c0 2207 	ubfx	r2, r0, #8, #8
     bea:	0080      	lsls	r0, r0, #2
     bec:	4413      	add	r3, r2
     bee:	f400 707f 	and.w	r0, r0, #1020	; 0x3fc
     bf2:	ea40 1043 	orr.w	r0, r0, r3, lsl #5
     bf6:	f040 4084 	orr.w	r0, r0, #1107296256	; 0x42000000
     bfa:	2301      	movs	r3, #1
     bfc:	6003      	str	r3, [r0, #0]
     bfe:	4770      	bx	lr
     c00:	400fe600 	andmi	lr, pc, r0, lsl #12

00000c04 <SysCtlClockGet>:
     c04:	4b48      	ldr	r3, [pc, #288]	; (d28 <SysCtlClockGet+0x124>)
     c06:	6e19      	ldr	r1, [r3, #96]	; 0x60
     c08:	6f1b      	ldr	r3, [r3, #112]	; 0x70
     c0a:	2b00      	cmp	r3, #0
     c0c:	b570      	push	{r4, r5, r6, lr}
     c0e:	da12      	bge.n	c36 <SysCtlClockGet+0x32>
     c10:	f003 0270 	and.w	r2, r3, #112	; 0x70
     c14:	2a20      	cmp	r2, #32
     c16:	f000 8082 	beq.w	d1e <SysCtlClockGet+0x11a>
     c1a:	d805      	bhi.n	c28 <SysCtlClockGet+0x24>
     c1c:	2a00      	cmp	r2, #0
     c1e:	d057      	beq.n	cd0 <SysCtlClockGet+0xcc>
     c20:	2a10      	cmp	r2, #16
     c22:	d05f      	beq.n	ce4 <SysCtlClockGet+0xe0>
     c24:	2000      	movs	r0, #0
     c26:	bd70      	pop	{r4, r5, r6, pc}
     c28:	2a30      	cmp	r2, #48	; 0x30
     c2a:	d07a      	beq.n	d22 <SysCtlClockGet+0x11e>
     c2c:	2a70      	cmp	r2, #112	; 0x70
     c2e:	d1f9      	bne.n	c24 <SysCtlClockGet+0x20>
     c30:	f44f 4000 	mov.w	r0, #32768	; 0x8000
     c34:	e053      	b.n	cde <SysCtlClockGet+0xda>
     c36:	f001 0230 	and.w	r2, r1, #48	; 0x30
     c3a:	2a20      	cmp	r2, #32
     c3c:	d06d      	beq.n	d1a <SysCtlClockGet+0x116>
     c3e:	d842      	bhi.n	cc6 <SysCtlClockGet+0xc2>
     c40:	2a00      	cmp	r2, #0
     c42:	d045      	beq.n	cd0 <SysCtlClockGet+0xcc>
     c44:	2a10      	cmp	r2, #16
     c46:	d1ed      	bne.n	c24 <SysCtlClockGet+0x20>
     c48:	4838      	ldr	r0, [pc, #224]	; (d2c <SysCtlClockGet+0x128>)
     c4a:	f411 6f00 	tst.w	r1, #2048	; 0x800
     c4e:	d152      	bne.n	cf6 <SysCtlClockGet+0xf2>
     c50:	4d35      	ldr	r5, [pc, #212]	; (d28 <SysCtlClockGet+0x124>)
     c52:	f8d5 4160 	ldr.w	r4, [r5, #352]	; 0x160
     c56:	f8d5 2164 	ldr.w	r2, [r5, #356]	; 0x164
     c5a:	f3c2 2604 	ubfx	r6, r2, #8, #5
     c5e:	f002 021f 	and.w	r2, r2, #31
     c62:	3201      	adds	r2, #1
     c64:	fb06 2202 	mla	r2, r6, r2, r2
     c68:	0052      	lsls	r2, r2, #1
     c6a:	fbb0 f0f2 	udiv	r0, r0, r2
     c6e:	f3c4 0209 	ubfx	r2, r4, #0, #10
     c72:	f3c4 2489 	ubfx	r4, r4, #10, #10
     c76:	4344      	muls	r4, r0
     c78:	0aa4      	lsrs	r4, r4, #10
     c7a:	fb00 4002 	mla	r0, r0, r2, r4
     c7e:	692a      	ldr	r2, [r5, #16]
     c80:	f402 4270 	and.w	r2, r2, #61440	; 0xf000
     c84:	f5b2 4f80 	cmp.w	r2, #16384	; 0x4000
     c88:	f441 0180 	orr.w	r1, r1, #4194304	; 0x400000
     c8c:	d036      	beq.n	cfc <SysCtlClockGet+0xf8>
     c8e:	d82b      	bhi.n	ce8 <SysCtlClockGet+0xe4>
     c90:	f5b2 5f00 	cmp.w	r2, #8192	; 0x2000
     c94:	d034      	beq.n	d00 <SysCtlClockGet+0xfc>
     c96:	f5b2 5f40 	cmp.w	r2, #12288	; 0x3000
     c9a:	4a25      	ldr	r2, [pc, #148]	; (d30 <SysCtlClockGet+0x12c>)
     c9c:	bf18      	it	ne
     c9e:	f04f 32ff 	movne.w	r2, #4294967295
     ca2:	024d      	lsls	r5, r1, #9
     ca4:	d50b      	bpl.n	cbe <SysCtlClockGet+0xba>
     ca6:	2b00      	cmp	r3, #0
     ca8:	da31      	bge.n	d0e <SysCtlClockGet+0x10a>
     caa:	005c      	lsls	r4, r3, #1
     cac:	d52c      	bpl.n	d08 <SysCtlClockGet+0x104>
     cae:	0519      	lsls	r1, r3, #20
     cb0:	d42a      	bmi.n	d08 <SysCtlClockGet+0x104>
     cb2:	0040      	lsls	r0, r0, #1
     cb4:	f3c3 5386 	ubfx	r3, r3, #22, #7
     cb8:	3301      	adds	r3, #1
     cba:	fbb0 f0f3 	udiv	r0, r0, r3
     cbe:	4290      	cmp	r0, r2
     cc0:	bf28      	it	cs
     cc2:	4610      	movcs	r0, r2
     cc4:	e7af      	b.n	c26 <SysCtlClockGet+0x22>
     cc6:	2a30      	cmp	r2, #48	; 0x30
     cc8:	d1ac      	bne.n	c24 <SysCtlClockGet+0x20>
     cca:	f247 5030 	movw	r0, #30000	; 0x7530
     cce:	e7bc      	b.n	c4a <SysCtlClockGet+0x46>
     cd0:	4a18      	ldr	r2, [pc, #96]	; (d34 <SysCtlClockGet+0x130>)
     cd2:	f3c1 1084 	ubfx	r0, r1, #6, #5
     cd6:	2b00      	cmp	r3, #0
     cd8:	f852 0020 	ldr.w	r0, [r2, r0, lsl #2]
     cdc:	dab5      	bge.n	c4a <SysCtlClockGet+0x46>
     cde:	f413 6f00 	tst.w	r3, #2048	; 0x800
     ce2:	e7b4      	b.n	c4e <SysCtlClockGet+0x4a>
     ce4:	4811      	ldr	r0, [pc, #68]	; (d2c <SysCtlClockGet+0x128>)
     ce6:	e7fa      	b.n	cde <SysCtlClockGet+0xda>
     ce8:	f5b2 4fe0 	cmp.w	r2, #28672	; 0x7000
     cec:	d00a      	beq.n	d04 <SysCtlClockGet+0x100>
     cee:	f5b2 4f10 	cmp.w	r2, #36864	; 0x9000
     cf2:	4a11      	ldr	r2, [pc, #68]	; (d38 <SysCtlClockGet+0x134>)
     cf4:	e7d2      	b.n	c9c <SysCtlClockGet+0x98>
     cf6:	f04f 32ff 	mov.w	r2, #4294967295
     cfa:	e7d2      	b.n	ca2 <SysCtlClockGet+0x9e>
     cfc:	4a0f      	ldr	r2, [pc, #60]	; (d3c <SysCtlClockGet+0x138>)
     cfe:	e7d0      	b.n	ca2 <SysCtlClockGet+0x9e>
     d00:	4a0f      	ldr	r2, [pc, #60]	; (d40 <SysCtlClockGet+0x13c>)
     d02:	e7ce      	b.n	ca2 <SysCtlClockGet+0x9e>
     d04:	4a0f      	ldr	r2, [pc, #60]	; (d44 <SysCtlClockGet+0x140>)
     d06:	e7cc      	b.n	ca2 <SysCtlClockGet+0x9e>
     d08:	f3c3 53c5 	ubfx	r3, r3, #23, #6
     d0c:	e7d4      	b.n	cb8 <SysCtlClockGet+0xb4>
     d0e:	f3c1 51c3 	ubfx	r1, r1, #23, #4
     d12:	3101      	adds	r1, #1
     d14:	fbb0 f0f1 	udiv	r0, r0, r1
     d18:	e7d1      	b.n	cbe <SysCtlClockGet+0xba>
     d1a:	480b      	ldr	r0, [pc, #44]	; (d48 <SysCtlClockGet+0x144>)
     d1c:	e795      	b.n	c4a <SysCtlClockGet+0x46>
     d1e:	480a      	ldr	r0, [pc, #40]	; (d48 <SysCtlClockGet+0x144>)
     d20:	e7dd      	b.n	cde <SysCtlClockGet+0xda>
     d22:	f247 5030 	movw	r0, #30000	; 0x7530
     d26:	e7da      	b.n	cde <SysCtlClockGet+0xda>
     d28:	400fe000 	andmi	lr, pc, r0
     d2c:	00f42400 	rscseq	r2, r4, r0, lsl #8
     d30:	02faf080 	rscseq	pc, sl, #128	; 0x80
     d34:	00001e34 	andeq	r1, r0, r4, lsr lr
     d38:	01312d00 	teqeq	r1, r0, lsl #26
     d3c:	02625a00 	rsbeq	r5, r2, #0, 20
     d40:	04c4b400 	strbeq	fp, [r4], #1024	; 0x400
     d44:	017d7840 	cmneq	sp, r0, asr #16
     d48:	003d0900 	eorseq	r0, sp, r0, lsl #18

00000d4c <UARTEnable>:
     d4c:	6ac3      	ldr	r3, [r0, #44]	; 0x2c
     d4e:	f043 0310 	orr.w	r3, r3, #16
     d52:	62c3      	str	r3, [r0, #44]	; 0x2c
     d54:	6b03      	ldr	r3, [r0, #48]	; 0x30
     d56:	f443 7340 	orr.w	r3, r3, #768	; 0x300
     d5a:	f043 0301 	orr.w	r3, r3, #1
     d5e:	6303      	str	r3, [r0, #48]	; 0x30
     d60:	4770      	bx	lr

00000d62 <UARTDisable>:
     d62:	6983      	ldr	r3, [r0, #24]
     d64:	071b      	lsls	r3, r3, #28
     d66:	d4fc      	bmi.n	d62 <UARTDisable>
     d68:	6ac3      	ldr	r3, [r0, #44]	; 0x2c
     d6a:	f023 0310 	bic.w	r3, r3, #16
     d6e:	62c3      	str	r3, [r0, #44]	; 0x2c
     d70:	6b03      	ldr	r3, [r0, #48]	; 0x30
     d72:	f423 7340 	bic.w	r3, r3, #768	; 0x300
     d76:	f023 0301 	bic.w	r3, r3, #1
     d7a:	6303      	str	r3, [r0, #48]	; 0x30
     d7c:	4770      	bx	lr

00000d7e <UARTConfigSetExpClk>:
     d7e:	b570      	push	{r4, r5, r6, lr}
     d80:	461e      	mov	r6, r3
     d82:	f7ff ffee 	bl	d62 <UARTDisable>
     d86:	6b03      	ldr	r3, [r0, #48]	; 0x30
     d88:	ebb1 1f02 	cmp.w	r1, r2, lsl #4
     d8c:	bf34      	ite	cc
     d8e:	f043 0320 	orrcc.w	r3, r3, #32
     d92:	f023 0320 	biccs.w	r3, r3, #32
     d96:	ea4f 04c1 	mov.w	r4, r1, lsl #3
     d9a:	bf38      	it	cc
     d9c:	0852      	lsrcc	r2, r2, #1
     d9e:	fbb4 f1f2 	udiv	r1, r4, r2
     da2:	f101 0101 	add.w	r1, r1, #1
     da6:	bf34      	ite	cc
     da8:	6303      	strcc	r3, [r0, #48]	; 0x30
     daa:	6303      	strcs	r3, [r0, #48]	; 0x30
     dac:	09cb      	lsrs	r3, r1, #7
     dae:	6243      	str	r3, [r0, #36]	; 0x24
     db0:	f3c1 0145 	ubfx	r1, r1, #1, #6
     db4:	2300      	movs	r3, #0
     db6:	6281      	str	r1, [r0, #40]	; 0x28
     db8:	62c6      	str	r6, [r0, #44]	; 0x2c
     dba:	e8bd 4070 	ldmia.w	sp!, {r4, r5, r6, lr}
     dbe:	6183      	str	r3, [r0, #24]
     dc0:	f7ff bfc4 	b.w	d4c <UARTEnable>

00000dc4 <UARTCharPut>:
     dc4:	6983      	ldr	r3, [r0, #24]
     dc6:	069b      	lsls	r3, r3, #26
     dc8:	d4fc      	bmi.n	dc4 <UARTCharPut>
     dca:	6001      	str	r1, [r0, #0]
     dcc:	4770      	bx	lr

00000dce <UARTClockSourceSet>:
     dce:	f8c0 1fc8 	str.w	r1, [r0, #4040]	; 0xfc8
     dd2:	4770      	bx	lr

00000dd4 <GET_SHIFTBITS_MASK>:
     dd4:	b480      	push	{r7}
     dd6:	b085      	sub	sp, #20
     dd8:	af00      	add	r7, sp, #0
     dda:	6078      	str	r0, [r7, #4]
     ddc:	687b      	ldr	r3, [r7, #4]
     dde:	60fb      	str	r3, [r7, #12]
     de0:	68fb      	ldr	r3, [r7, #12]
     de2:	2b00      	cmp	r3, #0
     de4:	d009      	beq.n	dfa <GET_SHIFTBITS_MASK+0x26>
     de6:	68fb      	ldr	r3, [r7, #12]
     de8:	f003 0301 	and.w	r3, r3, #1
     dec:	2b00      	cmp	r3, #0
     dee:	d103      	bne.n	df8 <GET_SHIFTBITS_MASK+0x24>
     df0:	68fb      	ldr	r3, [r7, #12]
     df2:	085b      	lsrs	r3, r3, #1
     df4:	60fb      	str	r3, [r7, #12]
     df6:	e7f3      	b.n	de0 <GET_SHIFTBITS_MASK+0xc>
     df8:	bf00      	nop
     dfa:	68fb      	ldr	r3, [r7, #12]
     dfc:	4618      	mov	r0, r3
     dfe:	3714      	adds	r7, #20
     e00:	46bd      	mov	sp, r7
     e02:	f85d 7b04 	ldr.w	r7, [sp], #4
     e06:	4770      	bx	lr

00000e08 <GET_MASK_POS>:
     e08:	b480      	push	{r7}
     e0a:	b085      	sub	sp, #20
     e0c:	af00      	add	r7, sp, #0
     e0e:	6078      	str	r0, [r7, #4]
     e10:	2300      	movs	r3, #0
     e12:	60fb      	str	r3, [r7, #12]
     e14:	687b      	ldr	r3, [r7, #4]
     e16:	60bb      	str	r3, [r7, #8]
     e18:	68bb      	ldr	r3, [r7, #8]
     e1a:	2b00      	cmp	r3, #0
     e1c:	d00c      	beq.n	e38 <GET_MASK_POS+0x30>
     e1e:	68bb      	ldr	r3, [r7, #8]
     e20:	f003 0301 	and.w	r3, r3, #1
     e24:	2b00      	cmp	r3, #0
     e26:	d106      	bne.n	e36 <GET_MASK_POS+0x2e>
     e28:	68fb      	ldr	r3, [r7, #12]
     e2a:	3301      	adds	r3, #1
     e2c:	60fb      	str	r3, [r7, #12]
     e2e:	68bb      	ldr	r3, [r7, #8]
     e30:	085b      	lsrs	r3, r3, #1
     e32:	60bb      	str	r3, [r7, #8]
     e34:	e7f0      	b.n	e18 <GET_MASK_POS+0x10>
     e36:	bf00      	nop
     e38:	68fb      	ldr	r3, [r7, #12]
     e3a:	4618      	mov	r0, r3
     e3c:	3714      	adds	r7, #20
     e3e:	46bd      	mov	sp, r7
     e40:	f85d 7b04 	ldr.w	r7, [sp], #4
     e44:	4770      	bx	lr
	...

00000e48 <PAD_GPIOI2CPinConfig>:
     e48:	b5b0      	push	{r4, r5, r7, lr}
     e4a:	b082      	sub	sp, #8
     e4c:	af00      	add	r7, sp, #0
     e4e:	2300      	movs	r3, #0
     e50:	607b      	str	r3, [r7, #4]
     e52:	2101      	movs	r1, #1
     e54:	4824      	ldr	r0, [pc, #144]	; (ee8 <PAD_GPIOI2CPinConfig+0xa0>)
     e56:	f000 fc4d 	bl	16f4 <PAD_SysPeripheralClockEnable>
     e5a:	4b24      	ldr	r3, [pc, #144]	; (eec <PAD_GPIOI2CPinConfig+0xa4>)
     e5c:	681b      	ldr	r3, [r3, #0]
     e5e:	4a23      	ldr	r2, [pc, #140]	; (eec <PAD_GPIOI2CPinConfig+0xa4>)
     e60:	f043 030c 	orr.w	r3, r3, #12
     e64:	6013      	str	r3, [r2, #0]
     e66:	4b22      	ldr	r3, [pc, #136]	; (ef0 <PAD_GPIOI2CPinConfig+0xa8>)
     e68:	681b      	ldr	r3, [r3, #0]
     e6a:	4a21      	ldr	r2, [pc, #132]	; (ef0 <PAD_GPIOI2CPinConfig+0xa8>)
     e6c:	f043 0308 	orr.w	r3, r3, #8
     e70:	6013      	str	r3, [r2, #0]
     e72:	4b20      	ldr	r3, [pc, #128]	; (ef4 <PAD_GPIOI2CPinConfig+0xac>)
     e74:	681b      	ldr	r3, [r3, #0]
     e76:	4a1f      	ldr	r2, [pc, #124]	; (ef4 <PAD_GPIOI2CPinConfig+0xac>)
     e78:	f043 030c 	orr.w	r3, r3, #12
     e7c:	6013      	str	r3, [r2, #0]
     e7e:	4b1e      	ldr	r3, [pc, #120]	; (ef8 <PAD_GPIOI2CPinConfig+0xb0>)
     e80:	681b      	ldr	r3, [r3, #0]
     e82:	4a1d      	ldr	r2, [pc, #116]	; (ef8 <PAD_GPIOI2CPinConfig+0xb0>)
     e84:	f043 030c 	orr.w	r3, r3, #12
     e88:	6013      	str	r3, [r2, #0]
     e8a:	4b1c      	ldr	r3, [pc, #112]	; (efc <PAD_GPIOI2CPinConfig+0xb4>)
     e8c:	681b      	ldr	r3, [r3, #0]
     e8e:	607b      	str	r3, [r7, #4]
     e90:	687b      	ldr	r3, [r7, #4]
     e92:	f423 6470 	bic.w	r4, r3, #3840	; 0xf00
     e96:	f44f 6070 	mov.w	r0, #3840	; 0xf00
     e9a:	f7ff ff9b 	bl	dd4 <GET_SHIFTBITS_MASK>
     e9e:	4603      	mov	r3, r0
     ea0:	f003 0503 	and.w	r5, r3, #3
     ea4:	f44f 6070 	mov.w	r0, #3840	; 0xf00
     ea8:	f7ff ffae 	bl	e08 <GET_MASK_POS>
     eac:	4603      	mov	r3, r0
     eae:	fa05 f303 	lsl.w	r3, r5, r3
     eb2:	4323      	orrs	r3, r4
     eb4:	607b      	str	r3, [r7, #4]
     eb6:	687b      	ldr	r3, [r7, #4]
     eb8:	f023 04f0 	bic.w	r4, r3, #240	; 0xf0
     ebc:	20f0      	movs	r0, #240	; 0xf0
     ebe:	f7ff ff89 	bl	dd4 <GET_SHIFTBITS_MASK>
     ec2:	4603      	mov	r3, r0
     ec4:	f003 0503 	and.w	r5, r3, #3
     ec8:	20f0      	movs	r0, #240	; 0xf0
     eca:	f7ff ff9d 	bl	e08 <GET_MASK_POS>
     ece:	4603      	mov	r3, r0
     ed0:	fa05 f303 	lsl.w	r3, r5, r3
     ed4:	4323      	orrs	r3, r4
     ed6:	607b      	str	r3, [r7, #4]
     ed8:	4a08      	ldr	r2, [pc, #32]	; (efc <PAD_GPIOI2CPinConfig+0xb4>)
     eda:	687b      	ldr	r3, [r7, #4]
     edc:	6013      	str	r3, [r2, #0]
     ede:	bf00      	nop
     ee0:	3708      	adds	r7, #8
     ee2:	46bd      	mov	sp, r7
     ee4:	bdb0      	pop	{r4, r5, r7, pc}
     ee6:	bf00      	nop
     ee8:	400fe608 	andmi	lr, pc, r8, lsl #12
     eec:	40005420 	andmi	r5, r0, r0, lsr #8
     ef0:	4000550c 	andmi	r5, r0, ip, lsl #10
     ef4:	4000551c 	andmi	r5, r0, ip, lsl r5
     ef8:	40005500 	andmi	r5, r0, r0, lsl #10
     efc:	4000552c 	andmi	r5, r0, ip, lsr #10

00000f00 <I2C_Init>:
     f00:	b580      	push	{r7, lr}
     f02:	b082      	sub	sp, #8
     f04:	af00      	add	r7, sp, #0
     f06:	4b0f      	ldr	r3, [pc, #60]	; (f44 <I2C_Init+0x44>)
     f08:	607b      	str	r3, [r7, #4]
     f0a:	2100      	movs	r1, #0
     f0c:	480e      	ldr	r0, [pc, #56]	; (f48 <I2C_Init+0x48>)
     f0e:	f000 fbf1 	bl	16f4 <PAD_SysPeripheralClockEnable>
     f12:	f7ff ff99 	bl	e48 <PAD_GPIOI2CPinConfig>
     f16:	4b0d      	ldr	r3, [pc, #52]	; (f4c <I2C_Init+0x4c>)
     f18:	2210      	movs	r2, #16
     f1a:	601a      	str	r2, [r3, #0]
     f1c:	f7ff fe72 	bl	c04 <SysCtlClockGet>
     f20:	4601      	mov	r1, r0
     f22:	687a      	ldr	r2, [r7, #4]
     f24:	4613      	mov	r3, r2
     f26:	009b      	lsls	r3, r3, #2
     f28:	4413      	add	r3, r2
     f2a:	009b      	lsls	r3, r3, #2
     f2c:	fbb1 f3f3 	udiv	r3, r1, r3
     f30:	4a07      	ldr	r2, [pc, #28]	; (f50 <I2C_Init+0x50>)
     f32:	3b01      	subs	r3, #1
     f34:	6013      	str	r3, [r2, #0]
     f36:	4b07      	ldr	r3, [pc, #28]	; (f54 <I2C_Init+0x54>)
     f38:	22da      	movs	r2, #218	; 0xda
     f3a:	601a      	str	r2, [r3, #0]
     f3c:	bf00      	nop
     f3e:	3708      	adds	r7, #8
     f40:	46bd      	mov	sp, r7
     f42:	bd80      	pop	{r7, pc}
     f44:	000186a0 	andeq	r8, r1, r0, lsr #13
     f48:	400fe620 	andmi	lr, pc, r0, lsr #12
     f4c:	40020020 	andmi	r0, r2, r0, lsr #32
     f50:	4002000c 	andmi	r0, r2, ip
     f54:	40020024 	andmi	r0, r2, r4, lsr #32

00000f58 <I2C_WriteBytes>:
     f58:	b580      	push	{r7, lr}
     f5a:	b088      	sub	sp, #32
     f5c:	af00      	add	r7, sp, #0
     f5e:	4603      	mov	r3, r0
     f60:	60b9      	str	r1, [r7, #8]
     f62:	607a      	str	r2, [r7, #4]
     f64:	73fb      	strb	r3, [r7, #15]
     f66:	2301      	movs	r3, #1
     f68:	77fb      	strb	r3, [r7, #31]
     f6a:	2300      	movs	r3, #0
     f6c:	61bb      	str	r3, [r7, #24]
     f6e:	2301      	movs	r3, #1
     f70:	617b      	str	r3, [r7, #20]
     f72:	f997 300f 	ldrsb.w	r3, [r7, #15]
     f76:	2b00      	cmp	r3, #0
     f78:	da06      	bge.n	f88 <I2C_WriteBytes+0x30>
     f7a:	2300      	movs	r3, #0
     f7c:	77fb      	strb	r3, [r7, #31]
     f7e:	212d      	movs	r1, #45	; 0x2d
     f80:	4883      	ldr	r0, [pc, #524]	; (1190 <I2C_WriteBytes+0x238>)
     f82:	f000 fda1 	bl	1ac8 <__error__>
     f86:	e0f5      	b.n	1174 <I2C_WriteBytes+0x21c>
     f88:	7bfb      	ldrb	r3, [r7, #15]
     f8a:	005b      	lsls	r3, r3, #1
     f8c:	4a81      	ldr	r2, [pc, #516]	; (1194 <I2C_WriteBytes+0x23c>)
     f8e:	b2db      	uxtb	r3, r3
     f90:	6013      	str	r3, [r2, #0]
     f92:	69bb      	ldr	r3, [r7, #24]
     f94:	1c5a      	adds	r2, r3, #1
     f96:	61ba      	str	r2, [r7, #24]
     f98:	687a      	ldr	r2, [r7, #4]
     f9a:	4413      	add	r3, r2
     f9c:	781a      	ldrb	r2, [r3, #0]
     f9e:	4b7e      	ldr	r3, [pc, #504]	; (1198 <I2C_WriteBytes+0x240>)
     fa0:	601a      	str	r2, [r3, #0]
     fa2:	4b7e      	ldr	r3, [pc, #504]	; (119c <I2C_WriteBytes+0x244>)
     fa4:	681b      	ldr	r3, [r3, #0]
     fa6:	f003 0340 	and.w	r3, r3, #64	; 0x40
     faa:	2b00      	cmp	r3, #0
     fac:	d004      	beq.n	fb8 <I2C_WriteBytes+0x60>
     fae:	697b      	ldr	r3, [r7, #20]
     fb0:	2b00      	cmp	r3, #0
     fb2:	d001      	beq.n	fb8 <I2C_WriteBytes+0x60>
     fb4:	2301      	movs	r3, #1
     fb6:	e000      	b.n	fba <I2C_WriteBytes+0x62>
     fb8:	2300      	movs	r3, #0
     fba:	2b00      	cmp	r3, #0
     fbc:	d000      	beq.n	fc0 <I2C_WriteBytes+0x68>
     fbe:	e7f0      	b.n	fa2 <I2C_WriteBytes+0x4a>
     fc0:	697b      	ldr	r3, [r7, #20]
     fc2:	2b00      	cmp	r3, #0
     fc4:	d106      	bne.n	fd4 <I2C_WriteBytes+0x7c>
     fc6:	2137      	movs	r1, #55	; 0x37
     fc8:	4871      	ldr	r0, [pc, #452]	; (1190 <I2C_WriteBytes+0x238>)
     fca:	f000 fd7d 	bl	1ac8 <__error__>
     fce:	2300      	movs	r3, #0
     fd0:	77fb      	strb	r3, [r7, #31]
     fd2:	e0cf      	b.n	1174 <I2C_WriteBytes+0x21c>
     fd4:	68bb      	ldr	r3, [r7, #8]
     fd6:	2b01      	cmp	r3, #1
     fd8:	d108      	bne.n	fec <I2C_WriteBytes+0x94>
     fda:	4b70      	ldr	r3, [pc, #448]	; (119c <I2C_WriteBytes+0x244>)
     fdc:	681b      	ldr	r3, [r3, #0]
     fde:	f023 0317 	bic.w	r3, r3, #23
     fe2:	4a6e      	ldr	r2, [pc, #440]	; (119c <I2C_WriteBytes+0x244>)
     fe4:	f043 0303 	orr.w	r3, r3, #3
     fe8:	6013      	str	r3, [r2, #0]
     fea:	e007      	b.n	ffc <I2C_WriteBytes+0xa4>
     fec:	4b6b      	ldr	r3, [pc, #428]	; (119c <I2C_WriteBytes+0x244>)
     fee:	681b      	ldr	r3, [r3, #0]
     ff0:	f023 0317 	bic.w	r3, r3, #23
     ff4:	4a69      	ldr	r2, [pc, #420]	; (119c <I2C_WriteBytes+0x244>)
     ff6:	f043 0303 	orr.w	r3, r3, #3
     ffa:	6013      	str	r3, [r2, #0]
     ffc:	68bb      	ldr	r3, [r7, #8]
     ffe:	2b01      	cmp	r3, #1
    1000:	f000 8084 	beq.w	110c <I2C_WriteBytes+0x1b4>
    1004:	2301      	movs	r3, #1
    1006:	617b      	str	r3, [r7, #20]
    1008:	4b64      	ldr	r3, [pc, #400]	; (119c <I2C_WriteBytes+0x244>)
    100a:	681b      	ldr	r3, [r3, #0]
    100c:	f003 0301 	and.w	r3, r3, #1
    1010:	2b00      	cmp	r3, #0
    1012:	bf14      	ite	ne
    1014:	2301      	movne	r3, #1
    1016:	2300      	moveq	r3, #0
    1018:	b2db      	uxtb	r3, r3
    101a:	2b00      	cmp	r3, #0
    101c:	d000      	beq.n	1020 <I2C_WriteBytes+0xc8>
    101e:	e7f3      	b.n	1008 <I2C_WriteBytes+0xb0>
    1020:	697b      	ldr	r3, [r7, #20]
    1022:	2b00      	cmp	r3, #0
    1024:	d005      	beq.n	1032 <I2C_WriteBytes+0xda>
    1026:	4b5d      	ldr	r3, [pc, #372]	; (119c <I2C_WriteBytes+0x244>)
    1028:	681b      	ldr	r3, [r3, #0]
    102a:	f003 0302 	and.w	r3, r3, #2
    102e:	2b00      	cmp	r3, #0
    1030:	d001      	beq.n	1036 <I2C_WriteBytes+0xde>
    1032:	2301      	movs	r3, #1
    1034:	e000      	b.n	1038 <I2C_WriteBytes+0xe0>
    1036:	2300      	movs	r3, #0
    1038:	2b00      	cmp	r3, #0
    103a:	d019      	beq.n	1070 <I2C_WriteBytes+0x118>
    103c:	4b57      	ldr	r3, [pc, #348]	; (119c <I2C_WriteBytes+0x244>)
    103e:	681b      	ldr	r3, [r3, #0]
    1040:	f003 0310 	and.w	r3, r3, #16
    1044:	2b00      	cmp	r3, #0
    1046:	bf0c      	ite	eq
    1048:	2301      	moveq	r3, #1
    104a:	2300      	movne	r3, #0
    104c:	b2db      	uxtb	r3, r3
    104e:	2b00      	cmp	r3, #0
    1050:	d007      	beq.n	1062 <I2C_WriteBytes+0x10a>
    1052:	4b52      	ldr	r3, [pc, #328]	; (119c <I2C_WriteBytes+0x244>)
    1054:	681b      	ldr	r3, [r3, #0]
    1056:	f023 0317 	bic.w	r3, r3, #23
    105a:	4a50      	ldr	r2, [pc, #320]	; (119c <I2C_WriteBytes+0x244>)
    105c:	f043 0304 	orr.w	r3, r3, #4
    1060:	6013      	str	r3, [r2, #0]
    1062:	214d      	movs	r1, #77	; 0x4d
    1064:	484a      	ldr	r0, [pc, #296]	; (1190 <I2C_WriteBytes+0x238>)
    1066:	f000 fd2f 	bl	1ac8 <__error__>
    106a:	2300      	movs	r3, #0
    106c:	77fb      	strb	r3, [r7, #31]
    106e:	e081      	b.n	1174 <I2C_WriteBytes+0x21c>
    1070:	69bb      	ldr	r3, [r7, #24]
    1072:	1c5a      	adds	r2, r3, #1
    1074:	61ba      	str	r2, [r7, #24]
    1076:	687a      	ldr	r2, [r7, #4]
    1078:	4413      	add	r3, r2
    107a:	781a      	ldrb	r2, [r3, #0]
    107c:	4b46      	ldr	r3, [pc, #280]	; (1198 <I2C_WriteBytes+0x240>)
    107e:	601a      	str	r2, [r3, #0]
    1080:	69ba      	ldr	r2, [r7, #24]
    1082:	68bb      	ldr	r3, [r7, #8]
    1084:	429a      	cmp	r2, r3
    1086:	d008      	beq.n	109a <I2C_WriteBytes+0x142>
    1088:	4b44      	ldr	r3, [pc, #272]	; (119c <I2C_WriteBytes+0x244>)
    108a:	681b      	ldr	r3, [r3, #0]
    108c:	f023 0317 	bic.w	r3, r3, #23
    1090:	4a42      	ldr	r2, [pc, #264]	; (119c <I2C_WriteBytes+0x244>)
    1092:	f043 0301 	orr.w	r3, r3, #1
    1096:	6013      	str	r3, [r2, #0]
    1098:	e033      	b.n	1102 <I2C_WriteBytes+0x1aa>
    109a:	4b40      	ldr	r3, [pc, #256]	; (119c <I2C_WriteBytes+0x244>)
    109c:	681b      	ldr	r3, [r3, #0]
    109e:	f023 0317 	bic.w	r3, r3, #23
    10a2:	4a3e      	ldr	r2, [pc, #248]	; (119c <I2C_WriteBytes+0x244>)
    10a4:	f043 0305 	orr.w	r3, r3, #5
    10a8:	6013      	str	r3, [r2, #0]
    10aa:	2301      	movs	r3, #1
    10ac:	617b      	str	r3, [r7, #20]
    10ae:	697b      	ldr	r3, [r7, #20]
    10b0:	3b01      	subs	r3, #1
    10b2:	617b      	str	r3, [r7, #20]
    10b4:	697b      	ldr	r3, [r7, #20]
    10b6:	2b00      	cmp	r3, #0
    10b8:	bf14      	ite	ne
    10ba:	2301      	movne	r3, #1
    10bc:	2300      	moveq	r3, #0
    10be:	b2db      	uxtb	r3, r3
    10c0:	2b00      	cmp	r3, #0
    10c2:	d000      	beq.n	10c6 <I2C_WriteBytes+0x16e>
    10c4:	e7f3      	b.n	10ae <I2C_WriteBytes+0x156>
    10c6:	4b35      	ldr	r3, [pc, #212]	; (119c <I2C_WriteBytes+0x244>)
    10c8:	681b      	ldr	r3, [r3, #0]
    10ca:	f003 0301 	and.w	r3, r3, #1
    10ce:	2b00      	cmp	r3, #0
    10d0:	bf14      	ite	ne
    10d2:	2301      	movne	r3, #1
    10d4:	2300      	moveq	r3, #0
    10d6:	b2db      	uxtb	r3, r3
    10d8:	2b00      	cmp	r3, #0
    10da:	d000      	beq.n	10de <I2C_WriteBytes+0x186>
    10dc:	e7f3      	b.n	10c6 <I2C_WriteBytes+0x16e>
    10de:	4b2f      	ldr	r3, [pc, #188]	; (119c <I2C_WriteBytes+0x244>)
    10e0:	681b      	ldr	r3, [r3, #0]
    10e2:	f003 0302 	and.w	r3, r3, #2
    10e6:	2b00      	cmp	r3, #0
    10e8:	bf14      	ite	ne
    10ea:	2301      	movne	r3, #1
    10ec:	2300      	moveq	r3, #0
    10ee:	b2db      	uxtb	r3, r3
    10f0:	2b00      	cmp	r3, #0
    10f2:	d006      	beq.n	1102 <I2C_WriteBytes+0x1aa>
    10f4:	215c      	movs	r1, #92	; 0x5c
    10f6:	4826      	ldr	r0, [pc, #152]	; (1190 <I2C_WriteBytes+0x238>)
    10f8:	f000 fce6 	bl	1ac8 <__error__>
    10fc:	2300      	movs	r3, #0
    10fe:	77fb      	strb	r3, [r7, #31]
    1100:	e038      	b.n	1174 <I2C_WriteBytes+0x21c>
    1102:	69ba      	ldr	r2, [r7, #24]
    1104:	68bb      	ldr	r3, [r7, #8]
    1106:	429a      	cmp	r2, r3
    1108:	d034      	beq.n	1174 <I2C_WriteBytes+0x21c>
    110a:	e77b      	b.n	1004 <I2C_WriteBytes+0xac>
    110c:	2301      	movs	r3, #1
    110e:	617b      	str	r3, [r7, #20]
    1110:	697b      	ldr	r3, [r7, #20]
    1112:	3b01      	subs	r3, #1
    1114:	617b      	str	r3, [r7, #20]
    1116:	697b      	ldr	r3, [r7, #20]
    1118:	2b00      	cmp	r3, #0
    111a:	bf14      	ite	ne
    111c:	2301      	movne	r3, #1
    111e:	2300      	moveq	r3, #0
    1120:	b2db      	uxtb	r3, r3
    1122:	2b00      	cmp	r3, #0
    1124:	d000      	beq.n	1128 <I2C_WriteBytes+0x1d0>
    1126:	e7f3      	b.n	1110 <I2C_WriteBytes+0x1b8>
    1128:	4b1c      	ldr	r3, [pc, #112]	; (119c <I2C_WriteBytes+0x244>)
    112a:	681b      	ldr	r3, [r3, #0]
    112c:	f003 0301 	and.w	r3, r3, #1
    1130:	2b00      	cmp	r3, #0
    1132:	bf14      	ite	ne
    1134:	2301      	movne	r3, #1
    1136:	2300      	moveq	r3, #0
    1138:	b2db      	uxtb	r3, r3
    113a:	2b00      	cmp	r3, #0
    113c:	d000      	beq.n	1140 <I2C_WriteBytes+0x1e8>
    113e:	e7f3      	b.n	1128 <I2C_WriteBytes+0x1d0>
    1140:	4b16      	ldr	r3, [pc, #88]	; (119c <I2C_WriteBytes+0x244>)
    1142:	681b      	ldr	r3, [r3, #0]
    1144:	f003 0302 	and.w	r3, r3, #2
    1148:	2b00      	cmp	r3, #0
    114a:	bf14      	ite	ne
    114c:	2301      	movne	r3, #1
    114e:	2300      	moveq	r3, #0
    1150:	b2db      	uxtb	r3, r3
    1152:	2b00      	cmp	r3, #0
    1154:	d006      	beq.n	1164 <I2C_WriteBytes+0x20c>
    1156:	2300      	movs	r3, #0
    1158:	77fb      	strb	r3, [r7, #31]
    115a:	2169      	movs	r1, #105	; 0x69
    115c:	480c      	ldr	r0, [pc, #48]	; (1190 <I2C_WriteBytes+0x238>)
    115e:	f000 fcb3 	bl	1ac8 <__error__>
    1162:	e007      	b.n	1174 <I2C_WriteBytes+0x21c>
    1164:	4b0d      	ldr	r3, [pc, #52]	; (119c <I2C_WriteBytes+0x244>)
    1166:	681b      	ldr	r3, [r3, #0]
    1168:	f023 0317 	bic.w	r3, r3, #23
    116c:	4a0b      	ldr	r2, [pc, #44]	; (119c <I2C_WriteBytes+0x244>)
    116e:	f043 0304 	orr.w	r3, r3, #4
    1172:	6013      	str	r3, [r2, #0]
    1174:	4b09      	ldr	r3, [pc, #36]	; (119c <I2C_WriteBytes+0x244>)
    1176:	681b      	ldr	r3, [r3, #0]
    1178:	f023 0317 	bic.w	r3, r3, #23
    117c:	4a07      	ldr	r2, [pc, #28]	; (119c <I2C_WriteBytes+0x244>)
    117e:	f043 0304 	orr.w	r3, r3, #4
    1182:	6013      	str	r3, [r2, #0]
    1184:	7ffb      	ldrb	r3, [r7, #31]
    1186:	4618      	mov	r0, r3
    1188:	3720      	adds	r7, #32
    118a:	46bd      	mov	sp, r7
    118c:	bd80      	pop	{r7, pc}
    118e:	bf00      	nop
    1190:	00001ea0 	andeq	r1, r0, r0, lsr #29
    1194:	40020000 	andmi	r0, r2, r0
    1198:	40020008 	andmi	r0, r2, r8
    119c:	40020004 	andmi	r0, r2, r4

000011a0 <I2C_ReadBytes>:
    11a0:	b580      	push	{r7, lr}
    11a2:	b088      	sub	sp, #32
    11a4:	af00      	add	r7, sp, #0
    11a6:	60f8      	str	r0, [r7, #12]
    11a8:	60b9      	str	r1, [r7, #8]
    11aa:	607a      	str	r2, [r7, #4]
    11ac:	2301      	movs	r3, #1
    11ae:	77fb      	strb	r3, [r7, #31]
    11b0:	2300      	movs	r3, #0
    11b2:	61bb      	str	r3, [r7, #24]
    11b4:	2301      	movs	r3, #1
    11b6:	617b      	str	r3, [r7, #20]
    11b8:	68fb      	ldr	r3, [r7, #12]
    11ba:	2b7f      	cmp	r3, #127	; 0x7f
    11bc:	d902      	bls.n	11c4 <I2C_ReadBytes+0x24>
    11be:	2300      	movs	r3, #0
    11c0:	77fb      	strb	r3, [r7, #31]
    11c2:	e10c      	b.n	13de <I2C_ReadBytes+0x23e>
    11c4:	68fb      	ldr	r3, [r7, #12]
    11c6:	005b      	lsls	r3, r3, #1
    11c8:	4a8b      	ldr	r2, [pc, #556]	; (13f8 <I2C_ReadBytes+0x258>)
    11ca:	f043 0301 	orr.w	r3, r3, #1
    11ce:	6013      	str	r3, [r2, #0]
    11d0:	4b8a      	ldr	r3, [pc, #552]	; (13fc <I2C_ReadBytes+0x25c>)
    11d2:	681b      	ldr	r3, [r3, #0]
    11d4:	f003 0340 	and.w	r3, r3, #64	; 0x40
    11d8:	2b00      	cmp	r3, #0
    11da:	d004      	beq.n	11e6 <I2C_ReadBytes+0x46>
    11dc:	697b      	ldr	r3, [r7, #20]
    11de:	2b00      	cmp	r3, #0
    11e0:	d001      	beq.n	11e6 <I2C_ReadBytes+0x46>
    11e2:	2301      	movs	r3, #1
    11e4:	e000      	b.n	11e8 <I2C_ReadBytes+0x48>
    11e6:	2300      	movs	r3, #0
    11e8:	2b00      	cmp	r3, #0
    11ea:	d000      	beq.n	11ee <I2C_ReadBytes+0x4e>
    11ec:	e7f0      	b.n	11d0 <I2C_ReadBytes+0x30>
    11ee:	697b      	ldr	r3, [r7, #20]
    11f0:	2b00      	cmp	r3, #0
    11f2:	d106      	bne.n	1202 <I2C_ReadBytes+0x62>
    11f4:	2184      	movs	r1, #132	; 0x84
    11f6:	4882      	ldr	r0, [pc, #520]	; (1400 <I2C_ReadBytes+0x260>)
    11f8:	f000 fc66 	bl	1ac8 <__error__>
    11fc:	2300      	movs	r3, #0
    11fe:	77fb      	strb	r3, [r7, #31]
    1200:	e0ed      	b.n	13de <I2C_ReadBytes+0x23e>
    1202:	68bb      	ldr	r3, [r7, #8]
    1204:	2b01      	cmp	r3, #1
    1206:	d108      	bne.n	121a <I2C_ReadBytes+0x7a>
    1208:	4b7c      	ldr	r3, [pc, #496]	; (13fc <I2C_ReadBytes+0x25c>)
    120a:	681b      	ldr	r3, [r3, #0]
    120c:	f023 031f 	bic.w	r3, r3, #31
    1210:	4a7a      	ldr	r2, [pc, #488]	; (13fc <I2C_ReadBytes+0x25c>)
    1212:	f043 0303 	orr.w	r3, r3, #3
    1216:	6013      	str	r3, [r2, #0]
    1218:	e007      	b.n	122a <I2C_ReadBytes+0x8a>
    121a:	4b78      	ldr	r3, [pc, #480]	; (13fc <I2C_ReadBytes+0x25c>)
    121c:	681b      	ldr	r3, [r3, #0]
    121e:	f023 031f 	bic.w	r3, r3, #31
    1222:	4a76      	ldr	r2, [pc, #472]	; (13fc <I2C_ReadBytes+0x25c>)
    1224:	f043 030b 	orr.w	r3, r3, #11
    1228:	6013      	str	r3, [r2, #0]
    122a:	68bb      	ldr	r3, [r7, #8]
    122c:	2b01      	cmp	r3, #1
    122e:	f000 8099 	beq.w	1364 <I2C_ReadBytes+0x1c4>
    1232:	2301      	movs	r3, #1
    1234:	617b      	str	r3, [r7, #20]
    1236:	697b      	ldr	r3, [r7, #20]
    1238:	3b01      	subs	r3, #1
    123a:	617b      	str	r3, [r7, #20]
    123c:	697b      	ldr	r3, [r7, #20]
    123e:	2b00      	cmp	r3, #0
    1240:	bf14      	ite	ne
    1242:	2301      	movne	r3, #1
    1244:	2300      	moveq	r3, #0
    1246:	b2db      	uxtb	r3, r3
    1248:	2b00      	cmp	r3, #0
    124a:	d000      	beq.n	124e <I2C_ReadBytes+0xae>
    124c:	e7f3      	b.n	1236 <I2C_ReadBytes+0x96>
    124e:	4b6b      	ldr	r3, [pc, #428]	; (13fc <I2C_ReadBytes+0x25c>)
    1250:	681b      	ldr	r3, [r3, #0]
    1252:	f003 0301 	and.w	r3, r3, #1
    1256:	2b00      	cmp	r3, #0
    1258:	bf14      	ite	ne
    125a:	2301      	movne	r3, #1
    125c:	2300      	moveq	r3, #0
    125e:	b2db      	uxtb	r3, r3
    1260:	2b00      	cmp	r3, #0
    1262:	d000      	beq.n	1266 <I2C_ReadBytes+0xc6>
    1264:	e7f3      	b.n	124e <I2C_ReadBytes+0xae>
    1266:	4b65      	ldr	r3, [pc, #404]	; (13fc <I2C_ReadBytes+0x25c>)
    1268:	681b      	ldr	r3, [r3, #0]
    126a:	f003 0302 	and.w	r3, r3, #2
    126e:	2b00      	cmp	r3, #0
    1270:	bf14      	ite	ne
    1272:	2301      	movne	r3, #1
    1274:	2300      	moveq	r3, #0
    1276:	b2db      	uxtb	r3, r3
    1278:	2b00      	cmp	r3, #0
    127a:	d019      	beq.n	12b0 <I2C_ReadBytes+0x110>
    127c:	4b5f      	ldr	r3, [pc, #380]	; (13fc <I2C_ReadBytes+0x25c>)
    127e:	681b      	ldr	r3, [r3, #0]
    1280:	f003 0310 	and.w	r3, r3, #16
    1284:	2b00      	cmp	r3, #0
    1286:	bf0c      	ite	eq
    1288:	2301      	moveq	r3, #1
    128a:	2300      	movne	r3, #0
    128c:	b2db      	uxtb	r3, r3
    128e:	2b00      	cmp	r3, #0
    1290:	d007      	beq.n	12a2 <I2C_ReadBytes+0x102>
    1292:	4b5a      	ldr	r3, [pc, #360]	; (13fc <I2C_ReadBytes+0x25c>)
    1294:	681b      	ldr	r3, [r3, #0]
    1296:	f023 0317 	bic.w	r3, r3, #23
    129a:	4a58      	ldr	r2, [pc, #352]	; (13fc <I2C_ReadBytes+0x25c>)
    129c:	f043 0304 	orr.w	r3, r3, #4
    12a0:	6013      	str	r3, [r2, #0]
    12a2:	219a      	movs	r1, #154	; 0x9a
    12a4:	4856      	ldr	r0, [pc, #344]	; (1400 <I2C_ReadBytes+0x260>)
    12a6:	f000 fc0f 	bl	1ac8 <__error__>
    12aa:	2300      	movs	r3, #0
    12ac:	77fb      	strb	r3, [r7, #31]
    12ae:	e096      	b.n	13de <I2C_ReadBytes+0x23e>
    12b0:	4b54      	ldr	r3, [pc, #336]	; (1404 <I2C_ReadBytes+0x264>)
    12b2:	6819      	ldr	r1, [r3, #0]
    12b4:	69bb      	ldr	r3, [r7, #24]
    12b6:	1c5a      	adds	r2, r3, #1
    12b8:	61ba      	str	r2, [r7, #24]
    12ba:	687a      	ldr	r2, [r7, #4]
    12bc:	4413      	add	r3, r2
    12be:	b2ca      	uxtb	r2, r1
    12c0:	701a      	strb	r2, [r3, #0]
    12c2:	68bb      	ldr	r3, [r7, #8]
    12c4:	3b01      	subs	r3, #1
    12c6:	69ba      	ldr	r2, [r7, #24]
    12c8:	429a      	cmp	r2, r3
    12ca:	d13e      	bne.n	134a <I2C_ReadBytes+0x1aa>
    12cc:	4b4b      	ldr	r3, [pc, #300]	; (13fc <I2C_ReadBytes+0x25c>)
    12ce:	681b      	ldr	r3, [r3, #0]
    12d0:	f023 031f 	bic.w	r3, r3, #31
    12d4:	4a49      	ldr	r2, [pc, #292]	; (13fc <I2C_ReadBytes+0x25c>)
    12d6:	f043 0305 	orr.w	r3, r3, #5
    12da:	6013      	str	r3, [r2, #0]
    12dc:	f44f 5300 	mov.w	r3, #8192	; 0x2000
    12e0:	617b      	str	r3, [r7, #20]
    12e2:	697b      	ldr	r3, [r7, #20]
    12e4:	3b01      	subs	r3, #1
    12e6:	617b      	str	r3, [r7, #20]
    12e8:	697b      	ldr	r3, [r7, #20]
    12ea:	2b00      	cmp	r3, #0
    12ec:	bf14      	ite	ne
    12ee:	2301      	movne	r3, #1
    12f0:	2300      	moveq	r3, #0
    12f2:	b2db      	uxtb	r3, r3
    12f4:	2b00      	cmp	r3, #0
    12f6:	d000      	beq.n	12fa <I2C_ReadBytes+0x15a>
    12f8:	e7f3      	b.n	12e2 <I2C_ReadBytes+0x142>
    12fa:	4b40      	ldr	r3, [pc, #256]	; (13fc <I2C_ReadBytes+0x25c>)
    12fc:	681b      	ldr	r3, [r3, #0]
    12fe:	f003 0301 	and.w	r3, r3, #1
    1302:	2b00      	cmp	r3, #0
    1304:	bf14      	ite	ne
    1306:	2301      	movne	r3, #1
    1308:	2300      	moveq	r3, #0
    130a:	b2db      	uxtb	r3, r3
    130c:	2b00      	cmp	r3, #0
    130e:	d000      	beq.n	1312 <I2C_ReadBytes+0x172>
    1310:	e7f3      	b.n	12fa <I2C_ReadBytes+0x15a>
    1312:	4b3a      	ldr	r3, [pc, #232]	; (13fc <I2C_ReadBytes+0x25c>)
    1314:	681b      	ldr	r3, [r3, #0]
    1316:	f003 0302 	and.w	r3, r3, #2
    131a:	2b00      	cmp	r3, #0
    131c:	bf14      	ite	ne
    131e:	2301      	movne	r3, #1
    1320:	2300      	moveq	r3, #0
    1322:	b2db      	uxtb	r3, r3
    1324:	2b00      	cmp	r3, #0
    1326:	d006      	beq.n	1336 <I2C_ReadBytes+0x196>
    1328:	21a6      	movs	r1, #166	; 0xa6
    132a:	4835      	ldr	r0, [pc, #212]	; (1400 <I2C_ReadBytes+0x260>)
    132c:	f000 fbcc 	bl	1ac8 <__error__>
    1330:	2300      	movs	r3, #0
    1332:	77fb      	strb	r3, [r7, #31]
    1334:	e053      	b.n	13de <I2C_ReadBytes+0x23e>
    1336:	4b33      	ldr	r3, [pc, #204]	; (1404 <I2C_ReadBytes+0x264>)
    1338:	6819      	ldr	r1, [r3, #0]
    133a:	69bb      	ldr	r3, [r7, #24]
    133c:	1c5a      	adds	r2, r3, #1
    133e:	61ba      	str	r2, [r7, #24]
    1340:	687a      	ldr	r2, [r7, #4]
    1342:	4413      	add	r3, r2
    1344:	b2ca      	uxtb	r2, r1
    1346:	701a      	strb	r2, [r3, #0]
    1348:	e007      	b.n	135a <I2C_ReadBytes+0x1ba>
    134a:	4b2c      	ldr	r3, [pc, #176]	; (13fc <I2C_ReadBytes+0x25c>)
    134c:	681b      	ldr	r3, [r3, #0]
    134e:	f023 031f 	bic.w	r3, r3, #31
    1352:	4a2a      	ldr	r2, [pc, #168]	; (13fc <I2C_ReadBytes+0x25c>)
    1354:	f043 0309 	orr.w	r3, r3, #9
    1358:	6013      	str	r3, [r2, #0]
    135a:	69ba      	ldr	r2, [r7, #24]
    135c:	68bb      	ldr	r3, [r7, #8]
    135e:	429a      	cmp	r2, r3
    1360:	d03d      	beq.n	13de <I2C_ReadBytes+0x23e>
    1362:	e766      	b.n	1232 <I2C_ReadBytes+0x92>
    1364:	2301      	movs	r3, #1
    1366:	617b      	str	r3, [r7, #20]
    1368:	697b      	ldr	r3, [r7, #20]
    136a:	3b01      	subs	r3, #1
    136c:	617b      	str	r3, [r7, #20]
    136e:	697b      	ldr	r3, [r7, #20]
    1370:	2b00      	cmp	r3, #0
    1372:	bf14      	ite	ne
    1374:	2301      	movne	r3, #1
    1376:	2300      	moveq	r3, #0
    1378:	b2db      	uxtb	r3, r3
    137a:	2b00      	cmp	r3, #0
    137c:	d000      	beq.n	1380 <I2C_ReadBytes+0x1e0>
    137e:	e7f3      	b.n	1368 <I2C_ReadBytes+0x1c8>
    1380:	4b1e      	ldr	r3, [pc, #120]	; (13fc <I2C_ReadBytes+0x25c>)
    1382:	681b      	ldr	r3, [r3, #0]
    1384:	f003 0301 	and.w	r3, r3, #1
    1388:	2b00      	cmp	r3, #0
    138a:	bf14      	ite	ne
    138c:	2301      	movne	r3, #1
    138e:	2300      	moveq	r3, #0
    1390:	b2db      	uxtb	r3, r3
    1392:	2b00      	cmp	r3, #0
    1394:	d000      	beq.n	1398 <I2C_ReadBytes+0x1f8>
    1396:	e7f3      	b.n	1380 <I2C_ReadBytes+0x1e0>
    1398:	4b18      	ldr	r3, [pc, #96]	; (13fc <I2C_ReadBytes+0x25c>)
    139a:	681b      	ldr	r3, [r3, #0]
    139c:	f003 0302 	and.w	r3, r3, #2
    13a0:	2b00      	cmp	r3, #0
    13a2:	bf14      	ite	ne
    13a4:	2301      	movne	r3, #1
    13a6:	2300      	moveq	r3, #0
    13a8:	b2db      	uxtb	r3, r3
    13aa:	2b00      	cmp	r3, #0
    13ac:	d006      	beq.n	13bc <I2C_ReadBytes+0x21c>
    13ae:	21b7      	movs	r1, #183	; 0xb7
    13b0:	4813      	ldr	r0, [pc, #76]	; (1400 <I2C_ReadBytes+0x260>)
    13b2:	f000 fb89 	bl	1ac8 <__error__>
    13b6:	2300      	movs	r3, #0
    13b8:	77fb      	strb	r3, [r7, #31]
    13ba:	e010      	b.n	13de <I2C_ReadBytes+0x23e>
    13bc:	4b0f      	ldr	r3, [pc, #60]	; (13fc <I2C_ReadBytes+0x25c>)
    13be:	681b      	ldr	r3, [r3, #0]
    13c0:	f023 031f 	bic.w	r3, r3, #31
    13c4:	4a0d      	ldr	r2, [pc, #52]	; (13fc <I2C_ReadBytes+0x25c>)
    13c6:	f043 0304 	orr.w	r3, r3, #4
    13ca:	6013      	str	r3, [r2, #0]
    13cc:	4b0d      	ldr	r3, [pc, #52]	; (1404 <I2C_ReadBytes+0x264>)
    13ce:	6819      	ldr	r1, [r3, #0]
    13d0:	69bb      	ldr	r3, [r7, #24]
    13d2:	1c5a      	adds	r2, r3, #1
    13d4:	61ba      	str	r2, [r7, #24]
    13d6:	687a      	ldr	r2, [r7, #4]
    13d8:	4413      	add	r3, r2
    13da:	b2ca      	uxtb	r2, r1
    13dc:	701a      	strb	r2, [r3, #0]
    13de:	4b07      	ldr	r3, [pc, #28]	; (13fc <I2C_ReadBytes+0x25c>)
    13e0:	681b      	ldr	r3, [r3, #0]
    13e2:	f023 031f 	bic.w	r3, r3, #31
    13e6:	4a05      	ldr	r2, [pc, #20]	; (13fc <I2C_ReadBytes+0x25c>)
    13e8:	f043 0304 	orr.w	r3, r3, #4
    13ec:	6013      	str	r3, [r2, #0]
    13ee:	7ffb      	ldrb	r3, [r7, #31]
    13f0:	4618      	mov	r0, r3
    13f2:	3720      	adds	r7, #32
    13f4:	46bd      	mov	sp, r7
    13f6:	bd80      	pop	{r7, pc}
    13f8:	40020000 	andmi	r0, r2, r0
    13fc:	40020004 	andmi	r0, r2, r4
    1400:	00001ea0 	andeq	r1, r0, r0, lsr #29
    1404:	40020008 	andmi	r0, r2, r8

00001408 <GET_SHIFTBITS_MASK>:
    1408:	b480      	push	{r7}
    140a:	b085      	sub	sp, #20
    140c:	af00      	add	r7, sp, #0
    140e:	6078      	str	r0, [r7, #4]
    1410:	687b      	ldr	r3, [r7, #4]
    1412:	60fb      	str	r3, [r7, #12]
    1414:	68fb      	ldr	r3, [r7, #12]
    1416:	2b00      	cmp	r3, #0
    1418:	d009      	beq.n	142e <GET_SHIFTBITS_MASK+0x26>
    141a:	68fb      	ldr	r3, [r7, #12]
    141c:	f003 0301 	and.w	r3, r3, #1
    1420:	2b00      	cmp	r3, #0
    1422:	d103      	bne.n	142c <GET_SHIFTBITS_MASK+0x24>
    1424:	68fb      	ldr	r3, [r7, #12]
    1426:	085b      	lsrs	r3, r3, #1
    1428:	60fb      	str	r3, [r7, #12]
    142a:	e7f3      	b.n	1414 <GET_SHIFTBITS_MASK+0xc>
    142c:	bf00      	nop
    142e:	68fb      	ldr	r3, [r7, #12]
    1430:	4618      	mov	r0, r3
    1432:	3714      	adds	r7, #20
    1434:	46bd      	mov	sp, r7
    1436:	f85d 7b04 	ldr.w	r7, [sp], #4
    143a:	4770      	bx	lr

0000143c <GET_MASK_POS>:
    143c:	b480      	push	{r7}
    143e:	b085      	sub	sp, #20
    1440:	af00      	add	r7, sp, #0
    1442:	6078      	str	r0, [r7, #4]
    1444:	2300      	movs	r3, #0
    1446:	60fb      	str	r3, [r7, #12]
    1448:	687b      	ldr	r3, [r7, #4]
    144a:	60bb      	str	r3, [r7, #8]
    144c:	68bb      	ldr	r3, [r7, #8]
    144e:	2b00      	cmp	r3, #0
    1450:	d00c      	beq.n	146c <GET_MASK_POS+0x30>
    1452:	68bb      	ldr	r3, [r7, #8]
    1454:	f003 0301 	and.w	r3, r3, #1
    1458:	2b00      	cmp	r3, #0
    145a:	d106      	bne.n	146a <GET_MASK_POS+0x2e>
    145c:	68fb      	ldr	r3, [r7, #12]
    145e:	3301      	adds	r3, #1
    1460:	60fb      	str	r3, [r7, #12]
    1462:	68bb      	ldr	r3, [r7, #8]
    1464:	085b      	lsrs	r3, r3, #1
    1466:	60bb      	str	r3, [r7, #8]
    1468:	e7f0      	b.n	144c <GET_MASK_POS+0x10>
    146a:	bf00      	nop
    146c:	68fb      	ldr	r3, [r7, #12]
    146e:	4618      	mov	r0, r3
    1470:	3714      	adds	r7, #20
    1472:	46bd      	mov	sp, r7
    1474:	f85d 7b04 	ldr.w	r7, [sp], #4
    1478:	4770      	bx	lr
	...

0000147c <PAD_SysClockSet>:
    147c:	b5b0      	push	{r4, r5, r7, lr}
    147e:	b082      	sub	sp, #8
    1480:	af00      	add	r7, sp, #0
    1482:	2300      	movs	r3, #0
    1484:	607b      	str	r3, [r7, #4]
    1486:	4b97      	ldr	r3, [pc, #604]	; (16e4 <PAD_SysClockSet+0x268>)
    1488:	681b      	ldr	r3, [r3, #0]
    148a:	4a96      	ldr	r2, [pc, #600]	; (16e4 <PAD_SysClockSet+0x268>)
    148c:	f043 0340 	orr.w	r3, r3, #64	; 0x40
    1490:	6013      	str	r3, [r2, #0]
    1492:	4b95      	ldr	r3, [pc, #596]	; (16e8 <PAD_SysClockSet+0x26c>)
    1494:	681b      	ldr	r3, [r3, #0]
    1496:	f423 6400 	bic.w	r4, r3, #2048	; 0x800
    149a:	f44f 6000 	mov.w	r0, #2048	; 0x800
    149e:	f7ff ffb3 	bl	1408 <GET_SHIFTBITS_MASK>
    14a2:	4603      	mov	r3, r0
    14a4:	f003 0501 	and.w	r5, r3, #1
    14a8:	f44f 6000 	mov.w	r0, #2048	; 0x800
    14ac:	f7ff ffc6 	bl	143c <GET_MASK_POS>
    14b0:	4603      	mov	r3, r0
    14b2:	fa05 f303 	lsl.w	r3, r5, r3
    14b6:	4a8c      	ldr	r2, [pc, #560]	; (16e8 <PAD_SysClockSet+0x26c>)
    14b8:	4323      	orrs	r3, r4
    14ba:	6013      	str	r3, [r2, #0]
    14bc:	4b8b      	ldr	r3, [pc, #556]	; (16ec <PAD_SysClockSet+0x270>)
    14be:	681b      	ldr	r3, [r3, #0]
    14c0:	f423 6400 	bic.w	r4, r3, #2048	; 0x800
    14c4:	f44f 6000 	mov.w	r0, #2048	; 0x800
    14c8:	f7ff ff9e 	bl	1408 <GET_SHIFTBITS_MASK>
    14cc:	4603      	mov	r3, r0
    14ce:	f003 0501 	and.w	r5, r3, #1
    14d2:	f44f 6000 	mov.w	r0, #2048	; 0x800
    14d6:	f7ff ffb1 	bl	143c <GET_MASK_POS>
    14da:	4603      	mov	r3, r0
    14dc:	fa05 f303 	lsl.w	r3, r5, r3
    14e0:	4a82      	ldr	r2, [pc, #520]	; (16ec <PAD_SysClockSet+0x270>)
    14e2:	4323      	orrs	r3, r4
    14e4:	6013      	str	r3, [r2, #0]
    14e6:	f44f 0080 	mov.w	r0, #4194304	; 0x400000
    14ea:	f7ff ff8d 	bl	1408 <GET_SHIFTBITS_MASK>
    14ee:	f44f 0080 	mov.w	r0, #4194304	; 0x400000
    14f2:	f7ff ffa3 	bl	143c <GET_MASK_POS>
    14f6:	4b7c      	ldr	r3, [pc, #496]	; (16e8 <PAD_SysClockSet+0x26c>)
    14f8:	681b      	ldr	r3, [r3, #0]
    14fa:	4a7b      	ldr	r2, [pc, #492]	; (16e8 <PAD_SysClockSet+0x26c>)
    14fc:	f423 0380 	bic.w	r3, r3, #4194304	; 0x400000
    1500:	6013      	str	r3, [r2, #0]
    1502:	4b7a      	ldr	r3, [pc, #488]	; (16ec <PAD_SysClockSet+0x270>)
    1504:	681b      	ldr	r3, [r3, #0]
    1506:	f023 4400 	bic.w	r4, r3, #2147483648	; 0x80000000
    150a:	f04f 4000 	mov.w	r0, #2147483648	; 0x80000000
    150e:	f7ff ff7b 	bl	1408 <GET_SHIFTBITS_MASK>
    1512:	4603      	mov	r3, r0
    1514:	f003 0501 	and.w	r5, r3, #1
    1518:	f04f 4000 	mov.w	r0, #2147483648	; 0x80000000
    151c:	f7ff ff8e 	bl	143c <GET_MASK_POS>
    1520:	4603      	mov	r3, r0
    1522:	fa05 f303 	lsl.w	r3, r5, r3
    1526:	4a71      	ldr	r2, [pc, #452]	; (16ec <PAD_SysClockSet+0x270>)
    1528:	4323      	orrs	r3, r4
    152a:	6013      	str	r3, [r2, #0]
    152c:	4b6e      	ldr	r3, [pc, #440]	; (16e8 <PAD_SysClockSet+0x26c>)
    152e:	681b      	ldr	r3, [r3, #0]
    1530:	f423 64f8 	bic.w	r4, r3, #1984	; 0x7c0
    1534:	f44f 60f8 	mov.w	r0, #1984	; 0x7c0
    1538:	f7ff ff66 	bl	1408 <GET_SHIFTBITS_MASK>
    153c:	4603      	mov	r3, r0
    153e:	f003 0515 	and.w	r5, r3, #21
    1542:	f44f 60f8 	mov.w	r0, #1984	; 0x7c0
    1546:	f7ff ff79 	bl	143c <GET_MASK_POS>
    154a:	4603      	mov	r3, r0
    154c:	fa05 f303 	lsl.w	r3, r5, r3
    1550:	4a65      	ldr	r2, [pc, #404]	; (16e8 <PAD_SysClockSet+0x26c>)
    1552:	4323      	orrs	r3, r4
    1554:	6013      	str	r3, [r2, #0]
    1556:	2030      	movs	r0, #48	; 0x30
    1558:	f7ff ff56 	bl	1408 <GET_SHIFTBITS_MASK>
    155c:	2030      	movs	r0, #48	; 0x30
    155e:	f7ff ff6d 	bl	143c <GET_MASK_POS>
    1562:	4b61      	ldr	r3, [pc, #388]	; (16e8 <PAD_SysClockSet+0x26c>)
    1564:	681b      	ldr	r3, [r3, #0]
    1566:	4a60      	ldr	r2, [pc, #384]	; (16e8 <PAD_SysClockSet+0x26c>)
    1568:	f023 0330 	bic.w	r3, r3, #48	; 0x30
    156c:	6013      	str	r3, [r2, #0]
    156e:	2070      	movs	r0, #112	; 0x70
    1570:	f7ff ff4a 	bl	1408 <GET_SHIFTBITS_MASK>
    1574:	2070      	movs	r0, #112	; 0x70
    1576:	f7ff ff61 	bl	143c <GET_MASK_POS>
    157a:	4b5c      	ldr	r3, [pc, #368]	; (16ec <PAD_SysClockSet+0x270>)
    157c:	681b      	ldr	r3, [r3, #0]
    157e:	4a5b      	ldr	r2, [pc, #364]	; (16ec <PAD_SysClockSet+0x270>)
    1580:	f023 0370 	bic.w	r3, r3, #112	; 0x70
    1584:	6013      	str	r3, [r2, #0]
    1586:	f44f 5000 	mov.w	r0, #8192	; 0x2000
    158a:	f7ff ff3d 	bl	1408 <GET_SHIFTBITS_MASK>
    158e:	f44f 5000 	mov.w	r0, #8192	; 0x2000
    1592:	f7ff ff53 	bl	143c <GET_MASK_POS>
    1596:	4b54      	ldr	r3, [pc, #336]	; (16e8 <PAD_SysClockSet+0x26c>)
    1598:	681b      	ldr	r3, [r3, #0]
    159a:	4a53      	ldr	r2, [pc, #332]	; (16e8 <PAD_SysClockSet+0x26c>)
    159c:	f423 5300 	bic.w	r3, r3, #8192	; 0x2000
    15a0:	6013      	str	r3, [r2, #0]
    15a2:	f44f 5000 	mov.w	r0, #8192	; 0x2000
    15a6:	f7ff ff2f 	bl	1408 <GET_SHIFTBITS_MASK>
    15aa:	f44f 5000 	mov.w	r0, #8192	; 0x2000
    15ae:	f7ff ff45 	bl	143c <GET_MASK_POS>
    15b2:	4b4e      	ldr	r3, [pc, #312]	; (16ec <PAD_SysClockSet+0x270>)
    15b4:	681b      	ldr	r3, [r3, #0]
    15b6:	4a4d      	ldr	r2, [pc, #308]	; (16ec <PAD_SysClockSet+0x270>)
    15b8:	f423 5300 	bic.w	r3, r3, #8192	; 0x2000
    15bc:	6013      	str	r3, [r2, #0]
    15be:	4b4a      	ldr	r3, [pc, #296]	; (16e8 <PAD_SysClockSet+0x26c>)
    15c0:	681b      	ldr	r3, [r3, #0]
    15c2:	f023 64f0 	bic.w	r4, r3, #125829120	; 0x7800000
    15c6:	f04f 60f0 	mov.w	r0, #125829120	; 0x7800000
    15ca:	f7ff ff1d 	bl	1408 <GET_SHIFTBITS_MASK>
    15ce:	4603      	mov	r3, r0
    15d0:	f003 0503 	and.w	r5, r3, #3
    15d4:	f04f 60f0 	mov.w	r0, #125829120	; 0x7800000
    15d8:	f7ff ff30 	bl	143c <GET_MASK_POS>
    15dc:	4603      	mov	r3, r0
    15de:	fa05 f303 	lsl.w	r3, r5, r3
    15e2:	4a41      	ldr	r2, [pc, #260]	; (16e8 <PAD_SysClockSet+0x26c>)
    15e4:	4323      	orrs	r3, r4
    15e6:	6013      	str	r3, [r2, #0]
    15e8:	4b40      	ldr	r3, [pc, #256]	; (16ec <PAD_SysClockSet+0x270>)
    15ea:	681b      	ldr	r3, [r3, #0]
    15ec:	f023 4480 	bic.w	r4, r3, #1073741824	; 0x40000000
    15f0:	f04f 4080 	mov.w	r0, #1073741824	; 0x40000000
    15f4:	f7ff ff08 	bl	1408 <GET_SHIFTBITS_MASK>
    15f8:	4603      	mov	r3, r0
    15fa:	f003 0501 	and.w	r5, r3, #1
    15fe:	f04f 4080 	mov.w	r0, #1073741824	; 0x40000000
    1602:	f7ff ff1b 	bl	143c <GET_MASK_POS>
    1606:	4603      	mov	r3, r0
    1608:	fa05 f303 	lsl.w	r3, r5, r3
    160c:	4a37      	ldr	r2, [pc, #220]	; (16ec <PAD_SysClockSet+0x270>)
    160e:	4323      	orrs	r3, r4
    1610:	6013      	str	r3, [r2, #0]
    1612:	4b36      	ldr	r3, [pc, #216]	; (16ec <PAD_SysClockSet+0x270>)
    1614:	681b      	ldr	r3, [r3, #0]
    1616:	f023 54fc 	bic.w	r4, r3, #528482304	; 0x1f800000
    161a:	f04f 50fc 	mov.w	r0, #528482304	; 0x1f800000
    161e:	f7ff fef3 	bl	1408 <GET_SHIFTBITS_MASK>
    1622:	4603      	mov	r3, r0
    1624:	f003 0502 	and.w	r5, r3, #2
    1628:	f04f 50fc 	mov.w	r0, #528482304	; 0x1f800000
    162c:	f7ff ff06 	bl	143c <GET_MASK_POS>
    1630:	4603      	mov	r3, r0
    1632:	fa05 f303 	lsl.w	r3, r5, r3
    1636:	4a2d      	ldr	r2, [pc, #180]	; (16ec <PAD_SysClockSet+0x270>)
    1638:	4323      	orrs	r3, r4
    163a:	6013      	str	r3, [r2, #0]
    163c:	f44f 0080 	mov.w	r0, #4194304	; 0x400000
    1640:	f7ff fee2 	bl	1408 <GET_SHIFTBITS_MASK>
    1644:	f44f 0080 	mov.w	r0, #4194304	; 0x400000
    1648:	f7ff fef8 	bl	143c <GET_MASK_POS>
    164c:	4b27      	ldr	r3, [pc, #156]	; (16ec <PAD_SysClockSet+0x270>)
    164e:	681b      	ldr	r3, [r3, #0]
    1650:	4a26      	ldr	r2, [pc, #152]	; (16ec <PAD_SysClockSet+0x270>)
    1652:	f423 0380 	bic.w	r3, r3, #4194304	; 0x400000
    1656:	6013      	str	r3, [r2, #0]
    1658:	4b23      	ldr	r3, [pc, #140]	; (16e8 <PAD_SysClockSet+0x26c>)
    165a:	681b      	ldr	r3, [r3, #0]
    165c:	f423 0480 	bic.w	r4, r3, #4194304	; 0x400000
    1660:	f44f 0080 	mov.w	r0, #4194304	; 0x400000
    1664:	f7ff fed0 	bl	1408 <GET_SHIFTBITS_MASK>
    1668:	4603      	mov	r3, r0
    166a:	f003 0501 	and.w	r5, r3, #1
    166e:	f44f 0080 	mov.w	r0, #4194304	; 0x400000
    1672:	f7ff fee3 	bl	143c <GET_MASK_POS>
    1676:	4603      	mov	r3, r0
    1678:	fa05 f303 	lsl.w	r3, r5, r3
    167c:	4a1a      	ldr	r2, [pc, #104]	; (16e8 <PAD_SysClockSet+0x26c>)
    167e:	4323      	orrs	r3, r4
    1680:	6013      	str	r3, [r2, #0]
    1682:	f44f 4300 	mov.w	r3, #32768	; 0x8000
    1686:	607b      	str	r3, [r7, #4]
    1688:	687b      	ldr	r3, [r7, #4]
    168a:	2b00      	cmp	r3, #0
    168c:	d10a      	bne.n	16a4 <PAD_SysClockSet+0x228>
    168e:	4b18      	ldr	r3, [pc, #96]	; (16f0 <PAD_SysClockSet+0x274>)
    1690:	681b      	ldr	r3, [r3, #0]
    1692:	f003 0340 	and.w	r3, r3, #64	; 0x40
    1696:	2b00      	cmp	r3, #0
    1698:	d103      	bne.n	16a2 <PAD_SysClockSet+0x226>
    169a:	687b      	ldr	r3, [r7, #4]
    169c:	3b01      	subs	r3, #1
    169e:	607b      	str	r3, [r7, #4]
    16a0:	e7f2      	b.n	1688 <PAD_SysClockSet+0x20c>
    16a2:	bf00      	nop
    16a4:	f44f 6000 	mov.w	r0, #2048	; 0x800
    16a8:	f7ff feae 	bl	1408 <GET_SHIFTBITS_MASK>
    16ac:	f44f 6000 	mov.w	r0, #2048	; 0x800
    16b0:	f7ff fec4 	bl	143c <GET_MASK_POS>
    16b4:	4b0c      	ldr	r3, [pc, #48]	; (16e8 <PAD_SysClockSet+0x26c>)
    16b6:	681b      	ldr	r3, [r3, #0]
    16b8:	4a0b      	ldr	r2, [pc, #44]	; (16e8 <PAD_SysClockSet+0x26c>)
    16ba:	f423 6300 	bic.w	r3, r3, #2048	; 0x800
    16be:	6013      	str	r3, [r2, #0]
    16c0:	f44f 6000 	mov.w	r0, #2048	; 0x800
    16c4:	f7ff fea0 	bl	1408 <GET_SHIFTBITS_MASK>
    16c8:	f44f 6000 	mov.w	r0, #2048	; 0x800
    16cc:	f7ff feb6 	bl	143c <GET_MASK_POS>
    16d0:	4b06      	ldr	r3, [pc, #24]	; (16ec <PAD_SysClockSet+0x270>)
    16d2:	681b      	ldr	r3, [r3, #0]
    16d4:	4a05      	ldr	r2, [pc, #20]	; (16ec <PAD_SysClockSet+0x270>)
    16d6:	f423 6300 	bic.w	r3, r3, #2048	; 0x800
    16da:	6013      	str	r3, [r2, #0]
    16dc:	bf00      	nop
    16de:	3708      	adds	r7, #8
    16e0:	46bd      	mov	sp, r7
    16e2:	bdb0      	pop	{r4, r5, r7, pc}
    16e4:	400fe058 	andmi	lr, pc, r8, asr r0	; <UNPREDICTABLE>
    16e8:	400fe060 	andmi	lr, pc, r0, rrx
    16ec:	400fe070 	andmi	lr, pc, r0, ror r0	; <UNPREDICTABLE>
    16f0:	400fe050 	andmi	lr, pc, r0, asr r0	; <UNPREDICTABLE>

000016f4 <PAD_SysPeripheralClockEnable>:
    16f4:	b480      	push	{r7}
    16f6:	b083      	sub	sp, #12
    16f8:	af00      	add	r7, sp, #0
    16fa:	6078      	str	r0, [r7, #4]
    16fc:	460b      	mov	r3, r1
    16fe:	70fb      	strb	r3, [r7, #3]
    1700:	687b      	ldr	r3, [r7, #4]
    1702:	4a44      	ldr	r2, [pc, #272]	; (1814 <PAD_SysPeripheralClockEnable+0x120>)
    1704:	4293      	cmp	r3, r2
    1706:	d845      	bhi.n	1794 <PAD_SysPeripheralClockEnable+0xa0>
    1708:	687b      	ldr	r3, [r7, #4]
    170a:	4a43      	ldr	r2, [pc, #268]	; (1818 <PAD_SysPeripheralClockEnable+0x124>)
    170c:	4293      	cmp	r3, r2
    170e:	d37a      	bcc.n	1806 <PAD_SysPeripheralClockEnable+0x112>
    1710:	687a      	ldr	r2, [r7, #4]
    1712:	4b42      	ldr	r3, [pc, #264]	; (181c <PAD_SysPeripheralClockEnable+0x128>)
    1714:	4413      	add	r3, r2
    1716:	2b1c      	cmp	r3, #28
    1718:	d875      	bhi.n	1806 <PAD_SysPeripheralClockEnable+0x112>
    171a:	a201      	add	r2, pc, #4	; (adr r2, 1720 <PAD_SysPeripheralClockEnable+0x2c>)
    171c:	f852 f023 	ldr.w	pc, [r2, r3, lsl #2]
    1720:	000017df 	ldrdeq	r1, [r0], -pc	; <UNPREDICTABLE>
    1724:	00001807 	andeq	r1, r0, r7, lsl #16
    1728:	00001807 	andeq	r1, r0, r7, lsl #16
    172c:	00001807 	andeq	r1, r0, r7, lsl #16
    1730:	000017b5 			; <UNDEFINED> instruction: 0x000017b5
    1734:	00001807 	andeq	r1, r0, r7, lsl #16
    1738:	00001807 	andeq	r1, r0, r7, lsl #16
    173c:	00001807 	andeq	r1, r0, r7, lsl #16
    1740:	00001807 	andeq	r1, r0, r7, lsl #16
    1744:	00001807 	andeq	r1, r0, r7, lsl #16
    1748:	00001807 	andeq	r1, r0, r7, lsl #16
    174c:	00001807 	andeq	r1, r0, r7, lsl #16
    1750:	00001807 	andeq	r1, r0, r7, lsl #16
    1754:	00001807 	andeq	r1, r0, r7, lsl #16
    1758:	00001807 	andeq	r1, r0, r7, lsl #16
    175c:	00001807 	andeq	r1, r0, r7, lsl #16
    1760:	00001807 	andeq	r1, r0, r7, lsl #16
    1764:	00001807 	andeq	r1, r0, r7, lsl #16
    1768:	00001807 	andeq	r1, r0, r7, lsl #16
    176c:	00001807 	andeq	r1, r0, r7, lsl #16
    1770:	00001807 	andeq	r1, r0, r7, lsl #16
    1774:	00001807 	andeq	r1, r0, r7, lsl #16
    1778:	00001807 	andeq	r1, r0, r7, lsl #16
    177c:	00001807 	andeq	r1, r0, r7, lsl #16
    1780:	000017cb 	andeq	r1, r0, fp, asr #15
    1784:	00001807 	andeq	r1, r0, r7, lsl #16
    1788:	00001807 	andeq	r1, r0, r7, lsl #16
    178c:	00001807 	andeq	r1, r0, r7, lsl #16
    1790:	0000179f 	muleq	r0, pc, r7	; <UNPREDICTABLE>
    1794:	687b      	ldr	r3, [r7, #4]
    1796:	4a22      	ldr	r2, [pc, #136]	; (1820 <PAD_SysPeripheralClockEnable+0x12c>)
    1798:	4293      	cmp	r3, r2
    179a:	d02a      	beq.n	17f2 <PAD_SysPeripheralClockEnable+0xfe>
    179c:	e033      	b.n	1806 <PAD_SysPeripheralClockEnable+0x112>
    179e:	4b1d      	ldr	r3, [pc, #116]	; (1814 <PAD_SysPeripheralClockEnable+0x120>)
    17a0:	681b      	ldr	r3, [r3, #0]
    17a2:	78fa      	ldrb	r2, [r7, #3]
    17a4:	2101      	movs	r1, #1
    17a6:	fa01 f202 	lsl.w	r2, r1, r2
    17aa:	4611      	mov	r1, r2
    17ac:	4a19      	ldr	r2, [pc, #100]	; (1814 <PAD_SysPeripheralClockEnable+0x120>)
    17ae:	430b      	orrs	r3, r1
    17b0:	6013      	str	r3, [r2, #0]
    17b2:	e029      	b.n	1808 <PAD_SysPeripheralClockEnable+0x114>
    17b4:	4b1b      	ldr	r3, [pc, #108]	; (1824 <PAD_SysPeripheralClockEnable+0x130>)
    17b6:	681b      	ldr	r3, [r3, #0]
    17b8:	78fa      	ldrb	r2, [r7, #3]
    17ba:	2101      	movs	r1, #1
    17bc:	fa01 f202 	lsl.w	r2, r1, r2
    17c0:	4611      	mov	r1, r2
    17c2:	4a18      	ldr	r2, [pc, #96]	; (1824 <PAD_SysPeripheralClockEnable+0x130>)
    17c4:	430b      	orrs	r3, r1
    17c6:	6013      	str	r3, [r2, #0]
    17c8:	e01e      	b.n	1808 <PAD_SysPeripheralClockEnable+0x114>
    17ca:	4b17      	ldr	r3, [pc, #92]	; (1828 <PAD_SysPeripheralClockEnable+0x134>)
    17cc:	681b      	ldr	r3, [r3, #0]
    17ce:	78fa      	ldrb	r2, [r7, #3]
    17d0:	2101      	movs	r1, #1
    17d2:	fa01 f202 	lsl.w	r2, r1, r2
    17d6:	4611      	mov	r1, r2
    17d8:	4a13      	ldr	r2, [pc, #76]	; (1828 <PAD_SysPeripheralClockEnable+0x134>)
    17da:	430b      	orrs	r3, r1
    17dc:	6013      	str	r3, [r2, #0]
    17de:	4b0e      	ldr	r3, [pc, #56]	; (1818 <PAD_SysPeripheralClockEnable+0x124>)
    17e0:	681b      	ldr	r3, [r3, #0]
    17e2:	78fa      	ldrb	r2, [r7, #3]
    17e4:	2101      	movs	r1, #1
    17e6:	fa01 f202 	lsl.w	r2, r1, r2
    17ea:	4611      	mov	r1, r2
    17ec:	4a0a      	ldr	r2, [pc, #40]	; (1818 <PAD_SysPeripheralClockEnable+0x124>)
    17ee:	430b      	orrs	r3, r1
    17f0:	6013      	str	r3, [r2, #0]
    17f2:	4b0b      	ldr	r3, [pc, #44]	; (1820 <PAD_SysPeripheralClockEnable+0x12c>)
    17f4:	681b      	ldr	r3, [r3, #0]
    17f6:	78fa      	ldrb	r2, [r7, #3]
    17f8:	2101      	movs	r1, #1
    17fa:	fa01 f202 	lsl.w	r2, r1, r2
    17fe:	4611      	mov	r1, r2
    1800:	4a07      	ldr	r2, [pc, #28]	; (1820 <PAD_SysPeripheralClockEnable+0x12c>)
    1802:	430b      	orrs	r3, r1
    1804:	6013      	str	r3, [r2, #0]
    1806:	bf00      	nop
    1808:	bf00      	nop
    180a:	370c      	adds	r7, #12
    180c:	46bd      	mov	sp, r7
    180e:	f85d 7b04 	ldr.w	r7, [sp], #4
    1812:	4770      	bx	lr
    1814:	400fe620 	andmi	lr, pc, r0, lsr #12
    1818:	400fe604 	andmi	lr, pc, r4, lsl #12
    181c:	bff019fc 	svclt	0x00f019fc
    1820:	400fe65c 	andmi	lr, pc, ip, asr r6	; <UNPREDICTABLE>
    1824:	400fe608 	andmi	lr, pc, r8, lsl #12
    1828:	400fe61c 	andmi	lr, pc, ip, lsl r6	; <UNPREDICTABLE>

0000182c <SPI_WriteBytes>:
    182c:	b580      	push	{r7, lr}
    182e:	b082      	sub	sp, #8
    1830:	af00      	add	r7, sp, #0
    1832:	6078      	str	r0, [r7, #4]
    1834:	6039      	str	r1, [r7, #0]
    1836:	4b05      	ldr	r3, [pc, #20]	; (184c <SPI_WriteBytes+0x20>)
    1838:	681b      	ldr	r3, [r3, #0]
    183a:	683a      	ldr	r2, [r7, #0]
    183c:	6879      	ldr	r1, [r7, #4]
    183e:	4618      	mov	r0, r3
    1840:	f000 f818 	bl	1874 <_ZN12SPIInterface5writeEmPv>
    1844:	bf00      	nop
    1846:	3708      	adds	r7, #8
    1848:	46bd      	mov	sp, r7
    184a:	bd80      	pop	{r7, pc}
    184c:	20002208 	andcs	r2, r0, r8, lsl #4

00001850 <SPI_ReadBytes>:
    1850:	b580      	push	{r7, lr}
    1852:	b082      	sub	sp, #8
    1854:	af00      	add	r7, sp, #0
    1856:	6078      	str	r0, [r7, #4]
    1858:	6039      	str	r1, [r7, #0]
    185a:	4b05      	ldr	r3, [pc, #20]	; (1870 <SPI_ReadBytes+0x20>)
    185c:	681b      	ldr	r3, [r3, #0]
    185e:	683a      	ldr	r2, [r7, #0]
    1860:	6879      	ldr	r1, [r7, #4]
    1862:	4618      	mov	r0, r3
    1864:	f000 f874 	bl	1950 <_ZN12SPIInterface4readEmPv>
    1868:	bf00      	nop
    186a:	3708      	adds	r7, #8
    186c:	46bd      	mov	sp, r7
    186e:	bd80      	pop	{r7, pc}
    1870:	20002208 	andcs	r2, r0, r8, lsl #4

00001874 <_ZN12SPIInterface5writeEmPv>:
    1874:	b580      	push	{r7, lr}
    1876:	b088      	sub	sp, #32
    1878:	af02      	add	r7, sp, #8
    187a:	60f8      	str	r0, [r7, #12]
    187c:	60b9      	str	r1, [r7, #8]
    187e:	607a      	str	r2, [r7, #4]
    1880:	2300      	movs	r3, #0
    1882:	75fb      	strb	r3, [r7, #23]
    1884:	68bb      	ldr	r3, [r7, #8]
    1886:	2b00      	cmp	r3, #0
    1888:	d048      	beq.n	191c <_ZN12SPIInterface5writeEmPv+0xa8>
    188a:	68fb      	ldr	r3, [r7, #12]
    188c:	68ba      	ldr	r2, [r7, #8]
    188e:	619a      	str	r2, [r3, #24]
    1890:	68fb      	ldr	r3, [r7, #12]
    1892:	2200      	movs	r2, #0
    1894:	621a      	str	r2, [r3, #32]
    1896:	68fb      	ldr	r3, [r7, #12]
    1898:	687a      	ldr	r2, [r7, #4]
    189a:	611a      	str	r2, [r3, #16]
    189c:	68fb      	ldr	r3, [r7, #12]
    189e:	681a      	ldr	r2, [r3, #0]
    18a0:	68bb      	ldr	r3, [r7, #8]
    18a2:	9300      	str	r3, [sp, #0]
    18a4:	4613      	mov	r3, r2
    18a6:	4a24      	ldr	r2, [pc, #144]	; (1938 <_ZN12SPIInterface5writeEmPv+0xc4>)
    18a8:	2100      	movs	r1, #0
    18aa:	4824      	ldr	r0, [pc, #144]	; (193c <_ZN12SPIInterface5writeEmPv+0xc8>)
    18ac:	f000 f956 	bl	1b5c <_ZN14DebugInterface3logE10DebugLevelPKcz>
    18b0:	68fb      	ldr	r3, [r7, #12]
    18b2:	699a      	ldr	r2, [r3, #24]
    18b4:	68fb      	ldr	r3, [r7, #12]
    18b6:	6a1b      	ldr	r3, [r3, #32]
    18b8:	429a      	cmp	r2, r3
    18ba:	d907      	bls.n	18cc <_ZN12SPIInterface5writeEmPv+0x58>
    18bc:	4b20      	ldr	r3, [pc, #128]	; (1940 <_ZN12SPIInterface5writeEmPv+0xcc>)
    18be:	681b      	ldr	r3, [r3, #0]
    18c0:	f003 0308 	and.w	r3, r3, #8
    18c4:	2b00      	cmp	r3, #0
    18c6:	d101      	bne.n	18cc <_ZN12SPIInterface5writeEmPv+0x58>
    18c8:	2301      	movs	r3, #1
    18ca:	e000      	b.n	18ce <_ZN12SPIInterface5writeEmPv+0x5a>
    18cc:	2300      	movs	r3, #0
    18ce:	2b00      	cmp	r3, #0
    18d0:	d00b      	beq.n	18ea <_ZN12SPIInterface5writeEmPv+0x76>
    18d2:	68fb      	ldr	r3, [r7, #12]
    18d4:	691a      	ldr	r2, [r3, #16]
    18d6:	68fb      	ldr	r3, [r7, #12]
    18d8:	6a1b      	ldr	r3, [r3, #32]
    18da:	1c58      	adds	r0, r3, #1
    18dc:	68f9      	ldr	r1, [r7, #12]
    18de:	6208      	str	r0, [r1, #32]
    18e0:	4413      	add	r3, r2
    18e2:	781a      	ldrb	r2, [r3, #0]
    18e4:	4b17      	ldr	r3, [pc, #92]	; (1944 <_ZN12SPIInterface5writeEmPv+0xd0>)
    18e6:	601a      	str	r2, [r3, #0]
    18e8:	e7e2      	b.n	18b0 <_ZN12SPIInterface5writeEmPv+0x3c>
    18ea:	68fb      	ldr	r3, [r7, #12]
    18ec:	699a      	ldr	r2, [r3, #24]
    18ee:	68fb      	ldr	r3, [r7, #12]
    18f0:	6a1b      	ldr	r3, [r3, #32]
    18f2:	429a      	cmp	r2, r3
    18f4:	bf8c      	ite	hi
    18f6:	2301      	movhi	r3, #1
    18f8:	2300      	movls	r3, #0
    18fa:	b2db      	uxtb	r3, r3
    18fc:	2b00      	cmp	r3, #0
    18fe:	d016      	beq.n	192e <_ZN12SPIInterface5writeEmPv+0xba>
    1900:	68fb      	ldr	r3, [r7, #12]
    1902:	681b      	ldr	r3, [r3, #0]
    1904:	4a10      	ldr	r2, [pc, #64]	; (1948 <_ZN12SPIInterface5writeEmPv+0xd4>)
    1906:	2100      	movs	r1, #0
    1908:	480c      	ldr	r0, [pc, #48]	; (193c <_ZN12SPIInterface5writeEmPv+0xc8>)
    190a:	f000 f927 	bl	1b5c <_ZN14DebugInterface3logE10DebugLevelPKcz>
    190e:	4b0f      	ldr	r3, [pc, #60]	; (194c <_ZN12SPIInterface5writeEmPv+0xd8>)
    1910:	681b      	ldr	r3, [r3, #0]
    1912:	4a0e      	ldr	r2, [pc, #56]	; (194c <_ZN12SPIInterface5writeEmPv+0xd8>)
    1914:	f043 0308 	orr.w	r3, r3, #8
    1918:	6013      	str	r3, [r2, #0]
    191a:	e008      	b.n	192e <_ZN12SPIInterface5writeEmPv+0xba>
    191c:	68fb      	ldr	r3, [r7, #12]
    191e:	681b      	ldr	r3, [r3, #0]
    1920:	4a09      	ldr	r2, [pc, #36]	; (1948 <_ZN12SPIInterface5writeEmPv+0xd4>)
    1922:	2104      	movs	r1, #4
    1924:	4805      	ldr	r0, [pc, #20]	; (193c <_ZN12SPIInterface5writeEmPv+0xc8>)
    1926:	f000 f919 	bl	1b5c <_ZN14DebugInterface3logE10DebugLevelPKcz>
    192a:	2301      	movs	r3, #1
    192c:	75fb      	strb	r3, [r7, #23]
    192e:	7dfb      	ldrb	r3, [r7, #23]
    1930:	4618      	mov	r0, r3
    1932:	3718      	adds	r7, #24
    1934:	46bd      	mov	sp, r7
    1936:	bd80      	pop	{r7, pc}
    1938:	00001f38 	andeq	r1, r0, r8, lsr pc
    193c:	2000224c 	andcs	r2, r0, ip, asr #4
    1940:	4000800c 	andmi	r8, r0, ip
    1944:	40008008 	andmi	r8, r0, r8
    1948:	00001f5c 	andeq	r1, r0, ip, asr pc
    194c:	40008014 	andmi	r8, r0, r4, lsl r0

00001950 <_ZN12SPIInterface4readEmPv>:
    1950:	b590      	push	{r4, r7, lr}
    1952:	b089      	sub	sp, #36	; 0x24
    1954:	af02      	add	r7, sp, #8
    1956:	60f8      	str	r0, [r7, #12]
    1958:	60b9      	str	r1, [r7, #8]
    195a:	607a      	str	r2, [r7, #4]
    195c:	2300      	movs	r3, #0
    195e:	75fb      	strb	r3, [r7, #23]
    1960:	68bb      	ldr	r3, [r7, #8]
    1962:	2b00      	cmp	r3, #0
    1964:	d032      	beq.n	19cc <_ZN12SPIInterface4readEmPv+0x7c>
    1966:	68fb      	ldr	r3, [r7, #12]
    1968:	2200      	movs	r2, #0
    196a:	625a      	str	r2, [r3, #36]	; 0x24
    196c:	68fb      	ldr	r3, [r7, #12]
    196e:	699a      	ldr	r2, [r3, #24]
    1970:	68fb      	ldr	r3, [r7, #12]
    1972:	61da      	str	r2, [r3, #28]
    1974:	68fb      	ldr	r3, [r7, #12]
    1976:	687a      	ldr	r2, [r7, #4]
    1978:	615a      	str	r2, [r3, #20]
    197a:	68fb      	ldr	r3, [r7, #12]
    197c:	681a      	ldr	r2, [r3, #0]
    197e:	68fb      	ldr	r3, [r7, #12]
    1980:	699b      	ldr	r3, [r3, #24]
    1982:	9300      	str	r3, [sp, #0]
    1984:	4613      	mov	r3, r2
    1986:	4a18      	ldr	r2, [pc, #96]	; (19e8 <_ZN12SPIInterface4readEmPv+0x98>)
    1988:	2100      	movs	r1, #0
    198a:	4818      	ldr	r0, [pc, #96]	; (19ec <_ZN12SPIInterface4readEmPv+0x9c>)
    198c:	f000 f8e6 	bl	1b5c <_ZN14DebugInterface3logE10DebugLevelPKcz>
    1990:	68fb      	ldr	r3, [r7, #12]
    1992:	69da      	ldr	r2, [r3, #28]
    1994:	68fb      	ldr	r3, [r7, #12]
    1996:	6a5b      	ldr	r3, [r3, #36]	; 0x24
    1998:	429a      	cmp	r2, r3
    199a:	d007      	beq.n	19ac <_ZN12SPIInterface4readEmPv+0x5c>
    199c:	4b14      	ldr	r3, [pc, #80]	; (19f0 <_ZN12SPIInterface4readEmPv+0xa0>)
    199e:	681b      	ldr	r3, [r3, #0]
    19a0:	f003 0304 	and.w	r3, r3, #4
    19a4:	2b00      	cmp	r3, #0
    19a6:	d001      	beq.n	19ac <_ZN12SPIInterface4readEmPv+0x5c>
    19a8:	2301      	movs	r3, #1
    19aa:	e000      	b.n	19ae <_ZN12SPIInterface4readEmPv+0x5e>
    19ac:	2300      	movs	r3, #0
    19ae:	2b00      	cmp	r3, #0
    19b0:	d015      	beq.n	19de <_ZN12SPIInterface4readEmPv+0x8e>
    19b2:	4b10      	ldr	r3, [pc, #64]	; (19f4 <_ZN12SPIInterface4readEmPv+0xa4>)
    19b4:	681c      	ldr	r4, [r3, #0]
    19b6:	68fb      	ldr	r3, [r7, #12]
    19b8:	695a      	ldr	r2, [r3, #20]
    19ba:	68fb      	ldr	r3, [r7, #12]
    19bc:	6a5b      	ldr	r3, [r3, #36]	; 0x24
    19be:	1c58      	adds	r0, r3, #1
    19c0:	68f9      	ldr	r1, [r7, #12]
    19c2:	6248      	str	r0, [r1, #36]	; 0x24
    19c4:	4413      	add	r3, r2
    19c6:	b2e2      	uxtb	r2, r4
    19c8:	701a      	strb	r2, [r3, #0]
    19ca:	e7e1      	b.n	1990 <_ZN12SPIInterface4readEmPv+0x40>
    19cc:	68fb      	ldr	r3, [r7, #12]
    19ce:	681b      	ldr	r3, [r3, #0]
    19d0:	4a09      	ldr	r2, [pc, #36]	; (19f8 <_ZN12SPIInterface4readEmPv+0xa8>)
    19d2:	2104      	movs	r1, #4
    19d4:	4805      	ldr	r0, [pc, #20]	; (19ec <_ZN12SPIInterface4readEmPv+0x9c>)
    19d6:	f000 f8c1 	bl	1b5c <_ZN14DebugInterface3logE10DebugLevelPKcz>
    19da:	2301      	movs	r3, #1
    19dc:	75fb      	strb	r3, [r7, #23]
    19de:	7dfb      	ldrb	r3, [r7, #23]
    19e0:	4618      	mov	r0, r3
    19e2:	371c      	adds	r7, #28
    19e4:	46bd      	mov	sp, r7
    19e6:	bd90      	pop	{r4, r7, pc}
    19e8:	00001f80 	andeq	r1, r0, r0, lsl #31
    19ec:	2000224c 	andcs	r2, r0, ip, asr #4
    19f0:	4000800c 	andmi	r8, r0, ip
    19f4:	40008008 	andmi	r8, r0, r8
    19f8:	00001fa4 	andeq	r1, r0, r4, lsr #31

000019fc <setEEPROMProtocol>:
    19fc:	b480      	push	{r7}
    19fe:	b083      	sub	sp, #12
    1a00:	af00      	add	r7, sp, #0
    1a02:	6078      	str	r0, [r7, #4]
    1a04:	687b      	ldr	r3, [r7, #4]
    1a06:	2b01      	cmp	r3, #1
    1a08:	d803      	bhi.n	1a12 <setEEPROMProtocol+0x16>
    1a0a:	4a06      	ldr	r2, [pc, #24]	; (1a24 <setEEPROMProtocol+0x28>)
    1a0c:	687b      	ldr	r3, [r7, #4]
    1a0e:	6013      	str	r3, [r2, #0]
    1a10:	e002      	b.n	1a18 <setEEPROMProtocol+0x1c>
    1a12:	4b04      	ldr	r3, [pc, #16]	; (1a24 <setEEPROMProtocol+0x28>)
    1a14:	22ff      	movs	r2, #255	; 0xff
    1a16:	601a      	str	r2, [r3, #0]
    1a18:	bf00      	nop
    1a1a:	370c      	adds	r7, #12
    1a1c:	46bd      	mov	sp, r7
    1a1e:	f85d 7b04 	ldr.w	r7, [sp], #4
    1a22:	4770      	bx	lr
    1a24:	20000000 	andcs	r0, r0, r0

00001a28 <eepromRead>:
    1a28:	b580      	push	{r7, lr}
    1a2a:	b086      	sub	sp, #24
    1a2c:	af00      	add	r7, sp, #0
    1a2e:	60f8      	str	r0, [r7, #12]
    1a30:	60b9      	str	r1, [r7, #8]
    1a32:	607a      	str	r2, [r7, #4]
    1a34:	4b21      	ldr	r3, [pc, #132]	; (1abc <eepromRead+0x94>)
    1a36:	681b      	ldr	r3, [r3, #0]
    1a38:	2b00      	cmp	r3, #0
    1a3a:	d116      	bne.n	1a6a <eepromRead+0x42>
    1a3c:	68fb      	ldr	r3, [r7, #12]
    1a3e:	0a1b      	lsrs	r3, r3, #8
    1a40:	b2db      	uxtb	r3, r3
    1a42:	f003 031f 	and.w	r3, r3, #31
    1a46:	b2db      	uxtb	r3, r3
    1a48:	753b      	strb	r3, [r7, #20]
    1a4a:	68fb      	ldr	r3, [r7, #12]
    1a4c:	b2db      	uxtb	r3, r3
    1a4e:	757b      	strb	r3, [r7, #21]
    1a50:	f107 0314 	add.w	r3, r7, #20
    1a54:	461a      	mov	r2, r3
    1a56:	2102      	movs	r1, #2
    1a58:	2050      	movs	r0, #80	; 0x50
    1a5a:	f7ff fa7d 	bl	f58 <I2C_WriteBytes>
    1a5e:	687a      	ldr	r2, [r7, #4]
    1a60:	68b9      	ldr	r1, [r7, #8]
    1a62:	2050      	movs	r0, #80	; 0x50
    1a64:	f7ff fb9c 	bl	11a0 <I2C_ReadBytes>
    1a68:	e023      	b.n	1ab2 <eepromRead+0x8a>
    1a6a:	4b14      	ldr	r3, [pc, #80]	; (1abc <eepromRead+0x94>)
    1a6c:	681b      	ldr	r3, [r3, #0]
    1a6e:	2b01      	cmp	r3, #1
    1a70:	d11f      	bne.n	1ab2 <eepromRead+0x8a>
    1a72:	68fb      	ldr	r3, [r7, #12]
    1a74:	0a1b      	lsrs	r3, r3, #8
    1a76:	b2db      	uxtb	r3, r3
    1a78:	f003 0307 	and.w	r3, r3, #7
    1a7c:	b2db      	uxtb	r3, r3
    1a7e:	f043 0330 	orr.w	r3, r3, #48	; 0x30
    1a82:	b2db      	uxtb	r3, r3
    1a84:	743b      	strb	r3, [r7, #16]
    1a86:	68fb      	ldr	r3, [r7, #12]
    1a88:	b2db      	uxtb	r3, r3
    1a8a:	747b      	strb	r3, [r7, #17]
    1a8c:	8a3a      	ldrh	r2, [r7, #16]
    1a8e:	4b0c      	ldr	r3, [pc, #48]	; (1ac0 <eepromRead+0x98>)
    1a90:	801a      	strh	r2, [r3, #0]
    1a92:	4b0c      	ldr	r3, [pc, #48]	; (1ac4 <eepromRead+0x9c>)
    1a94:	2202      	movs	r2, #2
    1a96:	2100      	movs	r1, #0
    1a98:	4618      	mov	r0, r3
    1a9a:	f000 f8a3 	bl	1be4 <memset>
    1a9e:	f107 0310 	add.w	r3, r7, #16
    1aa2:	4619      	mov	r1, r3
    1aa4:	2004      	movs	r0, #4
    1aa6:	f7ff fec1 	bl	182c <SPI_WriteBytes>
    1aaa:	6879      	ldr	r1, [r7, #4]
    1aac:	68b8      	ldr	r0, [r7, #8]
    1aae:	f7ff fecf 	bl	1850 <SPI_ReadBytes>
    1ab2:	bf00      	nop
    1ab4:	3718      	adds	r7, #24
    1ab6:	46bd      	mov	sp, r7
    1ab8:	bd80      	pop	{r7, pc}
    1aba:	bf00      	nop
    1abc:	20000000 	andcs	r0, r0, r0
    1ac0:	2000220c 	andcs	r2, r0, ip, lsl #4
    1ac4:	2000220e 	andcs	r2, r0, lr, lsl #4

00001ac8 <__error__>:
    1ac8:	b580      	push	{r7, lr}
    1aca:	b082      	sub	sp, #8
    1acc:	af00      	add	r7, sp, #0
    1ace:	6078      	str	r0, [r7, #4]
    1ad0:	6039      	str	r1, [r7, #0]
    1ad2:	683a      	ldr	r2, [r7, #0]
    1ad4:	6879      	ldr	r1, [r7, #4]
    1ad6:	4803      	ldr	r0, [pc, #12]	; (1ae4 <__error__+0x1c>)
    1ad8:	f7fe ff78 	bl	9cc <UARTprintf>
    1adc:	bf00      	nop
    1ade:	3708      	adds	r7, #8
    1ae0:	46bd      	mov	sp, r7
    1ae2:	bd80      	pop	{r7, pc}
    1ae4:	00002010 	andeq	r2, r0, r0, lsl r0

00001ae8 <_ZL21_get_log_level_string10DebugLevel>:
    1ae8:	b480      	push	{r7}
    1aea:	b083      	sub	sp, #12
    1aec:	af00      	add	r7, sp, #0
    1aee:	4603      	mov	r3, r0
    1af0:	71fb      	strb	r3, [r7, #7]
    1af2:	79fb      	ldrb	r3, [r7, #7]
    1af4:	2b05      	cmp	r3, #5
    1af6:	d81b      	bhi.n	1b30 <_ZL21_get_log_level_string10DebugLevel+0x48>
    1af8:	a201      	add	r2, pc, #4	; (adr r2, 1b00 <_ZL21_get_log_level_string10DebugLevel+0x18>)
    1afa:	f852 f023 	ldr.w	pc, [r2, r3, lsl #2]
    1afe:	bf00      	nop
    1b00:	00001b19 	andeq	r1, r0, r9, lsl fp
    1b04:	00001b1d 	andeq	r1, r0, sp, lsl fp
    1b08:	00001b21 	andeq	r1, r0, r1, lsr #22
    1b0c:	00001b25 	andeq	r1, r0, r5, lsr #22
    1b10:	00001b29 	andeq	r1, r0, r9, lsr #22
    1b14:	00001b2d 	andeq	r1, r0, sp, lsr #22
    1b18:	4b09      	ldr	r3, [pc, #36]	; (1b40 <_ZL21_get_log_level_string10DebugLevel+0x58>)
    1b1a:	e00a      	b.n	1b32 <_ZL21_get_log_level_string10DebugLevel+0x4a>
    1b1c:	4b09      	ldr	r3, [pc, #36]	; (1b44 <_ZL21_get_log_level_string10DebugLevel+0x5c>)
    1b1e:	e008      	b.n	1b32 <_ZL21_get_log_level_string10DebugLevel+0x4a>
    1b20:	4b09      	ldr	r3, [pc, #36]	; (1b48 <_ZL21_get_log_level_string10DebugLevel+0x60>)
    1b22:	e006      	b.n	1b32 <_ZL21_get_log_level_string10DebugLevel+0x4a>
    1b24:	4b09      	ldr	r3, [pc, #36]	; (1b4c <_ZL21_get_log_level_string10DebugLevel+0x64>)
    1b26:	e004      	b.n	1b32 <_ZL21_get_log_level_string10DebugLevel+0x4a>
    1b28:	4b09      	ldr	r3, [pc, #36]	; (1b50 <_ZL21_get_log_level_string10DebugLevel+0x68>)
    1b2a:	e002      	b.n	1b32 <_ZL21_get_log_level_string10DebugLevel+0x4a>
    1b2c:	4b09      	ldr	r3, [pc, #36]	; (1b54 <_ZL21_get_log_level_string10DebugLevel+0x6c>)
    1b2e:	e000      	b.n	1b32 <_ZL21_get_log_level_string10DebugLevel+0x4a>
    1b30:	4b09      	ldr	r3, [pc, #36]	; (1b58 <_ZL21_get_log_level_string10DebugLevel+0x70>)
    1b32:	4618      	mov	r0, r3
    1b34:	370c      	adds	r7, #12
    1b36:	46bd      	mov	sp, r7
    1b38:	f85d 7b04 	ldr.w	r7, [sp], #4
    1b3c:	4770      	bx	lr
    1b3e:	bf00      	nop
    1b40:	00002020 	andeq	r2, r0, r0, lsr #32
    1b44:	00002024 	andeq	r2, r0, r4, lsr #32
    1b48:	00002028 	andeq	r2, r0, r8, lsr #32
    1b4c:	0000202c 	andeq	r2, r0, ip, lsr #32
    1b50:	00002030 	andeq	r2, r0, r0, lsr r0
    1b54:	00002034 	andeq	r2, r0, r4, lsr r0
    1b58:	00002038 	andeq	r2, r0, r8, lsr r0

00001b5c <_ZN14DebugInterface3logE10DebugLevelPKcz>:
    1b5c:	b40c      	push	{r2, r3}
    1b5e:	b580      	push	{r7, lr}
    1b60:	b084      	sub	sp, #16
    1b62:	af00      	add	r7, sp, #0
    1b64:	6078      	str	r0, [r7, #4]
    1b66:	460b      	mov	r3, r1
    1b68:	70fb      	strb	r3, [r7, #3]
    1b6a:	f107 031c 	add.w	r3, r7, #28
    1b6e:	60fb      	str	r3, [r7, #12]
    1b70:	78fa      	ldrb	r2, [r7, #3]
    1b72:	687b      	ldr	r3, [r7, #4]
    1b74:	681b      	ldr	r3, [r3, #0]
    1b76:	429a      	cmp	r2, r3
    1b78:	d323      	bcc.n	1bc2 <_ZN14DebugInterface3logE10DebugLevelPKcz+0x66>
    1b7a:	78fb      	ldrb	r3, [r7, #3]
    1b7c:	4618      	mov	r0, r3
    1b7e:	f7ff ffb3 	bl	1ae8 <_ZL21_get_log_level_string10DebugLevel>
    1b82:	4603      	mov	r3, r0
    1b84:	4619      	mov	r1, r3
    1b86:	4812      	ldr	r0, [pc, #72]	; (1bd0 <_ZN14DebugInterface3logE10DebugLevelPKcz+0x74>)
    1b88:	f7fe ff20 	bl	9cc <UARTprintf>
    1b8c:	78fb      	ldrb	r3, [r7, #3]
    1b8e:	2b04      	cmp	r3, #4
    1b90:	d002      	beq.n	1b98 <_ZN14DebugInterface3logE10DebugLevelPKcz+0x3c>
    1b92:	2b05      	cmp	r3, #5
    1b94:	d004      	beq.n	1ba0 <_ZN14DebugInterface3logE10DebugLevelPKcz+0x44>
    1b96:	e007      	b.n	1ba8 <_ZN14DebugInterface3logE10DebugLevelPKcz+0x4c>
    1b98:	480e      	ldr	r0, [pc, #56]	; (1bd4 <_ZN14DebugInterface3logE10DebugLevelPKcz+0x78>)
    1b9a:	f7fe ff17 	bl	9cc <UARTprintf>
    1b9e:	e003      	b.n	1ba8 <_ZN14DebugInterface3logE10DebugLevelPKcz+0x4c>
    1ba0:	480d      	ldr	r0, [pc, #52]	; (1bd8 <_ZN14DebugInterface3logE10DebugLevelPKcz+0x7c>)
    1ba2:	f7fe ff13 	bl	9cc <UARTprintf>
    1ba6:	bf00      	nop
    1ba8:	68f9      	ldr	r1, [r7, #12]
    1baa:	69b8      	ldr	r0, [r7, #24]
    1bac:	f7fe fd0a 	bl	5c4 <UARTvprintf>
    1bb0:	78fb      	ldrb	r3, [r7, #3]
    1bb2:	2b03      	cmp	r3, #3
    1bb4:	d902      	bls.n	1bbc <_ZN14DebugInterface3logE10DebugLevelPKcz+0x60>
    1bb6:	4809      	ldr	r0, [pc, #36]	; (1bdc <_ZN14DebugInterface3logE10DebugLevelPKcz+0x80>)
    1bb8:	f7fe ff08 	bl	9cc <UARTprintf>
    1bbc:	4808      	ldr	r0, [pc, #32]	; (1be0 <_ZN14DebugInterface3logE10DebugLevelPKcz+0x84>)
    1bbe:	f7fe ff05 	bl	9cc <UARTprintf>
    1bc2:	bf00      	nop
    1bc4:	3710      	adds	r7, #16
    1bc6:	46bd      	mov	sp, r7
    1bc8:	e8bd 4080 	ldmia.w	sp!, {r7, lr}
    1bcc:	b002      	add	sp, #8
    1bce:	4770      	bx	lr
    1bd0:	00002044 	andeq	r2, r0, r4, asr #32
    1bd4:	0000204c 	andeq	r2, r0, ip, asr #32
    1bd8:	00002054 	andeq	r2, r0, r4, asr r0
    1bdc:	0000205c 	andeq	r2, r0, ip, asr r0
    1be0:	00002064 	andeq	r2, r0, r4, rrx

00001be4 <memset>:
    1be4:	0783      	lsls	r3, r0, #30
    1be6:	b530      	push	{r4, r5, lr}
    1be8:	d048      	beq.n	1c7c <memset+0x98>
    1bea:	1e54      	subs	r4, r2, #1
    1bec:	2a00      	cmp	r2, #0
    1bee:	d03f      	beq.n	1c70 <memset+0x8c>
    1bf0:	b2ca      	uxtb	r2, r1
    1bf2:	4603      	mov	r3, r0
    1bf4:	e001      	b.n	1bfa <memset+0x16>
    1bf6:	3c01      	subs	r4, #1
    1bf8:	d33a      	bcc.n	1c70 <memset+0x8c>
    1bfa:	f803 2b01 	strb.w	r2, [r3], #1
    1bfe:	079d      	lsls	r5, r3, #30
    1c00:	d1f9      	bne.n	1bf6 <memset+0x12>
    1c02:	2c03      	cmp	r4, #3
    1c04:	d92d      	bls.n	1c62 <memset+0x7e>
    1c06:	b2cd      	uxtb	r5, r1
    1c08:	ea45 2505 	orr.w	r5, r5, r5, lsl #8
    1c0c:	2c0f      	cmp	r4, #15
    1c0e:	ea45 4505 	orr.w	r5, r5, r5, lsl #16
    1c12:	d936      	bls.n	1c82 <memset+0x9e>
    1c14:	f1a4 0210 	sub.w	r2, r4, #16
    1c18:	f022 0c0f 	bic.w	ip, r2, #15
    1c1c:	f103 0e20 	add.w	lr, r3, #32
    1c20:	44e6      	add	lr, ip
    1c22:	ea4f 1c12 	mov.w	ip, r2, lsr #4
    1c26:	f103 0210 	add.w	r2, r3, #16
    1c2a:	e942 5504 	strd	r5, r5, [r2, #-16]
    1c2e:	e942 5502 	strd	r5, r5, [r2, #-8]
    1c32:	3210      	adds	r2, #16
    1c34:	4572      	cmp	r2, lr
    1c36:	d1f8      	bne.n	1c2a <memset+0x46>
    1c38:	f10c 0201 	add.w	r2, ip, #1
    1c3c:	f014 0f0c 	tst.w	r4, #12
    1c40:	eb03 1202 	add.w	r2, r3, r2, lsl #4
    1c44:	f004 0c0f 	and.w	ip, r4, #15
    1c48:	d013      	beq.n	1c72 <memset+0x8e>
    1c4a:	f1ac 0304 	sub.w	r3, ip, #4
    1c4e:	f023 0303 	bic.w	r3, r3, #3
    1c52:	3304      	adds	r3, #4
    1c54:	4413      	add	r3, r2
    1c56:	f842 5b04 	str.w	r5, [r2], #4
    1c5a:	4293      	cmp	r3, r2
    1c5c:	d1fb      	bne.n	1c56 <memset+0x72>
    1c5e:	f00c 0403 	and.w	r4, ip, #3
    1c62:	b12c      	cbz	r4, 1c70 <memset+0x8c>
    1c64:	b2ca      	uxtb	r2, r1
    1c66:	441c      	add	r4, r3
    1c68:	f803 2b01 	strb.w	r2, [r3], #1
    1c6c:	429c      	cmp	r4, r3
    1c6e:	d1fb      	bne.n	1c68 <memset+0x84>
    1c70:	bd30      	pop	{r4, r5, pc}
    1c72:	4664      	mov	r4, ip
    1c74:	4613      	mov	r3, r2
    1c76:	2c00      	cmp	r4, #0
    1c78:	d1f4      	bne.n	1c64 <memset+0x80>
    1c7a:	e7f9      	b.n	1c70 <memset+0x8c>
    1c7c:	4603      	mov	r3, r0
    1c7e:	4614      	mov	r4, r2
    1c80:	e7bf      	b.n	1c02 <memset+0x1e>
    1c82:	461a      	mov	r2, r3
    1c84:	46a4      	mov	ip, r4
    1c86:	e7e0      	b.n	1c4a <memset+0x66>
    1c88:	72617453 	rsbvc	r7, r1, #1392508928	; 0x53000000
    1c8c:	666f2074 			; <UNDEFINED> instruction: 0x666f2074
    1c90:	70656520 	rsbvc	r6, r5, r0, lsr #10
    1c94:	446d6f72 	strbtmi	r6, [sp], #-3954	; 0xfffff08e
    1c98:	0d706d75 	ldcleq	13, cr6, [r0, #-468]!	; 0xfffffe2c
    1c9c:	0000000a 	andeq	r0, r0, sl
    1ca0:	20202020 	eorcs	r2, r0, r0, lsr #32
    1ca4:	30302020 	eorscc	r2, r0, r0, lsr #32
    1ca8:	20313020 	eorscs	r3, r1, r0, lsr #32
    1cac:	30203230 	eorcc	r3, r0, r0, lsr r2
    1cb0:	34302033 	ldrtcc	r2, [r0], #-51	; 0xffffffcd
    1cb4:	20353020 	eorscs	r3, r5, r0, lsr #32
    1cb8:	30203630 	eorcc	r3, r0, r0, lsr r6
    1cbc:	38302037 	ldmdacc	r0!, {r0, r1, r2, r4, r5, sp}
    1cc0:	20393020 	eorscs	r3, r9, r0, lsr #32
    1cc4:	30206130 	eorcc	r6, r0, r0, lsr r1
    1cc8:	63302062 	teqvs	r0, #98	; 0x62
    1ccc:	20643020 	rsbcs	r3, r4, r0, lsr #32
    1cd0:	30206530 	eorcc	r6, r0, r0, lsr r5
    1cd4:	000a0d66 	andeq	r0, sl, r6, ror #26
    1cd8:	00000a0d 	andeq	r0, r0, sp, lsl #20
    1cdc:	78343025 	ldmdavc	r4!, {r0, r2, r5, ip, sp}
    1ce0:	0000203a 	andeq	r2, r0, sl, lsr r0
    1ce4:	78323025 	ldmdavc	r2!, {r0, r2, r5, ip, sp}
    1ce8:	00000020 	andeq	r0, r0, r0, lsr #32
    1cec:	6e450a0d 	vmlavs.f32	s1, s10, s26
    1cf0:	666f2064 	strbtvs	r2, [pc], -r4, rrx
    1cf4:	70656520 	rsbvc	r6, r5, r0, lsr #10
    1cf8:	446d6f72 	strbtmi	r6, [sp], #-3954	; 0xfffff08e
    1cfc:	0d706d75 	ldcleq	13, cr6, [r0, #-468]!	; 0xfffffe2c
    1d00:	0000000a 	andeq	r0, r0, sl
    1d04:	2d2d2d2d 	stccs	13, cr2, [sp, #-180]!	; 0xffffff4c
    1d08:	2d2d2d2d 	stccs	13, cr2, [sp, #-180]!	; 0xffffff4c
    1d0c:	2d2d2d2d 	stccs	13, cr2, [sp, #-180]!	; 0xffffff4c
    1d10:	432d2d2d 			; <UNDEFINED> instruction: 0x432d2d2d
    1d14:	4b434548 	blmi	10d323c <_etext+0x10d11d5>
    1d18:	2d2d2d2d 	stccs	13, cr2, [sp, #-180]!	; 0xffffff4c
    1d1c:	2d2d2d2d 	stccs	13, cr2, [sp, #-180]!	; 0xffffff4c
    1d20:	2d2d2d2d 	stccs	13, cr2, [sp, #-180]!	; 0xffffff4c
    1d24:	2d2d2d2d 	stccs	13, cr2, [sp, #-180]!	; 0xffffff4c
    1d28:	00000a0d 	andeq	r0, r0, sp, lsl #20
    1d2c:	636f6c43 	cmnvs	pc, #17152	; 0x4300
    1d30:	64253d6b 	strtvs	r3, [r5], #-3435	; 0xfffff295
    1d34:	00000a0d 	andeq	r0, r0, sp, lsl #20
    1d38:	0b0a0908 	bleq	284160 <_etext+0x2820f9>
    1d3c:	0f0e0d0c 	svceq	0x000e0d0c
    1d40:	33323130 	teqcc	r2, #48, 2
    1d44:	37363534 			; <UNDEFINED> instruction: 0x37363534
    1d48:	62613938 	rsbvs	r3, r1, #56, 18	; 0xe0000
    1d4c:	66656463 	strbtvs	r6, [r5], -r3, ror #8
    1d50:	00000000 	andeq	r0, r0, r0
    1d54:	2e2f2e2e 	cdpcs	14, 2, cr2, cr15, cr14, {1}
    1d58:	69542f2e 	ldmdbvs	r4, {r1, r2, r3, r5, r8, r9, sl, fp, sp}^
    1d5c:	61576176 	cmpvs	r7, r6, ror r1
    1d60:	752f6572 	strvc	r6, [pc, #-1394]!	; 17f6 <PAD_SysPeripheralClockEnable+0x102>
    1d64:	736c6974 	cmnvc	ip, #116, 18	; 0x1d0000
    1d68:	7261752f 	rsbvc	r7, r1, #197132288	; 0xbc00000
    1d6c:	64747374 	ldrbtvs	r7, [r4], #-884	; 0xfffffc8c
    1d70:	632e6f69 			; <UNDEFINED> instruction: 0x632e6f69
    1d74:	00000000 	andeq	r0, r0, r0
    1d78:	00082008 	andeq	r2, r8, r8
    1d7c:	00000a0d 	andeq	r0, r0, sp, lsl #20
    1d80:	00000020 	andeq	r0, r0, r0, lsr #32
    1d84:	4f525245 	svcmi	0x00525245
    1d88:	00000052 	andeq	r0, r0, r2, asr r0

00001d8c <g_ui32UARTBase>:
    1d8c:	4000c000 	andmi	ip, r0, r0
    1d90:	4000d000 	andmi	sp, r0, r0
    1d94:	4000e000 	andmi	lr, r0, r0

00001d98 <g_ui32UARTPeriph>:
    1d98:	f0001800 			; <UNDEFINED> instruction: 0xf0001800
    1d9c:	f0001801 			; <UNDEFINED> instruction: 0xf0001801
    1da0:	f0001802 			; <UNDEFINED> instruction: 0xf0001802

00001da4 <g_pui32GPIOBaseAddrs>:
    1da4:	40004000 	andmi	r4, r0, r0
    1da8:	40058000 	andmi	r8, r5, r0
    1dac:	40005000 	andmi	r5, r0, r0
    1db0:	40059000 	andmi	r9, r5, r0
    1db4:	40006000 	andmi	r6, r0, r0
    1db8:	4005a000 	andmi	sl, r5, r0
    1dbc:	40007000 	andmi	r7, r0, r0
    1dc0:	4005b000 	andmi	fp, r5, r0
    1dc4:	40024000 	andmi	r4, r2, r0
    1dc8:	4005c000 	andmi	ip, r5, r0
    1dcc:	40025000 	andmi	r5, r2, r0
    1dd0:	4005d000 	andmi	sp, r5, r0
    1dd4:	40026000 	andmi	r6, r2, r0
    1dd8:	4005e000 	andmi	lr, r5, r0
    1ddc:	40027000 	andmi	r7, r2, r0
    1de0:	4005f000 	andmi	pc, r5, r0
    1de4:	4003d000 	andmi	sp, r3, r0
    1de8:	40060000 	andmi	r0, r6, r0
    1dec:	40061000 	andmi	r1, r6, r0
    1df0:	40061000 	andmi	r1, r6, r0
    1df4:	40062000 	andmi	r2, r6, r0
    1df8:	40062000 	andmi	r2, r6, r0
    1dfc:	40063000 	andmi	r3, r6, r0
    1e00:	40063000 	andmi	r3, r6, r0
    1e04:	40064000 	andmi	r4, r6, r0
    1e08:	40064000 	andmi	r4, r6, r0
    1e0c:	40065000 	andmi	r5, r6, r0
    1e10:	40065000 	andmi	r5, r6, r0
    1e14:	40066000 	andmi	r6, r6, r0
    1e18:	40066000 	andmi	r6, r6, r0
    1e1c:	40067000 	andmi	r7, r6, r0
    1e20:	40067000 	andmi	r7, r6, r0
    1e24:	40068000 	andmi	r8, r6, r0
    1e28:	40068000 	andmi	r8, r6, r0
    1e2c:	40069000 	andmi	r9, r6, r0
    1e30:	40069000 	andmi	r9, r6, r0

00001e34 <g_pui32Xtals>:
    1e34:	000f4240 	andeq	r4, pc, r0, asr #4
    1e38:	001c2000 	andseq	r2, ip, r0
    1e3c:	001e8480 	andseq	r8, lr, r0, lsl #9
    1e40:	00258000 	eoreq	r8, r5, r0
    1e44:	00369e99 	mlaseq	r6, r9, lr, r9
    1e48:	00384000 	eorseq	r4, r8, r0
    1e4c:	003d0900 	eorseq	r0, sp, r0, lsl #18
    1e50:	003e8000 	eorseq	r8, lr, r0
    1e54:	004b0000 	subeq	r0, fp, r0
    1e58:	004c4b40 	subeq	r4, ip, r0, asr #22
    1e5c:	004e2000 	subeq	r2, lr, r0
    1e60:	005b8d80 	subseq	r8, fp, r0, lsl #27
    1e64:	005dc000 	subseq	ip, sp, r0
    1e68:	00708000 	rsbseq	r8, r0, r0
    1e6c:	007a1200 	rsbseq	r1, sl, r0, lsl #4
    1e70:	007d0000 	rsbseq	r0, sp, r0
    1e74:	00989680 	addseq	r9, r8, r0, lsl #13
    1e78:	00b71b00 	adcseq	r1, r7, r0, lsl #22
    1e7c:	00bb8000 	adcseq	r8, fp, r0
    1e80:	00cee8c0 	sbceq	lr, lr, r0, asr #17
    1e84:	00da7a64 	sbcseq	r7, sl, r4, ror #20
    1e88:	00f42400 	rscseq	r2, r4, r0, lsl #8
    1e8c:	00fa0000 	rscseq	r0, sl, r0
    1e90:	0112a880 	tsteq	r2, r0, lsl #17
    1e94:	01312d00 	teqeq	r1, r0, lsl #26
    1e98:	016e3600 	cmneq	lr, r0, lsl #12
    1e9c:	017d7840 	cmneq	sp, r0, asr #16
    1ea0:	2e2f2e2e 	cdpcs	14, 2, cr2, cr15, cr14, {1}
    1ea4:	72732f2e 	rsbsvc	r2, r3, #46, 30	; 0xb8
    1ea8:	72642f63 	rsbvc	r2, r4, #396	; 0x18c
    1eac:	72657669 	rsbvc	r7, r5, #110100480	; 0x6900000
    1eb0:	6332692f 	teqvs	r2, #770048	; 0xbc000
    1eb4:	7070632e 	rsbsvc	r6, r0, lr, lsr #6
    1eb8:	00000000 	andeq	r0, r0, r0
    1ebc:	00495053 	subeq	r5, r9, r3, asr r0
    1ec0:	25207325 	strcs	r7, [r0, #-805]!	; 0xfffffcdb
    1ec4:	6f6d2064 	svcvs	0x006d2064
    1ec8:	656c7564 	strbvs	r7, [ip, #-1380]!	; 0xfffffa9c
    1ecc:	20736920 	rsbscs	r6, r3, r0, lsr #18
    1ed0:	65726c61 	ldrbvs	r6, [r2, #-3169]!	; 0xfffff39f
    1ed4:	20796461 	rsbscs	r6, r9, r1, ror #8
    1ed8:	74696e69 	strbtvc	r6, [r9], #-3689	; 0xfffff197
    1edc:	696c6169 	stmdbvs	ip!, {r0, r3, r5, r6, r8, sp, lr}^
    1ee0:	2064657a 	rsbcs	r6, r4, sl, ror r5
    1ee4:	20646e61 	rsbcs	r6, r4, r1, ror #28
    1ee8:	64657375 	strbtvs	r7, [r5], #-885	; 0xfffffc8b
    1eec:	00002121 	andeq	r2, r0, r1, lsr #2
    1ef0:	25207325 	strcs	r7, [r0, #-805]!	; 0xfffffcdb
    1ef4:	6f6d2064 	svcvs	0x006d2064
    1ef8:	656c7564 	strbvs	r7, [ip, #-1380]!	; 0xfffffa9c
    1efc:	696e6920 	stmdbvs	lr!, {r5, r8, fp, sp, lr}^
    1f00:	6c616974 			; <UNDEFINED> instruction: 0x6c616974
    1f04:	20657a69 	rsbcs	r7, r5, r9, ror #20
    1f08:	6c696166 	stfvse	f6, [r9], #-408	; 0xfffffe68
    1f0c:	203a6465 	eorscs	r6, sl, r5, ror #8
    1f10:	6e727265 	cdpvs	2, 7, cr7, cr2, cr5, {3}
    1f14:	6425206f 	strtvs	r2, [r5], #-111	; 0xffffff91
    1f18:	00000000 	andeq	r0, r0, r0
    1f1c:	25207325 	strcs	r7, [r0, #-805]!	; 0xfffffcdb
    1f20:	72662064 	rsbvc	r2, r6, #100	; 0x64
    1f24:	20656d61 	rsbcs	r6, r5, r1, ror #26
    1f28:	74696e69 	strbtvc	r6, [r9], #-3689	; 0xfffff197
    1f2c:	7265203a 	rsbvc	r2, r5, #58	; 0x3a
    1f30:	206f6e72 	rsbcs	r6, pc, r2, ror lr	; <UNPREDICTABLE>
    1f34:	00006425 	andeq	r6, r0, r5, lsr #8
    1f38:	5d73255b 	cfldr64pl	mvdx2, [r3, #-364]!	; 0xfffffe94
    1f3c:	69725720 	ldmdbvs	r2!, {r5, r8, r9, sl, ip, lr}^
    1f40:	72206574 	eorvc	r6, r0, #116, 10	; 0x1d000000
    1f44:	65757165 	ldrbvs	r7, [r5, #-357]!	; 0xfffffe9b
    1f48:	77207473 			; <UNDEFINED> instruction: 0x77207473
    1f4c:	20687469 	rsbcs	r7, r8, r9, ror #8
    1f50:	73206425 			; <UNDEFINED> instruction: 0x73206425
    1f54:	21657a69 	cmncs	r5, r9, ror #20
    1f58:	00002121 	andeq	r2, r0, r1, lsr #2
    1f5c:	5d73255b 	cfldr64pl	mvdx2, [r3, #-364]!	; 0xfffffe94
    1f60:	69725720 	ldmdbvs	r2!, {r5, r8, r9, sl, ip, lr}^
    1f64:	72206574 	eorvc	r6, r0, #116, 10	; 0x1d000000
    1f68:	65757165 	ldrbvs	r7, [r5, #-357]!	; 0xfffffe9b
    1f6c:	77207473 			; <UNDEFINED> instruction: 0x77207473
    1f70:	20687469 	rsbcs	r7, r8, r9, ror #8
    1f74:	69732030 	ldmdbvs	r3!, {r4, r5, sp}^
    1f78:	2121657a 			; <UNDEFINED> instruction: 0x2121657a
    1f7c:	00000021 	andeq	r0, r0, r1, lsr #32
    1f80:	5d73255b 	cfldr64pl	mvdx2, [r3, #-364]!	; 0xfffffe94
    1f84:	61655220 	cmnvs	r5, r0, lsr #4
    1f88:	65722064 	ldrbvs	r2, [r2, #-100]!	; 0xffffff9c
    1f8c:	73657571 	cmnvc	r5, #473956352	; 0x1c400000
    1f90:	69772074 	ldmdbvs	r7!, {r2, r4, r5, r6, sp}^
    1f94:	25206874 	strcs	r6, [r0, #-2164]!	; 0xfffff78c
    1f98:	69732064 	ldmdbvs	r3!, {r2, r5, r6, sp}^
    1f9c:	2121657a 			; <UNDEFINED> instruction: 0x2121657a
    1fa0:	00000021 	andeq	r0, r0, r1, lsr #32
    1fa4:	5d73255b 	cfldr64pl	mvdx2, [r3, #-364]!	; 0xfffffe94
    1fa8:	61655220 	cmnvs	r5, r0, lsr #4
    1fac:	65722064 	ldrbvs	r2, [r2, #-100]!	; 0xffffff9c
    1fb0:	73657571 	cmnvc	r5, #473956352	; 0x1c400000
    1fb4:	69772074 	ldmdbvs	r7!, {r2, r4, r5, r6, sp}^
    1fb8:	30206874 	eorcc	r6, r0, r4, ror r8
    1fbc:	7a697320 	bvc	1a5ec44 <_etext+0x1a5cbdd>
    1fc0:	00000065 	andeq	r0, r0, r5, rrx
    1fc4:	2e2f2e2e 	cdpcs	14, 2, cr2, cr15, cr14, {1}
    1fc8:	72732f2e 	rsbsvc	r2, r3, #46, 30	; 0xb8
    1fcc:	72642f63 	rsbvc	r2, r4, #396	; 0x18c
    1fd0:	72657669 	rsbvc	r7, r5, #110100480	; 0x6900000
    1fd4:	6970732f 	ldmdbvs	r0!, {r0, r1, r2, r3, r5, r8, r9, ip, sp, lr}^
    1fd8:	7070632e 	rsbsvc	r6, r0, lr, lsr #6
    1fdc:	00000000 	andeq	r0, r0, r0
    1fe0:	20495053 	subcs	r5, r9, r3, asr r0
    1fe4:	74617473 	strbtvc	r7, [r1], #-1139	; 0xfffffb8d
    1fe8:	25207375 	strcs	r7, [r0, #-885]!	; 0xfffffc8b
    1fec:	0d783830 	ldcleq	8, cr3, [r8, #-192]!	; 0xffffff40
    1ff0:	0000000a 	andeq	r0, r0, sl
    1ff4:	20495053 	subcs	r5, r9, r3, asr r0
    1ff8:	65746e69 	ldrbvs	r6, [r4, #-3689]!	; 0xfffff197
    1ffc:	70757272 	rsbsvc	r7, r5, r2, ror r2
    2000:	74732074 	ldrbtvc	r2, [r3], #-116	; 0xffffff8c
    2004:	73757461 	cmnvc	r5, #1627389952	; 0x61000000
    2008:	38302520 	ldmdacc	r0!, {r5, r8, sl, sp}
    200c:	000a0d78 	andeq	r0, sl, r8, ror sp
    2010:	4245445b 	submi	r4, r5, #1526726656	; 0x5b000000
    2014:	205d4755 	subscs	r4, sp, r5, asr r7
    2018:	253a7325 	ldrcs	r7, [sl, #-805]!	; 0xfffffcdb
    201c:	000a0d64 	andeq	r0, sl, r4, ror #26
    2020:	0030564c 	eorseq	r5, r0, ip, asr #12
    2024:	0031564c 	eorseq	r5, r1, ip, asr #12
    2028:	0032564c 	eorseq	r5, r2, ip, asr #12
    202c:	00474f4c 	subeq	r4, r7, ip, asr #30
    2030:	004e5257 	subeq	r5, lr, r7, asr r2
    2034:	00525245 	subseq	r5, r2, r5, asr #4
    2038:	4f525245 	svcmi	0x00525245
    203c:	454c2052 	strbmi	r2, [ip, #-82]	; 0xffffffae
    2040:	004c4556 	subeq	r4, ip, r6, asr r5
    2044:	5d73255b 	cfldr64pl	mvdx2, [r3, #-364]!	; 0xfffffe94
    2048:	00000000 	andeq	r0, r0, r0
    204c:	33335b1b 	teqcc	r3, #27648	; 0x6c00
    2050:	0000006d 	andeq	r0, r0, sp, rrx
    2054:	31335b1b 	teqcc	r3, fp, lsl fp
    2058:	0000006d 	andeq	r0, r0, sp, rrx
    205c:	6d305b1b 	fldmdbxvs	r0!, {d5-d17}	;@ Deprecated
    2060:	00000000 	andeq	r0, r0, r0
    2064:	Address 0x00002064 is out of bounds.


Disassembly of section .data:

20000000 <deviceMode>:
20000000:	000000ff 	strdeq	r0, [r0], -pc	; <UNPREDICTABLE>

Disassembly of section .bss:

20000004 <cData>:
	...

20002004 <pui32Stack>:
	...

20002204 <g_ui32Base>:
20002204:	00000000 	andeq	r0, r0, r0

20002208 <_ZL3spi>:
20002208:	00000000 	andeq	r0, r0, r0

2000220c <_ZL12eepromBuffer>:
	...

2000224c <SystemDebug>:
2000224c:	00000000 	andeq	r0, r0, r0

Disassembly of section .debug_info:

00000000 <.debug_info>:
       0:	000001d0 	ldrdeq	r0, [r0], -r0	; <UNPREDICTABLE>
       4:	00000004 	andeq	r0, r0, r4
       8:	01040000 	mrseq	r0, (UNDEF: 4)
       c:	00000000 	andeq	r0, r0, r0
      10:	0001a104 	andeq	sl, r1, r4, lsl #2
      14:	0000eb00 	andeq	lr, r0, r0, lsl #22
	...
      24:	06010200 	streq	r0, [r1], -r0, lsl #4
      28:	00000155 	andeq	r0, r0, r5, asr r1
      2c:	0000b803 	andeq	fp, r0, r3, lsl #16
      30:	182b0200 	stmdane	fp!, {r9}
      34:	00000038 	andeq	r0, r0, r8, lsr r0
      38:	53080102 	movwpl	r0, #33026	; 0x8102
      3c:	02000001 	andeq	r0, r0, #1
      40:	01c90502 	biceq	r0, r9, r2, lsl #10
      44:	02020000 	andeq	r0, r2, #0
      48:	00013607 	andeq	r3, r1, r7, lsl #12
      4c:	05040200 	streq	r0, [r4, #-512]	; 0xfffffe00
      50:	000001b4 			; <UNDEFINED> instruction: 0x000001b4
      54:	00016c03 	andeq	r6, r1, r3, lsl #24
      58:	194f0200 	stmdbne	pc, {r9}^	; <UNPREDICTABLE>
      5c:	00000060 	andeq	r0, r0, r0, rrx
      60:	8f070402 	svchi	0x00070402
      64:	02000001 	andeq	r0, r0, #1
      68:	01af0508 			; <UNDEFINED> instruction: 0x01af0508
      6c:	08020000 	stmdaeq	r2, {}	; <UNPREDICTABLE>
      70:	00018a07 	andeq	r8, r1, r7, lsl #20
      74:	05040400 	streq	r0, [r4, #-1024]	; 0xfffffc00
      78:	00746e69 	rsbseq	r6, r4, r9, ror #28
      7c:	94070402 	strls	r0, [r7], #-1026	; 0xfffffbfe
      80:	02000001 	andeq	r0, r0, #1
      84:	01ee0408 	mvneq	r0, r8, lsl #8
      88:	d9050000 	stmdble	r5, {}	; <UNPREDICTABLE>
      8c:	02000000 	andeq	r0, r0, #0
      90:	015c0801 	cmpeq	ip, r1, lsl #16
      94:	ba030000 	blt	c009c <_etext+0xbe035>
      98:	03000000 	movweq	r0, #0
      9c:	002c1318 	eoreq	r1, ip, r8, lsl r3
      a0:	6e030000 	cdpvs	0, 0, cr0, cr3, cr0, {0}
      a4:	03000001 	movweq	r0, #1
      a8:	00541430 	subseq	r1, r4, r0, lsr r4
      ac:	04060000 	streq	r0, [r6], #-0
      b0:	00000096 	muleq	r0, r6, r0
      b4:	00017707 	andeq	r7, r1, r7, lsl #14
      b8:	38010700 	stmdacc	r1, {r8, r9, sl}
      bc:	04000000 	streq	r0, [r0], #-0
      c0:	00df060d 	sbcseq	r0, pc, sp, lsl #12
      c4:	1a080000 	bne	2000cc <_etext+0x1fe065>
      c8:	00000001 	andeq	r0, r0, r1
      cc:	0000c208 	andeq	ip, r0, r8, lsl #4
      d0:	d3080100 	movwle	r0, #33024	; 0x8100
      d4:	02000001 	andeq	r0, r0, #1
      d8:	00010e08 	andeq	r0, r1, r8, lsl #28
      dc:	0900ff00 	stmdbeq	r0, {r8, r9, sl, fp, ip, sp, lr, pc}
      e0:	00000096 	muleq	r0, r6, r0
      e4:	000000f0 	strdeq	r0, [r0], -r0	; <UNPREDICTABLE>
      e8:	00007c0a 	andeq	r7, r0, sl, lsl #24
      ec:	001fff00 	andseq	pc, pc, r0, lsl #30
      f0:	0000ca0b 	andeq	ip, r0, fp, lsl #20
      f4:	09250100 	stmdbeq	r5!, {r8}
      f8:	000000df 	ldrdeq	r0, [r0], -pc	; <UNPREDICTABLE>
      fc:	00040305 	andeq	r0, r4, r5, lsl #6
     100:	aa0c2000 	bge	308108 <_etext+0x3060a1>
     104:	01000001 	tsteq	r0, r1
     108:	00750547 	rsbseq	r0, r5, r7, asr #10
     10c:	03600000 	cmneq	r0, #0
     110:	00c40000 	sbceq	r0, r4, r0
     114:	9c010000 	stcls	0, cr0, [r1], {-0}
     118:	00000148 	andeq	r0, r0, r8, asr #2
     11c:	0000d00d 	andeq	sp, r0, sp
     120:	0d480100 	stfeqe	f0, [r8, #-0]
     124:	00000148 	andeq	r0, r0, r8, asr #2
     128:	0d6c9102 	stfeqp	f1, [ip, #-8]!
     12c:	0000012d 	andeq	r0, r0, sp, lsr #2
     130:	480d4901 	stmdami	sp, {r0, r8, fp, lr}
     134:	02000001 	andeq	r0, r0, #1
     138:	690e6491 	stmdbvs	lr, {r0, r4, r7, sl, sp, lr}
     13c:	0e4a0100 	dvfeqe	f0, f2, f0
     140:	000000a2 	andeq	r0, r0, r2, lsr #1
     144:	00749102 	rsbseq	r9, r4, r2, lsl #2
     148:	00009609 	andeq	r9, r0, r9, lsl #12
     14c:	00015800 	andeq	r5, r1, r0, lsl #16
     150:	007c0f00 	rsbseq	r0, ip, r0, lsl #30
     154:	00070000 	andeq	r0, r7, r0
     158:	00016110 	andeq	r6, r1, r0, lsl r1
     15c:	06350100 	ldrteq	r0, [r5], -r0, lsl #2
     160:	000001dc 	ldrdeq	r0, [r0], -ip
     164:	000002c0 	andeq	r0, r0, r0, asr #5
     168:	000000a0 	andeq	r0, r0, r0, lsr #1
     16c:	01ad9c01 			; <UNDEFINED> instruction: 0x01ad9c01
     170:	28110000 	ldmdacs	r1, {}	; <UNPREDICTABLE>
     174:	01000001 	tsteq	r0, r1
     178:	00a21a35 	adceq	r1, r2, r5, lsr sl
     17c:	91020000 	mrsls	r0, (UNDEF: 2)
     180:	0122116c 			; <UNDEFINED> instruction: 0x0122116c
     184:	35010000 	strcc	r0, [r1, #-0]
     188:	0000ae2a 	andeq	sl, r0, sl, lsr #28
     18c:	68910200 	ldmvs	r1, {r9}
     190:	0100780e 	tsteq	r0, lr, lsl #16
     194:	00a20e36 	adceq	r0, r2, r6, lsr lr
     198:	91020000 	mrsls	r0, (UNDEF: 2)
     19c:	01490d74 	hvceq	37076	; 0x90d4
     1a0:	37010000 	strcc	r0, [r1, -r0]
     1a4:	0001ad0d 	andeq	sl, r1, sp, lsl #26
     1a8:	70910200 	addsvc	r0, r1, r0, lsl #4
     1ac:	00960900 	addseq	r0, r6, r0, lsl #18
     1b0:	01bd0000 			; <UNDEFINED> instruction: 0x01bd0000
     1b4:	7c0f0000 	stcvc	0, cr0, [pc], {-0}
     1b8:	01000000 	mrseq	r0, (UNDEF: 0)
     1bc:	01bd1200 			; <UNDEFINED> instruction: 0x01bd1200
     1c0:	29010000 	stmdbcs	r1, {}	; <UNPREDICTABLE>
     1c4:	0001fa06 	andeq	pc, r1, r6, lsl #20
     1c8:	00026c00 	andeq	r6, r2, r0, lsl #24
     1cc:	00005400 	andeq	r5, r0, r0, lsl #8
     1d0:	009c0100 	addseq	r0, ip, r0, lsl #2
     1d4:	0000016d 	andeq	r0, r0, sp, ror #2
     1d8:	011a0004 	tsteq	sl, r4
     1dc:	01040000 	mrseq	r0, (UNDEF: 4)
     1e0:	00000228 	andeq	r0, r0, r8, lsr #4
     1e4:	0002f90c 	andeq	pc, r2, ip, lsl #18
     1e8:	0000eb00 	andeq	lr, r0, r0, lsl #22
     1ec:	00002000 	andeq	r2, r0, r0
     1f0:	00000000 	andeq	r0, r0, r0
     1f4:	0001b600 	andeq	fp, r1, r0, lsl #12
     1f8:	06010200 	streq	r0, [r1], -r0, lsl #4
     1fc:	00000155 	andeq	r0, r0, r5, asr r1
     200:	53080102 	movwpl	r0, #33026	; 0x8102
     204:	02000001 	andeq	r0, r0, #1
     208:	01c90502 	biceq	r0, r9, r2, lsl #10
     20c:	02020000 	andeq	r0, r2, #0
     210:	00013607 	andeq	r3, r1, r7, lsl #12
     214:	05040200 	streq	r0, [r4, #-512]	; 0xfffffe00
     218:	000001b4 			; <UNDEFINED> instruction: 0x000001b4
     21c:	00016c03 	andeq	r6, r1, r3, lsl #24
     220:	194f0200 	stmdbne	pc, {r9}^	; <UNPREDICTABLE>
     224:	00000054 	andeq	r0, r0, r4, asr r0
     228:	8f070402 	svchi	0x00070402
     22c:	02000001 	andeq	r0, r0, #1
     230:	01af0508 			; <UNDEFINED> instruction: 0x01af0508
     234:	08020000 	stmdaeq	r2, {}	; <UNPREDICTABLE>
     238:	00018a07 	andeq	r8, r1, r7, lsl #20
     23c:	05040400 	streq	r0, [r4, #-1024]	; 0xfffffc00
     240:	00746e69 	rsbseq	r6, r4, r9, ror #28
     244:	94070402 	strls	r0, [r7], #-1026	; 0xfffffbfe
     248:	03000001 	movweq	r0, #1
     24c:	0000016e 	andeq	r0, r0, lr, ror #2
     250:	48143003 	ldmdami	r4, {r0, r1, ip, sp}
     254:	05000000 	streq	r0, [r0, #-0]
     258:	00000077 	andeq	r0, r0, r7, ror r0
     25c:	00000093 	muleq	r0, r3, r0
     260:	00007006 	andeq	r7, r0, r6
     264:	07007f00 	streq	r7, [r0, -r0, lsl #30]
     268:	000002d3 	ldrdeq	r0, [r0], -r3
     26c:	83113501 	tsthi	r1, #4194304	; 0x400000
     270:	05000000 	streq	r0, [r0, #-0]
     274:	00200403 	eoreq	r0, r0, r3, lsl #8
     278:	00c00520 	sbceq	r0, r0, r0, lsr #10
     27c:	00b50000 	adcseq	r0, r5, r0
     280:	70060000 	andvc	r0, r6, r0
     284:	9a000000 	bls	28c <_Z11InitConsolev+0x20>
     288:	00a50800 	adceq	r0, r5, r0, lsl #16
     28c:	04090000 	streq	r0, [r9], #-0
     290:	000000c5 	andeq	r0, r0, r5, asr #1
     294:	0000ba08 	andeq	fp, r0, r8, lsl #20
     298:	0b0b0a00 	bleq	2c2aa0 <_etext+0x2c0a39>
     29c:	01000002 	tsteq	r0, r2
     2a0:	00b50f3e 	adcseq	r0, r5, lr, lsr pc
     2a4:	03050000 	movweq	r0, #20480	; 0x5000
     2a8:	00000000 	andeq	r0, r0, r0
     2ac:	0002210c 	andeq	r2, r2, ip, lsl #2
     2b0:	11e50100 	mvnne	r0, r0, lsl #2
     2b4:	00000077 	andeq	r0, r0, r7, ror r0
     2b8:	00031a0c 	andeq	r1, r3, ip, lsl #20
     2bc:	11e60100 	mvnne	r0, r0, lsl #2
     2c0:	00000077 	andeq	r0, r0, r7, ror r0
     2c4:	0002cc0c 	andeq	ip, r2, ip, lsl #24
     2c8:	11e70100 	mvnne	r0, r0, lsl #2
     2cc:	00000077 	andeq	r0, r0, r7, ror r0
     2d0:	0002de0d 	andeq	sp, r2, sp, lsl #28
     2d4:	01500100 	cmpeq	r0, r0, lsl #2
     2d8:	00049c01 	andeq	r9, r4, r1, lsl #24
     2dc:	00000600 	andeq	r0, r0, r0, lsl #12
     2e0:	0d9c0100 	ldfeqs	f0, [ip]
     2e4:	000002f0 	strdeq	r0, [r0], -r0	; <UNPREDICTABLE>
     2e8:	01013e01 	tsteq	r1, r1, lsl #28
     2ec:	00000496 	muleq	r0, r6, r4
     2f0:	00000006 	andeq	r0, r0, r6
     2f4:	200d9c01 	andcs	r9, sp, r1, lsl #24
     2f8:	01000003 	tsteq	r0, r3
     2fc:	9001012c 	andls	r0, r1, ip, lsr #2
     300:	06000004 	streq	r0, [r0], -r4
     304:	01000000 	mrseq	r0, (UNDEF: 0)
     308:	02180e9c 	andseq	r0, r8, #156, 28	; 0x9c0
     30c:	f6010000 			; <UNDEFINED> instruction: 0xf6010000
     310:	00042401 	andeq	r2, r4, r1, lsl #8
     314:	00006400 	andeq	r6, r0, r0, lsl #8
     318:	6a9c0100 	bvs	fe700720 <_ebss+0xde6fe4d0>
     31c:	07000001 	streq	r0, [r0, -r1]
     320:	00000307 	andeq	r0, r0, r7, lsl #6
     324:	6a0ff801 	bvs	3fe330 <_etext+0x3fc2c9>
     328:	02000001 	andeq	r0, r0, #1
     32c:	10077491 	mulne	r7, r1, r4
     330:	01000003 	tsteq	r0, r3
     334:	016a1af8 	strdeq	r1, [sl, #-168]!	; 0xffffff58
     338:	91020000 	mrsls	r0, (UNDEF: 2)
     33c:	04090070 	streq	r0, [r9], #-112	; 0xffffff90
     340:	00000077 	andeq	r0, r0, r7, ror r0
     344:	0003a100 	andeq	sl, r3, r0, lsl #2
     348:	e7000400 	str	r0, [r0, -r0, lsl #8]
     34c:	04000001 	streq	r0, [r0], #-1
     350:	00022801 	andeq	r2, r2, r1, lsl #16
     354:	03fa0c00 	mvnseq	r0, #0, 24
     358:	00eb0000 	rsceq	r0, fp, r0
     35c:	00480000 	subeq	r0, r8, r0
     360:	00000000 	andeq	r0, r0, r0
     364:	03160000 	tsteq	r6, #0
     368:	dc020000 	stcle	0, cr0, [r2], {-0}
     36c:	02000003 	andeq	r0, r0, #3
     370:	00311729 	eorseq	r1, r1, r9, lsr #14
     374:	01030000 	mrseq	r0, (UNDEF: 3)
     378:	00015506 	andeq	r5, r1, r6, lsl #10
     37c:	08010300 	stmdaeq	r1, {r8, r9}
     380:	00000153 	andeq	r0, r0, r3, asr r1
     384:	c9050203 	stmdbgt	r5, {r0, r1, r9}
     388:	03000001 	movweq	r0, #1
     38c:	01360702 	teqeq	r6, r2, lsl #14
     390:	34020000 	strcc	r0, [r2], #-0
     394:	02000004 	andeq	r0, r0, #4
     398:	0059184d 	subseq	r1, r9, sp, asr #16
     39c:	04030000 	streq	r0, [r3], #-0
     3a0:	0001b405 	andeq	fp, r1, r5, lsl #8
     3a4:	016c0200 	cmneq	ip, r0, lsl #4
     3a8:	4f020000 	svcmi	0x00020000
     3ac:	00006c19 	andeq	r6, r0, r9, lsl ip
     3b0:	07040300 	streq	r0, [r4, -r0, lsl #6]
     3b4:	0000018f 	andeq	r0, r0, pc, lsl #3
     3b8:	af050803 	svcge	0x00050803
     3bc:	03000001 	movweq	r0, #1
     3c0:	018a0708 	orreq	r0, sl, r8, lsl #14
     3c4:	04040000 	streq	r0, [r4], #-0
     3c8:	746e6905 	strbtvc	r6, [lr], #-2309	; 0xfffff6fb
     3cc:	07040300 	streq	r0, [r4, -r0, lsl #6]
     3d0:	00000194 	muleq	r0, r4, r1
     3d4:	0003de02 	andeq	sp, r3, r2, lsl #28
     3d8:	12140300 	andsne	r0, r4, #0, 6
     3dc:	00000025 	andeq	r0, r0, r5, lsr #32
     3e0:	00043602 	andeq	r3, r4, r2, lsl #12
     3e4:	132c0300 			; <UNDEFINED> instruction: 0x132c0300
     3e8:	0000004d 	andeq	r0, r0, sp, asr #32
     3ec:	00016e02 	andeq	r6, r1, r2, lsl #28
     3f0:	14300300 	ldrtne	r0, [r0], #-768	; 0xfffffd00
     3f4:	00000060 	andeq	r0, r0, r0, rrx
     3f8:	0000a705 	andeq	sl, r0, r5, lsl #14
     3fc:	04460200 	strbeq	r0, [r6], #-512	; 0xfffffe00
     400:	28040000 	stmdacs	r4, {}	; <UNPREDICTABLE>
     404:	0000c41b 	andeq	ip, r0, fp, lsl r4
     408:	03950600 	orrseq	r0, r5, #0, 12
     40c:	05040000 	streq	r0, [r4, #-0]
     410:	0000db00 	andeq	sp, r0, r0, lsl #22
     414:	03e50700 	mvneq	r0, #0, 14
     418:	00db0000 	sbcseq	r0, fp, r0
     41c:	00000000 	andeq	r0, r0, r0
     420:	97020408 	strls	r0, [r2, -r8, lsl #8]
     424:	04000003 	streq	r0, [r0], #-3
     428:	00b81863 	adcseq	r1, r8, r3, ror #16
     42c:	9f090000 	svcls	0x00090000
     430:	01000003 	tsteq	r0, r3
     434:	00a7117e 	adceq	r1, r7, lr, ror r1
     438:	03050000 	movweq	r0, #20480	; 0x5000
     43c:	20002204 	andcs	r2, r0, r4, lsl #4
     440:	00041b09 	andeq	r1, r4, r9, lsl #22
     444:	1b860100 	blne	fe18084c <_ebss+0xde17e5fc>
     448:	00000113 	andeq	r0, r0, r3, lsl r1
     44c:	00000305 	andeq	r0, r0, r5, lsl #6
     450:	040a0000 	streq	r0, [sl], #-0
     454:	0000011f 	andeq	r0, r0, pc, lsl r1
     458:	00010d05 	andeq	r0, r1, r5, lsl #26
     45c:	08010300 	stmdaeq	r1, {r8, r9}
     460:	0000015c 	andeq	r0, r0, ip, asr r1
     464:	00011805 	andeq	r1, r1, r5, lsl #16
     468:	00b30b00 	adcseq	r0, r3, r0, lsl #22
     46c:	01340000 	teqeq	r4, r0
     470:	880c0000 	stmdahi	ip, {}	; <UNPREDICTABLE>
     474:	02000000 	andeq	r0, r0, #0
     478:	01240500 			; <UNDEFINED> instruction: 0x01240500
     47c:	5e090000 	cdppl	0, 0, cr0, cr9, cr0, {0}
     480:	01000004 	tsteq	r0, r4
     484:	0134178d 	teqeq	r4, sp, lsl #15
     488:	03050000 	movweq	r0, #20480	; 0x5000
     48c:	00001d8c 	andeq	r1, r0, ip, lsl #27
     490:	00036209 	andeq	r6, r3, r9, lsl #4
     494:	17aa0100 	strne	r0, [sl, r0, lsl #2]!
     498:	00000134 	andeq	r0, r0, r4, lsr r1
     49c:	1d980305 	ldcne	3, cr0, [r8, #20]
     4a0:	c40d0000 	strgt	r0, [sp], #-0
     4a4:	01000003 	tsteq	r0, r3
     4a8:	cc010514 	cfstr32gt	mvfx0, [r1], {20}
     4ac:	24000009 	strcs	r0, [r0], #-9
     4b0:	01000000 	mrseq	r0, (UNDEF: 0)
     4b4:	0001969c 	muleq	r1, ip, r6
     4b8:	03360e00 	teqeq	r6, #0, 28
     4bc:	14010000 	strne	r0, [r1], #-0
     4c0:	010d1805 	tsteq	sp, r5, lsl #16
     4c4:	91020000 	mrsls	r0, (UNDEF: 2)
     4c8:	26100f70 	ssub16cs	r0, r0, r0
     4cc:	01000003 	tsteq	r0, r3
     4d0:	dd0d0516 	cfstr32le	mvfx0, [sp, #-88]	; 0xffffffa8
     4d4:	02000000 	andeq	r0, r0, #0
     4d8:	0d006491 	cfstrseq	mvf6, [r0, #-580]	; 0xfffffdbc
     4dc:	000003aa 	andeq	r0, r0, sl, lsr #7
     4e0:	01036401 	tsteq	r3, r1, lsl #8
     4e4:	000005c4 	andeq	r0, r0, r4, asr #11
     4e8:	00000408 	andeq	r0, r0, r8, lsl #8
     4ec:	02789c01 	rsbseq	r9, r8, #256	; 0x100
     4f0:	360e0000 	strcc	r0, [lr], -r0
     4f4:	01000003 	tsteq	r0, r3
     4f8:	0d190364 	ldceq	3, cr0, [r9, #-400]	; 0xfffffe70
     4fc:	02000001 	andeq	r0, r0, #1
     500:	260e4491 			; <UNDEFINED> instruction: 0x260e4491
     504:	01000003 	tsteq	r0, r3
     508:	dd2b0364 	stcle	3, cr0, [fp, #-400]!	; 0xfffffe70
     50c:	02000000 	andeq	r0, r0, #0
     510:	3e104091 	mrccc	0, 0, r4, cr0, cr1, {4}
     514:	01000004 	tsteq	r0, r4
     518:	a70e0366 	strge	r0, [lr, -r6, ror #6]
     51c:	02000000 	andeq	r0, r0, #0
     520:	3f107491 	svccc	0x00107491
     524:	01000003 	tsteq	r0, r3
     528:	a7170366 	ldrge	r0, [r7, -r6, ror #6]
     52c:	02000000 	andeq	r0, r0, #0
     530:	6d105891 	ldcvs	8, cr5, [r0, #-580]	; 0xfffffdbc
     534:	01000004 	tsteq	r0, r4
     538:	a7220366 	strge	r0, [r2, -r6, ror #6]!
     53c:	02000000 	andeq	r0, r0, #0
     540:	58107091 	ldmdapl	r0, {r0, r4, r7, ip, sp, lr}
     544:	01000003 	tsteq	r0, r3
     548:	a72b0366 	strge	r0, [fp, -r6, ror #6]!
     54c:	02000000 	andeq	r0, r0, #0
     550:	a1106c91 			; <UNDEFINED> instruction: 0xa1106c91
     554:	01000003 	tsteq	r0, r3
     558:	a7360366 	ldrge	r0, [r6, -r6, ror #6]!
     55c:	02000000 	andeq	r0, r0, #0
     560:	bc106891 	ldclt	8, cr6, [r0], {145}	; 0x91
     564:	01000003 	tsteq	r0, r3
     568:	a7400366 	strbge	r0, [r0, -r6, ror #6]
     56c:	02000000 	andeq	r0, r0, #0
     570:	23106491 	tstcs	r0, #-1862270976	; 0x91000000
     574:	01000004 	tsteq	r0, r4
     578:	780b0367 	stmdavc	fp, {r0, r1, r2, r5, r6, r8, r9}
     57c:	02000002 	andeq	r0, r0, #2
     580:	75105c91 	ldrvc	r5, [r0, #-3217]	; 0xfffff36f
     584:	01000004 	tsteq	r0, r4
     588:	7e120367 	cdpvc	3, 1, cr0, cr2, cr7, {3}
     58c:	02000002 	andeq	r0, r0, #2
     590:	73104891 	tstvc	r0, #9502720	; 0x910000
     594:	01000003 	tsteq	r0, r3
     598:	181d0367 	ldmdane	sp, {r0, r1, r2, r5, r6, r8, r9}
     59c:	02000001 	andeq	r0, r0, #1
     5a0:	84116391 	ldrhi	r6, [r1], #-913	; 0xfffffc6f
     5a4:	01000004 	tsteq	r0, r4
     5a8:	3001039c 	mulcc	r1, ip, r3
     5ac:	11000006 	tstne	r0, r6
     5b0:	000003ea 	andeq	r0, r0, sl, ror #7
     5b4:	01047a01 	tsteq	r4, r1, lsl #20
     5b8:	0000088e 	andeq	r0, r0, lr, lsl #17
     5bc:	18040a00 	stmdane	r4, {r9, fp}
     5c0:	0b000001 	bleq	5cc <UARTvprintf+0x8>
     5c4:	00000118 	andeq	r0, r0, r8, lsl r1
     5c8:	0000028e 	andeq	r0, r0, lr, lsl #5
     5cc:	0000880c 	andeq	r8, r0, ip, lsl #16
     5d0:	12000f00 	andne	r0, r0, #0, 30
     5d4:	00000455 	andeq	r0, r0, r5, asr r4
     5d8:	01031a01 	tsteq	r3, r1, lsl #20
     5dc:	00000038 	andeq	r0, r0, r8, lsr r0
     5e0:	00000000 	andeq	r0, r0, r0
     5e4:	0000001c 	andeq	r0, r0, ip, lsl r0
     5e8:	7b139c01 	blvc	4e75f4 <_etext+0x4e558d>
     5ec:	01000004 	tsteq	r0, r4
     5f0:	81010241 	tsthi	r1, r1, asr #4
     5f4:	00000000 	andeq	r0, r0, r0
     5f8:	14000000 	strne	r0, [r0], #-0
     5fc:	01000001 	tsteq	r0, r1
     600:	0003149c 	muleq	r3, ip, r4
     604:	04750e00 	ldrbteq	r0, [r5], #-3584	; 0xfffff200
     608:	41010000 	mrsmi	r0, (UNDEF: 1)
     60c:	02781002 	rsbseq	r1, r8, #2
     610:	91020000 	mrsls	r0, (UNDEF: 2)
     614:	03f20e6c 	mvnseq	r0, #108, 28	; 0x6c0
     618:	41010000 	mrsmi	r0, (UNDEF: 1)
     61c:	00a72002 	adceq	r2, r7, r2
     620:	91020000 	mrsls	r0, (UNDEF: 2)
     624:	03581068 	cmpeq	r8, #104	; 0x68
     628:	8b010000 	blhi	40630 <_etext+0x3e5c9>
     62c:	00a70e02 	adceq	r0, r7, r2, lsl #28
     630:	91020000 	mrsls	r0, (UNDEF: 2)
     634:	03b61074 			; <UNDEFINED> instruction: 0x03b61074
     638:	8c010000 	stchi	0, cr0, [r1], {-0}
     63c:	008f0c02 	addeq	r0, pc, r2, lsl #24
     640:	91020000 	mrsls	r0, (UNDEF: 2)
     644:	04291073 	strteq	r1, [r9], #-115	; 0xffffff8d
     648:	8d010000 	stchi	0, cr0, [r1, #-0]
     64c:	008f1302 	addeq	r1, pc, r2, lsl #6
     650:	03050000 	movweq	r0, #20480	; 0x5000
     654:	00000000 	andeq	r0, r0, r0
     658:	034e1300 	movteq	r1, #58112	; 0xe300
     65c:	b4010000 	strlt	r0, [r1], #-0
     660:	00810101 	addeq	r0, r1, r1, lsl #2
     664:	05340000 	ldreq	r0, [r4, #-0]!
     668:	00900000 	addseq	r0, r0, r0
     66c:	9c010000 	stcls	0, cr0, [r1], {-0}
     670:	00000360 	andeq	r0, r0, r0, ror #6
     674:	0004750e 	andeq	r7, r4, lr, lsl #10
     678:	01b40100 			; <UNDEFINED> instruction: 0x01b40100
     67c:	00010d17 	andeq	r0, r1, r7, lsl sp
     680:	6c910200 	lfmvs	f0, 4, [r1], {0}
     684:	0003f20e 	andeq	pc, r3, lr, lsl #4
     688:	01b40100 			; <UNDEFINED> instruction: 0x01b40100
     68c:	0000a727 	andeq	sl, r0, r7, lsr #14
     690:	68910200 	ldmvs	r1, {r9}
     694:	00034910 	andeq	r4, r3, r0, lsl r9
     698:	01fc0100 	mvnseq	r0, r0, lsl #2
     69c:	00008812 	andeq	r8, r0, r2, lsl r8
     6a0:	74910200 	ldrvc	r0, [r1], #512	; 0x200
     6a4:	03791400 	cmneq	r9, #0, 8
     6a8:	4e010000 	cdpmi	0, 0, cr0, cr1, cr0, {0}
     6ac:	04a40101 	strteq	r0, [r4], #257	; 0x101
     6b0:	00900000 	addseq	r0, r0, r0
     6b4:	9c010000 	stcls	0, cr0, [r1], {-0}
     6b8:	0003890e 	andeq	r8, r3, lr, lsl #18
     6bc:	014e0100 	mrseq	r0, (UNDEF: 94)
     6c0:	0000a71a 	andeq	sl, r0, sl, lsl r7
     6c4:	74910200 	ldrvc	r0, [r1], #512	; 0x200
     6c8:	00032d0e 	andeq	r2, r3, lr, lsl #26
     6cc:	014e0100 	mrseq	r0, (UNDEF: 94)
     6d0:	0000a730 	andeq	sl, r0, r0, lsr r7
     6d4:	70910200 	addsvc	r0, r1, r0, lsl #4
     6d8:	0003cf0e 	andeq	ip, r3, lr, lsl #30
     6dc:	014e0100 	mrseq	r0, (UNDEF: 94)
     6e0:	0000a743 	andeq	sl, r0, r3, asr #14
     6e4:	6c910200 	lfmvs	f0, 4, [r1], {0}
     6e8:	024e0000 	subeq	r0, lr, #0
     6ec:	00040000 	andeq	r0, r4, r0
     6f0:	0000031c 	andeq	r0, r0, ip, lsl r3
     6f4:	00000104 	andeq	r0, r0, r4, lsl #2
     6f8:	55040000 	strpl	r0, [r4, #-0]
     6fc:	eb000005 	bl	718 <UARTvprintf+0x154>
     700:	80000000 	andhi	r0, r0, r0
     704:	00000000 	andeq	r0, r0, r0
     708:	d2000000 	andle	r0, r0, #0
     70c:	02000007 	andeq	r0, r0, #7
     710:	01550601 	cmpeq	r5, r1, lsl #12
     714:	b8030000 	stmdalt	r3, {}	; <UNPREDICTABLE>
     718:	03000000 	movweq	r0, #0
     71c:	0038182b 	eorseq	r1, r8, fp, lsr #16
     720:	01020000 	mrseq	r0, (UNDEF: 2)
     724:	00015308 	andeq	r5, r1, r8, lsl #6
     728:	05020200 	streq	r0, [r2, #-512]	; 0xfffffe00
     72c:	000001c9 	andeq	r0, r0, r9, asr #3
     730:	36070202 	strcc	r0, [r7], -r2, lsl #4
     734:	02000001 	andeq	r0, r0, #1
     738:	01b40504 			; <UNDEFINED> instruction: 0x01b40504
     73c:	6c030000 	stcvs	0, cr0, [r3], {-0}
     740:	03000001 	movweq	r0, #1
     744:	0060194f 	rsbeq	r1, r0, pc, asr #18
     748:	04020000 	streq	r0, [r2], #-0
     74c:	00018f07 	andeq	r8, r1, r7, lsl #30
     750:	05080200 	streq	r0, [r8, #-512]	; 0xfffffe00
     754:	000001af 	andeq	r0, r0, pc, lsr #3
     758:	8a070802 	bhi	1c2768 <_etext+0x1c0701>
     75c:	04000001 	streq	r0, [r0], #-1
     760:	6e690504 	cdpvs	5, 6, cr0, cr9, cr4, {0}
     764:	04020074 	streq	r0, [r2], #-116	; 0xffffff8c
     768:	00019407 	andeq	r9, r1, r7, lsl #8
     76c:	00ba0300 	adcseq	r0, sl, r0, lsl #6
     770:	18040000 	stmdane	r4, {}	; <UNPREDICTABLE>
     774:	00002c13 	andeq	r2, r0, r3, lsl ip
     778:	016e0300 	cmneq	lr, r0, lsl #6
     77c:	30040000 	andcc	r0, r4, r0
     780:	00005414 	andeq	r5, r0, r4, lsl r4
     784:	08010200 	stmdaeq	r1, {r9}
     788:	0000015c 	andeq	r0, r0, ip, asr r1
     78c:	38010705 	stmdacc	r1, {r0, r2, r8, r9, sl}
     790:	05000000 	streq	r0, [r0, #-0]
     794:	048a0e91 	streq	r0, [sl], #3729	; 0xe91
     798:	00e50000 	rsceq	r0, r5, r0
     79c:	19060000 	stmdbne	r6, {}	; <UNPREDICTABLE>
     7a0:	00000005 	andeq	r0, r0, r5
     7a4:	00050506 	andeq	r0, r5, r6, lsl #10
     7a8:	23060100 	movwcs	r0, #24832	; 0x6100
     7ac:	02000005 	andeq	r0, r0, #5
     7b0:	00052d06 	andeq	r2, r5, r6, lsl #26
     7b4:	0f060300 	svceq	0x00060300
     7b8:	04000005 	streq	r0, [r0], #-5
     7bc:	00053706 	andeq	r3, r5, r6, lsl #14
     7c0:	41060500 	tstmi	r6, r0, lsl #10
     7c4:	06000005 	streq	r0, [r0], -r5
     7c8:	00054b06 	andeq	r4, r5, r6, lsl #22
     7cc:	03000700 	movweq	r0, #1792	; 0x700
     7d0:	0000048b 	andeq	r0, r0, fp, lsl #9
     7d4:	a2039a05 	andge	r9, r3, #20480	; 0x5000
     7d8:	07000000 	streq	r0, [r0, -r0]
     7dc:	00000493 	muleq	r0, r3, r4
     7e0:	00065102 	andeq	r5, r6, r2, lsl #2
     7e4:	60000000 	andvs	r0, r0, r0
     7e8:	01000000 	mrseq	r0, (UNDEF: 0)
     7ec:	0001269c 	muleq	r1, ip, r6
     7f0:	04a40800 	strteq	r0, [r4], #2048	; 0x800
     7f4:	51020000 	mrspl	r0, (UNDEF: 2)
     7f8:	00008f20 	andeq	r8, r0, r0, lsr #30
     7fc:	74910200 	ldrvc	r0, [r1], #512	; 0x200
     800:	0004fe08 	andeq	pc, r4, r8, lsl #28
     804:	32510200 	subscc	r0, r1, #0, 4
     808:	00000083 	andeq	r0, r0, r3, lsl #1
     80c:	00739102 	rsbseq	r9, r3, r2, lsl #2
     810:	00058207 	andeq	r8, r5, r7, lsl #4
     814:	06440200 	strbeq	r0, [r4], -r0, lsl #4
     818:	00000000 	andeq	r0, r0, r0
     81c:	00000060 	andeq	r0, r0, r0, rrx
     820:	015b9c01 	cmpeq	fp, r1, lsl #24
     824:	a4080000 	strge	r0, [r8], #-0
     828:	02000004 	andeq	r0, r0, #4
     82c:	008f1e44 	addeq	r1, pc, r4, asr #28
     830:	91020000 	mrsls	r0, (UNDEF: 2)
     834:	04fe0874 	ldrbteq	r0, [lr], #2164	; 0x874
     838:	44020000 	strmi	r0, [r2], #-0
     83c:	00008330 	andeq	r8, r0, r0, lsr r3
     840:	73910200 	orrsvc	r0, r1, #0, 4
     844:	04dc0900 	ldrbeq	r0, [ip], #2304	; 0x900
     848:	37020000 	strcc	r0, [r2, -r0]
     84c:	00000006 	andeq	r0, r0, r6
     850:	00004c00 	andeq	r4, r0, r0, lsl #24
     854:	819c0100 	orrshi	r0, ip, r0, lsl #2
     858:	08000001 	stmdaeq	r0, {r0}
     85c:	00000599 	muleq	r0, r9, r5
     860:	81223702 			; <UNDEFINED> instruction: 0x81223702
     864:	02000001 	andeq	r0, r0, #1
     868:	02007791 	andeq	r7, r0, #38010880	; 0x2440000
     86c:	04c20201 	strbeq	r0, [r2], #513	; 0x201
     870:	ad070000 	stcge	0, cr0, [r7, #-0]
     874:	02000004 	andeq	r0, r0, #4
     878:	0000061d 	andeq	r0, r0, sp, lsl r6
     87c:	01180000 	tsteq	r8, r0
     880:	9c010000 	stcls	0, cr0, [r1], {-0}
     884:	000001ae 	andeq	r0, r0, lr, lsr #3
     888:	0005910a 	andeq	r9, r5, sl, lsl #2
     88c:	0e1e0200 	cdpeq	2, 1, cr0, cr14, cr0, {0}
     890:	0000008f 	andeq	r0, r0, pc, lsl #1
     894:	006c9102 	rsbeq	r9, ip, r2, lsl #2
     898:	0004c707 	andeq	ip, r4, r7, lsl #14
     89c:	06070200 	streq	r0, [r7], -r0, lsl #4
     8a0:	00000e48 	andeq	r0, r0, r8, asr #28
     8a4:	000000b8 	strheq	r0, [r0], -r8
     8a8:	01d49c01 	bicseq	r9, r4, r1, lsl #24
     8ac:	910a0000 	mrsls	r0, (UNDEF: 10)
     8b0:	02000005 	andeq	r0, r0, #5
     8b4:	008f0e08 	addeq	r0, pc, r8, lsl #28
     8b8:	91020000 	mrsls	r0, (UNDEF: 2)
     8bc:	9f0b006c 	svcls	0x000b006c
     8c0:	01000005 	tsteq	r0, r5
     8c4:	007c1c2b 	rsbseq	r1, ip, fp, lsr #24
     8c8:	0e080000 	cdpeq	0, 0, cr0, cr8, cr0, {0}
     8cc:	003e0000 	eorseq	r0, lr, r0
     8d0:	9c010000 	stcls	0, cr0, [r1], {-0}
     8d4:	0000021c 	andeq	r0, r0, ip, lsl r2
     8d8:	00057d08 	andeq	r7, r5, r8, lsl #26
     8dc:	362b0100 	strtcc	r0, [fp], -r0, lsl #2
     8e0:	0000007c 	andeq	r0, r0, ip, ror r0
     8e4:	0a6c9102 	beq	1b24cf4 <_etext+0x1b22c8d>
     8e8:	000004f3 	strdeq	r0, [r0], -r3
     8ec:	7c122d01 	ldcvc	13, cr2, [r2], {1}
     8f0:	02000000 	andeq	r0, r0, #0
     8f4:	f80a7491 			; <UNDEFINED> instruction: 0xf80a7491
     8f8:	01000004 	tsteq	r0, r4
     8fc:	007c1c2d 	rsbseq	r1, ip, sp, lsr #24
     900:	91020000 	mrsls	r0, (UNDEF: 2)
     904:	6f0c0070 	svcvs	0x000c0070
     908:	01000005 	tsteq	r0, r5
     90c:	007c1c21 	rsbseq	r1, ip, r1, lsr #24
     910:	0dd40000 	ldcleq	0, cr0, [r4]
     914:	00340000 	eorseq	r0, r4, r0
     918:	9c010000 	stcls	0, cr0, [r1], {-0}
     91c:	00057d08 	andeq	r7, r5, r8, lsl #26
     920:	3c210100 	stfccs	f0, [r1], #-0
     924:	0000007c 	andeq	r0, r0, ip, ror r0
     928:	0a6c9102 	beq	1b24d38 <_etext+0x1b22cd1>
     92c:	000004f8 	strdeq	r0, [r0], -r8
     930:	7c122301 	ldcvc	3, cr2, [r2], {1}
     934:	02000000 	andeq	r0, r0, #0
     938:	00007491 	muleq	r0, r1, r4
     93c:	00000242 	andeq	r0, r0, r2, asr #4
     940:	03fb0004 	mvnseq	r0, #4
     944:	01040000 	mrseq	r0, (UNDEF: 4)
     948:	00000000 	andeq	r0, r0, r0
     94c:	0005b704 	andeq	fp, r5, r4, lsl #14
     950:	0000eb00 	andeq	lr, r0, r0, lsl #22
     954:	0000c000 	andeq	ip, r0, r0
     958:	00000000 	andeq	r0, r0, r0
     95c:	000a5300 	andeq	r5, sl, r0, lsl #6
     960:	06010200 	streq	r0, [r1], -r0, lsl #4
     964:	00000155 	andeq	r0, r0, r5, asr r1
     968:	0000b803 	andeq	fp, r0, r3, lsl #16
     96c:	182b0200 	stmdane	fp!, {r9}
     970:	00000038 	andeq	r0, r0, r8, lsr r0
     974:	53080102 	movwpl	r0, #33026	; 0x8102
     978:	02000001 	andeq	r0, r0, #1
     97c:	01c90502 	biceq	r0, r9, r2, lsl #10
     980:	02020000 	andeq	r0, r2, #0
     984:	00013607 	andeq	r3, r1, r7, lsl #12
     988:	05040200 	streq	r0, [r4, #-512]	; 0xfffffe00
     98c:	000001b4 			; <UNDEFINED> instruction: 0x000001b4
     990:	00016c03 	andeq	r6, r1, r3, lsl #24
     994:	194f0200 	stmdbne	pc, {r9}^	; <UNPREDICTABLE>
     998:	00000060 	andeq	r0, r0, r0, rrx
     99c:	8f070402 	svchi	0x00070402
     9a0:	02000001 	andeq	r0, r0, #1
     9a4:	01af0508 			; <UNDEFINED> instruction: 0x01af0508
     9a8:	08020000 	stmdaeq	r2, {}	; <UNPREDICTABLE>
     9ac:	00018a07 	andeq	r8, r1, r7, lsl #20
     9b0:	05040400 	streq	r0, [r4, #-1024]	; 0xfffffc00
     9b4:	00746e69 	rsbseq	r6, r4, r9, ror #28
     9b8:	94070402 	strls	r0, [r7], #-1026	; 0xfffffbfe
     9bc:	02000001 	andeq	r0, r0, #1
     9c0:	01ee0408 	mvneq	r0, r8, lsl #8
     9c4:	d9050000 	stmdble	r5, {}	; <UNPREDICTABLE>
     9c8:	02000000 	andeq	r0, r0, #0
     9cc:	015c0801 	cmpeq	ip, r1, lsl #16
     9d0:	ba030000 	blt	c09d8 <_etext+0xbe971>
     9d4:	03000000 	movweq	r0, #0
     9d8:	002c1318 	eoreq	r1, ip, r8, lsl r3
     9dc:	6e030000 	cdpvs	0, 0, cr0, cr3, cr0, {0}
     9e0:	03000001 	movweq	r0, #1
     9e4:	00541430 	subseq	r1, r4, r0, lsr r4
     9e8:	a2060000 	andge	r0, r6, #0
     9ec:	07000000 	streq	r0, [r0, -r0]
     9f0:	00380107 	eorseq	r0, r8, r7, lsl #2
     9f4:	91040000 	mrsls	r0, (UNDEF: 4)
     9f8:	00048a0e 	andeq	r8, r4, lr, lsl #20
     9fc:	0000f600 	andeq	pc, r0, r0, lsl #12
     a00:	05190800 	ldreq	r0, [r9, #-2048]	; 0xfffff800
     a04:	08000000 	stmdaeq	r0, {}	; <UNPREDICTABLE>
     a08:	00000505 	andeq	r0, r0, r5, lsl #10
     a0c:	05230801 	streq	r0, [r3, #-2049]!	; 0xfffff7ff
     a10:	08020000 	stmdaeq	r2, {}	; <UNPREDICTABLE>
     a14:	0000052d 	andeq	r0, r0, sp, lsr #10
     a18:	050f0803 	streq	r0, [pc, #-2051]	; 21d <g_pfnVectors+0x21d>
     a1c:	08040000 	stmdaeq	r4, {}	; <UNPREDICTABLE>
     a20:	00000537 	andeq	r0, r0, r7, lsr r5
     a24:	05410805 	strbeq	r0, [r1, #-2053]	; 0xfffff7fb
     a28:	08060000 	stmdaeq	r6, {}	; <UNPREDICTABLE>
     a2c:	0000054b 	andeq	r0, r0, fp, asr #10
     a30:	8b030007 	blhi	c0a54 <_etext+0xbe9ed>
     a34:	04000004 	streq	r0, [r0], #-4
     a38:	00b3039a 	umlalseq	r0, r3, sl, r3
     a3c:	d0090000 	andle	r0, r9, r0
     a40:	01000005 	tsteq	r0, r5
     a44:	00ae170c 	adceq	r1, lr, ip, lsl #14
     a48:	03050000 	movweq	r0, #20480	; 0x5000
     a4c:	00000000 	andeq	r0, r0, r0
     a50:	0005e00a 	andeq	lr, r5, sl
     a54:	06750100 	ldrbteq	r0, [r5], -r0, lsl #2
     a58:	00000195 	muleq	r0, r5, r1
     a5c:	000011a0 	andeq	r1, r0, r0, lsr #3
     a60:	00000268 	andeq	r0, r0, r8, ror #4
     a64:	01959c01 	orrseq	r9, r5, r1, lsl #24
     a68:	ee0b0000 	cdp	0, 0, cr0, cr11, cr0, {0}
     a6c:	01000005 	tsteq	r0, r5
     a70:	00a21d75 	adceq	r1, r2, r5, ror sp
     a74:	91020000 	mrsls	r0, (UNDEF: 2)
     a78:	05b10b64 	ldreq	r0, [r1, #2916]!	; 0xb64
     a7c:	75010000 	strvc	r0, [r1, #-0]
     a80:	0000a234 	andeq	sl, r0, r4, lsr r2
     a84:	60910200 	addsvs	r0, r1, r0, lsl #4
     a88:	00031b0b 	andeq	r1, r3, fp, lsl #22
     a8c:	44750100 	ldrbtmi	r0, [r5], #-256	; 0xffffff00
     a90:	0000019c 	muleq	r0, ip, r1
     a94:	0c5c9102 	ldfeqp	f1, [ip], {2}
     a98:	000005ac 	andeq	r0, r0, ip, lsr #11
     a9c:	de01bf01 	cdple	15, 0, cr11, cr1, cr1, {0}
     aa0:	0d000013 	stceq	0, cr0, [r0, #-76]	; 0xffffffb4
     aa4:	00746572 	rsbseq	r6, r4, r2, ror r5
     aa8:	950a7601 	strls	r7, [sl, #-1537]	; 0xfffff9ff
     aac:	02000001 	andeq	r0, r0, #1
     ab0:	04097791 	streq	r7, [r9], #-1937	; 0xfffff86f
     ab4:	01000006 	tsteq	r0, r6
     ab8:	00a20e77 	adceq	r0, r2, r7, ror lr
     abc:	91020000 	mrsls	r0, (UNDEF: 2)
     ac0:	05da0970 	ldrbeq	r0, [sl, #2416]	; 0x970
     ac4:	78010000 	stmdavc	r1, {}	; <UNPREDICTABLE>
     ac8:	0000a20e 	andeq	sl, r0, lr, lsl #4
     acc:	6c910200 	lfmvs	f0, 4, [r1], {0}
     ad0:	02010200 	andeq	r0, r1, #0, 4
     ad4:	000004c2 	andeq	r0, r0, r2, asr #9
     ad8:	0096040e 	addseq	r0, r6, lr, lsl #8
     adc:	120a0000 	andne	r0, sl, #0
     ae0:	01000006 	tsteq	r0, r6
     ae4:	01950626 	orrseq	r0, r5, r6, lsr #12
     ae8:	0f580000 	svceq	0x00580000
     aec:	02480000 	subeq	r0, r8, #0
     af0:	9c010000 	stcls	0, cr0, [r1], {-0}
     af4:	00000223 	andeq	r0, r0, r3, lsr #4
     af8:	0005ee0b 	andeq	lr, r5, fp, lsl #28
     afc:	1d260100 	stfnes	f0, [r6, #-0]
     b00:	00000096 	muleq	r0, r6, r0
     b04:	0b679102 	bleq	19e4f14 <_etext+0x19e2ead>
     b08:	000005b1 			; <UNDEFINED> instruction: 0x000005b1
     b0c:	a2342601 	eorsge	r2, r4, #1048576	; 0x100000
     b10:	02000000 	andeq	r0, r0, #0
     b14:	1b0b6091 	blne	2d8d60 <_etext+0x2d6cf9>
     b18:	01000003 	tsteq	r0, r3
     b1c:	019c4426 	orrseq	r4, ip, r6, lsr #8
     b20:	91020000 	mrsls	r0, (UNDEF: 2)
     b24:	05ac0c5c 	streq	r0, [ip, #3164]!	; 0xc5c
     b28:	6f010000 	svcvs	0x00010000
     b2c:	00117401 	andseq	r7, r1, r1, lsl #8
     b30:	65720d00 	ldrbvs	r0, [r2, #-3328]!	; 0xfffff300
     b34:	27010074 	smlsdxcs	r1, r4, r0, r0
     b38:	0001950a 	andeq	r9, r1, sl, lsl #10
     b3c:	77910200 	ldrvc	r0, [r1, r0, lsl #4]
     b40:	00060409 	andeq	r0, r6, r9, lsl #8
     b44:	0e280100 	sufeqe	f0, f0, f0
     b48:	000000a2 	andeq	r0, r0, r2, lsr #1
     b4c:	09709102 	ldmdbeq	r0!, {r1, r8, ip, pc}^
     b50:	000005da 	ldrdeq	r0, [r0], -sl
     b54:	a20e2901 	andge	r2, lr, #16384	; 0x4000
     b58:	02000000 	andeq	r0, r0, #0
     b5c:	0f006c91 	svceq	0x00006c91
     b60:	000005fb 	strdeq	r0, [r0], -fp
     b64:	00060e01 	andeq	r0, r6, r1, lsl #28
     b68:	5800000f 	stmdapl	r0, {r0, r1, r2, r3}
     b6c:	01000000 	mrseq	r0, (UNDEF: 0)
     b70:	060a099c 			; <UNDEFINED> instruction: 0x060a099c
     b74:	0f010000 	svceq	0x00010000
     b78:	0000a20e 	andeq	sl, r0, lr, lsl #4
     b7c:	74910200 	ldrvc	r0, [r1], #512	; 0x200
     b80:	01ba0000 			; <UNDEFINED> instruction: 0x01ba0000
     b84:	00040000 	andeq	r0, r4, r0
     b88:	000004df 	ldrdeq	r0, [r0], -pc	; <UNPREDICTABLE>
     b8c:	00000104 	andeq	r0, r0, r4, lsl #2
     b90:	46040000 	strmi	r0, [r4], -r0
     b94:	eb000006 	bl	bb4 <GPIOPinConfigure+0x38>
     b98:	e0000000 	and	r0, r0, r0
     b9c:	00000000 	andeq	r0, r0, r0
     ba0:	84000000 	strhi	r0, [r0], #-0
     ba4:	0200000e 	andeq	r0, r0, #14
     ba8:	01550601 	cmpeq	r5, r1, lsl #12
     bac:	01020000 	mrseq	r0, (UNDEF: 2)
     bb0:	00015308 	andeq	r5, r1, r8, lsl #6
     bb4:	05020200 	streq	r0, [r2, #-512]	; 0xfffffe00
     bb8:	000001c9 	andeq	r0, r0, r9, asr #3
     bbc:	36070202 	strcc	r0, [r7], -r2, lsl #4
     bc0:	02000001 	andeq	r0, r0, #1
     bc4:	01b40504 			; <UNDEFINED> instruction: 0x01b40504
     bc8:	6c030000 	stcvs	0, cr0, [r3], {-0}
     bcc:	03000001 	movweq	r0, #1
     bd0:	0054194f 	subseq	r1, r4, pc, asr #18
     bd4:	04020000 	streq	r0, [r2], #-0
     bd8:	00018f07 	andeq	r8, r1, r7, lsl #30
     bdc:	05080200 	streq	r0, [r8, #-512]	; 0xfffffe00
     be0:	000001af 	andeq	r0, r0, pc, lsr #3
     be4:	8a070802 	bhi	1c2bf4 <_etext+0x1c0b8d>
     be8:	04000001 	streq	r0, [r0], #-1
     bec:	6e690504 	cdpvs	5, 6, cr0, cr9, cr4, {0}
     bf0:	04020074 	streq	r0, [r2], #-116	; 0xffffff8c
     bf4:	00019407 	andeq	r9, r1, r7, lsl #8
     bf8:	04080200 	streq	r0, [r8], #-512	; 0xfffffe00
     bfc:	000001ee 	andeq	r0, r0, lr, ror #3
     c00:	0000d905 	andeq	sp, r0, r5, lsl #18
     c04:	08010200 	stmdaeq	r1, {r9}
     c08:	0000015c 	andeq	r0, r0, ip, asr r1
     c0c:	00016e03 	andeq	r6, r1, r3, lsl #28
     c10:	14300400 	ldrtne	r0, [r0], #-1024	; 0xfffffc00
     c14:	00000048 	andeq	r0, r0, r8, asr #32
     c18:	2c010706 	stccs	7, cr0, [r1], {6}
     c1c:	05000000 	streq	r0, [r0, #-0]
     c20:	048a0e91 	streq	r0, [sl], #3729	; 0xe91
     c24:	00d90000 	sbcseq	r0, r9, r0
     c28:	19070000 	stmdbne	r7, {}	; <UNPREDICTABLE>
     c2c:	00000005 	andeq	r0, r0, r5
     c30:	00050507 	andeq	r0, r5, r7, lsl #10
     c34:	23070100 	movwcs	r0, #28928	; 0x7100
     c38:	02000005 	andeq	r0, r0, #5
     c3c:	00052d07 	andeq	r2, r5, r7, lsl #26
     c40:	0f070300 	svceq	0x00070300
     c44:	04000005 	streq	r0, [r0], #-5
     c48:	00053707 	andeq	r3, r5, r7, lsl #14
     c4c:	41070500 	tstmi	r7, r0, lsl #10
     c50:	06000005 	streq	r0, [r0], -r5
     c54:	00054b07 	andeq	r4, r5, r7, lsl #22
     c58:	03000700 	movweq	r0, #1792	; 0x700
     c5c:	0000048b 	andeq	r0, r0, fp, lsl #9
     c60:	96039a05 	strls	r9, [r3], -r5, lsl #20
     c64:	08000000 	stmdaeq	r0, {}	; <UNPREDICTABLE>
     c68:	00000621 	andeq	r0, r0, r1, lsr #12
     c6c:	f4064402 	vst3.8	{d4-d6}, [r6], r2
     c70:	38000016 	stmdacc	r0, {r1, r2, r4}
     c74:	01000001 	tsteq	r0, r1
     c78:	00011a9c 	muleq	r1, ip, sl
     c7c:	065f0900 	ldrbeq	r0, [pc], -r0, lsl #18
     c80:	44020000 	strmi	r0, [r2], #-0
     c84:	00008a2c 	andeq	r8, r0, ip, lsr #20
     c88:	74910200 	ldrvc	r0, [r1], #512	; 0x200
     c8c:	00063e09 	andeq	r3, r6, r9, lsl #28
     c90:	3d440200 	sfmcc	f0, 2, [r4, #-0]
     c94:	000000d9 	ldrdeq	r0, [r0], -r9
     c98:	00739102 	rsbseq	r9, r3, r2, lsl #2
     c9c:	0006700a 	andeq	r7, r6, sl
     ca0:	060d0200 	streq	r0, [sp], -r0, lsl #4
     ca4:	0000147c 	andeq	r1, r0, ip, ror r4
     ca8:	00000278 	andeq	r0, r0, r8, ror r2
     cac:	01409c01 	cmpeq	r0, r1, lsl #24
     cb0:	670b0000 	strvs	r0, [fp, -r0]
     cb4:	02000006 	andeq	r0, r0, #6
     cb8:	008a0e0f 	addeq	r0, sl, pc, lsl #28
     cbc:	91020000 	mrsls	r0, (UNDEF: 2)
     cc0:	9f0c006c 	svcls	0x000c006c
     cc4:	01000005 	tsteq	r0, r5
     cc8:	00701c2b 	rsbseq	r1, r0, fp, lsr #24
     ccc:	143c0000 	ldrtne	r0, [ip], #-0
     cd0:	003e0000 	eorseq	r0, lr, r0
     cd4:	9c010000 	stcls	0, cr0, [r1], {-0}
     cd8:	00000188 	andeq	r0, r0, r8, lsl #3
     cdc:	00057d09 	andeq	r7, r5, r9, lsl #26
     ce0:	362b0100 	strtcc	r0, [fp], -r0, lsl #2
     ce4:	00000070 	andeq	r0, r0, r0, ror r0
     ce8:	0b6c9102 	bleq	1b250f8 <_etext+0x1b23091>
     cec:	000004f3 	strdeq	r0, [r0], -r3
     cf0:	70122d01 	andsvc	r2, r2, r1, lsl #26
     cf4:	02000000 	andeq	r0, r0, #0
     cf8:	f80b7491 			; <UNDEFINED> instruction: 0xf80b7491
     cfc:	01000004 	tsteq	r0, r4
     d00:	00701c2d 	rsbseq	r1, r0, sp, lsr #24
     d04:	91020000 	mrsls	r0, (UNDEF: 2)
     d08:	6f0d0070 	svcvs	0x000d0070
     d0c:	01000005 	tsteq	r0, r5
     d10:	00701c21 	rsbseq	r1, r0, r1, lsr #24
     d14:	14080000 	strne	r0, [r8], #-0
     d18:	00340000 	eorseq	r0, r4, r0
     d1c:	9c010000 	stcls	0, cr0, [r1], {-0}
     d20:	00057d09 	andeq	r7, r5, r9, lsl #26
     d24:	3c210100 	stfccs	f0, [r1], #-0
     d28:	00000070 	andeq	r0, r0, r0, ror r0
     d2c:	0b6c9102 	bleq	1b2513c <_etext+0x1b230d5>
     d30:	000004f8 	strdeq	r0, [r0], -r8
     d34:	70122301 	andsvc	r2, r2, r1, lsl #6
     d38:	02000000 	andeq	r0, r0, #0
     d3c:	00007491 	muleq	r0, r1, r4
     d40:	00000ac6 	andeq	r0, r0, r6, asr #21
     d44:	05c50004 	strbeq	r0, [r5, #4]
     d48:	01040000 	mrseq	r0, (UNDEF: 4)
     d4c:	00000000 	andeq	r0, r0, r0
     d50:	000a8f04 	andeq	r8, sl, r4, lsl #30
     d54:	0000eb00 	andeq	lr, r0, r0, lsl #22
     d58:	00010800 	andeq	r0, r1, r0, lsl #16
     d5c:	00000000 	andeq	r0, r0, r0
     d60:	0010b200 	andseq	fp, r0, r0, lsl #4
     d64:	06010200 	streq	r0, [r1], -r0, lsl #4
     d68:	00000155 	andeq	r0, r0, r5, asr r1
     d6c:	0000b803 	andeq	fp, r0, r3, lsl #16
     d70:	182b0200 	stmdane	fp!, {r9}
     d74:	00000038 	andeq	r0, r0, r8, lsr r0
     d78:	53080102 	movwpl	r0, #33026	; 0x8102
     d7c:	02000001 	andeq	r0, r0, #1
     d80:	01c90502 	biceq	r0, r9, r2, lsl #10
     d84:	80030000 	andhi	r0, r3, r0
     d88:	0200000b 	andeq	r0, r0, #11
     d8c:	00521939 	subseq	r1, r2, r9, lsr r9
     d90:	02020000 	andeq	r0, r2, #0
     d94:	00013607 	andeq	r3, r1, r7, lsl #12
     d98:	05040200 	streq	r0, [r4, #-512]	; 0xfffffe00
     d9c:	000001b4 			; <UNDEFINED> instruction: 0x000001b4
     da0:	00016c03 	andeq	r6, r1, r3, lsl #24
     da4:	194f0200 	stmdbne	pc, {r9}^	; <UNPREDICTABLE>
     da8:	0000006c 	andeq	r0, r0, ip, rrx
     dac:	8f070402 	svchi	0x00070402
     db0:	02000001 	andeq	r0, r0, #1
     db4:	01af0508 			; <UNDEFINED> instruction: 0x01af0508
     db8:	08020000 	stmdaeq	r2, {}	; <UNPREDICTABLE>
     dbc:	00018a07 	andeq	r8, r1, r7, lsl #20
     dc0:	05040400 	streq	r0, [r4, #-1024]	; 0xfffffc00
     dc4:	00746e69 	rsbseq	r6, r4, r9, ror #28
     dc8:	94070402 	strls	r0, [r7], #-1026	; 0xfffffbfe
     dcc:	03000001 	movweq	r0, #1
     dd0:	000000ba 	strheq	r0, [r0], -sl
     dd4:	2c131803 	ldccs	8, cr1, [r3], {3}
     dd8:	05000000 	streq	r0, [r0, #-0]
     ddc:	0000008f 	andeq	r0, r0, pc, lsl #1
     de0:	000b8203 	andeq	r8, fp, r3, lsl #4
     de4:	14240300 	strtne	r0, [r4], #-768	; 0xfffffd00
     de8:	00000046 	andeq	r0, r0, r6, asr #32
     dec:	0000a006 	andeq	sl, r0, r6
     df0:	016e0300 	cmneq	lr, r0, lsl #6
     df4:	30030000 	andcc	r0, r3, r0
     df8:	00006014 	andeq	r6, r0, r4, lsl r0
     dfc:	00b10600 	adcseq	r0, r1, r0, lsl #12
     e00:	04070000 	streq	r0, [r7], #-0
     e04:	000000cf 	andeq	r0, r0, pc, asr #1
     e08:	5c080102 	stfpls	f0, [r8], {2}
     e0c:	05000001 	streq	r0, [r0, #-1]
     e10:	000000c8 	andeq	r0, r0, r8, asr #1
     e14:	38010708 	stmdacc	r1, {r3, r8, r9, sl}
     e18:	04000000 	streq	r0, [r0], #-0
     e1c:	07760e09 	ldrbeq	r0, [r6, -r9, lsl #28]!
     e20:	00ff0000 	rscseq	r0, pc, r0
     e24:	34090000 	strcc	r0, [r9], #-0
     e28:	0000000c 	andeq	r0, r0, ip
     e2c:	00097c09 	andeq	r7, r9, r9, lsl #24
     e30:	f4090100 	vst4.8	{d0,d2,d4,d6}, [r9], r0
     e34:	02000006 	andeq	r0, r0, #6
     e38:	00094609 	andeq	r4, r9, r9, lsl #12
     e3c:	03000300 	movweq	r0, #768	; 0x300
     e40:	00000777 	andeq	r0, r0, r7, ror r7
     e44:	d4030e04 	strle	r0, [r3], #-3588	; 0xfffff1fc
     e48:	08000000 	stmdaeq	r0, {}	; <UNPREDICTABLE>
     e4c:	00380107 	eorseq	r0, r8, r7, lsl #2
     e50:	10040000 	andne	r0, r4, r0
     e54:	0007f20e 	andeq	pc, r7, lr, lsl #4
     e58:	00014800 	andeq	r4, r1, r0, lsl #16
     e5c:	06800900 	streq	r0, [r0], r0, lsl #18
     e60:	09000000 	stmdbeq	r0, {}	; <UNPREDICTABLE>
     e64:	00000acb 	andeq	r0, r0, fp, asr #21
     e68:	0ad60901 	beq	ff583274 <_ebss+0xdf581024>
     e6c:	09020000 	stmdbeq	r2, {}	; <UNPREDICTABLE>
     e70:	00000ae1 	andeq	r0, r0, r1, ror #21
     e74:	0aec0903 	beq	ffb03288 <_ebss+0xdfb01038>
     e78:	09040000 	stmdbeq	r4, {}	; <UNPREDICTABLE>
     e7c:	00000993 	muleq	r0, r3, r9
     e80:	09a60905 	stmibeq	r6!, {r0, r2, r8, fp}
     e84:	00060000 	andeq	r0, r6, r0
     e88:	0007f303 	andeq	pc, r7, r3, lsl #6
     e8c:	03180400 	tsteq	r8, #0, 8
     e90:	0000010b 	andeq	r0, r0, fp, lsl #2
     e94:	38010708 	stmdacc	r1, {r3, r8, r9, sl}
     e98:	04000000 	streq	r0, [r0], #-0
     e9c:	09680e1a 	stmdbeq	r8!, {r1, r3, r4, r9, sl, fp}^
     ea0:	01850000 	orreq	r0, r5, r0
     ea4:	3b090000 	blcc	240eac <_etext+0x23ee45>
     ea8:	01000009 	tsteq	r0, r9
     eac:	0006c509 	andeq	ip, r6, r9, lsl #10
     eb0:	4d090200 	sfmmi	f0, 4, [r9, #-0]
     eb4:	0400000a 	streq	r0, [r0], #-10
     eb8:	000c4409 	andeq	r4, ip, r9, lsl #8
     ebc:	aa090800 	bge	242ec4 <_etext+0x240e5d>
     ec0:	0900000c 	stmdbeq	r0, {r2, r3}
     ec4:	09690300 	stmdbeq	r9!, {r8, r9}^
     ec8:	20040000 	andcs	r0, r4, r0
     ecc:	00015403 	andeq	r5, r1, r3, lsl #8
     ed0:	01070800 	tsteq	r7, r0, lsl #16
     ed4:	00000038 	andeq	r0, r0, r8, lsr r0
     ed8:	cc0e2204 	sfmgt	f2, 4, [lr], {4}
     edc:	bc000007 	stclt	0, cr0, [r0], {7}
     ee0:	09000001 	stmdbeq	r0, {r0}
     ee4:	0000085e 	andeq	r0, r0, lr, asr r8
     ee8:	0b510900 	bleq	14432f0 <_etext+0x1441289>
     eec:	09010000 	stmdbeq	r1, {}	; <UNPREDICTABLE>
     ef0:	0000095b 	andeq	r0, r0, fp, asr r9
     ef4:	0a570902 	beq	15c3304 <_etext+0x15c129d>
     ef8:	00030000 	andeq	r0, r3, r0
     efc:	0007ce03 	andeq	ip, r7, r3, lsl #28
     f00:	03270400 			; <UNDEFINED> instruction: 0x03270400
     f04:	00000191 	muleq	r0, r1, r1
     f08:	00090e0a 	andeq	r0, r9, sl, lsl #28
     f0c:	2a042c00 	bcs	10bf14 <_etext+0x109ead>
     f10:	00044707 	andeq	r4, r4, r7, lsl #14
     f14:	0bb50b00 	bleq	fed43b1c <_ebss+0xded418cc>
     f18:	2c040000 	stccs	0, cr0, [r4], {-0}
     f1c:	00008f18 	andeq	r8, r0, r8, lsl pc
     f20:	08360c00 	ldmdaeq	r6!, {sl, fp}
     f24:	2d040000 	stccs	0, cr0, [r4, #-0]
     f28:	0000c215 	andeq	ip, r0, r5, lsl r2
     f2c:	bc0c0000 	stclt	0, cr0, [ip], {-0}
     f30:	04000006 	streq	r0, [r0], #-6
     f34:	04470e2e 	strbeq	r0, [r7], #-3630	; 0xfffff1d2
     f38:	0c040000 	stceq	0, cr0, [r4], {-0}
     f3c:	00000af7 	strdeq	r0, [r0], -r7
     f40:	b1122f04 	tstlt	r2, r4, lsl #30
     f44:	08000000 	stmdaeq	r0, {}	; <UNPREDICTABLE>
     f48:	000c4e0c 	andeq	r4, ip, ip, lsl #28
     f4c:	12300400 	eorsne	r0, r0, #0, 8
     f50:	000000b1 	strheq	r0, [r0], -r1
     f54:	0ca40c0c 	stceq	12, cr0, [r4], #48	; 0x30
     f58:	31040000 	mrscc	r0, (UNDEF: 4)
     f5c:	00044e18 	andeq	r4, r4, r8, lsl lr
     f60:	170c1000 	strne	r1, [ip, -r0]
     f64:	0400000c 	streq	r0, [r0], #-12
     f68:	04541232 	ldrbeq	r1, [r4], #-562	; 0xfffffdce
     f6c:	0c140000 	ldceq	0, cr0, [r4], {-0}
     f70:	00000aa8 	andeq	r0, r0, r8, lsr #21
     f74:	bd1b3304 	ldclt	3, cr3, [fp, #-16]
     f78:	18000000 	stmdane	r0, {}	; <UNPREDICTABLE>
     f7c:	00098d0c 	andeq	r8, r9, ip, lsl #26
     f80:	1b340400 	blne	d01f88 <_etext+0xcfff21>
     f84:	000000bd 	strheq	r0, [r0], -sp
     f88:	0a7e0c1c 	beq	1f84000 <_etext+0x1f81f99>
     f8c:	35040000 	strcc	r0, [r4, #-0]
     f90:	0000bd1b 	andeq	fp, r0, fp, lsl sp
     f94:	cf0c2000 	svcgt	0x000c2000
     f98:	04000006 	streq	r0, [r0], #-6
     f9c:	00bd1b36 	adcseq	r1, sp, r6, lsr fp
     fa0:	0c240000 	stceq	0, cr0, [r4], #-0
     fa4:	000009ae 	andeq	r0, r0, lr, lsr #19
     fa8:	bd1b3704 	ldclt	7, cr3, [fp, #-16]
     fac:	28000000 	stmdacs	r0, {}	; <UNPREDICTABLE>
     fb0:	000b8b0d 	andeq	r8, fp, sp, lsl #22
     fb4:	11380400 	teqne	r8, r0, lsl #8
     fb8:	00000752 	andeq	r0, r0, r2, asr r7
     fbc:	0000008f 	andeq	r0, r0, pc, lsl #1
     fc0:	00000288 	andeq	r0, r0, r8, lsl #5
     fc4:	00000293 	muleq	r0, r3, r2
     fc8:	00045a0e 	andeq	r5, r4, lr, lsl #20
     fcc:	00ff0f00 	rscseq	r0, pc, r0, lsl #30
     fd0:	10000000 	andne	r0, r0, r0
     fd4:	0000068c 	andeq	r0, r0, ip, lsl #13
     fd8:	810e3904 	tsthi	lr, r4, lsl #18
     fdc:	a7000008 	strge	r0, [r0, -r8]
     fe0:	ad000002 	stcge	0, cr0, [r0, #-8]
     fe4:	0e000002 	cdpeq	0, 0, cr0, cr0, cr2, {0}
     fe8:	0000045a 	andeq	r0, r0, sl, asr r4
     fec:	090e1100 	stmdbeq	lr, {r8, ip}
     ff0:	3b040000 	blcc	100ff8 <_etext+0xfef91>
     ff4:	0009bc09 	andeq	fp, r9, r9, lsl #24
     ff8:	00045a00 	andeq	r5, r4, r0, lsl #20
     ffc:	02c60100 	sbceq	r0, r6, #0, 2
    1000:	02e00000 	rsceq	r0, r0, #0
    1004:	5a0e0000 	bpl	38100c <_etext+0x37efa5>
    1008:	0f000004 	svceq	0x00000004
    100c:	000000ff 	strdeq	r0, [r0], -pc	; <UNPREDICTABLE>
    1010:	0001480f 	andeq	r4, r1, pc, lsl #16
    1014:	00b10f00 	adcseq	r0, r1, r0, lsl #30
    1018:	8f0f0000 	svchi	0x000f0000
    101c:	00000000 	andeq	r0, r0, r0
    1020:	000b1e11 	andeq	r1, fp, r1, lsl lr
    1024:	113c0400 	teqne	ip, r0, lsl #8
    1028:	00000beb 	andeq	r0, r0, fp, ror #23
    102c:	0000008f 	andeq	r0, r0, pc, lsl #1
    1030:	0002f901 	andeq	pc, r2, r1, lsl #18
    1034:	00030900 	andeq	r0, r3, r0, lsl #18
    1038:	045a0e00 	ldrbeq	r0, [sl], #-3584	; 0xfffff200
    103c:	480f0000 	stmdami	pc, {}	; <UNPREDICTABLE>
    1040:	0f000001 	svceq	0x00000001
    1044:	0000008f 	andeq	r0, r0, pc, lsl #1
    1048:	03521100 	cmpeq	r2, #0, 2
    104c:	3d040000 	stccc	0, cr0, [r4, #-0]
    1050:	000b5f11 	andeq	r5, fp, r1, lsl pc
    1054:	00008f00 	andeq	r8, r0, r0, lsl #30
    1058:	03220100 			; <UNDEFINED> instruction: 0x03220100
    105c:	03320000 	teqeq	r2, #0
    1060:	5a0e0000 	bpl	381068 <_etext+0x37f001>
    1064:	0f000004 	svceq	0x00000004
    1068:	000000b1 	strheq	r0, [r0], -r1
    106c:	0004650f 	andeq	r6, r4, pc, lsl #10
    1070:	76110000 	ldrvc	r0, [r1], -r0
    1074:	0400000c 	streq	r0, [r0], #-12
    1078:	081b113e 	ldmdaeq	fp, {r1, r2, r3, r4, r5, r8, ip}
    107c:	008f0000 	addeq	r0, pc, r0
    1080:	4b010000 	blmi	41088 <_etext+0x3f021>
    1084:	5b000003 	blpl	1098 <I2C_WriteBytes+0x140>
    1088:	0e000003 	cdpeq	0, 0, cr0, cr0, cr3, {0}
    108c:	0000045a 	andeq	r0, r0, sl, asr r4
    1090:	0000b10f 	andeq	fp, r0, pc, lsl #2
    1094:	04650f00 	strbteq	r0, [r5], #-3840	; 0xfffff100
    1098:	11000000 	mrsne	r0, (UNDEF: 0)
    109c:	00000811 	andeq	r0, r0, r1, lsl r8
    10a0:	001c3f04 	andseq	r3, ip, r4, lsl #30
    10a4:	bc00000b 	stclt	0, cr0, [r0], {11}
    10a8:	01000001 	tsteq	r0, r1
    10ac:	00000374 	andeq	r0, r0, r4, ror r3
    10b0:	0000037a 	andeq	r0, r0, sl, ror r3
    10b4:	00045a0e 	andeq	r5, r4, lr, lsl #20
    10b8:	b1110000 	tstlt	r1, r0
    10bc:	04000008 	streq	r0, [r0], #-8
    10c0:	07801c40 	streq	r1, [r0, r0, asr #24]
    10c4:	01bc0000 			; <UNDEFINED> instruction: 0x01bc0000
    10c8:	93010000 	movwls	r0, #4096	; 0x1000
    10cc:	99000003 	stmdbls	r0, {r0, r1}
    10d0:	0e000003 	cdpeq	0, 0, cr0, cr0, cr3, {0}
    10d4:	0000045a 	andeq	r0, r0, sl, asr r4
    10d8:	0ba61200 	bleq	fe9858e0 <_ebss+0xde983690>
    10dc:	41040000 	mrsmi	r0, (UNDEF: 4)
    10e0:	00072e0e 	andeq	r2, r7, lr, lsl #28
    10e4:	03ae0100 			; <UNDEFINED> instruction: 0x03ae0100
    10e8:	03b90000 			; <UNDEFINED> instruction: 0x03b90000
    10ec:	5a0e0000 	bpl	3810f4 <_etext+0x37f08d>
    10f0:	0f000004 	svceq	0x00000004
    10f4:	00000081 	andeq	r0, r0, r1, lsl #1
    10f8:	07e11200 	strbeq	r1, [r1, r0, lsl #4]!
    10fc:	42040000 	andmi	r0, r4, #0
    1100:	000b2b0e 	andeq	r2, fp, lr, lsl #22
    1104:	03ce0100 	biceq	r0, lr, #0, 2
    1108:	03d90000 	bicseq	r0, r9, #0
    110c:	5a0e0000 	bpl	381114 <_etext+0x37f0ad>
    1110:	0f000004 	svceq	0x00000004
    1114:	00000081 	andeq	r0, r0, r1, lsl #1
    1118:	07bb1200 	ldreq	r1, [fp, r0, lsl #4]!
    111c:	43040000 	movwmi	r0, #16384	; 0x4000
    1120:	0006960e 	andeq	r9, r6, lr, lsl #12
    1124:	03ee0100 	mvneq	r0, #0, 2
    1128:	03f40000 	mvnseq	r0, #0
    112c:	5a0e0000 	bpl	381134 <_etext+0x37f0cd>
    1130:	00000004 	andeq	r0, r0, r4
    1134:	00084b12 	andeq	r4, r8, r2, lsl fp
    1138:	0e440400 	cdpeq	4, 4, cr0, cr4, cr0, {0}
    113c:	00000bc3 	andeq	r0, r0, r3, asr #23
    1140:	00040901 	andeq	r0, r4, r1, lsl #18
    1144:	00041400 	andeq	r1, r4, r0, lsl #8
    1148:	045a0e00 	ldrbeq	r0, [sl], #-3584	; 0xfffff200
    114c:	470f0000 	strmi	r0, [pc, -r0]
    1150:	00000004 	andeq	r0, r0, r4
    1154:	000c2b12 	andeq	r2, ip, r2, lsl fp
    1158:	0e450400 	cdpeq	4, 4, cr0, cr5, cr0, {0}
    115c:	0000079e 	muleq	r0, lr, r7
    1160:	00042901 	andeq	r2, r4, r1, lsl #18
    1164:	00042f00 	andeq	r2, r4, r0, lsl #30
    1168:	045a0e00 	ldrbeq	r0, [sl], #-3584	; 0xfffff200
    116c:	13000000 	movwne	r0, #0
    1170:	000008e5 	andeq	r0, r0, r5, ror #17
    1174:	1b0e4604 	blne	39298c <_etext+0x390925>
    1178:	01000009 	tsteq	r0, r9
    117c:	00000440 	andeq	r0, r0, r0, asr #8
    1180:	00045a0e 	andeq	r5, r4, lr, lsl #20
    1184:	02000000 	andeq	r0, r0, #0
    1188:	04c20201 	strbeq	r0, [r2], #513	; 0x201
    118c:	04070000 	streq	r0, [r7], #-0
    1190:	0000009b 	muleq	r0, fp, r0
    1194:	008f0407 	addeq	r0, pc, r7, lsl #8
    1198:	04070000 	streq	r0, [r7], #-0
    119c:	000001c8 	andeq	r0, r0, r8, asr #3
    11a0:	00045a05 	andeq	r5, r4, r5, lsl #20
    11a4:	08041400 	stmdaeq	r4, {sl, ip}
    11a8:	00380107 	eorseq	r0, r8, r7, lsl #2
    11ac:	09050000 	stmdbeq	r5, {}	; <UNPREDICTABLE>
    11b0:	000a320e 	andeq	r3, sl, lr, lsl #4
    11b4:	0004a400 	andeq	sl, r4, r0, lsl #8
    11b8:	06d60900 	ldrbeq	r0, [r6], r0, lsl #18
    11bc:	09000000 	stmdbeq	r0, {}	; <UNPREDICTABLE>
    11c0:	000006e0 	andeq	r0, r0, r0, ror #13
    11c4:	06ea0901 	strbteq	r0, [sl], r1, lsl #18
    11c8:	09020000 	stmdbeq	r2, {}	; <UNPREDICTABLE>
    11cc:	000008f0 	strdeq	r0, [r0], -r0	; <UNPREDICTABLE>
    11d0:	0a850903 	beq	fe1435e4 <_ebss+0xde141394>
    11d4:	09040000 	stmdbeq	r4, {}	; <UNPREDICTABLE>
    11d8:	00000c7b 	andeq	r0, r0, fp, ror ip
    11dc:	0a3f0905 	beq	fc35f8 <_etext+0xfc1591>
    11e0:	00060000 	andeq	r0, r6, r0
    11e4:	000a3403 	andeq	r3, sl, r3, lsl #8
    11e8:	03110500 	tsteq	r1, #0, 10
    11ec:	00000467 	andeq	r0, r0, r7, ror #8
    11f0:	000c610a 	andeq	r6, ip, sl, lsl #2
    11f4:	14050400 	strne	r0, [r5], #-1024	; 0xfffffc00
    11f8:	00052c07 	andeq	r2, r5, r7, lsl #24
    11fc:	0c560c00 	mrrceq	12, 0, r0, r6, cr0
    1200:	16050000 	strne	r0, [r5], -r0
    1204:	0000b112 	andeq	fp, r0, r2, lsl r1
    1208:	73120000 	tstvc	r2, #0
    120c:	05000008 	streq	r0, [r0, #-8]
    1210:	0a0f0e18 	beq	3c4a78 <_etext+0x3c2a11>
    1214:	df010000 	svcle	0x00010000
    1218:	ea000004 	b	1230 <I2C_ReadBytes+0x90>
    121c:	0e000004 	cdpeq	0, 0, cr0, cr0, cr4, {0}
    1220:	0000052c 	andeq	r0, r0, ip, lsr #10
    1224:	0004a40f 	andeq	sl, r4, pc, lsl #8
    1228:	61110000 	tstvs	r1, r0
    122c:	0500000c 	streq	r0, [r0, #-12]
    1230:	0a660919 	beq	198369c <_etext+0x1981635>
    1234:	052c0000 	streq	r0, [ip, #-0]!
    1238:	03010000 	movweq	r0, #4096	; 0x1000
    123c:	09000005 	stmdbeq	r0, {r0, r2}
    1240:	0e000005 	cdpeq	0, 0, cr0, cr0, cr5, {0}
    1244:	0000052c 	andeq	r0, r0, ip, lsr #10
    1248:	6f6c1500 	svcvs	0x006c1500
    124c:	1a050067 	bne	1413f0 <_etext+0x13f389>
    1250:	0009e60e 	andeq	lr, r9, lr, lsl #12
    1254:	051a0100 	ldreq	r0, [sl, #-256]	; 0xffffff00
    1258:	2c0e0000 	stccs	0, cr0, [lr], {-0}
    125c:	0f000005 	svceq	0x00000005
    1260:	000004a4 	andeq	r0, r0, r4, lsr #9
    1264:	0000c20f 	andeq	ip, r0, pc, lsl #4
    1268:	00001600 	andeq	r1, r0, r0, lsl #12
    126c:	04b00407 	ldrteq	r0, [r0], #1031	; 0x407
    1270:	85170000 	ldrhi	r0, [r7, #-0]
    1274:	0500000c 	streq	r0, [r0, #-12]
    1278:	04b0171e 	ldrteq	r1, [r0], #1822	; 0x71e
    127c:	07080000 	streq	r0, [r8, -r0]
    1280:	00003801 	andeq	r3, r0, r1, lsl #16
    1284:	0e910600 	cdpeq	6, 9, cr0, cr1, cr0, {0}
    1288:	0000048a 	andeq	r0, r0, sl, lsl #9
    128c:	00000581 	andeq	r0, r0, r1, lsl #11
    1290:	00051909 	andeq	r1, r5, r9, lsl #18
    1294:	05090000 	streq	r0, [r9, #-0]
    1298:	01000005 	tsteq	r0, r5
    129c:	00052309 	andeq	r2, r5, r9, lsl #6
    12a0:	2d090200 	sfmcs	f0, 4, [r9, #-0]
    12a4:	03000005 	movweq	r0, #5
    12a8:	00050f09 	andeq	r0, r5, r9, lsl #30
    12ac:	37090400 	strcc	r0, [r9, -r0, lsl #8]
    12b0:	05000005 	streq	r0, [r0, #-5]
    12b4:	00054109 	andeq	r4, r5, r9, lsl #2
    12b8:	4b090600 	blmi	242ac0 <_etext+0x240a59>
    12bc:	07000005 	streq	r0, [r0, -r5]
    12c0:	048b0300 	streq	r0, [fp], #768	; 0x300
    12c4:	9a060000 	bls	1812cc <_etext+0x17f265>
    12c8:	00053e03 	andeq	r3, r5, r3, lsl #28
    12cc:	70731800 	rsbsvc	r1, r3, r0, lsl #16
    12d0:	3d010069 	stccc	0, cr0, [r1, #-420]	; 0xfffffe5c
    12d4:	00045a16 	andeq	r5, r4, r6, lsl sl
    12d8:	08030500 	stmdaeq	r3, {r8, sl}
    12dc:	19200022 	stmdbne	r0!, {r1, r5}
    12e0:	000000ac 	andeq	r0, r0, ip, lsr #1
    12e4:	000005b0 			; <UNDEFINED> instruction: 0x000005b0
    12e8:	0000881a 	andeq	r8, r0, sl, lsl r8
    12ec:	0003ff00 	andeq	pc, r3, r0, lsl #30
    12f0:	00059f06 	andeq	r9, r5, r6, lsl #30
    12f4:	08411b00 	stmdaeq	r1, {r8, r9, fp, ip}^
    12f8:	4b010000 	blmi	41300 <_etext+0x3f299>
    12fc:	0005b01a 	andeq	fp, r5, sl, lsl r0
    1300:	00030500 	andeq	r0, r3, r0, lsl #10
    1304:	1b000000 	blne	130c <I2C_ReadBytes+0x16c>
    1308:	00000972 	andeq	r0, r0, r2, ror r9
    130c:	ac1a4c01 	ldcge	12, cr4, [sl], {1}
    1310:	05000000 	streq	r0, [r0, #-0]
    1314:	00000003 	andeq	r0, r0, r3
    1318:	01d51c00 	bicseq	r1, r5, r0, lsl #24
    131c:	4d010000 	stcmi	0, cr0, [r1, #-0]
    1320:	0008bb09 	andeq	fp, r8, r9, lsl #22
    1324:	00030500 	andeq	r0, r3, r0, lsl #10
    1328:	1d000000 	stcne	0, cr0, [r0, #-0]
    132c:	0000042f 	andeq	r0, r0, pc, lsr #8
    1330:	06014f01 	streq	r4, [r1], -r1, lsl #30
    1334:	00000606 	andeq	r0, r0, r6, lsl #12
    1338:	00000000 	andeq	r0, r0, r0
    133c:	0000001a 	andeq	r0, r0, sl, lsl r0
    1340:	06139c01 	ldreq	r9, [r3], -r1, lsl #24
    1344:	0c1e0000 	ldceq	0, cr0, [lr], {-0}
    1348:	60000008 	andvs	r0, r0, r8
    134c:	02000004 	andeq	r0, r0, #4
    1350:	1d007491 	cfstrsne	mvf7, [r0, #-580]	; 0xfffffdbc
    1354:	00000414 	andeq	r0, r0, r4, lsl r4
    1358:	06014b01 	streq	r4, [r1], -r1, lsl #22
    135c:	0000062e 	andeq	r0, r0, lr, lsr #12
    1360:	00000000 	andeq	r0, r0, r0
    1364:	0000001a 	andeq	r0, r0, sl, lsl r0
    1368:	063b9c01 	ldrteq	r9, [fp], -r1, lsl #24
    136c:	0c1e0000 	ldceq	0, cr0, [lr], {-0}
    1370:	60000008 	andvs	r0, r0, r8
    1374:	02000004 	andeq	r0, r0, #4
    1378:	1d007491 	cfstrsne	mvf7, [r0, #-580]	; 0xfffffdbc
    137c:	000003f4 	strdeq	r0, [r0], -r4
    1380:	06014701 	streq	r4, [r1], -r1, lsl #14
    1384:	00000656 	andeq	r0, r0, r6, asr r6
    1388:	00000000 	andeq	r0, r0, r0
    138c:	0000001c 	andeq	r0, r0, ip, lsl r0
    1390:	06739c01 	ldrbteq	r9, [r3], -r1, lsl #24
    1394:	0c1e0000 	ldceq	0, cr0, [lr], {-0}
    1398:	60000008 	andvs	r0, r0, r8
    139c:	02000004 	andeq	r0, r0, #4
    13a0:	991f7491 	ldmdbls	pc, {r0, r4, r7, sl, ip, sp, lr}	; <UNPREDICTABLE>
    13a4:	01000005 	tsteq	r0, r5
    13a8:	472c0147 	strmi	r0, [ip, -r7, asr #2]!
    13ac:	02000004 	andeq	r0, r0, #4
    13b0:	1d007391 	stcne	3, cr7, [r0, #-580]	; 0xfffffdbc
    13b4:	000003d9 	ldrdeq	r0, [r0], -r9
    13b8:	06012901 	streq	r2, [r1], -r1, lsl #18
    13bc:	0000068e 	andeq	r0, r0, lr, lsl #13
    13c0:	00000000 	andeq	r0, r0, r0
    13c4:	000000bc 	strheq	r0, [r0], -ip
    13c8:	06ab9c01 	strteq	r9, [fp], r1, lsl #24
    13cc:	0c1e0000 	ldceq	0, cr0, [lr], {-0}
    13d0:	60000008 	andvs	r0, r0, r8
    13d4:	02000004 	andeq	r0, r0, #4
    13d8:	3d206c91 	stccc	12, cr6, [r0, #-580]!	; 0xfffffdbc
    13dc:	0100000c 	tsteq	r0, ip
    13e0:	b10c012a 	tstlt	ip, sl, lsr #2
    13e4:	02000000 	andeq	r0, r0, #0
    13e8:	21007491 			; <UNDEFINED> instruction: 0x21007491
    13ec:	0000037a 	andeq	r0, r0, sl, ror r3
    13f0:	14012101 	strne	r2, [r1], #-257	; 0xfffffeff
    13f4:	000006c6 	andeq	r0, r0, r6, asr #13
    13f8:	00000000 	andeq	r0, r0, r0
    13fc:	00000034 	andeq	r0, r0, r4, lsr r0
    1400:	06e39c01 	strbteq	r9, [r3], r1, lsl #24
    1404:	0c1e0000 	ldceq	0, cr0, [lr], {-0}
    1408:	60000008 	andvs	r0, r0, r8
    140c:	02000004 	andeq	r0, r0, #4
    1410:	3d206c91 	stccc	12, cr6, [r0, #-580]!	; 0xfffffdbc
    1414:	0100000c 	tsteq	r0, ip
    1418:	bc160122 	ldflts	f0, [r6], {34}	; 0x22
    141c:	02000001 	andeq	r0, r0, #1
    1420:	21007791 			; <UNDEFINED> instruction: 0x21007791
    1424:	0000035b 	andeq	r0, r0, fp, asr r3
    1428:	14011a01 	strne	r1, [r1], #-2561	; 0xfffff5ff
    142c:	000006fe 	strdeq	r0, [r0], -lr
    1430:	00000000 	andeq	r0, r0, r0
    1434:	00000034 	andeq	r0, r0, r4, lsr r0
    1438:	071b9c01 	ldreq	r9, [fp, -r1, lsl #24]
    143c:	0c1e0000 	ldceq	0, cr0, [lr], {-0}
    1440:	60000008 	andvs	r0, r0, r8
    1444:	02000004 	andeq	r0, r0, #4
    1448:	3d206c91 	stccc	12, cr6, [r0, #-580]!	; 0xfffffdbc
    144c:	0100000c 	tsteq	r0, ip
    1450:	bc16011b 	ldflts	f0, [r6], {27}
    1454:	02000001 	andeq	r0, r0, #1
    1458:	22007791 	andcs	r7, r0, #38010880	; 0x2440000
    145c:	00000293 	muleq	r0, r3, r2
    1460:	3506fc01 	strcc	pc, [r6, #-3073]	; 0xfffff3ff
    1464:	00000007 	andeq	r0, r0, r7
    1468:	74000000 	strvc	r0, [r0], #-0
    146c:	01000001 	tsteq	r0, r1
    1470:	0007429c 	muleq	r7, ip, r2
    1474:	080c1e00 	stmdaeq	ip, {r9, sl, fp, ip}
    1478:	04600000 	strbteq	r0, [r0], #-0
    147c:	91020000 	mrsls	r0, (UNDEF: 2)
    1480:	99230074 	stmdbls	r3!, {r2, r4, r5, r6}
    1484:	01000003 	tsteq	r0, r3
    1488:	075c06f3 	smmlsreq	ip, r3, r6, r0
    148c:	00000000 	andeq	r0, r0, r0
    1490:	00500000 	subseq	r0, r0, r0
    1494:	9c010000 	stcls	0, cr0, [r1], {-0}
    1498:	00000778 	andeq	r0, r0, r8, ror r7
    149c:	00080c1e 	andeq	r0, r8, lr, lsl ip
    14a0:	00046000 	andeq	r6, r4, r0
    14a4:	74910200 	ldrvc	r0, [r1], #512	; 0x200
    14a8:	000c7024 	andeq	r7, ip, r4, lsr #32
    14ac:	27f30100 	ldrbcs	r0, [r3, r0, lsl #2]!
    14b0:	00000081 	andeq	r0, r0, r1, lsl #1
    14b4:	00709102 	rsbseq	r9, r0, r2, lsl #2
    14b8:	0003b923 	andeq	fp, r3, r3, lsr #18
    14bc:	06ea0100 	strbteq	r0, [sl], r0, lsl #2
    14c0:	00000792 	muleq	r0, r2, r7
    14c4:	00000000 	andeq	r0, r0, r0
    14c8:	00000058 	andeq	r0, r0, r8, asr r0
    14cc:	07ae9c01 	streq	r9, [lr, r1, lsl #24]!
    14d0:	0c1e0000 	ldceq	0, cr0, [lr], {-0}
    14d4:	60000008 	andvs	r0, r0, r8
    14d8:	02000004 	andeq	r0, r0, #4
    14dc:	70247491 	mlavc	r4, r1, r4, r7
    14e0:	0100000c 	tsteq	r0, ip
    14e4:	008129ea 	addeq	r2, r1, sl, ror #19
    14e8:	91020000 	mrsls	r0, (UNDEF: 2)
    14ec:	32230070 	eorcc	r0, r3, #112	; 0x70
    14f0:	01000003 	tsteq	r0, r3
    14f4:	07c809d6 			; <UNDEFINED> instruction: 0x07c809d6
    14f8:	19500000 	ldmdbne	r0, {}^	; <UNPREDICTABLE>
    14fc:	00ac0000 	adceq	r0, ip, r0
    1500:	9c010000 	stcls	0, cr0, [r1], {-0}
    1504:	00000802 	andeq	r0, r0, r2, lsl #16
    1508:	00080c1e 	andeq	r0, r8, lr, lsl ip
    150c:	00046000 	andeq	r6, r4, r0
    1510:	64910200 	ldrvs	r0, [r1], #512	; 0x200
    1514:	00098d24 	andeq	r8, r9, r4, lsr #26
    1518:	25d60100 	ldrbcs	r0, [r6, #256]	; 0x100
    151c:	000000b1 	strheq	r0, [r0], -r1
    1520:	24609102 	strbtcs	r9, [r0], #-258	; 0xfffffefe
    1524:	000008dd 	ldrdeq	r0, [r0], -sp
    1528:	6532d601 	ldrvs	sp, [r2, #-1537]!	; 0xfffff9ff
    152c:	02000004 	andeq	r0, r0, #4
    1530:	3d1b5c91 	ldccc	12, cr5, [fp, #-580]	; 0xfffffdbc
    1534:	0100000c 	tsteq	r0, ip
    1538:	008f0bd7 	ldrdeq	r0, [pc], r7
    153c:	91020000 	mrsls	r0, (UNDEF: 2)
    1540:	0923006f 	stmdbeq	r3!, {r0, r1, r2, r3, r5, r6}
    1544:	01000003 	tsteq	r0, r3
    1548:	081c09bd 	ldmdaeq	ip, {r0, r2, r3, r4, r5, r7, r8, fp}
    154c:	18740000 	ldmdane	r4!, {}^	; <UNPREDICTABLE>
    1550:	00dc0000 	sbcseq	r0, ip, r0
    1554:	9c010000 	stcls	0, cr0, [r1], {-0}
    1558:	00000856 	andeq	r0, r0, r6, asr r8
    155c:	00080c1e 	andeq	r0, r8, lr, lsl ip
    1560:	00046000 	andeq	r6, r4, r0
    1564:	6c910200 	lfmvs	f0, 4, [r1], {0}
    1568:	000aa824 	andeq	sl, sl, r4, lsr #16
    156c:	26bd0100 	ldrtcs	r0, [sp], r0, lsl #2
    1570:	000000b1 	strheq	r0, [r0], -r1
    1574:	24689102 	strbtcs	r9, [r8], #-258	; 0xfffffefe
    1578:	00000c9c 	muleq	r0, ip, ip
    157c:	6533bd01 	ldrvs	fp, [r3, #-3329]!	; 0xfffff2ff
    1580:	02000004 	andeq	r0, r0, #4
    1584:	3d1b6491 	cfldrscc	mvf6, [fp, #-580]	; 0xfffffdbc
    1588:	0100000c 	tsteq	r0, ip
    158c:	008f0bbe 			; <UNDEFINED> instruction: 0x008f0bbe
    1590:	91020000 	mrsls	r0, (UNDEF: 2)
    1594:	e0230077 	eor	r0, r3, r7, ror r0
    1598:	01000002 	tsteq	r0, r2
    159c:	087009a4 	ldmdaeq	r0!, {r2, r5, r7, r8, fp}^
    15a0:	00000000 	andeq	r0, r0, r0
    15a4:	00b80000 	adcseq	r0, r8, r0
    15a8:	9c010000 	stcls	0, cr0, [r1], {-0}
    15ac:	000008aa 	andeq	r0, r0, sl, lsr #17
    15b0:	00080c1e 	andeq	r0, r8, lr, lsl ip
    15b4:	00046000 	andeq	r6, r4, r0
    15b8:	6c910200 	lfmvs	f0, 4, [r1], {0}
    15bc:	000b9c24 	andeq	r9, fp, r4, lsr #24
    15c0:	2ea40100 	fdvcss	f0, f4, f0
    15c4:	00000148 	andeq	r0, r0, r8, asr #2
    15c8:	246b9102 	strbtcs	r9, [fp], #-258	; 0xfffffefe
    15cc:	00000c4e 	andeq	r0, r0, lr, asr #24
    15d0:	8f41a401 	svchi	0x0041a401
    15d4:	02000000 	andeq	r0, r0, #0
    15d8:	851b6a91 	ldrhi	r6, [fp, #-2705]	; 0xfffff56f
    15dc:	01000009 	tsteq	r0, r9
    15e0:	00b10ca5 	adcseq	r0, r1, r5, lsr #25
    15e4:	91020000 	mrsls	r0, (UNDEF: 2)
    15e8:	9f250074 	svcls	0x00250074
    15ec:	01000008 	tsteq	r0, r8
    15f0:	008f1094 	umulleq	r1, pc, r4, r0	; <UNPREDICTABLE>
    15f4:	00000000 	andeq	r0, r0, r0
    15f8:	003e0000 	eorseq	r0, lr, r0
    15fc:	9c010000 	stcls	0, cr0, [r1], {-0}
    1600:	000008d4 	ldrdeq	r0, [r0], -r4
    1604:	000b7b24 	andeq	r7, fp, r4, lsr #22
    1608:	2c940100 	ldfcss	f0, [r4], {0}
    160c:	00000148 	andeq	r0, r0, r8, asr #2
    1610:	00779102 	rsbseq	r9, r7, r2, lsl #2
    1614:	0007fd25 	andeq	pc, r7, r5, lsr #26
    1618:	10850100 	addne	r0, r5, r0, lsl #2
    161c:	0000008f 	andeq	r0, r0, pc, lsl #1
    1620:	00000000 	andeq	r0, r0, r0
    1624:	00000046 	andeq	r0, r0, r6, asr #32
    1628:	08fe9c01 	ldmeq	lr!, {r0, sl, fp, ip, pc}^
    162c:	7b240000 	blvc	901634 <_etext+0x8ff5cd>
    1630:	0100000b 	tsteq	r0, fp
    1634:	01482985 	smlalbbeq	r2, r8, r5, r9
    1638:	91020000 	mrsls	r0, (UNDEF: 2)
    163c:	70230077 	eorvc	r0, r3, r7, ror r0
    1640:	01000002 	tsteq	r0, r2
    1644:	09180974 	ldmdbeq	r8, {r2, r4, r5, r6, r8, fp}
    1648:	00000000 	andeq	r0, r0, r0
    164c:	00240000 	eoreq	r0, r4, r0
    1650:	9c010000 	stcls	0, cr0, [r1], {-0}
    1654:	00000934 	andeq	r0, r0, r4, lsr r9
    1658:	00080c1e 	andeq	r0, r8, lr, lsl ip
    165c:	00046000 	andeq	r6, r4, r0
    1660:	74910200 	ldrvc	r0, [r1], #512	; 0x200
    1664:	00063e24 	andeq	r3, r6, r4, lsr #28
    1668:	31740100 	cmncc	r4, r0, lsl #2
    166c:	000000ff 	strdeq	r0, [r0], -pc	; <UNPREDICTABLE>
    1670:	00739102 	rsbseq	r9, r3, r2, lsl #2
    1674:	0002ad26 	andeq	sl, r2, r6, lsr #26
    1678:	014f0100 	mrseq	r0, (UNDEF: 95)
    167c:	00000945 	andeq	r0, r0, r5, asr #18
    1680:	00099900 	andeq	r9, r9, r0, lsl #18
    1684:	080c2700 	stmdaeq	ip, {r8, r9, sl, sp}
    1688:	04600000 	strbteq	r0, [r0], #-0
    168c:	fd280000 	stc2	0, cr0, [r8, #-0]
    1690:	01000006 	tsteq	r0, r6
    1694:	00ff254f 	rscseq	r2, pc, pc, asr #10
    1698:	9c280000 	stcls	0, cr0, [r8], #-0
    169c:	0100000b 	tsteq	r0, fp
    16a0:	0148374f 	cmpeq	r8, pc, asr #14
    16a4:	f7280000 			; <UNDEFINED> instruction: 0xf7280000
    16a8:	0100000a 	tsteq	r0, sl
    16ac:	00b14b4f 	adcseq	r4, r1, pc, asr #22
    16b0:	4e280000 	cdpmi	0, 2, cr0, cr8, cr0, {0}
    16b4:	0100000c 	tsteq	r0, ip
    16b8:	008f5d4f 	addeq	r5, pc, pc, asr #26
    16bc:	2a290000 	bcs	a416c4 <_etext+0xa3f65d>
    16c0:	00000c3d 	andeq	r0, r0, sp, lsr ip
    16c4:	8f0b5001 	svchi	0x000b5001
    16c8:	2a000000 	bcs	16d0 <PAD_SysClockSet+0x254>
    16cc:	0000094f 	andeq	r0, r0, pc, asr #18
    16d0:	b10c5101 	tstlt	ip, r1, lsl #2
    16d4:	00000000 	andeq	r0, r0, r0
    16d8:	09342b00 	ldmdbeq	r4!, {r8, r9, fp, sp}
    16dc:	07040000 	streq	r0, [r4, -r0]
    16e0:	09b40000 	ldmibeq	r4!, {}	; <UNPREDICTABLE>
    16e4:	00000000 	andeq	r0, r0, r0
    16e8:	01140000 	tsteq	r4, r0
    16ec:	9c010000 	stcls	0, cr0, [r1], {-0}
    16f0:	00000a0f 	andeq	r0, r0, pc, lsl #20
    16f4:	0009452c 	andeq	r4, r9, ip, lsr #10
    16f8:	6c910200 	lfmvs	f0, 4, [r1], {0}
    16fc:	00094e2c 	andeq	r4, r9, ip, lsr #28
    1700:	6b910200 	blvs	fe441f08 <_ebss+0xde43fcb8>
    1704:	00095a2c 	andeq	r5, r9, ip, lsr #20
    1708:	6a910200 	bvs	fe441f10 <_ebss+0xde43fcc0>
    170c:	0009662c 	andeq	r6, r9, ip, lsr #12
    1710:	64910200 	ldrvs	r0, [r1], #512	; 0x200
    1714:	0009722c 	andeq	r7, r9, ip, lsr #4
    1718:	00910200 	addseq	r0, r1, r0, lsl #4
    171c:	00097e2d 	andeq	r7, r9, sp, lsr #28
    1720:	0009f000 	andeq	pc, r9, r0
    1724:	097f2e00 	ldmdbeq	pc!, {r9, sl, fp, sp}^	; <UNPREDICTABLE>
    1728:	8b2e0000 	blhi	b81730 <_etext+0xb7f6c9>
    172c:	00000009 	andeq	r0, r0, r9
    1730:	00097e2f 	andeq	r7, r9, pc, lsr #28
    1734:	00000000 	andeq	r0, r0, r0
    1738:	0000e000 	andeq	lr, r0, r0
    173c:	097f3000 	ldmdbeq	pc!, {ip, sp}^	; <UNPREDICTABLE>
    1740:	91020000 	mrsls	r0, (UNDEF: 2)
    1744:	098b3077 	stmibeq	fp, {r0, r1, r2, r4, r5, r6, ip, sp}
    1748:	91020000 	mrsls	r0, (UNDEF: 2)
    174c:	31000070 	tstcc	r0, r0, ror r0
    1750:	00000abd 			; <UNDEFINED> instruction: 0x00000abd
    1754:	50064701 	andpl	r4, r6, r1, lsl #14
    1758:	24000018 	strcs	r0, [r0], #-24	; 0xffffffe8
    175c:	01000000 	mrseq	r0, (UNDEF: 0)
    1760:	000a449c 	muleq	sl, ip, r4
    1764:	05b12400 	ldreq	r2, [r1, #1024]!	; 0x400
    1768:	47010000 	strmi	r0, [r1, -r0]
    176c:	0000b11d 	andeq	fp, r0, sp, lsl r1
    1770:	74910200 	ldrvc	r0, [r1], #512	; 0x200
    1774:	00031b24 	andeq	r1, r3, r4, lsr #22
    1778:	2d470100 	stfcse	f0, [r7, #-0]
    177c:	00000454 	andeq	r0, r0, r4, asr r4
    1780:	00709102 	rsbseq	r9, r0, r2, lsl #2
    1784:	000aae31 	andeq	sl, sl, r1, lsr lr
    1788:	06430100 	strbeq	r0, [r3], -r0, lsl #2
    178c:	0000182c 	andeq	r1, r0, ip, lsr #16
    1790:	00000024 	andeq	r0, r0, r4, lsr #32
    1794:	0a799c01 	beq	1e687a0 <_etext+0x1e66739>
    1798:	b1240000 			; <UNDEFINED> instruction: 0xb1240000
    179c:	01000005 	tsteq	r0, r5
    17a0:	00b11e43 	adcseq	r1, r1, r3, asr #28
    17a4:	91020000 	mrsls	r0, (UNDEF: 2)
    17a8:	031b2474 	tsteq	fp, #116, 8	; 0x74000000
    17ac:	43010000 	movwmi	r0, #4096	; 0x1000
    17b0:	0004542e 	andeq	r5, r4, lr, lsr #8
    17b4:	70910200 	addsvc	r0, r1, r0, lsl #4
    17b8:	0c1d3200 	lfmeq	f3, 4, [sp], {-0}
    17bc:	3f010000 	svccc	0x00010000
    17c0:	0008fa06 	andeq	pc, r8, r6, lsl #20
    17c4:	00000000 	andeq	r0, r0, r0
    17c8:	00002000 	andeq	r2, r0, r0
    17cc:	a39c0100 	orrsge	r0, ip, #0, 2
    17d0:	2400000a 	strcs	r0, [r0], #-10
    17d4:	0000086c 	andeq	r0, r0, ip, ror #16
    17d8:	5a223f01 	bpl	8913e4 <_etext+0x88f37d>
    17dc:	02000004 	andeq	r0, r0, #4
    17e0:	33007491 	movwcc	r7, #1169	; 0x491
    17e4:	00000c91 	muleq	r0, r1, ip
    17e8:	b1112e01 	tstlt	r1, r1, lsl #28
    17ec:	00000000 	andeq	r0, r0, r0
    17f0:	58000000 	stmdapl	r0, {}	; <UNPREDICTABLE>
    17f4:	01000000 	mrseq	r0, (UNDEF: 0)
    17f8:	06fd249c 	usateq	r2, #29, ip, lsl #9
    17fc:	2e010000 	cdpcs	0, 0, cr0, cr1, cr0, {0}
    1800:	0000ff25 	andeq	pc, r0, r5, lsr #30
    1804:	77910200 	ldrvc	r0, [r1, r0, lsl #4]
    1808:	03480000 	movteq	r0, #32768	; 0x8000
    180c:	00040000 	andeq	r0, r4, r0
    1810:	00000902 	andeq	r0, r0, r2, lsl #18
    1814:	00000104 	andeq	r0, r0, r4, lsl #2
    1818:	ee040000 	cdp	0, 0, cr0, cr4, cr0, {0}
    181c:	eb00000d 	bl	1858 <SPI_ReadBytes+0x8>
    1820:	b0000000 	andlt	r0, r0, r0
    1824:	00000001 	andeq	r0, r0, r1
    1828:	d2000000 	andle	r0, r0, #0
    182c:	02000016 	andeq	r0, r0, #22
    1830:	01550601 	cmpeq	r5, r1, lsl #12
    1834:	b8030000 	stmdalt	r3, {}	; <UNPREDICTABLE>
    1838:	02000000 	andeq	r0, r0, #0
    183c:	0038182b 	eorseq	r1, r8, fp, lsr #16
    1840:	01020000 	mrseq	r0, (UNDEF: 2)
    1844:	00015308 	andeq	r5, r1, r8, lsl #6
    1848:	05020200 	streq	r0, [r2, #-512]	; 0xfffffe00
    184c:	000001c9 	andeq	r0, r0, r9, asr #3
    1850:	36070202 	strcc	r0, [r7], -r2, lsl #4
    1854:	02000001 	andeq	r0, r0, #1
    1858:	01b40504 			; <UNDEFINED> instruction: 0x01b40504
    185c:	6c030000 	stcvs	0, cr0, [r3], {-0}
    1860:	02000001 	andeq	r0, r0, #1
    1864:	0060194f 	rsbeq	r1, r0, pc, asr #18
    1868:	04020000 	streq	r0, [r2], #-0
    186c:	00018f07 	andeq	r8, r1, r7, lsl #30
    1870:	05080200 	streq	r0, [r8, #-512]	; 0xfffffe00
    1874:	000001af 	andeq	r0, r0, pc, lsr #3
    1878:	8a070802 	bhi	1c3888 <_etext+0x1c1821>
    187c:	04000001 	streq	r0, [r0], #-1
    1880:	6e690504 	cdpvs	5, 6, cr0, cr9, cr4, {0}
    1884:	04020074 	streq	r0, [r2], #-116	; 0xffffff8c
    1888:	00019407 	andeq	r9, r1, r7, lsl #8
    188c:	00ba0300 	adcseq	r0, sl, r0, lsl #6
    1890:	18030000 	stmdane	r3, {}	; <UNPREDICTABLE>
    1894:	00002c13 	andeq	r2, r0, r3, lsl ip
    1898:	016e0300 	cmneq	lr, r0, lsl #6
    189c:	30030000 	andcc	r0, r3, r0
    18a0:	00005414 	andeq	r5, r0, r4, lsl r4
    18a4:	04080200 	streq	r0, [r8], #-512	; 0xfffffe00
    18a8:	000001ee 	andeq	r0, r0, lr, ror #3
    18ac:	0000d905 	andeq	sp, r0, r5, lsl #18
    18b0:	08010200 	stmdaeq	r1, {r9}
    18b4:	0000015c 	andeq	r0, r0, ip, asr r1
    18b8:	c2020102 	andgt	r0, r2, #-2147483648	; 0x80000000
    18bc:	06000004 	streq	r0, [r0], -r4
    18c0:	00008304 	andeq	r8, r0, r4, lsl #6
    18c4:	01770700 	cmneq	r7, r0, lsl #14
    18c8:	01070000 	mrseq	r0, (UNDEF: 7)
    18cc:	00000038 	andeq	r0, r0, r8, lsr r0
    18d0:	e6060d04 	str	r0, [r6], -r4, lsl #26
    18d4:	08000000 	stmdaeq	r0, {}	; <UNPREDICTABLE>
    18d8:	0000011a 	andeq	r0, r0, sl, lsl r1
    18dc:	00c20800 	sbceq	r0, r2, r0, lsl #16
    18e0:	08010000 	stmdaeq	r1, {}	; <UNPREDICTABLE>
    18e4:	000001d3 	ldrdeq	r0, [r0], -r3
    18e8:	010e0802 	tsteq	lr, r2, lsl #16
    18ec:	00ff0000 	rscseq	r0, pc, r0
    18f0:	000d6d07 	andeq	r6, sp, r7, lsl #26
    18f4:	38010700 	stmdacc	r1, {r8, r9, sl}
    18f8:	04000000 	streq	r0, [r0], #-0
    18fc:	01110614 	tsteq	r1, r4, lsl r6
    1900:	f5080000 			; <UNDEFINED> instruction: 0xf5080000
    1904:	0000000c 	andeq	r0, r0, ip
    1908:	000d7a08 	andeq	r7, sp, r8, lsl #20
    190c:	3b080100 	blcc	201d14 <_etext+0x1ffcad>
    1910:	0200000d 	andeq	r0, r0, #13
    1914:	000d9708 	andeq	r9, sp, r8, lsl #14
    1918:	09000300 	stmdbeq	r0, {r8, r9}
    191c:	00000d16 	andeq	r0, r0, r6, lsl sp
    1920:	8f0a0901 	svchi	0x000a0901
    1924:	05000000 	streq	r0, [r0, #-0]
    1928:	00000003 	andeq	r0, r0, r3
    192c:	0cea0920 			; <UNDEFINED> instruction: 0x0cea0920
    1930:	0a010000 	beq	41938 <_etext+0x3f8d1>
    1934:	00008f0a 	andeq	r8, r0, sl, lsl #30
    1938:	00030500 	andeq	r0, r3, r0, lsl #10
    193c:	0a000000 	beq	1944 <_ZN12SPIInterface5writeEmPv+0xd0>
    1940:	00000083 	andeq	r0, r0, r3, lsl #1
    1944:	00000145 	andeq	r0, r0, r5, asr #2
    1948:	00007c0b 	andeq	r7, r0, fp, lsl #24
    194c:	0c003f00 	stceq	15, cr3, [r0], {-0}
    1950:	00000d8a 	andeq	r0, r0, sl, lsl #27
    1954:	35100c01 	ldrcc	r0, [r0, #-3073]	; 0xfffff3ff
    1958:	05000001 	streq	r0, [r0, #-1]
    195c:	00220c03 	eoreq	r0, r2, r3, lsl #24
    1960:	0dd20d20 	ldcleq	13, cr0, [r2, #128]	; 0x80
    1964:	51010000 	mrspl	r0, (UNDEF: 1)
    1968:	00000006 	andeq	r0, r0, r6
    196c:	00003800 	andeq	r3, r0, r0, lsl #16
    1970:	879c0100 	ldrhi	r0, [ip, r0, lsl #2]
    1974:	0e000001 	cdpeq	0, 0, cr0, cr0, cr1, {0}
    1978:	00000000 	andeq	r0, r0, r0
    197c:	0000001a 	andeq	r0, r0, sl, lsl r0
    1980:	000d4f0c 	andeq	r4, sp, ip, lsl #30
    1984:	11530100 	cmpne	r3, r0, lsl #2
    1988:	00000187 	andeq	r0, r0, r7, lsl #3
    198c:	00749102 	rsbseq	r9, r4, r2, lsl #2
    1990:	00830a00 	addeq	r0, r3, r0, lsl #20
    1994:	01970000 	orrseq	r0, r7, r0
    1998:	7c0b0000 	stcvc	0, cr0, [fp], {-0}
    199c:	02000000 	andeq	r0, r0, #0
    19a0:	0d210f00 	stceq	15, cr0, [r1, #-0]
    19a4:	4c010000 	stcmi	0, cr0, [r1], {-0}
    19a8:	000cbf06 	andeq	fp, ip, r6, lsl #30
    19ac:	00000000 	andeq	r0, r0, r0
    19b0:	00000e00 	andeq	r0, r0, r0, lsl #28
    19b4:	109c0100 	addsne	r0, ip, r0, lsl #2
    19b8:	00000d05 	andeq	r0, r0, r5, lsl #26
    19bc:	5b064401 	blpl	1929c8 <_etext+0x190961>
    19c0:	0000000d 	andeq	r0, r0, sp
    19c4:	44000000 	strmi	r0, [r0], #-0
    19c8:	01000000 	mrseq	r0, (UNDEF: 0)
    19cc:	0001ff9c 	muleq	r1, ip, pc	; <UNPREDICTABLE>
    19d0:	0d111100 	ldfeqs	f1, [r1, #-0]
    19d4:	44010000 	strmi	r0, [r1], #-0
    19d8:	00008f1b 	andeq	r8, r0, fp, lsl pc
    19dc:	6c910200 	lfmvs	f0, 4, [r1], {0}
    19e0:	00012811 	andeq	r2, r1, r1, lsl r8
    19e4:	2a440100 	bcs	1101dec <_etext+0x10ffd85>
    19e8:	0000008f 	andeq	r0, r0, pc, lsl #1
    19ec:	0e689102 	lgneqe	f1, f2
    19f0:	00000000 	andeq	r0, r0, r0
    19f4:	00000026 	andeq	r0, r0, r6, lsr #32
    19f8:	000cdf0c 	andeq	sp, ip, ip, lsl #30
    19fc:	11460100 	mrsne	r0, (UNDEF: 86)
    1a00:	000001ff 	strdeq	r0, [r0], -pc	; <UNPREDICTABLE>
    1a04:	00749102 	rsbseq	r9, r4, r2, lsl #2
    1a08:	00830a00 	addeq	r0, r3, r0, lsl #20
    1a0c:	020f0000 	andeq	r0, pc, #0
    1a10:	7c0b0000 	stcvc	0, cr0, [fp], {-0}
    1a14:	01000000 	mrseq	r0, (UNDEF: 0)
    1a18:	0d300d00 	ldceq	13, cr0, [r0, #-0]
    1a1c:	32010000 	andcc	r0, r1, #0
    1a20:	001a2806 	andseq	r2, sl, r6, lsl #16
    1a24:	0000a000 	andeq	sl, r0, r0
    1a28:	899c0100 	ldmibhi	ip, {r8}
    1a2c:	11000002 	tstne	r0, r2
    1a30:	00000cb6 			; <UNDEFINED> instruction: 0x00000cb6
    1a34:	8f1a3201 	svchi	0x001a3201
    1a38:	02000000 	andeq	r0, r0, #0
    1a3c:	28116c91 	ldmdacs	r1, {r0, r4, r7, sl, fp, sp, lr}
    1a40:	01000001 	tsteq	r0, r1
    1a44:	008f2d32 	addeq	r2, pc, r2, lsr sp	; <UNPREDICTABLE>
    1a48:	91020000 	mrsls	r0, (UNDEF: 2)
    1a4c:	0c171168 	ldfeqs	f1, [r7], {104}	; 0x68
    1a50:	32010000 	andcc	r0, r1, #0
    1a54:	0000b53c 	andeq	fp, r0, ip, lsr r5
    1a58:	64910200 	ldrvs	r0, [r1], #512	; 0x200
    1a5c:	001a3c12 	andseq	r3, sl, r2, lsl ip
    1a60:	00002c00 	andeq	r2, r0, r0, lsl #24
    1a64:	00026f00 	andeq	r6, r2, r0, lsl #30
    1a68:	0cdf0c00 	ldcleq	12, cr0, [pc], {0}
    1a6c:	34010000 	strcc	r0, [r1], #-0
    1a70:	0001ff11 	andeq	pc, r1, r1, lsl pc	; <UNPREDICTABLE>
    1a74:	74910200 	ldrvc	r0, [r1], #512	; 0x200
    1a78:	1a720e00 	bne	1c85280 <_etext+0x1c83219>
    1a7c:	00400000 	subeq	r0, r0, r0
    1a80:	df0c0000 	svcle	0x000c0000
    1a84:	0100000c 	tsteq	r0, ip
    1a88:	01ff113b 	mvnseq	r1, fp, lsr r1
    1a8c:	91020000 	mrsls	r0, (UNDEF: 2)
    1a90:	0d000070 	stceq	0, cr0, [r0, #-448]	; 0xfffffe40
    1a94:	00000cd3 	ldrdeq	r0, [r0], -r3
    1a98:	00061f01 	andeq	r1, r6, r1, lsl #30
    1a9c:	b4000000 	strlt	r0, [r0], #-0
    1aa0:	01000000 	mrseq	r0, (UNDEF: 0)
    1aa4:	0003039c 	muleq	r3, ip, r3
    1aa8:	0de41100 	stfeqe	f1, [r4]
    1aac:	1f010000 	svcne	0x00010000
    1ab0:	00008f1b 	andeq	r8, r0, fp, lsl pc
    1ab4:	6c910200 	lfmvs	f0, 4, [r1], {0}
    1ab8:	00012811 	andeq	r2, r1, r1, lsl r8
    1abc:	2f1f0100 	svccs	0x001f0100
    1ac0:	0000008f 	andeq	r0, r0, pc, lsl #1
    1ac4:	11689102 	cmnne	r8, r2, lsl #2
    1ac8:	00000ca4 	andeq	r0, r0, r4, lsr #25
    1acc:	b53e1f01 	ldrlt	r1, [lr, #-3841]!	; 0xfffff0ff
    1ad0:	02000000 	andeq	r0, r0, #0
    1ad4:	00126491 	mulseq	r2, r1, r4
    1ad8:	34000000 	strcc	r0, [r0], #-0
    1adc:	e9000000 	stmdb	r0, {}	; <UNPREDICTABLE>
    1ae0:	0c000002 	stceq	0, cr0, [r0], {2}
    1ae4:	00000cdf 	ldrdeq	r0, [r0], -pc	; <UNPREDICTABLE>
    1ae8:	ff112201 			; <UNDEFINED> instruction: 0xff112201
    1aec:	02000001 	andeq	r0, r0, #1
    1af0:	0e007491 	mcreq	4, 0, r7, cr0, cr1, {4}
    1af4:	00000000 	andeq	r0, r0, r0
    1af8:	0000004c 	andeq	r0, r0, ip, asr #32
    1afc:	000cdf0c 	andeq	sp, ip, ip, lsl #30
    1b00:	112a0100 			; <UNDEFINED> instruction: 0x112a0100
    1b04:	000001ff 	strdeq	r0, [r0], -pc	; <UNPREDICTABLE>
    1b08:	00709102 	rsbseq	r9, r0, r2, lsl #2
    1b0c:	0dc41300 	stcleq	3, cr1, [r4]
    1b10:	16010000 	strne	r0, [r1], -r0
    1b14:	00000006 	andeq	r0, r0, r6
    1b18:	00002c00 	andeq	r2, r0, r0, lsl #24
    1b1c:	299c0100 	ldmibcs	ip, {r8}
    1b20:	11000003 	tstne	r0, r3
    1b24:	00000da7 	andeq	r0, r0, r7, lsr #27
    1b28:	8f1d1601 	svchi	0x001d1601
    1b2c:	02000000 	andeq	r0, r0, #0
    1b30:	14007491 	strne	r7, [r0], #-1169	; 0xfffffb6f
    1b34:	00000db2 			; <UNDEFINED> instruction: 0x00000db2
    1b38:	fc060e01 	stc2	14, cr0, [r6], {1}
    1b3c:	2c000019 	stccs	0, cr0, [r0], {25}
    1b40:	01000000 	mrseq	r0, (UNDEF: 0)
    1b44:	0b7b119c 	bleq	1ec61bc <_etext+0x1ec4155>
    1b48:	0e010000 	cdpeq	0, 0, cr0, cr1, cr0, {0}
    1b4c:	00008f21 	andeq	r8, r0, r1, lsr #30
    1b50:	74910200 	ldrvc	r0, [r1], #512	; 0x200
    1b54:	03270000 			; <UNDEFINED> instruction: 0x03270000
    1b58:	00040000 	andeq	r0, r4, r0
    1b5c:	00000a46 	andeq	r0, r0, r6, asr #20
    1b60:	00000104 	andeq	r0, r0, r4, lsl #2
    1b64:	ba040000 	blt	101b6c <_etext+0xffb05>
    1b68:	eb00000e 	bl	1ba8 <_ZN14DebugInterface3logE10DebugLevelPKcz+0x4c>
    1b6c:	f0000000 			; <UNDEFINED> instruction: 0xf0000000
    1b70:	00000001 	andeq	r0, r0, r1
    1b74:	0b000000 	bleq	1b7c <_ZN14DebugInterface3logE10DebugLevelPKcz+0x20>
    1b78:	02000019 	andeq	r0, r0, #25
    1b7c:	01550601 	cmpeq	r5, r1, lsl #12
    1b80:	01020000 	mrseq	r0, (UNDEF: 2)
    1b84:	00015308 	andeq	r5, r1, r8, lsl #6
    1b88:	05020200 	streq	r0, [r2, #-512]	; 0xfffffe00
    1b8c:	000001c9 	andeq	r0, r0, r9, asr #3
    1b90:	36070202 	strcc	r0, [r7], -r2, lsl #4
    1b94:	02000001 	andeq	r0, r0, #1
    1b98:	01b40504 			; <UNDEFINED> instruction: 0x01b40504
    1b9c:	6c030000 	stcvs	0, cr0, [r3], {-0}
    1ba0:	02000001 	andeq	r0, r0, #1
    1ba4:	0054194f 	subseq	r1, r4, pc, asr #18
    1ba8:	04020000 	streq	r0, [r2], #-0
    1bac:	00018f07 	andeq	r8, r1, r7, lsl #30
    1bb0:	05080200 	streq	r0, [r8, #-512]	; 0xfffffe00
    1bb4:	000001af 	andeq	r0, r0, pc, lsr #3
    1bb8:	8a070802 	bhi	1c3bc8 <_etext+0x1c1b61>
    1bbc:	04000001 	streq	r0, [r0], #-1
    1bc0:	6e690504 	cdpvs	5, 6, cr0, cr9, cr4, {0}
    1bc4:	04020074 	streq	r0, [r2], #-116	; 0xffffff8c
    1bc8:	00019407 	andeq	r9, r1, r7, lsl #8
    1bcc:	016e0300 	cmneq	lr, r0, lsl #6
    1bd0:	30030000 	andcc	r0, r3, r0
    1bd4:	00004814 	andeq	r4, r0, r4, lsl r8
    1bd8:	04460300 	strbeq	r0, [r6], #-768	; 0xfffffd00
    1bdc:	28040000 	stmdacs	r4, {}	; <UNPREDICTABLE>
    1be0:	00008f1b 	andeq	r8, r0, fp, lsl pc
    1be4:	03950500 	orrseq	r0, r5, #0, 10
    1be8:	06040000 	streq	r0, [r4], -r0
    1bec:	0000a600 	andeq	sl, r0, r0, lsl #12
    1bf0:	03e50600 	mvneq	r0, #0, 12
    1bf4:	00a60000 	adceq	r0, r6, r0
    1bf8:	00000000 	andeq	r0, r0, r0
    1bfc:	97030407 	strls	r0, [r3, -r7, lsl #8]
    1c00:	04000003 	streq	r0, [r0], #-3
    1c04:	00831863 	addeq	r1, r3, r3, ror #16
    1c08:	04080000 	streq	r0, [r8], #-0
    1c0c:	000000c6 	andeq	r0, r0, r6, asr #1
    1c10:	0000b409 	andeq	fp, r0, r9, lsl #8
    1c14:	08010200 	stmdaeq	r1, {r9}
    1c18:	0000015c 	andeq	r0, r0, ip, asr r1
    1c1c:	0000bf09 	andeq	fp, r0, r9, lsl #30
    1c20:	01070a00 	tsteq	r7, r0, lsl #20
    1c24:	0000002c 	andeq	r0, r0, ip, lsr #32
    1c28:	320e0905 	andcc	r0, lr, #81920	; 0x14000
    1c2c:	0800000a 	stmdaeq	r0, {r1, r3}
    1c30:	0b000001 	bleq	1c3c <memset+0x58>
    1c34:	000006d6 	ldrdeq	r0, [r0], -r6
    1c38:	06e00b00 	strbteq	r0, [r0], r0, lsl #22
    1c3c:	0b010000 	bleq	41c44 <_etext+0x3fbdd>
    1c40:	000006ea 	andeq	r0, r0, sl, ror #13
    1c44:	08f00b02 	ldmeq	r0!, {r1, r8, r9, fp}^
    1c48:	0b030000 	bleq	c1c50 <_etext+0xbfbe9>
    1c4c:	00000a85 	andeq	r0, r0, r5, lsl #21
    1c50:	0c7b0b04 			; <UNDEFINED> instruction: 0x0c7b0b04
    1c54:	0b050000 	bleq	141c5c <_etext+0x13fbf5>
    1c58:	00000a3f 	andeq	r0, r0, pc, lsr sl
    1c5c:	34030006 	strcc	r0, [r3], #-6
    1c60:	0500000a 	streq	r0, [r0, #-10]
    1c64:	00cb0311 	sbceq	r0, fp, r1, lsl r3
    1c68:	08090000 	stmdaeq	r9, {}	; <UNPREDICTABLE>
    1c6c:	0c000001 	stceq	0, cr0, [r0], {1}
    1c70:	00000c61 	andeq	r0, r0, r1, ror #24
    1c74:	07140504 	ldreq	r0, [r4, -r4, lsl #10]
    1c78:	00000195 	muleq	r0, r5, r1
    1c7c:	000c560d 	andeq	r5, ip, sp, lsl #12
    1c80:	12160500 	andsne	r0, r6, #0, 10
    1c84:	00000077 	andeq	r0, r0, r7, ror r0
    1c88:	08730e00 	ldmdaeq	r3!, {r9, sl, fp}^
    1c8c:	18050000 	stmdane	r5, {}	; <UNPREDICTABLE>
    1c90:	000a0f0e 	andeq	r0, sl, lr, lsl #30
    1c94:	01480100 	mrseq	r0, (UNDEF: 88)
    1c98:	01530000 	cmpeq	r3, r0
    1c9c:	950f0000 	strls	r0, [pc, #-0]	; 1ca4 <memset+0xc0>
    1ca0:	10000001 	andne	r0, r0, r1
    1ca4:	00000108 	andeq	r0, r0, r8, lsl #2
    1ca8:	0c611100 	stfeqe	f1, [r1], #-0
    1cac:	19050000 	stmdbne	r5, {}	; <UNPREDICTABLE>
    1cb0:	000a6609 	andeq	r6, sl, r9, lsl #12
    1cb4:	00019500 	andeq	r9, r1, r0, lsl #10
    1cb8:	016c0100 	cmneq	ip, r0, lsl #2
    1cbc:	01720000 	cmneq	r2, r0
    1cc0:	950f0000 	strls	r0, [pc, #-0]	; 1cc8 <memset+0xe4>
    1cc4:	00000001 	andeq	r0, r0, r1
    1cc8:	676f6c12 			; <UNDEFINED> instruction: 0x676f6c12
    1ccc:	0e1a0500 	cfmul32eq	mvfx0, mvfx10, mvfx0
    1cd0:	000009e6 	andeq	r0, r0, r6, ror #19
    1cd4:	00018301 	andeq	r8, r1, r1, lsl #6
    1cd8:	01950f00 	orrseq	r0, r5, r0, lsl #30
    1cdc:	08100000 	ldmdaeq	r0, {}	; <UNPREDICTABLE>
    1ce0:	10000001 	andne	r0, r0, r1
    1ce4:	000000b4 	strheq	r0, [r0], -r4
    1ce8:	08000013 	stmdaeq	r0, {r0, r1, r4}
    1cec:	00011904 	andeq	r1, r1, r4, lsl #18
    1cf0:	01950900 	orrseq	r0, r5, r0, lsl #18
    1cf4:	85140000 	ldrhi	r0, [r4, #-0]
    1cf8:	0500000c 	streq	r0, [r0, #-12]
    1cfc:	0119171e 	tsteq	r9, lr, lsl r7
    1d00:	a0150000 	andsge	r0, r5, r0
    1d04:	01000001 	tsteq	r0, r1
    1d08:	0305104e 	movweq	r1, #20558	; 0x504e
    1d0c:	2000224c 	andcs	r2, r0, ip, asr #4
    1d10:	000e1c16 	andeq	r1, lr, r6, lsl ip
    1d14:	00000000 	andeq	r0, r0, r0
    1d18:	00001000 	andeq	r1, r0, r0
    1d1c:	179c0100 	ldrne	r0, [ip, r0, lsl #2]
    1d20:	00000e7c 	andeq	r0, r0, ip, ror lr
    1d24:	00000000 	andeq	r0, r0, r0
    1d28:	0000002c 	andeq	r0, r0, ip, lsr #32
    1d2c:	01fb9c01 	mvnseq	r9, r1, lsl #24
    1d30:	63180000 	tstvs	r8, #0
    1d34:	0100000e 	tsteq	r0, lr
    1d38:	00691b4e 	rsbeq	r1, r9, lr, asr #22
    1d3c:	91020000 	mrsls	r0, (UNDEF: 2)
    1d40:	0ea61874 	mcreq	8, 5, r1, cr6, cr4, {3}
    1d44:	4e010000 	cdpmi	0, 0, cr0, cr1, cr0, {0}
    1d48:	0000691b 	andeq	r6, r0, fp, lsl r9
    1d4c:	70910200 	addsvc	r0, r1, r0, lsl #4
    1d50:	01721900 	cmneq	r2, r0, lsl #18
    1d54:	30010000 	andcc	r0, r1, r0
    1d58:	00021506 	andeq	r1, r2, r6, lsl #10
    1d5c:	001b5c00 	andseq	r5, fp, r0, lsl #24
    1d60:	00008800 	andeq	r8, r0, r0, lsl #16
    1d64:	509c0100 	addspl	r0, ip, r0, lsl #2
    1d68:	1a000002 	bne	1d78 <memset+0x194>
    1d6c:	0000080c 	andeq	r0, r0, ip, lsl #16
    1d70:	0000019b 	muleq	r0, fp, r1
    1d74:	18649102 	stmdane	r4!, {r1, r8, ip, pc}^
    1d78:	00000e76 	andeq	r0, r0, r6, ror lr
    1d7c:	08253001 	stmdaeq	r5!, {r0, ip, sp}
    1d80:	02000001 	andeq	r0, r0, #1
    1d84:	36186391 			; <UNDEFINED> instruction: 0x36186391
    1d88:	01000003 	tsteq	r0, r3
    1d8c:	00b43830 	adcseq	r3, r4, r0, lsr r8
    1d90:	91020000 	mrsls	r0, (UNDEF: 2)
    1d94:	261b1378 			; <UNDEFINED> instruction: 0x261b1378
    1d98:	01000003 	tsteq	r0, r3
    1d9c:	00a80d31 	adceq	r0, r8, r1, lsr sp
    1da0:	91020000 	mrsls	r0, (UNDEF: 2)
    1da4:	331c006c 	tstcc	ip, #108	; 0x6c
    1da8:	01000001 	tsteq	r0, r1
    1dac:	026a062a 	rsbeq	r0, sl, #44040192	; 0x2a00000
    1db0:	00000000 	andeq	r0, r0, r0
    1db4:	00240000 	eoreq	r0, r4, r0
    1db8:	9c010000 	stcls	0, cr0, [r1], {-0}
    1dbc:	00000286 	andeq	r0, r0, r6, lsl #5
    1dc0:	00080c1a 	andeq	r0, r8, sl, lsl ip
    1dc4:	00019b00 	andeq	r9, r1, r0, lsl #22
    1dc8:	74910200 	ldrvc	r0, [r1], #512	; 0x200
    1dcc:	000e7618 	andeq	r7, lr, r8, lsl r6
    1dd0:	2f2a0100 	svccs	0x002a0100
    1dd4:	00000108 	andeq	r0, r0, r8, lsl #2
    1dd8:	00739102 	rsbseq	r9, r3, r2, lsl #2
    1ddc:	0001531d 	andeq	r5, r1, sp, lsl r3
    1de0:	01260100 			; <UNDEFINED> instruction: 0x01260100
    1de4:	00000297 	muleq	r0, r7, r2
    1de8:	0002a100 	andeq	sl, r2, r0, lsl #2
    1dec:	080c1e00 	stmdaeq	ip, {r9, sl, fp, ip}
    1df0:	019b0000 	orrseq	r0, fp, r0
    1df4:	1f000000 	svcne	0x00000000
    1df8:	00000286 	andeq	r0, r0, r6, lsl #5
    1dfc:	00000e35 	andeq	r0, r0, r5, lsr lr
    1e00:	000002bc 			; <UNDEFINED> instruction: 0x000002bc
    1e04:	00000000 	andeq	r0, r0, r0
    1e08:	0000001c 	andeq	r0, r0, ip, lsl r0
    1e0c:	02c59c01 	sbceq	r9, r5, #256	; 0x100
    1e10:	97200000 	strls	r0, [r0, -r0]!
    1e14:	02000002 	andeq	r0, r0, #2
    1e18:	21007491 			; <UNDEFINED> instruction: 0x21007491
    1e1c:	00000e4d 	andeq	r0, r0, sp, asr #28
    1e20:	ba1b1101 	blt	6c622c <_etext+0x6c41c5>
    1e24:	e8000000 	stmda	r0, {}	; <UNPREDICTABLE>
    1e28:	7400001a 	strvc	r0, [r0], #-26	; 0xffffffe6
    1e2c:	01000000 	mrseq	r0, (UNDEF: 0)
    1e30:	0002ef9c 	muleq	r2, ip, pc	; <UNPREDICTABLE>
    1e34:	0e721800 	cdpeq	8, 7, cr1, cr2, cr0, {0}
    1e38:	11010000 	mrsne	r0, (UNDEF: 1)
    1e3c:	00011442 	andeq	r1, r1, r2, asr #8
    1e40:	77910200 	ldrvc	r0, [r1, r0, lsl #4]
    1e44:	0e2b2200 	cdpeq	2, 2, cr2, cr11, cr0, {0}
    1e48:	0b010000 	bleq	41e50 <_etext+0x3fde9>
    1e4c:	001ac806 	andseq	ip, sl, r6, lsl #16
    1e50:	00002000 	andeq	r2, r0, r0
    1e54:	249c0100 	ldrcs	r0, [ip], #256	; 0x100
    1e58:	18000003 	stmdane	r0, {r0, r1}
    1e5c:	00000e11 	andeq	r0, r0, r1, lsl lr
    1e60:	24160b01 	ldrcs	r0, [r6], #-2817	; 0xfffff4ff
    1e64:	02000003 	andeq	r0, r0, #3
    1e68:	b1187491 			; <UNDEFINED> instruction: 0xb1187491
    1e6c:	0100000e 	tsteq	r0, lr
    1e70:	00772b0b 	rsbseq	r2, r7, fp, lsl #22
    1e74:	91020000 	mrsls	r0, (UNDEF: 2)
    1e78:	04080070 	streq	r0, [r8], #-112	; 0xffffff90
    1e7c:	000000bf 	strheq	r0, [r0], -pc	; <UNPREDICTABLE>
	...

Disassembly of section .debug_abbrev:

00000000 <.debug_abbrev>:
   0:	25011101 	strcs	r1, [r1, #-257]	; 0xfffffeff
   4:	030b130e 	movweq	r1, #45838	; 0xb30e
   8:	550e1b0e 	strpl	r1, [lr, #-2830]	; 0xfffff4f2
   c:	10011117 	andne	r1, r1, r7, lsl r1
  10:	02000017 	andeq	r0, r0, #23
  14:	0b0b0024 	bleq	2c00ac <_etext+0x2be045>
  18:	0e030b3e 	vmoveq.16	d3[0], r0
  1c:	16030000 	strne	r0, [r3], -r0
  20:	3a0e0300 	bcc	380c28 <_etext+0x37ebc1>
  24:	390b3b0b 	stmdbcc	fp, {r0, r1, r3, r8, r9, fp, ip, sp}
  28:	0013490b 	andseq	r4, r3, fp, lsl #18
  2c:	00240400 	eoreq	r0, r4, r0, lsl #8
  30:	0b3e0b0b 	bleq	f82c64 <_etext+0xf80bfd>
  34:	00000803 	andeq	r0, r0, r3, lsl #16
  38:	03003b05 	movweq	r3, #2821	; 0xb05
  3c:	0600000e 	streq	r0, [r0], -lr
  40:	0b0b000f 	bleq	2c0084 <_etext+0x2be01d>
  44:	00001349 	andeq	r1, r0, r9, asr #6
  48:	03010407 	movweq	r0, #5127	; 0x1407
  4c:	0b0b3e0e 	bleq	2cf88c <_etext+0x2cd825>
  50:	3a13490b 	bcc	4d2484 <_etext+0x4d041d>
  54:	390b3b0b 	stmdbcc	fp, {r0, r1, r3, r8, r9, fp, ip, sp}
  58:	0013010b 	andseq	r0, r3, fp, lsl #2
  5c:	00280800 	eoreq	r0, r8, r0, lsl #16
  60:	0b1c0e03 	bleq	703874 <_etext+0x70180d>
  64:	01090000 	mrseq	r0, (UNDEF: 9)
  68:	01134901 	tsteq	r3, r1, lsl #18
  6c:	0a000013 	beq	c0 <g_pfnVectors+0xc0>
  70:	13490021 	movtne	r0, #36897	; 0x9021
  74:	0000052f 	andeq	r0, r0, pc, lsr #10
  78:	0300340b 	movweq	r3, #1035	; 0x40b
  7c:	3b0b3a0e 	blcc	2ce8bc <_etext+0x2cc855>
  80:	490b390b 	stmdbmi	fp, {r0, r1, r3, r8, fp, ip, sp}
  84:	02193f13 	andseq	r3, r9, #19, 30	; 0x4c
  88:	0c000018 	stceq	0, cr0, [r0], {24}
  8c:	193f012e 	ldmdbne	pc!, {r1, r2, r3, r5, r8}	; <UNPREDICTABLE>
  90:	0b3a0e03 	bleq	e838a4 <_etext+0xe8183d>
  94:	0b390b3b 	bleq	e42d88 <_etext+0xe40d21>
  98:	01111349 	tsteq	r1, r9, asr #6
  9c:	18400612 	stmdane	r0, {r1, r4, r9, sl}^
  a0:	01194296 			; <UNDEFINED> instruction: 0x01194296
  a4:	0d000013 	stceq	0, cr0, [r0, #-76]	; 0xffffffb4
  a8:	0e030034 	mcreq	0, 0, r0, cr3, cr4, {1}
  ac:	0b3b0b3a 	bleq	ec2d9c <_etext+0xec0d35>
  b0:	13490b39 	movtne	r0, #39737	; 0x9b39
  b4:	00001802 	andeq	r1, r0, r2, lsl #16
  b8:	0300340e 	movweq	r3, #1038	; 0x40e
  bc:	3b0b3a08 	blcc	2ce8e4 <_etext+0x2cc87d>
  c0:	490b390b 	stmdbmi	fp, {r0, r1, r3, r8, fp, ip, sp}
  c4:	00180213 	andseq	r0, r8, r3, lsl r2
  c8:	00210f00 	eoreq	r0, r1, r0, lsl #30
  cc:	0b2f1349 	bleq	bc4df8 <_etext+0xbc2d91>
  d0:	2e100000 	cdpcs	0, 1, cr0, cr0, cr0, {0}
  d4:	03193f01 	tsteq	r9, #1, 30
  d8:	3b0b3a0e 	blcc	2ce918 <_etext+0x2cc8b1>
  dc:	6e0b390b 	vmlavs.f16	s6, s22, s22	; <UNPREDICTABLE>
  e0:	1201110e 	andne	r1, r1, #-2147483645	; 0x80000003
  e4:	96184006 	ldrls	r4, [r8], -r6
  e8:	13011942 	movwne	r1, #6466	; 0x1942
  ec:	05110000 	ldreq	r0, [r1, #-0]
  f0:	3a0e0300 	bcc	380cf8 <_etext+0x37ec91>
  f4:	390b3b0b 	stmdbcc	fp, {r0, r1, r3, r8, r9, fp, ip, sp}
  f8:	0213490b 	andseq	r4, r3, #180224	; 0x2c000
  fc:	12000018 	andne	r0, r0, #24
 100:	193f002e 	ldmdbne	pc!, {r1, r2, r3, r5}	; <UNPREDICTABLE>
 104:	0b3a0e03 	bleq	e83918 <_etext+0xe818b1>
 108:	0b390b3b 	bleq	e42dfc <_etext+0xe40d95>
 10c:	01110e6e 	tsteq	r1, lr, ror #28
 110:	18400612 	stmdane	r0, {r1, r4, r9, sl}^
 114:	00194296 	mulseq	r9, r6, r2
 118:	11010000 	mrsne	r0, (UNDEF: 1)
 11c:	130e2501 	movwne	r2, #58625	; 0xe501
 120:	1b0e030b 	blne	380d54 <_etext+0x37eced>
 124:	1117550e 	tstne	r7, lr, lsl #10
 128:	00171001 	andseq	r1, r7, r1
 12c:	00240200 	eoreq	r0, r4, r0, lsl #4
 130:	0b3e0b0b 	bleq	f82d64 <_etext+0xf80cfd>
 134:	00000e03 	andeq	r0, r0, r3, lsl #28
 138:	03001603 	movweq	r1, #1539	; 0x603
 13c:	3b0b3a0e 	blcc	2ce97c <_etext+0x2cc915>
 140:	490b390b 	stmdbmi	fp, {r0, r1, r3, r8, fp, ip, sp}
 144:	04000013 	streq	r0, [r0], #-19	; 0xffffffed
 148:	0b0b0024 	bleq	2c01e0 <_etext+0x2be179>
 14c:	08030b3e 	stmdaeq	r3, {r1, r2, r3, r4, r5, r8, r9, fp}
 150:	01050000 	mrseq	r0, (UNDEF: 5)
 154:	01134901 	tsteq	r3, r1, lsl #18
 158:	06000013 			; <UNDEFINED> instruction: 0x06000013
 15c:	13490021 	movtne	r0, #36897	; 0x9021
 160:	00000b2f 	andeq	r0, r0, pc, lsr #22
 164:	03003407 	movweq	r3, #1031	; 0x407
 168:	3b0b3a0e 	blcc	2ce9a8 <_etext+0x2cc941>
 16c:	490b390b 	stmdbmi	fp, {r0, r1, r3, r8, fp, ip, sp}
 170:	00180213 	andseq	r0, r8, r3, lsl r2
 174:	00260800 	eoreq	r0, r6, r0, lsl #16
 178:	00001349 	andeq	r1, r0, r9, asr #6
 17c:	0b000f09 	bleq	3da8 <_etext+0x1d41>
 180:	0013490b 	andseq	r4, r3, fp, lsl #18
 184:	00150a00 	andseq	r0, r5, r0, lsl #20
 188:	00001927 	andeq	r1, r0, r7, lsr #18
 18c:	0300340b 	movweq	r3, #1035	; 0x40b
 190:	3b0b3a0e 	blcc	2ce9d0 <_etext+0x2cc969>
 194:	490b390b 	stmdbmi	fp, {r0, r1, r3, r8, fp, ip, sp}
 198:	02193f13 	andseq	r3, r9, #19, 30	; 0x4c
 19c:	0c000018 	stceq	0, cr0, [r0], {24}
 1a0:	0e030034 	mcreq	0, 0, r0, cr3, cr4, {1}
 1a4:	0b3b0b3a 	bleq	ec2e94 <_etext+0xec0e2d>
 1a8:	13490b39 	movtne	r0, #39737	; 0x9b39
 1ac:	193c193f 	ldmdbne	ip!, {r0, r1, r2, r3, r4, r5, r8, fp, ip}
 1b0:	2e0d0000 	cdpcs	0, 0, cr0, cr13, cr0, {0}
 1b4:	3a0e0300 	bcc	380dbc <_etext+0x37ed55>
 1b8:	39053b0b 	stmdbcc	r5, {r0, r1, r3, r8, r9, fp, ip, sp}
 1bc:	1119270b 	tstne	r9, fp, lsl #14
 1c0:	40061201 	andmi	r1, r6, r1, lsl #4
 1c4:	19429718 	stmdbne	r2, {r3, r4, r8, r9, sl, ip, pc}^
 1c8:	2e0e0000 	cdpcs	0, 0, cr0, cr14, cr0, {0}
 1cc:	03193f01 	tsteq	r9, #1, 30
 1d0:	3b0b3a0e 	blcc	2cea10 <_etext+0x2cc9a9>
 1d4:	270b390b 	strcs	r3, [fp, -fp, lsl #18]
 1d8:	12011119 	andne	r1, r1, #1073741830	; 0x40000006
 1dc:	96184006 	ldrls	r4, [r8], -r6
 1e0:	13011942 	movwne	r1, #6466	; 0x1942
 1e4:	01000000 	mrseq	r0, (UNDEF: 0)
 1e8:	0e250111 	mcreq	1, 1, r0, cr5, cr1, {0}
 1ec:	0e030b13 	vmoveq.32	d3[0], r0
 1f0:	17550e1b 	smmlane	r5, fp, lr, r0
 1f4:	17100111 			; <UNDEFINED> instruction: 0x17100111
 1f8:	16020000 	strne	r0, [r2], -r0
 1fc:	3a0e0300 	bcc	380e04 <_etext+0x37ed9d>
 200:	390b3b0b 	stmdbcc	fp, {r0, r1, r3, r8, r9, fp, ip, sp}
 204:	0013490b 	andseq	r4, r3, fp, lsl #18
 208:	00240300 	eoreq	r0, r4, r0, lsl #6
 20c:	0b3e0b0b 	bleq	f82e40 <_etext+0xf80dd9>
 210:	00000e03 	andeq	r0, r0, r3, lsl #28
 214:	0b002404 	bleq	922c <_etext+0x71c5>
 218:	030b3e0b 	movweq	r3, #48651	; 0xbe0b
 21c:	05000008 	streq	r0, [r0, #-8]
 220:	13490026 	movtne	r0, #36902	; 0x9026
 224:	13060000 	movwne	r0, #24576	; 0x6000
 228:	0b0e0301 	bleq	380e34 <_etext+0x37edcd>
 22c:	3b0b3a0b 	blcc	2cea60 <_etext+0x2cc9f9>
 230:	0013010b 	andseq	r0, r3, fp, lsl #2
 234:	000d0700 	andeq	r0, sp, r0, lsl #14
 238:	13490e03 	movtne	r0, #40451	; 0x9e03
 23c:	19340b38 	ldmdbne	r4!, {r3, r4, r5, r8, r9, fp}
 240:	0f080000 	svceq	0x00080000
 244:	000b0b00 	andeq	r0, fp, r0, lsl #22
 248:	00340900 	eorseq	r0, r4, r0, lsl #18
 24c:	0b3a0e03 	bleq	e83a60 <_etext+0xe819f9>
 250:	0b390b3b 	bleq	e42f44 <_etext+0xe40edd>
 254:	18021349 	stmdane	r2, {r0, r3, r6, r8, r9, ip}
 258:	0f0a0000 	svceq	0x000a0000
 25c:	490b0b00 	stmdbmi	fp, {r8, r9, fp}
 260:	0b000013 	bleq	2b4 <_Z11InitConsolev+0x48>
 264:	13490101 	movtne	r0, #37121	; 0x9101
 268:	00001301 	andeq	r1, r0, r1, lsl #6
 26c:	4900210c 	stmdbmi	r0, {r2, r3, r8, sp}
 270:	000b2f13 	andeq	r2, fp, r3, lsl pc
 274:	012e0d00 			; <UNDEFINED> instruction: 0x012e0d00
 278:	0e03193f 			; <UNDEFINED> instruction: 0x0e03193f
 27c:	053b0b3a 	ldreq	r0, [fp, #-2874]!	; 0xfffff4c6
 280:	19270b39 	stmdbne	r7!, {r0, r3, r4, r5, r8, r9, fp}
 284:	06120111 			; <UNDEFINED> instruction: 0x06120111
 288:	42961840 	addsmi	r1, r6, #64, 16	; 0x400000
 28c:	00130119 	andseq	r0, r3, r9, lsl r1
 290:	00050e00 	andeq	r0, r5, r0, lsl #28
 294:	0b3a0e03 	bleq	e83aa8 <_etext+0xe81a41>
 298:	0b39053b 	bleq	e4178c <_etext+0xe3f725>
 29c:	18021349 	stmdane	r2, {r0, r3, r6, r8, r9, ip}
 2a0:	180f0000 	stmdane	pc, {}	; <UNPREDICTABLE>
 2a4:	10000000 	andne	r0, r0, r0
 2a8:	0e030034 	mcreq	0, 0, r0, cr3, cr4, {1}
 2ac:	053b0b3a 	ldreq	r0, [fp, #-2874]!	; 0xfffff4c6
 2b0:	13490b39 	movtne	r0, #39737	; 0x9b39
 2b4:	00001802 	andeq	r1, r0, r2, lsl #16
 2b8:	03000a11 	movweq	r0, #2577	; 0xa11
 2bc:	3b0b3a0e 	blcc	2ceafc <_etext+0x2cca95>
 2c0:	110b3905 	tstne	fp, r5, lsl #18
 2c4:	12000001 	andne	r0, r0, #1
 2c8:	193f002e 	ldmdbne	pc!, {r1, r2, r3, r5}	; <UNPREDICTABLE>
 2cc:	0b3a0e03 	bleq	e83ae0 <_etext+0xe81a79>
 2d0:	0b39053b 	bleq	e417c4 <_etext+0xe3f75d>
 2d4:	13491927 	movtne	r1, #39207	; 0x9927
 2d8:	06120111 			; <UNDEFINED> instruction: 0x06120111
 2dc:	42961840 	addsmi	r1, r6, #64, 16	; 0x400000
 2e0:	13000019 	movwne	r0, #25
 2e4:	193f012e 	ldmdbne	pc!, {r1, r2, r3, r5, r8}	; <UNPREDICTABLE>
 2e8:	0b3a0e03 	bleq	e83afc <_etext+0xe81a95>
 2ec:	0b39053b 	bleq	e417e0 <_etext+0xe3f779>
 2f0:	13491927 	movtne	r1, #39207	; 0x9927
 2f4:	06120111 			; <UNDEFINED> instruction: 0x06120111
 2f8:	42961840 	addsmi	r1, r6, #64, 16	; 0x400000
 2fc:	00130119 	andseq	r0, r3, r9, lsl r1
 300:	012e1400 			; <UNDEFINED> instruction: 0x012e1400
 304:	0e03193f 			; <UNDEFINED> instruction: 0x0e03193f
 308:	053b0b3a 	ldreq	r0, [fp, #-2874]!	; 0xfffff4c6
 30c:	19270b39 	stmdbne	r7!, {r0, r3, r4, r5, r8, r9, fp}
 310:	06120111 			; <UNDEFINED> instruction: 0x06120111
 314:	42961840 	addsmi	r1, r6, #64, 16	; 0x400000
 318:	00000019 	andeq	r0, r0, r9, lsl r0
 31c:	25011101 	strcs	r1, [r1, #-257]	; 0xfffffeff
 320:	030b130e 	movweq	r1, #45838	; 0xb30e
 324:	550e1b0e 	strpl	r1, [lr, #-2830]	; 0xfffff4f2
 328:	10011117 	andne	r1, r1, r7, lsl r1
 32c:	02000017 	andeq	r0, r0, #23
 330:	0b0b0024 	bleq	2c03c8 <_etext+0x2be361>
 334:	0e030b3e 	vmoveq.16	d3[0], r0
 338:	16030000 	strne	r0, [r3], -r0
 33c:	3a0e0300 	bcc	380f44 <_etext+0x37eedd>
 340:	390b3b0b 	stmdbcc	fp, {r0, r1, r3, r8, r9, fp, ip, sp}
 344:	0013490b 	andseq	r4, r3, fp, lsl #18
 348:	00240400 	eoreq	r0, r4, r0, lsl #8
 34c:	0b3e0b0b 	bleq	f82f80 <_etext+0xf80f19>
 350:	00000803 	andeq	r0, r0, r3, lsl #16
 354:	3e010405 	cdpcc	4, 0, cr0, cr1, cr5, {0}
 358:	490b0b0b 	stmdbmi	fp, {r0, r1, r3, r8, r9, fp}
 35c:	3b0b3a13 	blcc	2cebb0 <_etext+0x2ccb49>
 360:	6e0b390b 	vmlavs.f16	s6, s22, s22	; <UNPREDICTABLE>
 364:	0013010e 	andseq	r0, r3, lr, lsl #2
 368:	00280600 	eoreq	r0, r8, r0, lsl #12
 36c:	0b1c0e03 	bleq	703b80 <_etext+0x701b19>
 370:	2e070000 	cdpcs	0, 0, cr0, cr7, cr0, {0}
 374:	03193f01 	tsteq	r9, #1, 30
 378:	3b0b3a0e 	blcc	2cebb8 <_etext+0x2ccb51>
 37c:	110b390b 	tstne	fp, fp, lsl #18
 380:	40061201 	andmi	r1, r6, r1, lsl #4
 384:	19429618 	stmdbne	r2, {r3, r4, r9, sl, ip, pc}^
 388:	00001301 	andeq	r1, r0, r1, lsl #6
 38c:	03000508 	movweq	r0, #1288	; 0x508
 390:	3b0b3a0e 	blcc	2cebd0 <_etext+0x2ccb69>
 394:	490b390b 	stmdbmi	fp, {r0, r1, r3, r8, fp, ip, sp}
 398:	00180213 	andseq	r0, r8, r3, lsl r2
 39c:	012e0900 			; <UNDEFINED> instruction: 0x012e0900
 3a0:	0e03193f 			; <UNDEFINED> instruction: 0x0e03193f
 3a4:	0b3b0b3a 	bleq	ec3094 <_etext+0xec102d>
 3a8:	01110b39 	tsteq	r1, r9, lsr fp
 3ac:	18400612 	stmdane	r0, {r1, r4, r9, sl}^
 3b0:	01194297 			; <UNDEFINED> instruction: 0x01194297
 3b4:	0a000013 	beq	408 <main+0xa8>
 3b8:	0e030034 	mcreq	0, 0, r0, cr3, cr4, {1}
 3bc:	0b3b0b3a 	bleq	ec30ac <_etext+0xec1045>
 3c0:	13490b39 	movtne	r0, #39737	; 0x9b39
 3c4:	00001802 	andeq	r1, r0, r2, lsl #16
 3c8:	03012e0b 	movweq	r2, #7691	; 0x1e0b
 3cc:	3b0b3a0e 	blcc	2cec0c <_etext+0x2ccba5>
 3d0:	490b390b 	stmdbmi	fp, {r0, r1, r3, r8, fp, ip, sp}
 3d4:	12011113 	andne	r1, r1, #-1073741820	; 0xc0000004
 3d8:	97184006 	ldrls	r4, [r8, -r6]
 3dc:	13011942 	movwne	r1, #6466	; 0x1942
 3e0:	2e0c0000 	cdpcs	0, 0, cr0, cr12, cr0, {0}
 3e4:	3a0e0301 	bcc	380ff0 <_etext+0x37ef89>
 3e8:	390b3b0b 	stmdbcc	fp, {r0, r1, r3, r8, r9, fp, ip, sp}
 3ec:	1113490b 	tstne	r3, fp, lsl #18
 3f0:	40061201 	andmi	r1, r6, r1, lsl #4
 3f4:	19429718 	stmdbne	r2, {r3, r4, r8, r9, sl, ip, pc}^
 3f8:	01000000 	mrseq	r0, (UNDEF: 0)
 3fc:	0e250111 	mcreq	1, 1, r0, cr5, cr1, {0}
 400:	0e030b13 	vmoveq.32	d3[0], r0
 404:	17550e1b 	smmlane	r5, fp, lr, r0
 408:	17100111 			; <UNDEFINED> instruction: 0x17100111
 40c:	24020000 	strcs	r0, [r2], #-0
 410:	3e0b0b00 	vmlacc.f64	d0, d11, d0
 414:	000e030b 	andeq	r0, lr, fp, lsl #6
 418:	00160300 	andseq	r0, r6, r0, lsl #6
 41c:	0b3a0e03 	bleq	e83c30 <_etext+0xe81bc9>
 420:	0b390b3b 	bleq	e43114 <_etext+0xe410ad>
 424:	00001349 	andeq	r1, r0, r9, asr #6
 428:	0b002404 	bleq	9440 <_etext+0x73d9>
 42c:	030b3e0b 	movweq	r3, #48651	; 0xbe0b
 430:	05000008 	streq	r0, [r0, #-8]
 434:	0e03003b 	mcreq	0, 0, r0, cr3, cr11, {1}
 438:	26060000 	strcs	r0, [r6], -r0
 43c:	00134900 	andseq	r4, r3, r0, lsl #18
 440:	01040700 	tsteq	r4, r0, lsl #14
 444:	0b0b0b3e 	bleq	2c3144 <_etext+0x2c10dd>
 448:	0b3a1349 	bleq	e85174 <_etext+0xe8310d>
 44c:	0b390b3b 	bleq	e43140 <_etext+0xe410d9>
 450:	13010e6e 	movwne	r0, #7790	; 0x1e6e
 454:	28080000 	stmdacs	r8, {}	; <UNPREDICTABLE>
 458:	1c0e0300 	stcne	3, cr0, [lr], {-0}
 45c:	0900000b 	stmdbeq	r0, {r0, r1, r3}
 460:	0e030034 	mcreq	0, 0, r0, cr3, cr4, {1}
 464:	0b3b0b3a 	bleq	ec3154 <_etext+0xec10ed>
 468:	13490b39 	movtne	r0, #39737	; 0x9b39
 46c:	00001802 	andeq	r1, r0, r2, lsl #16
 470:	3f012e0a 	svccc	0x00012e0a
 474:	3a0e0319 	bcc	3810e0 <_etext+0x37f079>
 478:	390b3b0b 	stmdbcc	fp, {r0, r1, r3, r8, r9, fp, ip, sp}
 47c:	1113490b 	tstne	r3, fp, lsl #18
 480:	40061201 	andmi	r1, r6, r1, lsl #4
 484:	19429618 	stmdbne	r2, {r3, r4, r9, sl, ip, pc}^
 488:	00001301 	andeq	r1, r0, r1, lsl #6
 48c:	0300050b 	movweq	r0, #1291	; 0x50b
 490:	3b0b3a0e 	blcc	2cecd0 <_etext+0x2ccc69>
 494:	490b390b 	stmdbmi	fp, {r0, r1, r3, r8, fp, ip, sp}
 498:	00180213 	andseq	r0, r8, r3, lsl r2
 49c:	000a0c00 	andeq	r0, sl, r0, lsl #24
 4a0:	0b3a0e03 	bleq	e83cb4 <_etext+0xe81c4d>
 4a4:	0b390b3b 	bleq	e43198 <_etext+0xe41131>
 4a8:	00000111 	andeq	r0, r0, r1, lsl r1
 4ac:	0300340d 	movweq	r3, #1037	; 0x40d
 4b0:	3b0b3a08 	blcc	2cecd8 <_etext+0x2ccc71>
 4b4:	490b390b 	stmdbmi	fp, {r0, r1, r3, r8, fp, ip, sp}
 4b8:	00180213 	andseq	r0, r8, r3, lsl r2
 4bc:	000f0e00 	andeq	r0, pc, r0, lsl #28
 4c0:	13490b0b 	movtne	r0, #39691	; 0x9b0b
 4c4:	2e0f0000 	cdpcs	0, 0, cr0, cr15, cr0, {0}
 4c8:	03193f01 	tsteq	r9, #1, 30
 4cc:	3b0b3a0e 	blcc	2ced0c <_etext+0x2ccca5>
 4d0:	110b390b 	tstne	fp, fp, lsl #18
 4d4:	40061201 	andmi	r1, r6, r1, lsl #4
 4d8:	19429618 	stmdbne	r2, {r3, r4, r9, sl, ip, pc}^
 4dc:	01000000 	mrseq	r0, (UNDEF: 0)
 4e0:	0e250111 	mcreq	1, 1, r0, cr5, cr1, {0}
 4e4:	0e030b13 	vmoveq.32	d3[0], r0
 4e8:	17550e1b 	smmlane	r5, fp, lr, r0
 4ec:	17100111 			; <UNDEFINED> instruction: 0x17100111
 4f0:	24020000 	strcs	r0, [r2], #-0
 4f4:	3e0b0b00 	vmlacc.f64	d0, d11, d0
 4f8:	000e030b 	andeq	r0, lr, fp, lsl #6
 4fc:	00160300 	andseq	r0, r6, r0, lsl #6
 500:	0b3a0e03 	bleq	e83d14 <_etext+0xe81cad>
 504:	0b390b3b 	bleq	e431f8 <_etext+0xe41191>
 508:	00001349 	andeq	r1, r0, r9, asr #6
 50c:	0b002404 	bleq	9524 <_etext+0x74bd>
 510:	030b3e0b 	movweq	r3, #48651	; 0xbe0b
 514:	05000008 	streq	r0, [r0, #-8]
 518:	0e03003b 	mcreq	0, 0, r0, cr3, cr11, {1}
 51c:	04060000 	streq	r0, [r6], #-0
 520:	0b0b3e01 	bleq	2cfd2c <_etext+0x2cdcc5>
 524:	3a13490b 	bcc	4d2958 <_etext+0x4d08f1>
 528:	390b3b0b 	stmdbcc	fp, {r0, r1, r3, r8, r9, fp, ip, sp}
 52c:	010e6e0b 	tsteq	lr, fp, lsl #28
 530:	07000013 	smladeq	r0, r3, r0, r0
 534:	0e030028 	cdpeq	0, 0, cr0, cr3, cr8, {1}
 538:	00000b1c 	andeq	r0, r0, ip, lsl fp
 53c:	3f012e08 	svccc	0x00012e08
 540:	3a0e0319 	bcc	3811ac <_etext+0x37f145>
 544:	390b3b0b 	stmdbcc	fp, {r0, r1, r3, r8, r9, fp, ip, sp}
 548:	1201110b 	andne	r1, r1, #-1073741822	; 0xc0000002
 54c:	97184006 	ldrls	r4, [r8, -r6]
 550:	13011942 	movwne	r1, #6466	; 0x1942
 554:	05090000 	streq	r0, [r9, #-0]
 558:	3a0e0300 	bcc	381160 <_etext+0x37f0f9>
 55c:	390b3b0b 	stmdbcc	fp, {r0, r1, r3, r8, r9, fp, ip, sp}
 560:	0213490b 	andseq	r4, r3, #180224	; 0x2c000
 564:	0a000018 	beq	5cc <UARTvprintf+0x8>
 568:	193f012e 	ldmdbne	pc!, {r1, r2, r3, r5, r8}	; <UNPREDICTABLE>
 56c:	0b3a0e03 	bleq	e83d80 <_etext+0xe81d19>
 570:	0b390b3b 	bleq	e43264 <_etext+0xe411fd>
 574:	06120111 			; <UNDEFINED> instruction: 0x06120111
 578:	42961840 	addsmi	r1, r6, #64, 16	; 0x400000
 57c:	00130119 	andseq	r0, r3, r9, lsl r1
 580:	00340b00 	eorseq	r0, r4, r0, lsl #22
 584:	0b3a0e03 	bleq	e83d98 <_etext+0xe81d31>
 588:	0b390b3b 	bleq	e4327c <_etext+0xe41215>
 58c:	18021349 	stmdane	r2, {r0, r3, r6, r8, r9, ip}
 590:	2e0c0000 	cdpcs	0, 0, cr0, cr12, cr0, {0}
 594:	3a0e0301 	bcc	3811a0 <_etext+0x37f139>
 598:	390b3b0b 	stmdbcc	fp, {r0, r1, r3, r8, r9, fp, ip, sp}
 59c:	1113490b 	tstne	r3, fp, lsl #18
 5a0:	40061201 	andmi	r1, r6, r1, lsl #4
 5a4:	19429718 	stmdbne	r2, {r3, r4, r8, r9, sl, ip, pc}^
 5a8:	00001301 	andeq	r1, r0, r1, lsl #6
 5ac:	03012e0d 	movweq	r2, #7693	; 0x1e0d
 5b0:	3b0b3a0e 	blcc	2cedf0 <_etext+0x2ccd89>
 5b4:	490b390b 	stmdbmi	fp, {r0, r1, r3, r8, fp, ip, sp}
 5b8:	12011113 	andne	r1, r1, #-1073741820	; 0xc0000004
 5bc:	97184006 	ldrls	r4, [r8, -r6]
 5c0:	00001942 	andeq	r1, r0, r2, asr #18
 5c4:	01110100 	tsteq	r1, r0, lsl #2
 5c8:	0b130e25 	bleq	4c3e64 <_etext+0x4c1dfd>
 5cc:	0e1b0e03 	cdpeq	14, 1, cr0, cr11, cr3, {0}
 5d0:	01111755 	tsteq	r1, r5, asr r7
 5d4:	00001710 	andeq	r1, r0, r0, lsl r7
 5d8:	0b002402 	bleq	95e8 <_etext+0x7581>
 5dc:	030b3e0b 	movweq	r3, #48651	; 0xbe0b
 5e0:	0300000e 	movweq	r0, #14
 5e4:	0e030016 	mcreq	0, 0, r0, cr3, cr6, {0}
 5e8:	0b3b0b3a 	bleq	ec32d8 <_etext+0xec1271>
 5ec:	13490b39 	movtne	r0, #39737	; 0x9b39
 5f0:	24040000 	strcs	r0, [r4], #-0
 5f4:	3e0b0b00 	vmlacc.f64	d0, d11, d0
 5f8:	0008030b 	andeq	r0, r8, fp, lsl #6
 5fc:	00260500 	eoreq	r0, r6, r0, lsl #10
 600:	00001349 	andeq	r1, r0, r9, asr #6
 604:	49003506 	stmdbmi	r0, {r1, r2, r8, sl, ip, sp}
 608:	07000013 	smladeq	r0, r3, r0, r0
 60c:	0b0b000f 	bleq	2c0650 <_etext+0x2be5e9>
 610:	00001349 	andeq	r1, r0, r9, asr #6
 614:	3e010408 	cdpcc	4, 0, cr0, cr1, cr8, {0}
 618:	490b0b0b 	stmdbmi	fp, {r0, r1, r3, r8, r9, fp}
 61c:	3b0b3a13 	blcc	2cee70 <_etext+0x2cce09>
 620:	6e0b390b 	vmlavs.f16	s6, s22, s22	; <UNPREDICTABLE>
 624:	0013010e 	andseq	r0, r3, lr, lsl #2
 628:	00280900 	eoreq	r0, r8, r0, lsl #18
 62c:	0b1c0e03 	bleq	703e40 <_etext+0x701dd9>
 630:	020a0000 	andeq	r0, sl, #0
 634:	0b0e0301 	bleq	381240 <_etext+0x37f1d9>
 638:	3b0b3a0b 	blcc	2cee6c <_etext+0x2cce05>
 63c:	010b390b 	tsteq	fp, fp, lsl #18
 640:	0b000013 	bleq	694 <UARTvprintf+0xd0>
 644:	0e03000d 	cdpeq	0, 0, cr0, cr3, cr13, {0}
 648:	0b3b0b3a 	bleq	ec3338 <_etext+0xec12d1>
 64c:	13490b39 	movtne	r0, #39737	; 0x9b39
 650:	193c193f 	ldmdbne	ip!, {r0, r1, r2, r3, r4, r5, r8, fp, ip}
 654:	0d0c0000 	stceq	0, cr0, [ip, #-0]
 658:	3a0e0300 	bcc	381260 <_etext+0x37f1f9>
 65c:	390b3b0b 	stmdbcc	fp, {r0, r1, r3, r8, r9, fp, ip, sp}
 660:	3813490b 	ldmdacc	r3, {r0, r1, r3, r8, fp, lr}
 664:	0d00000b 	stceq	0, cr0, [r0, #-44]	; 0xffffffd4
 668:	193f012e 	ldmdbne	pc!, {r1, r2, r3, r5, r8}	; <UNPREDICTABLE>
 66c:	0b3a0e03 	bleq	e83e80 <_etext+0xe81e19>
 670:	0b390b3b 	bleq	e43364 <_etext+0xe412fd>
 674:	13490e6e 	movtne	r0, #40558	; 0x9e6e
 678:	1364193c 	cmnne	r4, #60, 18	; 0xf0000
 67c:	00001301 	andeq	r1, r0, r1, lsl #6
 680:	4900050e 	stmdbmi	r0, {r1, r2, r3, r8, sl}
 684:	00193413 	andseq	r3, r9, r3, lsl r4
 688:	00050f00 	andeq	r0, r5, r0, lsl #30
 68c:	00001349 	andeq	r1, r0, r9, asr #6
 690:	3f012e10 	svccc	0x00012e10
 694:	3a0e0319 	bcc	381300 <_etext+0x37f299>
 698:	390b3b0b 	stmdbcc	fp, {r0, r1, r3, r8, r9, fp, ip, sp}
 69c:	3c0e6e0b 	stccc	14, cr6, [lr], {11}
 6a0:	01136419 	tsteq	r3, r9, lsl r4
 6a4:	11000013 	tstne	r0, r3, lsl r0
 6a8:	193f012e 	ldmdbne	pc!, {r1, r2, r3, r5, r8}	; <UNPREDICTABLE>
 6ac:	0b3a0e03 	bleq	e83ec0 <_etext+0xe81e59>
 6b0:	0b390b3b 	bleq	e433a4 <_etext+0xe4133d>
 6b4:	13490e6e 	movtne	r0, #40558	; 0x9e6e
 6b8:	193c0b32 	ldmdbne	ip!, {r1, r4, r5, r8, r9, fp}
 6bc:	13011364 	movwne	r1, #4964	; 0x1364
 6c0:	2e120000 	cdpcs	0, 1, cr0, cr2, cr0, {0}
 6c4:	03193f01 	tsteq	r9, #1, 30
 6c8:	3b0b3a0e 	blcc	2cef08 <_etext+0x2ccea1>
 6cc:	6e0b390b 	vmlavs.f16	s6, s22, s22	; <UNPREDICTABLE>
 6d0:	3c0b320e 	sfmcc	f3, 4, [fp], {14}
 6d4:	01136419 	tsteq	r3, r9, lsl r4
 6d8:	13000013 	movwne	r0, #19
 6dc:	193f012e 	ldmdbne	pc!, {r1, r2, r3, r5, r8}	; <UNPREDICTABLE>
 6e0:	0b3a0e03 	bleq	e83ef4 <_etext+0xe81e8d>
 6e4:	0b390b3b 	bleq	e433d8 <_etext+0xe41371>
 6e8:	0b320e6e 	bleq	c840a8 <_etext+0xc82041>
 6ec:	1364193c 	cmnne	r4, #60, 18	; 0xf0000
 6f0:	0f140000 	svceq	0x00140000
 6f4:	000b0b00 	andeq	r0, fp, r0, lsl #22
 6f8:	012e1500 			; <UNDEFINED> instruction: 0x012e1500
 6fc:	0803193f 	stmdaeq	r3, {r0, r1, r2, r3, r4, r5, r8, fp, ip}
 700:	0b3b0b3a 	bleq	ec33f0 <_etext+0xec1389>
 704:	0e6e0b39 	vmoveq.8	d14[5], r0
 708:	193c0b32 	ldmdbne	ip!, {r1, r4, r5, r8, r9, fp}
 70c:	00001364 	andeq	r1, r0, r4, ror #6
 710:	00001816 	andeq	r1, r0, r6, lsl r8
 714:	00341700 	eorseq	r1, r4, r0, lsl #14
 718:	0b3a0e03 	bleq	e83f2c <_etext+0xe81ec5>
 71c:	0b390b3b 	bleq	e43410 <_etext+0xe413a9>
 720:	193f1349 	ldmdbne	pc!, {r0, r3, r6, r8, r9, ip}	; <UNPREDICTABLE>
 724:	0000193c 	andeq	r1, r0, ip, lsr r9
 728:	03003418 	movweq	r3, #1048	; 0x418
 72c:	3b0b3a08 	blcc	2cef54 <_etext+0x2cceed>
 730:	490b390b 	stmdbmi	fp, {r0, r1, r3, r8, fp, ip, sp}
 734:	00180213 	andseq	r0, r8, r3, lsl r2
 738:	01011900 	tsteq	r1, r0, lsl #18
 73c:	13011349 	movwne	r1, #4937	; 0x1349
 740:	211a0000 	tstcs	sl, r0
 744:	2f134900 	svccs	0x00134900
 748:	1b000005 	blne	764 <UARTvprintf+0x1a0>
 74c:	0e030034 	mcreq	0, 0, r0, cr3, cr4, {1}
 750:	0b3b0b3a 	bleq	ec3440 <_etext+0xec13d9>
 754:	13490b39 	movtne	r0, #39737	; 0x9b39
 758:	00001802 	andeq	r1, r0, r2, lsl #16
 75c:	4700341c 	smladmi	r0, ip, r4, r3
 760:	3b0b3a13 	blcc	2cefb4 <_etext+0x2ccf4d>
 764:	6e0b390b 	vmlavs.f16	s6, s22, s22	; <UNPREDICTABLE>
 768:	0018020e 	andseq	r0, r8, lr, lsl #4
 76c:	012e1d00 			; <UNDEFINED> instruction: 0x012e1d00
 770:	0b3a1347 	bleq	e85494 <_etext+0xe8342d>
 774:	0b39053b 	bleq	e41c68 <_etext+0xe3fc01>
 778:	01111364 	tsteq	r1, r4, ror #6
 77c:	18400612 	stmdane	r0, {r1, r4, r9, sl}^
 780:	01194296 			; <UNDEFINED> instruction: 0x01194296
 784:	1e000013 	mcrne	0, 0, r0, cr0, cr3, {0}
 788:	0e030005 	cdpeq	0, 0, cr0, cr3, cr5, {0}
 78c:	19341349 	ldmdbne	r4!, {r0, r3, r6, r8, r9, ip}
 790:	00001802 	andeq	r1, r0, r2, lsl #16
 794:	0300051f 	movweq	r0, #1311	; 0x51f
 798:	3b0b3a0e 	blcc	2cefd8 <_etext+0x2ccf71>
 79c:	490b3905 	stmdbmi	fp, {r0, r2, r8, fp, ip, sp}
 7a0:	00180213 	andseq	r0, r8, r3, lsl r2
 7a4:	00342000 	eorseq	r2, r4, r0
 7a8:	0b3a0e03 	bleq	e83fbc <_etext+0xe81f55>
 7ac:	0b39053b 	bleq	e41ca0 <_etext+0xe3fc39>
 7b0:	18021349 	stmdane	r2, {r0, r3, r6, r8, r9, ip}
 7b4:	2e210000 	cdpcs	0, 2, cr0, cr1, cr0, {0}
 7b8:	3a134701 	bcc	4d23c4 <_etext+0x4d035d>
 7bc:	39053b0b 	stmdbcc	r5, {r0, r1, r3, r8, r9, fp, ip, sp}
 7c0:	1113640b 	tstne	r3, fp, lsl #8
 7c4:	40061201 	andmi	r1, r6, r1, lsl #4
 7c8:	19429718 	stmdbne	r2, {r3, r4, r8, r9, sl, ip, pc}^
 7cc:	00001301 	andeq	r1, r0, r1, lsl #6
 7d0:	47012e22 	strmi	r2, [r1, -r2, lsr #28]
 7d4:	3b0b3a13 	blcc	2cf028 <_etext+0x2ccfc1>
 7d8:	640b390b 	strvs	r3, [fp], #-2315	; 0xfffff6f5
 7dc:	12011113 	andne	r1, r1, #-1073741820	; 0xc0000004
 7e0:	97184006 	ldrls	r4, [r8, -r6]
 7e4:	13011942 	movwne	r1, #6466	; 0x1942
 7e8:	2e230000 	cdpcs	0, 2, cr0, cr3, cr0, {0}
 7ec:	3a134701 	bcc	4d23f8 <_etext+0x4d0391>
 7f0:	390b3b0b 	stmdbcc	fp, {r0, r1, r3, r8, r9, fp, ip, sp}
 7f4:	1113640b 	tstne	r3, fp, lsl #8
 7f8:	40061201 	andmi	r1, r6, r1, lsl #4
 7fc:	19429618 	stmdbne	r2, {r3, r4, r9, sl, ip, pc}^
 800:	00001301 	andeq	r1, r0, r1, lsl #6
 804:	03000524 	movweq	r0, #1316	; 0x524
 808:	3b0b3a0e 	blcc	2cf048 <_etext+0x2ccfe1>
 80c:	490b390b 	stmdbmi	fp, {r0, r1, r3, r8, fp, ip, sp}
 810:	00180213 	andseq	r0, r8, r3, lsl r2
 814:	012e2500 			; <UNDEFINED> instruction: 0x012e2500
 818:	0b3a0e03 	bleq	e8402c <_etext+0xe81fc5>
 81c:	0b390b3b 	bleq	e43510 <_etext+0xe414a9>
 820:	01111349 	tsteq	r1, r9, asr #6
 824:	18400612 	stmdane	r0, {r1, r4, r9, sl}^
 828:	01194297 			; <UNDEFINED> instruction: 0x01194297
 82c:	26000013 			; <UNDEFINED> instruction: 0x26000013
 830:	1347012e 	movtne	r0, #28974	; 0x712e
 834:	0b3b0b3a 	bleq	ec3524 <_etext+0xec14bd>
 838:	13640b39 	cmnne	r4, #58368	; 0xe400
 83c:	13010b20 	movwne	r0, #6944	; 0x1b20
 840:	05270000 	streq	r0, [r7, #-0]!
 844:	490e0300 	stmdbmi	lr, {r8, r9}
 848:	00193413 	andseq	r3, r9, r3, lsl r4
 84c:	00052800 	andeq	r2, r5, r0, lsl #16
 850:	0b3a0e03 	bleq	e84064 <_etext+0xe81ffd>
 854:	0b390b3b 	bleq	e43548 <_etext+0xe414e1>
 858:	00001349 	andeq	r1, r0, r9, asr #6
 85c:	00010b29 	andeq	r0, r1, r9, lsr #22
 860:	00342a00 	eorseq	r2, r4, r0, lsl #20
 864:	0b3a0e03 	bleq	e84078 <_etext+0xe82011>
 868:	0b390b3b 	bleq	e4355c <_etext+0xe414f5>
 86c:	00001349 	andeq	r1, r0, r9, asr #6
 870:	31012e2b 	tstcc	r1, fp, lsr #28
 874:	640e6e13 	strvs	r6, [lr], #-3603	; 0xfffff1ed
 878:	12011113 	andne	r1, r1, #-1073741820	; 0xc0000004
 87c:	96184006 	ldrls	r4, [r8], -r6
 880:	13011942 	movwne	r1, #6466	; 0x1942
 884:	052c0000 	streq	r0, [ip, #-0]!
 888:	02133100 	andseq	r3, r3, #0, 2
 88c:	2d000018 	stccs	0, cr0, [r0, #-96]	; 0xffffffa0
 890:	1331010b 	teqne	r1, #-1073741822	; 0xc0000002
 894:	00001301 	andeq	r1, r0, r1, lsl #6
 898:	3100342e 	tstcc	r0, lr, lsr #8
 89c:	2f000013 	svccs	0x00000013
 8a0:	1331010b 	teqne	r1, #-1073741822	; 0xc0000002
 8a4:	06120111 			; <UNDEFINED> instruction: 0x06120111
 8a8:	34300000 	ldrtcc	r0, [r0], #-0
 8ac:	02133100 	andseq	r3, r3, #0, 2
 8b0:	31000018 	tstcc	r0, r8, lsl r0
 8b4:	193f012e 	ldmdbne	pc!, {r1, r2, r3, r5, r8}	; <UNPREDICTABLE>
 8b8:	0b3a0e03 	bleq	e840cc <_etext+0xe82065>
 8bc:	0b390b3b 	bleq	e435b0 <_etext+0xe41549>
 8c0:	06120111 			; <UNDEFINED> instruction: 0x06120111
 8c4:	42961840 	addsmi	r1, r6, #64, 16	; 0x400000
 8c8:	00130119 	andseq	r0, r3, r9, lsl r1
 8cc:	012e3200 			; <UNDEFINED> instruction: 0x012e3200
 8d0:	0e03193f 			; <UNDEFINED> instruction: 0x0e03193f
 8d4:	0b3b0b3a 	bleq	ec35c4 <_etext+0xec155d>
 8d8:	0e6e0b39 	vmoveq.8	d14[5], r0
 8dc:	06120111 			; <UNDEFINED> instruction: 0x06120111
 8e0:	42971840 	addsmi	r1, r7, #64, 16	; 0x400000
 8e4:	00130119 	andseq	r0, r3, r9, lsl r1
 8e8:	012e3300 			; <UNDEFINED> instruction: 0x012e3300
 8ec:	0b3a0e03 	bleq	e84100 <_etext+0xe82099>
 8f0:	0b390b3b 	bleq	e435e4 <_etext+0xe4157d>
 8f4:	01111349 	tsteq	r1, r9, asr #6
 8f8:	18400612 	stmdane	r0, {r1, r4, r9, sl}^
 8fc:	00194297 	mulseq	r9, r7, r2
 900:	11010000 	mrsne	r0, (UNDEF: 1)
 904:	130e2501 	movwne	r2, #58625	; 0xe501
 908:	1b0e030b 	blne	38153c <_etext+0x37f4d5>
 90c:	1117550e 	tstne	r7, lr, lsl #10
 910:	00171001 	andseq	r1, r7, r1
 914:	00240200 	eoreq	r0, r4, r0, lsl #4
 918:	0b3e0b0b 	bleq	f8354c <_etext+0xf814e5>
 91c:	00000e03 	andeq	r0, r0, r3, lsl #28
 920:	03001603 	movweq	r1, #1539	; 0x603
 924:	3b0b3a0e 	blcc	2cf164 <_etext+0x2cd0fd>
 928:	490b390b 	stmdbmi	fp, {r0, r1, r3, r8, fp, ip, sp}
 92c:	04000013 	streq	r0, [r0], #-19	; 0xffffffed
 930:	0b0b0024 	bleq	2c09c8 <_etext+0x2be961>
 934:	08030b3e 	stmdaeq	r3, {r1, r2, r3, r4, r5, r8, r9, fp}
 938:	3b050000 	blcc	140940 <_etext+0x13e8d9>
 93c:	000e0300 	andeq	r0, lr, r0, lsl #6
 940:	000f0600 	andeq	r0, pc, r0, lsl #12
 944:	13490b0b 	movtne	r0, #39691	; 0x9b0b
 948:	04070000 	streq	r0, [r7], #-0
 94c:	3e0e0301 	cdpcc	3, 0, cr0, cr14, cr1, {0}
 950:	490b0b0b 	stmdbmi	fp, {r0, r1, r3, r8, r9, fp}
 954:	3b0b3a13 	blcc	2cf1a8 <_etext+0x2cd141>
 958:	010b390b 	tsteq	fp, fp, lsl #18
 95c:	08000013 	stmdaeq	r0, {r0, r1, r4}
 960:	0e030028 	cdpeq	0, 0, cr0, cr3, cr8, {1}
 964:	00000b1c 	andeq	r0, r0, ip, lsl fp
 968:	03003409 	movweq	r3, #1033	; 0x409
 96c:	3b0b3a0e 	blcc	2cf1ac <_etext+0x2cd145>
 970:	490b390b 	stmdbmi	fp, {r0, r1, r3, r8, fp, ip, sp}
 974:	02193f13 	andseq	r3, r9, #19, 30	; 0x4c
 978:	0a000018 	beq	9e0 <UARTprintf+0x14>
 97c:	13490101 	movtne	r0, #37121	; 0x9101
 980:	00001301 	andeq	r1, r0, r1, lsl #6
 984:	4900210b 	stmdbmi	r0, {r0, r1, r3, r8, sp}
 988:	000b2f13 	andeq	r2, fp, r3, lsl pc
 98c:	00340c00 	eorseq	r0, r4, r0, lsl #24
 990:	0b3a0e03 	bleq	e841a4 <_etext+0xe8213d>
 994:	0b390b3b 	bleq	e43688 <_etext+0xe41621>
 998:	18021349 	stmdane	r2, {r0, r3, r6, r8, r9, ip}
 99c:	2e0d0000 	cdpcs	0, 0, cr0, cr13, cr0, {0}
 9a0:	03193f01 	tsteq	r9, #1, 30
 9a4:	3b0b3a0e 	blcc	2cf1e4 <_etext+0x2cd17d>
 9a8:	110b390b 	tstne	fp, fp, lsl #18
 9ac:	40061201 	andmi	r1, r6, r1, lsl #4
 9b0:	19429618 	stmdbne	r2, {r3, r4, r9, sl, ip, pc}^
 9b4:	00001301 	andeq	r1, r0, r1, lsl #6
 9b8:	11010b0e 	tstne	r1, lr, lsl #22
 9bc:	00061201 	andeq	r1, r6, r1, lsl #4
 9c0:	002e0f00 	eoreq	r0, lr, r0, lsl #30
 9c4:	0e03193f 			; <UNDEFINED> instruction: 0x0e03193f
 9c8:	0b3b0b3a 	bleq	ec36b8 <_etext+0xec1651>
 9cc:	0e6e0b39 	vmoveq.8	d14[5], r0
 9d0:	06120111 			; <UNDEFINED> instruction: 0x06120111
 9d4:	42971840 	addsmi	r1, r7, #64, 16	; 0x400000
 9d8:	10000019 	andne	r0, r0, r9, lsl r0
 9dc:	193f012e 	ldmdbne	pc!, {r1, r2, r3, r5, r8}	; <UNPREDICTABLE>
 9e0:	0b3a0e03 	bleq	e841f4 <_etext+0xe8218d>
 9e4:	0b390b3b 	bleq	e436d8 <_etext+0xe41671>
 9e8:	01110e6e 	tsteq	r1, lr, ror #28
 9ec:	18400612 	stmdane	r0, {r1, r4, r9, sl}^
 9f0:	01194296 			; <UNDEFINED> instruction: 0x01194296
 9f4:	11000013 	tstne	r0, r3, lsl r0
 9f8:	0e030005 	cdpeq	0, 0, cr0, cr3, cr5, {0}
 9fc:	0b3b0b3a 	bleq	ec36ec <_etext+0xec1685>
 a00:	13490b39 	movtne	r0, #39737	; 0x9b39
 a04:	00001802 	andeq	r1, r0, r2, lsl #16
 a08:	11010b12 	tstne	r1, r2, lsl fp
 a0c:	01061201 	tsteq	r6, r1, lsl #4
 a10:	13000013 	movwne	r0, #19
 a14:	193f012e 	ldmdbne	pc!, {r1, r2, r3, r5, r8}	; <UNPREDICTABLE>
 a18:	0b3a0e03 	bleq	e8422c <_etext+0xe821c5>
 a1c:	0b390b3b 	bleq	e43710 <_etext+0xe416a9>
 a20:	06120111 			; <UNDEFINED> instruction: 0x06120111
 a24:	42971840 	addsmi	r1, r7, #64, 16	; 0x400000
 a28:	00130119 	andseq	r0, r3, r9, lsl r1
 a2c:	012e1400 			; <UNDEFINED> instruction: 0x012e1400
 a30:	0e03193f 			; <UNDEFINED> instruction: 0x0e03193f
 a34:	0b3b0b3a 	bleq	ec3724 <_etext+0xec16bd>
 a38:	01110b39 	tsteq	r1, r9, lsr fp
 a3c:	18400612 	stmdane	r0, {r1, r4, r9, sl}^
 a40:	00194297 	mulseq	r9, r7, r2
 a44:	11010000 	mrsne	r0, (UNDEF: 1)
 a48:	130e2501 	movwne	r2, #58625	; 0xe501
 a4c:	1b0e030b 	blne	381680 <_etext+0x37f619>
 a50:	1117550e 	tstne	r7, lr, lsl #10
 a54:	00171001 	andseq	r1, r7, r1
 a58:	00240200 	eoreq	r0, r4, r0, lsl #4
 a5c:	0b3e0b0b 	bleq	f83690 <_etext+0xf81629>
 a60:	00000e03 	andeq	r0, r0, r3, lsl #28
 a64:	03001603 	movweq	r1, #1539	; 0x603
 a68:	3b0b3a0e 	blcc	2cf2a8 <_etext+0x2cd241>
 a6c:	490b390b 	stmdbmi	fp, {r0, r1, r3, r8, fp, ip, sp}
 a70:	04000013 	streq	r0, [r0], #-19	; 0xffffffed
 a74:	0b0b0024 	bleq	2c0b0c <_etext+0x2beaa5>
 a78:	08030b3e 	stmdaeq	r3, {r1, r2, r3, r4, r5, r8, r9, fp}
 a7c:	13050000 	movwne	r0, #20480	; 0x5000
 a80:	0b0e0301 	bleq	38168c <_etext+0x37f625>
 a84:	3b0b3a0b 	blcc	2cf2b8 <_etext+0x2cd251>
 a88:	0013010b 	andseq	r0, r3, fp, lsl #2
 a8c:	000d0600 	andeq	r0, sp, r0, lsl #12
 a90:	13490e03 	movtne	r0, #40451	; 0x9e03
 a94:	19340b38 	ldmdbne	r4!, {r3, r4, r5, r8, r9, fp}
 a98:	0f070000 	svceq	0x00070000
 a9c:	000b0b00 	andeq	r0, fp, r0, lsl #22
 aa0:	000f0800 	andeq	r0, pc, r0, lsl #16
 aa4:	13490b0b 	movtne	r0, #39691	; 0x9b0b
 aa8:	26090000 	strcs	r0, [r9], -r0
 aac:	00134900 	andseq	r4, r3, r0, lsl #18
 ab0:	01040a00 	tsteq	r4, r0, lsl #20
 ab4:	0b0b0b3e 	bleq	2c37b4 <_etext+0x2c174d>
 ab8:	0b3a1349 	bleq	e857e4 <_etext+0xe8377d>
 abc:	0b390b3b 	bleq	e437b0 <_etext+0xe41749>
 ac0:	13010e6e 	movwne	r0, #7790	; 0x1e6e
 ac4:	280b0000 	stmdacs	fp, {}	; <UNPREDICTABLE>
 ac8:	1c0e0300 	stcne	3, cr0, [lr], {-0}
 acc:	0c00000b 	stceq	0, cr0, [r0], {11}
 ad0:	0e030102 	adfeqs	f0, f3, f2
 ad4:	0b3a0b0b 	bleq	e83708 <_etext+0xe816a1>
 ad8:	0b390b3b 	bleq	e437cc <_etext+0xe41765>
 adc:	00001301 	andeq	r1, r0, r1, lsl #6
 ae0:	03000d0d 	movweq	r0, #3341	; 0xd0d
 ae4:	3b0b3a0e 	blcc	2cf324 <_etext+0x2cd2bd>
 ae8:	490b390b 	stmdbmi	fp, {r0, r1, r3, r8, fp, ip, sp}
 aec:	000b3813 	andeq	r3, fp, r3, lsl r8
 af0:	012e0e00 			; <UNDEFINED> instruction: 0x012e0e00
 af4:	0e03193f 			; <UNDEFINED> instruction: 0x0e03193f
 af8:	0b3b0b3a 	bleq	ec37e8 <_etext+0xec1781>
 afc:	0e6e0b39 	vmoveq.8	d14[5], r0
 b00:	193c0b32 	ldmdbne	ip!, {r1, r4, r5, r8, r9, fp}
 b04:	13011364 	movwne	r1, #4964	; 0x1364
 b08:	050f0000 	streq	r0, [pc, #-0]	; b10 <GPIOPadConfigSet+0xf8>
 b0c:	34134900 	ldrcc	r4, [r3], #-2304	; 0xfffff700
 b10:	10000019 	andne	r0, r0, r9, lsl r0
 b14:	13490005 	movtne	r0, #36869	; 0x9005
 b18:	2e110000 	cdpcs	0, 1, cr0, cr1, cr0, {0}
 b1c:	03193f01 	tsteq	r9, #1, 30
 b20:	3b0b3a0e 	blcc	2cf360 <_etext+0x2cd2f9>
 b24:	6e0b390b 	vmlavs.f16	s6, s22, s22	; <UNPREDICTABLE>
 b28:	3213490e 	andscc	r4, r3, #229376	; 0x38000
 b2c:	64193c0b 	ldrvs	r3, [r9], #-3083	; 0xfffff3f5
 b30:	00130113 	andseq	r0, r3, r3, lsl r1
 b34:	012e1200 			; <UNDEFINED> instruction: 0x012e1200
 b38:	0803193f 	stmdaeq	r3, {r0, r1, r2, r3, r4, r5, r8, fp, ip}
 b3c:	0b3b0b3a 	bleq	ec382c <_etext+0xec17c5>
 b40:	0e6e0b39 	vmoveq.8	d14[5], r0
 b44:	193c0b32 	ldmdbne	ip!, {r1, r4, r5, r8, r9, fp}
 b48:	00001364 	andeq	r1, r0, r4, ror #6
 b4c:	00001813 	andeq	r1, r0, r3, lsl r8
 b50:	00341400 	eorseq	r1, r4, r0, lsl #8
 b54:	0b3a0e03 	bleq	e84368 <_etext+0xe82301>
 b58:	0b390b3b 	bleq	e4384c <_etext+0xe417e5>
 b5c:	193f1349 	ldmdbne	pc!, {r0, r3, r6, r8, r9, ip}	; <UNPREDICTABLE>
 b60:	0000193c 	andeq	r1, r0, ip, lsr r9
 b64:	47003415 	smladmi	r0, r5, r4, r3
 b68:	3b0b3a13 	blcc	2cf3bc <_etext+0x2cd355>
 b6c:	020b390b 	andeq	r3, fp, #180224	; 0x2c000
 b70:	16000018 			; <UNDEFINED> instruction: 0x16000018
 b74:	0e03002e 	cdpeq	0, 0, cr0, cr3, cr14, {1}
 b78:	01111934 	tsteq	r1, r4, lsr r9
 b7c:	18400612 	stmdane	r0, {r1, r4, r9, sl}^
 b80:	00194296 	mulseq	r9, r6, r2
 b84:	012e1700 			; <UNDEFINED> instruction: 0x012e1700
 b88:	19340e03 	ldmdbne	r4!, {r0, r1, r9, sl, fp}
 b8c:	06120111 			; <UNDEFINED> instruction: 0x06120111
 b90:	42961840 	addsmi	r1, r6, #64, 16	; 0x400000
 b94:	00130119 	andseq	r0, r3, r9, lsl r1
 b98:	00051800 	andeq	r1, r5, r0, lsl #16
 b9c:	0b3a0e03 	bleq	e843b0 <_etext+0xe82349>
 ba0:	0b390b3b 	bleq	e43894 <_etext+0xe4182d>
 ba4:	18021349 	stmdane	r2, {r0, r3, r6, r8, r9, ip}
 ba8:	2e190000 	cdpcs	0, 1, cr0, cr9, cr0, {0}
 bac:	3a134701 	bcc	4d27b8 <_etext+0x4d0751>
 bb0:	390b3b0b 	stmdbcc	fp, {r0, r1, r3, r8, r9, fp, ip, sp}
 bb4:	1113640b 	tstne	r3, fp, lsl #8
 bb8:	40061201 	andmi	r1, r6, r1, lsl #4
 bbc:	19429618 	stmdbne	r2, {r3, r4, r9, sl, ip, pc}^
 bc0:	00001301 	andeq	r1, r0, r1, lsl #6
 bc4:	0300051a 	movweq	r0, #1306	; 0x51a
 bc8:	3413490e 	ldrcc	r4, [r3], #-2318	; 0xfffff6f2
 bcc:	00180219 	andseq	r0, r8, r9, lsl r2
 bd0:	00341b00 	eorseq	r1, r4, r0, lsl #22
 bd4:	0b3a0e03 	bleq	e843e8 <_etext+0xe82381>
 bd8:	0b390b3b 	bleq	e438cc <_etext+0xe41865>
 bdc:	18021349 	stmdane	r2, {r0, r3, r6, r8, r9, ip}
 be0:	2e1c0000 	cdpcs	0, 1, cr0, cr12, cr0, {0}
 be4:	3a134701 	bcc	4d27f0 <_etext+0x4d0789>
 be8:	390b3b0b 	stmdbcc	fp, {r0, r1, r3, r8, r9, fp, ip, sp}
 bec:	1113640b 	tstne	r3, fp, lsl #8
 bf0:	40061201 	andmi	r1, r6, r1, lsl #4
 bf4:	19429718 	stmdbne	r2, {r3, r4, r8, r9, sl, ip, pc}^
 bf8:	00001301 	andeq	r1, r0, r1, lsl #6
 bfc:	47012e1d 	smladmi	r1, sp, lr, r2
 c00:	3b0b3a13 	blcc	2cf454 <_etext+0x2cd3ed>
 c04:	640b390b 	strvs	r3, [fp], #-2315	; 0xfffff6f5
 c08:	010b2013 	tsteq	fp, r3, lsl r0
 c0c:	1e000013 	mcrne	0, 0, r0, cr0, cr3, {0}
 c10:	0e030005 	cdpeq	0, 0, cr0, cr3, cr5, {0}
 c14:	19341349 	ldmdbne	r4!, {r0, r3, r6, r8, r9, ip}
 c18:	2e1f0000 	cdpcs	0, 1, cr0, cr15, cr0, {0}
 c1c:	6e133101 	mufvss	f3, f3, f1
 c20:	1113640e 	tstne	r3, lr, lsl #8
 c24:	40061201 	andmi	r1, r6, r1, lsl #4
 c28:	19429718 	stmdbne	r2, {r3, r4, r8, r9, sl, ip, pc}^
 c2c:	00001301 	andeq	r1, r0, r1, lsl #6
 c30:	31000520 	tstcc	r0, r0, lsr #10
 c34:	00180213 	andseq	r0, r8, r3, lsl r2
 c38:	012e2100 			; <UNDEFINED> instruction: 0x012e2100
 c3c:	0b3a0e03 	bleq	e84450 <_etext+0xe823e9>
 c40:	0b390b3b 	bleq	e43934 <_etext+0xe418cd>
 c44:	01111349 	tsteq	r1, r9, asr #6
 c48:	18400612 	stmdane	r0, {r1, r4, r9, sl}^
 c4c:	01194297 			; <UNDEFINED> instruction: 0x01194297
 c50:	22000013 	andcs	r0, r0, #19
 c54:	193f012e 	ldmdbne	pc!, {r1, r2, r3, r5, r8}	; <UNPREDICTABLE>
 c58:	0b3a0e03 	bleq	e8446c <_etext+0xe82405>
 c5c:	0b390b3b 	bleq	e43950 <_etext+0xe418e9>
 c60:	06120111 			; <UNDEFINED> instruction: 0x06120111
 c64:	42961840 	addsmi	r1, r6, #64, 16	; 0x400000
 c68:	00130119 	andseq	r0, r3, r9, lsl r1
	...

Disassembly of section .debug_aranges:

00000000 <.debug_aranges>:
   0:	0000002c 	andeq	r0, r0, ip, lsr #32
   4:	00000002 	andeq	r0, r0, r2
   8:	00040000 	andeq	r0, r4, r0
   c:	00000000 	andeq	r0, r0, r0
  10:	0000026c 	andeq	r0, r0, ip, ror #4
  14:	00000054 	andeq	r0, r0, r4, asr r0
  18:	000002c0 	andeq	r0, r0, r0, asr #5
  1c:	000000a0 	andeq	r0, r0, r0, lsr #1
  20:	00000360 	andeq	r0, r0, r0, ror #6
  24:	000000c4 	andeq	r0, r0, r4, asr #1
	...
  30:	00000034 	andeq	r0, r0, r4, lsr r0
  34:	01d40002 	bicseq	r0, r4, r2
  38:	00040000 	andeq	r0, r4, r0
  3c:	00000000 	andeq	r0, r0, r0
  40:	00000424 	andeq	r0, r0, r4, lsr #8
  44:	00000064 	andeq	r0, r0, r4, rrx
  48:	00000490 	muleq	r0, r0, r4
  4c:	00000006 	andeq	r0, r0, r6
  50:	00000496 	muleq	r0, r6, r4
  54:	00000006 	andeq	r0, r0, r6
  58:	0000049c 	muleq	r0, ip, r4
  5c:	00000006 	andeq	r0, r0, r6
	...
  68:	00000044 	andeq	r0, r0, r4, asr #32
  6c:	03450002 	movteq	r0, #20482	; 0x5002
  70:	00040000 	andeq	r0, r4, r0
  74:	00000000 	andeq	r0, r0, r0
  78:	000004a4 	andeq	r0, r0, r4, lsr #9
  7c:	00000090 	muleq	r0, r0, r0
  80:	00000534 	andeq	r0, r0, r4, lsr r5
  84:	00000090 	muleq	r0, r0, r0
  88:	00000000 	andeq	r0, r0, r0
  8c:	00000114 	andeq	r0, r0, r4, lsl r1
  90:	00000000 	andeq	r0, r0, r0
  94:	0000001c 	andeq	r0, r0, ip, lsl r0
  98:	000005c4 	andeq	r0, r0, r4, asr #11
  9c:	00000408 	andeq	r0, r0, r8, lsl #8
  a0:	000009cc 	andeq	r0, r0, ip, asr #19
  a4:	00000024 	andeq	r0, r0, r4, lsr #32
	...
  b0:	0000004c 	andeq	r0, r0, ip, asr #32
  b4:	06ea0002 	strbteq	r0, [sl], r2
  b8:	00040000 	andeq	r0, r4, r0
  bc:	00000000 	andeq	r0, r0, r0
  c0:	00000dd4 	ldrdeq	r0, [r0], -r4
  c4:	00000034 	andeq	r0, r0, r4, lsr r0
  c8:	00000e08 	andeq	r0, r0, r8, lsl #28
  cc:	0000003e 	andeq	r0, r0, lr, lsr r0
  d0:	00000e48 	andeq	r0, r0, r8, asr #28
  d4:	000000b8 	strheq	r0, [r0], -r8
  d8:	00000000 	andeq	r0, r0, r0
  dc:	00000118 	andeq	r0, r0, r8, lsl r1
  e0:	00000000 	andeq	r0, r0, r0
  e4:	0000004c 	andeq	r0, r0, ip, asr #32
  e8:	00000000 	andeq	r0, r0, r0
  ec:	00000060 	andeq	r0, r0, r0, rrx
  f0:	00000000 	andeq	r0, r0, r0
  f4:	00000060 	andeq	r0, r0, r0, rrx
	...
 100:	0000002c 	andeq	r0, r0, ip, lsr #32
 104:	093c0002 	ldmdbeq	ip!, {r1}
 108:	00040000 	andeq	r0, r4, r0
 10c:	00000000 	andeq	r0, r0, r0
 110:	00000f00 	andeq	r0, r0, r0, lsl #30
 114:	00000058 	andeq	r0, r0, r8, asr r0
 118:	00000f58 	andeq	r0, r0, r8, asr pc
 11c:	00000248 	andeq	r0, r0, r8, asr #4
 120:	000011a0 	andeq	r1, r0, r0, lsr #3
 124:	00000268 	andeq	r0, r0, r8, ror #4
	...
 130:	00000034 	andeq	r0, r0, r4, lsr r0
 134:	0b820002 	bleq	fe080144 <_ebss+0xde07def4>
 138:	00040000 	andeq	r0, r4, r0
 13c:	00000000 	andeq	r0, r0, r0
 140:	00001408 	andeq	r1, r0, r8, lsl #8
 144:	00000034 	andeq	r0, r0, r4, lsr r0
 148:	0000143c 	andeq	r1, r0, ip, lsr r4
 14c:	0000003e 	andeq	r0, r0, lr, lsr r0
 150:	0000147c 	andeq	r1, r0, ip, ror r4
 154:	00000278 	andeq	r0, r0, r8, ror r2
 158:	000016f4 	strdeq	r1, [r0], -r4
 15c:	00000138 	andeq	r0, r0, r8, lsr r1
	...
 168:	000000b4 	strheq	r0, [r0], -r4
 16c:	0d400002 	stcleq	0, cr0, [r0, #-8]
 170:	00040000 	andeq	r0, r4, r0
	...
 17c:	00000058 	andeq	r0, r0, r8, asr r0
 180:	00000000 	andeq	r0, r0, r0
 184:	00000020 	andeq	r0, r0, r0, lsr #32
 188:	0000182c 	andeq	r1, r0, ip, lsr #16
 18c:	00000024 	andeq	r0, r0, r4, lsr #32
 190:	00001850 	andeq	r1, r0, r0, asr r8
 194:	00000024 	andeq	r0, r0, r4, lsr #32
 198:	00000000 	andeq	r0, r0, r0
 19c:	00000114 	andeq	r0, r0, r4, lsl r1
 1a0:	00000000 	andeq	r0, r0, r0
 1a4:	00000024 	andeq	r0, r0, r4, lsr #32
 1a8:	00000000 	andeq	r0, r0, r0
 1ac:	00000046 	andeq	r0, r0, r6, asr #32
 1b0:	00000000 	andeq	r0, r0, r0
 1b4:	0000003e 	andeq	r0, r0, lr, lsr r0
 1b8:	00000000 	andeq	r0, r0, r0
 1bc:	000000b8 	strheq	r0, [r0], -r8
 1c0:	00001874 	andeq	r1, r0, r4, ror r8
 1c4:	000000dc 	ldrdeq	r0, [r0], -ip
 1c8:	00001950 	andeq	r1, r0, r0, asr r9
 1cc:	000000ac 	andeq	r0, r0, ip, lsr #1
 1d0:	00000000 	andeq	r0, r0, r0
 1d4:	00000058 	andeq	r0, r0, r8, asr r0
 1d8:	00000000 	andeq	r0, r0, r0
 1dc:	00000050 	andeq	r0, r0, r0, asr r0
 1e0:	00000000 	andeq	r0, r0, r0
 1e4:	00000174 	andeq	r0, r0, r4, ror r1
 1e8:	00000000 	andeq	r0, r0, r0
 1ec:	00000034 	andeq	r0, r0, r4, lsr r0
 1f0:	00000000 	andeq	r0, r0, r0
 1f4:	00000034 	andeq	r0, r0, r4, lsr r0
 1f8:	00000000 	andeq	r0, r0, r0
 1fc:	000000bc 	strheq	r0, [r0], -ip
 200:	00000000 	andeq	r0, r0, r0
 204:	0000001c 	andeq	r0, r0, ip, lsl r0
 208:	00000000 	andeq	r0, r0, r0
 20c:	0000001a 	andeq	r0, r0, sl, lsl r0
 210:	00000000 	andeq	r0, r0, r0
 214:	0000001a 	andeq	r0, r0, sl, lsl r0
	...
 220:	0000004c 	andeq	r0, r0, ip, asr #32
 224:	180a0002 	stmdane	sl, {r1}
 228:	00040000 	andeq	r0, r4, r0
 22c:	00000000 	andeq	r0, r0, r0
 230:	000019fc 	strdeq	r1, [r0], -ip
 234:	0000002c 	andeq	r0, r0, ip, lsr #32
 238:	00000000 	andeq	r0, r0, r0
 23c:	0000002c 	andeq	r0, r0, ip, lsr #32
 240:	00000000 	andeq	r0, r0, r0
 244:	000000b4 	strheq	r0, [r0], -r4
 248:	00001a28 	andeq	r1, r0, r8, lsr #20
 24c:	000000a0 	andeq	r0, r0, r0, lsr #1
 250:	00000000 	andeq	r0, r0, r0
 254:	00000044 	andeq	r0, r0, r4, asr #32
 258:	00000000 	andeq	r0, r0, r0
 25c:	0000000e 	andeq	r0, r0, lr
 260:	00000000 	andeq	r0, r0, r0
 264:	00000038 	andeq	r0, r0, r8, lsr r0
	...
 270:	0000004c 	andeq	r0, r0, ip, asr #32
 274:	1b560002 	blne	1580284 <_etext+0x157e21d>
 278:	00040000 	andeq	r0, r4, r0
 27c:	00000000 	andeq	r0, r0, r0
 280:	00001ac8 	andeq	r1, r0, r8, asr #21
 284:	00000020 	andeq	r0, r0, r0, lsr #32
 288:	00001ae8 	andeq	r1, r0, r8, ror #21
 28c:	00000074 	andeq	r0, r0, r4, ror r0
 290:	00000000 	andeq	r0, r0, r0
 294:	0000001c 	andeq	r0, r0, ip, lsl r0
 298:	00000000 	andeq	r0, r0, r0
 29c:	00000024 	andeq	r0, r0, r4, lsr #32
 2a0:	00001b5c 	andeq	r1, r0, ip, asr fp
 2a4:	00000088 	andeq	r0, r0, r8, lsl #1
 2a8:	00000000 	andeq	r0, r0, r0
 2ac:	0000002c 	andeq	r0, r0, ip, lsr #32
 2b0:	00000000 	andeq	r0, r0, r0
 2b4:	00000010 	andeq	r0, r0, r0, lsl r0
	...

Disassembly of section .debug_ranges:

00000000 <.debug_ranges>:
   0:	0000026c 	andeq	r0, r0, ip, ror #4
   4:	000002c0 	andeq	r0, r0, r0, asr #5
   8:	000002c0 	andeq	r0, r0, r0, asr #5
   c:	00000360 	andeq	r0, r0, r0, ror #6
  10:	00000360 	andeq	r0, r0, r0, ror #6
  14:	00000424 	andeq	r0, r0, r4, lsr #8
	...
  20:	00000424 	andeq	r0, r0, r4, lsr #8
  24:	00000488 	andeq	r0, r0, r8, lsl #9
  28:	00000490 	muleq	r0, r0, r4
  2c:	00000496 	muleq	r0, r6, r4
  30:	00000496 	muleq	r0, r6, r4
  34:	0000049c 	muleq	r0, ip, r4
  38:	0000049c 	muleq	r0, ip, r4
  3c:	000004a2 	andeq	r0, r0, r2, lsr #9
	...
  48:	000004a4 	andeq	r0, r0, r4, lsr #9
  4c:	00000534 	andeq	r0, r0, r4, lsr r5
  50:	00000534 	andeq	r0, r0, r4, lsr r5
  54:	000005c4 	andeq	r0, r0, r4, asr #11
  58:	00000001 	andeq	r0, r0, r1
  5c:	00000001 	andeq	r0, r0, r1
  60:	00000001 	andeq	r0, r0, r1
  64:	00000001 	andeq	r0, r0, r1
  68:	000005c4 	andeq	r0, r0, r4, asr #11
  6c:	000009cc 	andeq	r0, r0, ip, asr #19
  70:	000009cc 	andeq	r0, r0, ip, asr #19
  74:	000009f0 	strdeq	r0, [r0], -r0	; <UNPREDICTABLE>
	...
  80:	00000dd4 	ldrdeq	r0, [r0], -r4
  84:	00000e08 	andeq	r0, r0, r8, lsl #28
  88:	00000e08 	andeq	r0, r0, r8, lsl #28
  8c:	00000e46 	andeq	r0, r0, r6, asr #28
  90:	00000e48 	andeq	r0, r0, r8, asr #28
  94:	00000f00 	andeq	r0, r0, r0, lsl #30
  98:	00000001 	andeq	r0, r0, r1
  9c:	00000001 	andeq	r0, r0, r1
  a0:	00000001 	andeq	r0, r0, r1
  a4:	00000001 	andeq	r0, r0, r1
  a8:	00000001 	andeq	r0, r0, r1
  ac:	00000001 	andeq	r0, r0, r1
  b0:	00000001 	andeq	r0, r0, r1
  b4:	00000001 	andeq	r0, r0, r1
	...
  c0:	00000f00 	andeq	r0, r0, r0, lsl #30
  c4:	00000f58 	andeq	r0, r0, r8, asr pc
  c8:	00000f58 	andeq	r0, r0, r8, asr pc
  cc:	000011a0 	andeq	r1, r0, r0, lsr #3
  d0:	000011a0 	andeq	r1, r0, r0, lsr #3
  d4:	00001408 	andeq	r1, r0, r8, lsl #8
	...
  e0:	00001408 	andeq	r1, r0, r8, lsl #8
  e4:	0000143c 	andeq	r1, r0, ip, lsr r4
  e8:	0000143c 	andeq	r1, r0, ip, lsr r4
  ec:	0000147a 	andeq	r1, r0, sl, ror r4
  f0:	0000147c 	andeq	r1, r0, ip, ror r4
  f4:	000016f4 	strdeq	r1, [r0], -r4
  f8:	000016f4 	strdeq	r1, [r0], -r4
  fc:	0000182c 	andeq	r1, r0, ip, lsr #16
	...
 108:	00000001 	andeq	r0, r0, r1
 10c:	00000001 	andeq	r0, r0, r1
 110:	00000001 	andeq	r0, r0, r1
 114:	00000001 	andeq	r0, r0, r1
 118:	0000182c 	andeq	r1, r0, ip, lsr #16
 11c:	00001850 	andeq	r1, r0, r0, asr r8
 120:	00001850 	andeq	r1, r0, r0, asr r8
 124:	00001874 	andeq	r1, r0, r4, ror r8
 128:	00000001 	andeq	r0, r0, r1
 12c:	00000001 	andeq	r0, r0, r1
 130:	00000001 	andeq	r0, r0, r1
 134:	00000001 	andeq	r0, r0, r1
 138:	00000001 	andeq	r0, r0, r1
 13c:	00000001 	andeq	r0, r0, r1
 140:	00000001 	andeq	r0, r0, r1
 144:	00000001 	andeq	r0, r0, r1
 148:	00000001 	andeq	r0, r0, r1
 14c:	00000001 	andeq	r0, r0, r1
 150:	00001874 	andeq	r1, r0, r4, ror r8
 154:	00001950 	andeq	r1, r0, r0, asr r9
 158:	00001950 	andeq	r1, r0, r0, asr r9
 15c:	000019fc 	strdeq	r1, [r0], -ip
 160:	00000001 	andeq	r0, r0, r1
 164:	00000001 	andeq	r0, r0, r1
 168:	00000001 	andeq	r0, r0, r1
 16c:	00000001 	andeq	r0, r0, r1
 170:	00000001 	andeq	r0, r0, r1
 174:	00000001 	andeq	r0, r0, r1
 178:	00000001 	andeq	r0, r0, r1
 17c:	00000001 	andeq	r0, r0, r1
 180:	00000001 	andeq	r0, r0, r1
 184:	00000001 	andeq	r0, r0, r1
 188:	00000001 	andeq	r0, r0, r1
 18c:	00000001 	andeq	r0, r0, r1
 190:	00000001 	andeq	r0, r0, r1
 194:	00000001 	andeq	r0, r0, r1
 198:	00000001 	andeq	r0, r0, r1
 19c:	00000001 	andeq	r0, r0, r1
 1a0:	00000001 	andeq	r0, r0, r1
 1a4:	00000001 	andeq	r0, r0, r1
	...
 1b0:	000019fc 	strdeq	r1, [r0], -ip
 1b4:	00001a28 	andeq	r1, r0, r8, lsr #20
 1b8:	00000001 	andeq	r0, r0, r1
 1bc:	00000001 	andeq	r0, r0, r1
 1c0:	00000001 	andeq	r0, r0, r1
 1c4:	00000001 	andeq	r0, r0, r1
 1c8:	00001a28 	andeq	r1, r0, r8, lsr #20
 1cc:	00001ac8 	andeq	r1, r0, r8, asr #21
 1d0:	00000001 	andeq	r0, r0, r1
 1d4:	00000001 	andeq	r0, r0, r1
 1d8:	00000001 	andeq	r0, r0, r1
 1dc:	00000001 	andeq	r0, r0, r1
 1e0:	00000001 	andeq	r0, r0, r1
 1e4:	00000001 	andeq	r0, r0, r1
	...
 1f0:	00001ac8 	andeq	r1, r0, r8, asr #21
 1f4:	00001ae8 	andeq	r1, r0, r8, ror #21
 1f8:	00001ae8 	andeq	r1, r0, r8, ror #21
 1fc:	00001b5c 	andeq	r1, r0, ip, asr fp
 200:	00000001 	andeq	r0, r0, r1
 204:	00000001 	andeq	r0, r0, r1
 208:	00000001 	andeq	r0, r0, r1
 20c:	00000001 	andeq	r0, r0, r1
 210:	00001b5c 	andeq	r1, r0, ip, asr fp
 214:	00001be4 	andeq	r1, r0, r4, ror #23
 218:	00000001 	andeq	r0, r0, r1
 21c:	00000001 	andeq	r0, r0, r1
 220:	00000001 	andeq	r0, r0, r1
 224:	00000001 	andeq	r0, r0, r1
	...

Disassembly of section .debug_line:

00000000 <.debug_line>:
       0:	000001b2 			; <UNDEFINED> instruction: 0x000001b2
       4:	00e50003 	rsceq	r0, r5, r3
       8:	01020000 	mrseq	r0, (UNDEF: 2)
       c:	000d0efb 	strdeq	r0, [sp], -fp
      10:	01010101 	tsteq	r1, r1, lsl #2
      14:	01000000 	mrseq	r0, (UNDEF: 0)
      18:	64010000 	strvs	r0, [r1], #-0
      1c:	63675c3a 	cmnvs	r7, #14848	; 0x3a00
      20:	72612d63 	rsbvc	r2, r1, #6336	; 0x18c0
      24:	6f6e2d6d 	svcvs	0x006e2d6d
      28:	652d656e 	strvs	r6, [sp, #-1390]!	; 0xfffffa92
      2c:	2d696261 	sfmcs	f6, 2, [r9, #-388]!	; 0xfffffe7c
      30:	322d3031 	eorcc	r3, sp, #49	; 0x31
      34:	2d303230 	lfmcs	f3, 4, [r0, #-192]!	; 0xffffff40
      38:	6d2d3471 	cfstrsvs	mvf3, [sp, #-452]!	; 0xfffffe3c
      3c:	726f6a61 	rsbvc	r6, pc, #397312	; 0x61000
      40:	6d72615c 	ldfvse	f6, [r2, #-368]!	; 0xfffffe90
      44:	6e6f6e2d 	cdpvs	14, 6, cr6, cr15, cr13, {1}
      48:	61652d65 	cmnvs	r5, r5, ror #26
      4c:	695c6962 	ldmdbvs	ip, {r1, r5, r6, r8, fp, sp, lr}^
      50:	756c636e 	strbvc	r6, [ip, #-878]!	; 0xfffffc92
      54:	6d5c6564 	cfldr64vs	mvdx6, [ip, #-400]	; 0xfffffe70
      58:	69686361 	stmdbvs	r8!, {r0, r5, r6, r8, r9, sp, lr}^
      5c:	6400656e 	strvs	r6, [r0], #-1390	; 0xfffffa92
      60:	63675c3a 	cmnvs	r7, #14848	; 0x3a00
      64:	72612d63 	rsbvc	r2, r1, #6336	; 0x18c0
      68:	6f6e2d6d 	svcvs	0x006e2d6d
      6c:	652d656e 	strvs	r6, [sp, #-1390]!	; 0xfffffa92
      70:	2d696261 	sfmcs	f6, 2, [r9, #-388]!	; 0xfffffe7c
      74:	322d3031 	eorcc	r3, sp, #49	; 0x31
      78:	2d303230 	lfmcs	f3, 4, [r0, #-192]!	; 0xffffff40
      7c:	6d2d3471 	cfstrsvs	mvf3, [sp, #-452]!	; 0xfffffe3c
      80:	726f6a61 	rsbvc	r6, pc, #397312	; 0x61000
      84:	6d72615c 	ldfvse	f6, [r2, #-368]!	; 0xfffffe90
      88:	6e6f6e2d 	cdpvs	14, 6, cr6, cr15, cr13, {1}
      8c:	61652d65 	cmnvs	r5, r5, ror #26
      90:	695c6962 	ldmdbvs	ip, {r1, r5, r6, r8, fp, sp, lr}^
      94:	756c636e 	strbvc	r6, [ip, #-878]!	; 0xfffffc92
      98:	735c6564 	cmpvc	ip, #100, 10	; 0x19000000
      9c:	2e007379 	mcrcs	3, 0, r7, cr0, cr9, {3}
      a0:	2e2e2f2e 	cdpcs	15, 2, cr2, cr14, cr14, {1}
      a4:	6372732f 	cmnvs	r2, #-1140850688	; 0xbc000000
      a8:	434e492f 	movtmi	r4, #59695	; 0xe92f
      ac:	7665642f 	strbtvc	r6, [r5], -pc, lsr #8
      b0:	00656369 	rsbeq	r6, r5, r9, ror #6
      b4:	69616d00 	stmdbvs	r1!, {r8, sl, fp, sp, lr}^
      b8:	70632e6e 	rsbvc	r2, r3, lr, ror #28
      bc:	00000070 	andeq	r0, r0, r0, ror r0
      c0:	65645f00 	strbvs	r5, [r4, #-3840]!	; 0xfffff100
      c4:	6c756166 	ldfvse	f6, [r5], #-408	; 0xfffffe68
      c8:	79745f74 	ldmdbvc	r4!, {r2, r4, r5, r6, r8, r9, sl, fp, ip, lr}^
      cc:	2e736570 	mrccs	5, 3, r6, cr3, cr0, {3}
      d0:	00010068 	andeq	r0, r1, r8, rrx
      d4:	74735f00 	ldrbtvc	r5, [r3], #-3840	; 0xfffff100
      d8:	746e6964 	strbtvc	r6, [lr], #-2404	; 0xfffff69c
      dc:	0200682e 	andeq	r6, r0, #3014656	; 0x2e0000
      e0:	65650000 	strbvs	r0, [r5, #-0]!
      e4:	6d6f7270 	sfmvs	f7, 2, [pc, #-448]!	; ffffff2c <_ebss+0xdfffdcdc>
      e8:	0300682e 	movweq	r6, #2094	; 0x82e
      ec:	05000000 	streq	r0, [r0, #-0]
      f0:	02050001 	andeq	r0, r5, #1
      f4:	0000026c 	andeq	r0, r0, ip, ror #4
      f8:	05012903 	streq	r2, [r1, #-2307]	; 0xfffff6fd
      fc:	15052f1b 	strne	r2, [r5, #-3867]	; 0xfffff0e5
     100:	1b053d3d 	blne	14f5fc <_etext+0x14d595>
     104:	3d17054b 	cfldr32cc	mvfx0, [r7, #-300]	; 0xfffffed4
     108:	5a4b1405 	bpl	12c5124 <_etext+0x12c30bd>
     10c:	02910105 	addseq	r0, r1, #1073741825	; 0x40000001
     110:	01010009 	tsteq	r1, r9
     114:	05003105 	streq	r3, [r0, #-261]	; 0xfffffefb
     118:	0002c002 	andeq	ip, r2, r2
     11c:	01340300 	teqeq	r4, r0, lsl #6
     120:	055a0d05 	ldrbeq	r0, [sl, #-3333]	; 0xfffff2fb
     124:	12052f13 	andne	r2, r5, #19, 30	; 0x4c
     128:	670b0575 	smlsdxvs	fp, r5, r5, r0
     12c:	3d0c053d 	cfstr32cc	mvfx0, [ip, #-244]	; 0xffffff0c
     130:	02001305 	andeq	r1, r0, #335544320	; 0x14000000
     134:	052e0104 	streq	r0, [lr, #-260]!	; 0xfffffefc
     138:	09054b0f 	stmdbeq	r5, {r0, r1, r2, r3, r8, r9, fp, lr}
     13c:	2f0d053c 	svccs	0x000d053c
     140:	02001905 	andeq	r1, r0, #81920	; 0x14000
     144:	053c0104 	ldreq	r0, [ip, #-260]!	; 0xfffffefc
     148:	20053d13 	andcs	r3, r5, r3, lsl sp
     14c:	02040200 	andeq	r0, r4, #0, 4
     150:	000f054c 	andeq	r0, pc, ip, asr #10
     154:	4a020402 	bmi	81164 <_etext+0x7f0fd>
     158:	02000505 	andeq	r0, r0, #20971520	; 0x1400000
     15c:	05450204 	strbeq	r0, [r5, #-516]	; 0xfffffdfc
     160:	0105510b 	tsteq	r5, fp, lsl #2
     164:	0012023d 	andseq	r0, r2, sp, lsr r2
     168:	0f050101 	svceq	0x00050101
     16c:	60020500 	andvs	r0, r2, r0, lsl #10
     170:	03000003 	movweq	r0, #3
     174:	050100c6 	streq	r0, [r1, #-198]	; 0xffffff3a
     178:	05593d0d 	ldrbeq	r3, [r9, #-3341]	; 0xfffff2f3
     17c:	1405670e 	strne	r6, [r5], #-1806	; 0xfffff8f2
     180:	32100540 	andscc	r0, r0, #64, 10	; 0x10000000
     184:	052f0d05 	streq	r0, [pc, #-3333]!	; fffff487 <_ebss+0xdfffd237>
     188:	0b052f16 	bleq	14bde8 <_etext+0x149d81>
     18c:	680f053d 	stmdavs	pc, {r0, r2, r3, r4, r5, r8, sl}	; <UNPREDICTABLE>
     190:	75070559 	strvc	r0, [r7, #-1369]	; 0xfffffaa7
     194:	053d0b05 	ldreq	r0, [sp, #-2821]!	; 0xfffff4fb
     198:	0705ac05 	streq	sl, [r5, -r5, lsl #24]
     19c:	3d0b0522 	cfstr32cc	mvfx0, [fp, #-136]	; 0xffffff78
     1a0:	05ac0505 	streq	r0, [ip, #1285]!	; 0x505
     1a4:	0f05210b 	svceq	0x0005210b
     1a8:	05055d3d 	streq	r5, [r5, #-3389]	; 0xfffff2c3
     1ac:	01040200 	mrseq	r0, R12_usr
     1b0:	00090275 	andeq	r0, r9, r5, ror r2
     1b4:	015c0101 	cmpeq	ip, r1, lsl #2
     1b8:	00030000 	andeq	r0, r3, r0
     1bc:	000000c9 	andeq	r0, r0, r9, asr #1
     1c0:	0efb0102 	cdpeq	1, 15, cr0, cr11, cr2, {0}
     1c4:	0101000d 	tsteq	r1, sp
     1c8:	00000101 	andeq	r0, r0, r1, lsl #2
     1cc:	00000100 	andeq	r0, r0, r0, lsl #2
     1d0:	5c3a6401 	cfldrspl	mvf6, [sl], #-4
     1d4:	2d636367 	stclcs	3, cr6, [r3, #-412]!	; 0xfffffe64
     1d8:	2d6d7261 	sfmcs	f7, 2, [sp, #-388]!	; 0xfffffe7c
     1dc:	656e6f6e 	strbvs	r6, [lr, #-3950]!	; 0xfffff092
     1e0:	6261652d 	rsbvs	r6, r1, #188743680	; 0xb400000
     1e4:	30312d69 	eorscc	r2, r1, r9, ror #26
     1e8:	3230322d 	eorscc	r3, r0, #-805306366	; 0xd0000002
     1ec:	34712d30 	ldrbtcc	r2, [r1], #-3376	; 0xfffff2d0
     1f0:	6a616d2d 	bvs	185b6ac <_etext+0x1859645>
     1f4:	615c726f 	cmpvs	ip, pc, ror #4
     1f8:	6e2d6d72 	mcrvs	13, 1, r6, cr13, cr2, {3}
     1fc:	2d656e6f 	stclcs	14, cr6, [r5, #-444]!	; 0xfffffe44
     200:	69626165 	stmdbvs	r2!, {r0, r2, r5, r6, r8, sp, lr}^
     204:	636e695c 	cmnvs	lr, #92, 18	; 0x170000
     208:	6564756c 	strbvs	r7, [r4, #-1388]!	; 0xfffffa94
     20c:	63616d5c 	cmnvs	r1, #92, 26	; 0x1700
     210:	656e6968 	strbvs	r6, [lr, #-2408]!	; 0xfffff698
     214:	5c3a6400 	cfldrspl	mvf6, [sl], #-0
     218:	2d636367 	stclcs	3, cr6, [r3, #-412]!	; 0xfffffe64
     21c:	2d6d7261 	sfmcs	f7, 2, [sp, #-388]!	; 0xfffffe7c
     220:	656e6f6e 	strbvs	r6, [lr, #-3950]!	; 0xfffff092
     224:	6261652d 	rsbvs	r6, r1, #188743680	; 0xb400000
     228:	30312d69 	eorscc	r2, r1, r9, ror #26
     22c:	3230322d 	eorscc	r3, r0, #-805306366	; 0xd0000002
     230:	34712d30 	ldrbtcc	r2, [r1], #-3376	; 0xfffff2d0
     234:	6a616d2d 	bvs	185b6f0 <_etext+0x1859689>
     238:	615c726f 	cmpvs	ip, pc, ror #4
     23c:	6e2d6d72 	mcrvs	13, 1, r6, cr13, cr2, {3}
     240:	2d656e6f 	stclcs	14, cr6, [r5, #-444]!	; 0xfffffe44
     244:	69626165 	stmdbvs	r2!, {r0, r2, r5, r6, r8, sp, lr}^
     248:	636e695c 	cmnvs	lr, #92, 18	; 0x170000
     24c:	6564756c 	strbvs	r7, [r4, #-1388]!	; 0xfffffa94
     250:	7379735c 	cmnvc	r9, #92, 6	; 0x70000001
     254:	74730000 	ldrbtvc	r0, [r3], #-0
     258:	75747261 	ldrbvc	r7, [r4, #-609]!	; 0xfffffd9f
     25c:	63675f70 	cmnvs	r7, #112, 30	; 0x1c0
     260:	00632e63 	rsbeq	r2, r3, r3, ror #28
     264:	5f000000 	svcpl	0x00000000
     268:	61666564 	cmnvs	r6, r4, ror #10
     26c:	5f746c75 	svcpl	0x00746c75
     270:	65707974 	ldrbvs	r7, [r0, #-2420]!	; 0xfffff68c
     274:	00682e73 	rsbeq	r2, r8, r3, ror lr
     278:	5f000001 	svcpl	0x00000001
     27c:	69647473 	stmdbvs	r4!, {r0, r1, r4, r5, r6, sl, ip, sp, lr}^
     280:	682e746e 	stmdavs	lr!, {r1, r2, r3, r5, r6, sl, ip, sp, lr}
     284:	00000200 	andeq	r0, r0, r0, lsl #4
     288:	00010500 	andeq	r0, r1, r0, lsl #10
     28c:	04240205 	strteq	r0, [r4], #-517	; 0xfffffdfb
     290:	f6030000 			; <UNDEFINED> instruction: 0xf6030000
     294:	0e050101 	adfeqs	f0, f5, f1
     298:	2f130542 	svccs	0x00130542
     29c:	052e0505 	streq	r0, [lr, #-1285]!	; 0xfffffafb
     2a0:	13052221 	movwne	r2, #21025	; 0x5221
     2a4:	3c18053c 	cfldr32cc	mvfx0, [r8], {60}	; 0x3c
     2a8:	05201605 	streq	r1, [r0, #-1541]!	; 0xfffff9fb
     2ac:	04020005 	streq	r0, [r2], #-5
     2b0:	05521e01 	ldrbeq	r1, [r2, #-3585]	; 0xfffff1ff
     2b4:	9014031a 	andsls	r0, r4, sl, lsl r3
     2b8:	052e0505 	streq	r0, [lr, #-1285]!	; 0xfffffafb
     2bc:	1605222d 	strne	r2, [r5], -sp, lsr #4
     2c0:	2705052c 	strcs	r0, [r5, -ip, lsr #10]
     2c4:	082f0105 	stmdaeq	pc!, {r0, r2, r8}	; <UNPREDICTABLE>
     2c8:	05010100 	streq	r0, [r1, #-256]	; 0xffffff00
     2cc:	02050001 	andeq	r0, r5, #1
     2d0:	00000490 	muleq	r0, r0, r4
     2d4:	0102ac03 	tsteq	r2, r3, lsl #24
     2d8:	02000a05 	andeq	r0, r0, #20480	; 0x5000
     2dc:	02320104 	eorseq	r0, r2, #4, 2
     2e0:	01010001 	tsteq	r1, r1
     2e4:	05000105 	streq	r0, [r0, #-261]	; 0xfffffefb
     2e8:	00049602 	andeq	r9, r4, r2, lsl #12
     2ec:	02be0300 	adcseq	r0, lr, #0, 6
     2f0:	000a0501 	andeq	r0, sl, r1, lsl #10
     2f4:	32010402 	andcc	r0, r1, #33554432	; 0x2000000
     2f8:	01000102 	tsteq	r0, r2, lsl #2
     2fc:	00010501 	andeq	r0, r1, r1, lsl #10
     300:	049c0205 	ldreq	r0, [ip], #517	; 0x205
     304:	d0030000 	andle	r0, r3, r0
     308:	0a050102 	beq	140718 <_etext+0x13e6b1>
     30c:	01040200 	mrseq	r0, R12_usr
     310:	00010232 	andeq	r0, r1, r2, lsr r2
     314:	04b80101 	ldrteq	r0, [r8], #257	; 0x101
     318:	00030000 	andeq	r0, r3, r0
     31c:	00000141 	andeq	r0, r0, r1, asr #2
     320:	0efb0102 	cdpeq	1, 15, cr0, cr11, cr2, {0}
     324:	0101000d 	tsteq	r1, sp
     328:	00000101 	andeq	r0, r0, r1, lsl #2
     32c:	00000100 	andeq	r0, r0, r0, lsl #2
     330:	2f2e2e01 	svccs	0x002e2e01
     334:	542f2e2e 	strtpl	r2, [pc], #-3630	; 33c <_Z10eepromDumpmPh+0x7c>
     338:	57617669 	strbpl	r7, [r1, -r9, ror #12]!
     33c:	2f657261 	svccs	0x00657261
     340:	6c697475 	cfstrdvs	mvd7, [r9], #-468	; 0xfffffe2c
     344:	3a640073 	bcc	1900518 <_etext+0x18fe4b1>
     348:	6363675c 	cmnvs	r3, #92, 14	; 0x1700000
     34c:	6d72612d 	ldfvse	f6, [r2, #-180]!	; 0xffffff4c
     350:	6e6f6e2d 	cdpvs	14, 6, cr6, cr15, cr13, {1}
     354:	61652d65 	cmnvs	r5, r5, ror #26
     358:	312d6962 			; <UNDEFINED> instruction: 0x312d6962
     35c:	30322d30 	eorscc	r2, r2, r0, lsr sp
     360:	712d3032 			; <UNDEFINED> instruction: 0x712d3032
     364:	616d2d34 	cmnvs	sp, r4, lsr sp
     368:	5c726f6a 	ldclpl	15, cr6, [r2], #-424	; 0xfffffe58
     36c:	2d6d7261 	sfmcs	f7, 2, [sp, #-388]!	; 0xfffffe7c
     370:	656e6f6e 	strbvs	r6, [lr, #-3950]!	; 0xfffff092
     374:	6261652d 	rsbvs	r6, r1, #188743680	; 0xb400000
     378:	6e695c69 	cdpvs	12, 6, cr5, cr9, cr9, {3}
     37c:	64756c63 	ldrbtvs	r6, [r5], #-3171	; 0xfffff39d
     380:	616d5c65 	cmnvs	sp, r5, ror #24
     384:	6e696863 	cdpvs	8, 6, cr6, cr9, cr3, {3}
     388:	3a640065 	bcc	1900524 <_etext+0x18fe4bd>
     38c:	6363675c 	cmnvs	r3, #92, 14	; 0x1700000
     390:	6d72612d 	ldfvse	f6, [r2, #-180]!	; 0xffffff4c
     394:	6e6f6e2d 	cdpvs	14, 6, cr6, cr15, cr13, {1}
     398:	61652d65 	cmnvs	r5, r5, ror #26
     39c:	312d6962 			; <UNDEFINED> instruction: 0x312d6962
     3a0:	30322d30 	eorscc	r2, r2, r0, lsr sp
     3a4:	712d3032 			; <UNDEFINED> instruction: 0x712d3032
     3a8:	616d2d34 	cmnvs	sp, r4, lsr sp
     3ac:	5c726f6a 	ldclpl	15, cr6, [r2], #-424	; 0xfffffe58
     3b0:	2d6d7261 	sfmcs	f7, 2, [sp, #-388]!	; 0xfffffe7c
     3b4:	656e6f6e 	strbvs	r6, [lr, #-3950]!	; 0xfffff092
     3b8:	6261652d 	rsbvs	r6, r1, #188743680	; 0xb400000
     3bc:	6e695c69 	cdpvs	12, 6, cr5, cr9, cr9, {3}
     3c0:	64756c63 	ldrbtvs	r6, [r5], #-3171	; 0xfffff39d
     3c4:	79735c65 	ldmdbvc	r3!, {r0, r2, r5, r6, sl, fp, ip, lr}^
     3c8:	3a640073 	bcc	190059c <_etext+0x18fe535>
     3cc:	6363675c 	cmnvs	r3, #92, 14	; 0x1700000
     3d0:	6d72612d 	ldfvse	f6, [r2, #-180]!	; 0xffffff4c
     3d4:	6e6f6e2d 	cdpvs	14, 6, cr6, cr15, cr13, {1}
     3d8:	61652d65 	cmnvs	r5, r5, ror #26
     3dc:	312d6962 			; <UNDEFINED> instruction: 0x312d6962
     3e0:	30322d30 	eorscc	r2, r2, r0, lsr sp
     3e4:	712d3032 			; <UNDEFINED> instruction: 0x712d3032
     3e8:	616d2d34 	cmnvs	sp, r4, lsr sp
     3ec:	5c726f6a 	ldclpl	15, cr6, [r2], #-424	; 0xfffffe58
     3f0:	5c62696c 			; <UNDEFINED> instruction: 0x5c62696c
     3f4:	5c636367 	stclpl	3, cr6, [r3], #-412	; 0xfffffe64
     3f8:	2d6d7261 	sfmcs	f7, 2, [sp, #-388]!	; 0xfffffe7c
     3fc:	656e6f6e 	strbvs	r6, [lr, #-3950]!	; 0xfffff092
     400:	6261652d 	rsbvs	r6, r1, #188743680	; 0xb400000
     404:	30315c69 	eorscc	r5, r1, r9, ror #24
     408:	312e322e 			; <UNDEFINED> instruction: 0x312e322e
     40c:	636e695c 	cmnvs	lr, #92, 18	; 0x170000
     410:	6564756c 	strbvs	r7, [r4, #-1388]!	; 0xfffffa94
     414:	61750000 	cmnvs	r5, r0
     418:	74737472 	ldrbtvc	r7, [r3], #-1138	; 0xfffffb8e
     41c:	2e6f6964 	vnmulcs.f16	s13, s30, s9	; <UNPREDICTABLE>
     420:	00010063 	andeq	r0, r1, r3, rrx
     424:	65645f00 	strbvs	r5, [r4, #-3840]!	; 0xfffff100
     428:	6c756166 	ldfvse	f6, [r5], #-408	; 0xfffffe68
     42c:	79745f74 	ldmdbvc	r4!, {r2, r4, r5, r6, r8, r9, sl, fp, ip, lr}^
     430:	2e736570 	mrccs	5, 3, r6, cr3, cr0, {3}
     434:	00020068 	andeq	r0, r2, r8, rrx
     438:	74735f00 	ldrbtvc	r5, [r3], #-3840	; 0xfffff100
     43c:	746e6964 	strbtvc	r6, [lr], #-2404	; 0xfffff69c
     440:	0300682e 	movweq	r6, #2094	; 0x82e
     444:	74730000 	ldrbtvc	r0, [r3], #-0
     448:	67726164 	ldrbvs	r6, [r2, -r4, ror #2]!
     44c:	0400682e 	streq	r6, [r0], #-2094	; 0xfffff7d2
     450:	623c0000 	eorsvs	r0, ip, #0
     454:	746c6975 	strbtvc	r6, [ip], #-2421	; 0xfffff68b
     458:	3e6e692d 	vmulcc.f16	s13, s28, s27	; <UNPREDICTABLE>
     45c:	00000000 	andeq	r0, r0, r0
     460:	00010500 	andeq	r0, r1, r0, lsl #10
     464:	04a40205 	strteq	r0, [r4], #517	; 0x205
     468:	ce030000 	cdpgt	0, 0, cr0, cr3, cr0, {0}
     46c:	05050102 	streq	r0, [r5, #-258]	; 0xfffffefe
     470:	0402006a 	streq	r0, [r2], #-106	; 0xffffff96
     474:	003c0601 	eorseq	r0, ip, r1, lsl #12
     478:	3c020402 	cfstrscc	mvf0, [r2], {2}
     47c:	03040200 	movweq	r0, #16896	; 0x4200
     480:	0609053c 			; <UNDEFINED> instruction: 0x0609053c
     484:	05580d03 	ldrbeq	r0, [r8, #-3331]	; 0xfffff2fd
     488:	07058208 	streq	r8, [r5, -r8, lsl #4]
     48c:	3620053c 			; <UNDEFINED> instruction: 0x3620053c
     490:	054a1005 	strbeq	r1, [sl, #-5]
     494:	03793305 	cmneq	r9, #335544320	; 0x14000000
     498:	09057424 	stmdbeq	r5, {r2, r5, sl, ip, sp, lr}
     49c:	05664c03 	strbeq	r4, [r6, #-3075]!	; 0xfffff3fd
     4a0:	20350301 	eorscs	r0, r5, r1, lsl #6
     4a4:	01000c02 	tsteq	r0, r2, lsl #24
     4a8:	00010501 	andeq	r0, r1, r1, lsl #10
     4ac:	05340205 	ldreq	r0, [r4, #-517]!	; 0xfffffdfb
     4b0:	b4030000 	strlt	r0, [r3], #-0
     4b4:	05050103 	streq	r0, [r5, #-259]	; 0xfffffefd
     4b8:	5800cc03 	stmdapl	r0, {r0, r1, sl, fp, lr, pc}
     4bc:	01040200 	mrseq	r0, R12_usr
     4c0:	59064a06 	stmdbpl	r6, {r1, r2, r9, fp, lr}
     4c4:	01040200 	mrseq	r0, R12_usr
     4c8:	0e053c06 	cdpeq	12, 0, cr3, cr5, cr6, {0}
     4cc:	05055d06 	streq	r5, [r5, #-3334]	; 0xfffff2fa
     4d0:	2611052e 	ldrcs	r0, [r1], -lr, lsr #10
     4d4:	054a0b05 	strbeq	r0, [sl, #-2821]	; 0xfffff4fb
     4d8:	1605300d 	strne	r3, [r5], -sp
     4dc:	4a100576 	bmi	401abc <_etext+0x3ffa55>
     4e0:	02000905 	andeq	r0, r0, #81920	; 0x14000
     4e4:	05360204 	ldreq	r0, [r6, #-516]!	; 0xfffffdfc
     4e8:	0402002a 	streq	r0, [r2], #-42	; 0xffffffd6
     4ec:	09052e02 	stmdbeq	r5, {r1, r9, sl, fp, sp}
     4f0:	02040200 	andeq	r0, r4, #0, 4
     4f4:	0027053c 	eoreq	r0, r7, ip, lsr r5
     4f8:	03020402 	movweq	r0, #9218	; 0x2402
     4fc:	05054a6e 	streq	r4, [r5, #-2670]	; 0xfffff592
     500:	01040200 	mrseq	r0, R12_usr
     504:	030a053c 	movweq	r0, #42300	; 0xa53c
     508:	0b05580c 	bleq	156540 <_etext+0x1544d9>
     50c:	05200c03 	streq	r0, [r0, #-3075]!	; 0xfffff3fd
     510:	09022201 	stmdbeq	r2, {r0, r9, sp}
     514:	05010100 	streq	r0, [r1, #-256]	; 0xffffff00
     518:	02050001 	andeq	r0, r5, #1
     51c:	00000000 	andeq	r0, r0, r0
     520:	0104c103 	tsteq	r4, r3, lsl #2
     524:	c9030e05 	stmdbgt	r3, {r0, r2, r9, sl, fp}
     528:	05055800 	streq	r5, [r5, #-2048]	; 0xfffff800
     52c:	04020035 	streq	r0, [r2], #-53	; 0xffffffcb
     530:	063c0601 	ldrteq	r0, [ip], -r1, lsl #12
     534:	04020059 	streq	r0, [r2], #-89	; 0xffffffa7
     538:	063c0601 	ldrteq	r0, [ip], -r1, lsl #12
     53c:	04020059 	streq	r0, [r2], #-89	; 0xffffffa7
     540:	054a0601 	strbeq	r0, [sl, #-1537]	; 0xfffff9ff
     544:	055e060c 	ldrbeq	r0, [lr, #-1548]	; 0xfffff9f4
     548:	3c0a0311 	stccc	3, cr0, [sl], {17}
     54c:	05660f05 	strbeq	r0, [r6, #-3845]!	; 0xfffff0fb
     550:	0f05250b 	svceq	0x0005250b
     554:	41110550 	tstmi	r1, r0, asr r5
     558:	054f1a05 	strbeq	r1, [pc, #-2565]	; fffffb5b <_ebss+0xdfffd90b>
     55c:	0b05420d 	bleq	150d98 <_etext+0x14ed31>
     560:	001c0527 	andseq	r0, ip, r7, lsr #10
     564:	4a010402 	bmi	41574 <_etext+0x3f50d>
     568:	055a1805 	ldrbeq	r1, [sl, #-2053]	; 0xfffff7fb
     56c:	0b053d0d 	bleq	14f9a8 <_etext+0x14d941>
     570:	001c0526 	andseq	r0, ip, r6, lsr #10
     574:	4a010402 	bmi	41584 <_etext+0x3f51d>
     578:	02002f05 	andeq	r2, r0, #5, 30
     57c:	054a0204 	strbeq	r0, [sl, #-516]	; 0xfffffdfc
     580:	1c05510f 	stfnes	f5, [r5], {15}
     584:	420d054c 	andmi	r0, sp, #76, 10	; 0x13000000
     588:	05280b05 	streq	r0, [r8, #-2821]!	; 0xfffff4fb
     58c:	1e054f12 	mcrne	15, 0, r4, cr5, cr2, {0}
     590:	3316053c 	tstcc	r6, #60, 10	; 0xf000000
     594:	03410d05 	movteq	r0, #7429	; 0x1d05
     598:	0f05824a 	svceq	0x0005824a
     59c:	05206503 	streq	r6, [r0, #-1283]!	; 0xfffffafd
     5a0:	203a030d 	eorscs	r0, sl, sp, lsl #6
     5a4:	1e030a05 	vmlane.f32	s0, s6, s10
     5a8:	3c160520 	cfldr32cc	mvfx0, [r6], {32}
     5ac:	05330505 	ldreq	r0, [r3, #-1285]!	; 0xfffffafb
     5b0:	01054f0b 	tsteq	r5, fp, lsl #30
     5b4:	000f0222 	andeq	r0, pc, r2, lsr #4
     5b8:	01050101 	tsteq	r5, r1, lsl #2
     5bc:	00020500 	andeq	r0, r2, r0, lsl #10
     5c0:	03000000 	movweq	r0, #0
     5c4:	0501069a 	streq	r0, [r1, #-1690]	; 0xfffff966
     5c8:	2e1e030c 	cdpcs	3, 1, cr0, cr14, cr12, {0}
     5cc:	02760105 	rsbseq	r0, r6, #1073741825	; 0x40000001
     5d0:	01010005 	tsteq	r1, r5
     5d4:	05000105 	streq	r0, [r0, #-261]	; 0xfffffefb
     5d8:	0005c402 	andeq	ip, r5, r2, lsl #8
     5dc:	06e40300 	strbteq	r0, [r4], r0, lsl #6
     5e0:	5f050501 	svcpl	0x00050501
     5e4:	01040200 	mrseq	r0, R12_usr
     5e8:	0a054a06 	beq	152e08 <_etext+0x150da1>
     5ec:	01040200 	mrseq	r0, R12_usr
     5f0:	15055d06 	strne	r5, [r5, #-3334]	; 0xfffff2fa
     5f4:	2e090525 	cfsh32cs	mvfx0, mvfx9, #21
     5f8:	05221405 	streq	r1, [r2, #-1029]!	; 0xfffffbfb
     5fc:	04020016 	streq	r0, [r2], #-22	; 0xffffffea
     600:	09053b01 	stmdbeq	r5, {r0, r8, r9, fp, ip, sp}
     604:	01040200 	mrseq	r0, R12_usr
     608:	2f340549 	svccs	0x00340549
     60c:	054a2805 	strbeq	r2, [sl, #-2053]	; 0xfffff7fb
     610:	12053609 	andne	r3, r5, #9437184	; 0x900000
     614:	4f0c054f 	svcmi	0x000c054f
     618:	052e0b05 	streq	r0, [lr, #-2821]!	; 0xfffff4fb
     61c:	17054115 	smladne	r5, r5, r1, r4
     620:	2f130542 	svccs	0x00130542
     624:	0c031d05 	stceq	13, cr1, [r3], {5}
     628:	3c14053c 	cfldr32cc	mvfx0, [r4], {60}	; 0x3c
     62c:	14032105 	strne	r2, [r3], #-261	; 0xfffffefb
     630:	0101b102 	tsteq	r1, r2, lsl #2
     634:	053c1705 	ldreq	r1, [ip, #-1797]!	; 0xfffff8fb
     638:	0402002e 	streq	r0, [r2], #-46	; 0xffffffd2
     63c:	1f052e01 	svcne	0x00052e01
     640:	2a05423e 	bcs	150f40 <_etext+0x14eed9>
     644:	3c1f0567 	cfldr32cc	mvfx0, [pc], {103}	; 0x67
     648:	055d1505 	ldrbeq	r1, [sp, #-1285]	; 0xfffffafb
     64c:	200b0321 	andcs	r0, fp, r1, lsr #6
     650:	054a1f05 	strbeq	r1, [sl, #-3845]	; 0xfffff0fb
     654:	056b2515 	strbeq	r2, [fp, #-1301]!	; 0xfffffaeb
     658:	200c0321 	andcs	r0, ip, r1, lsr #6
     65c:	054a1f05 	strbeq	r1, [sl, #-3845]	; 0xfffff0fb
     660:	1805251d 	stmdane	r5, {r0, r2, r3, r4, r8, sl, sp}
     664:	20170534 	andscs	r0, r7, r4, lsr r5
     668:	05332605 	ldreq	r2, [r3, #-1541]!	; 0xfffff9fb
     66c:	23052025 	movwcs	r2, #20517	; 0x5025
     670:	25210520 	strcs	r0, [r1, #-1312]!	; 0xfffffae0
     674:	341e0544 	ldrcc	r0, [lr], #-1348	; 0xfffffabc
     678:	05331505 	ldreq	r1, [r3, #-1285]!	; 0xfffffafb
     67c:	200b031b 	andcs	r0, fp, fp, lsl r3
     680:	055d2105 	ldrbeq	r2, [sp, #-261]	; 0xfffffefb
     684:	45052e15 	strmi	r2, [r5, #-3605]	; 0xfffff1eb
     688:	03040200 	movweq	r0, #16896	; 0x4200
     68c:	002b0520 	eoreq	r0, fp, r0, lsr #10
     690:	3c010402 	cfstrscc	mvf0, [r1], {2}
     694:	02001505 	andeq	r1, r0, #20971520	; 0x1400000
     698:	354a0104 	strbcc	r0, [sl, #-260]	; 0xfffffefc
     69c:	054f1705 	strbeq	r1, [pc, #-1797]	; ffffff9f <_ebss+0xdfffdd4f>
     6a0:	1e055a23 	vmlane.f32	s10, s10, s7
     6a4:	221d054b 	andscs	r0, sp, #314572800	; 0x12c00000
     6a8:	05482805 	strbeq	r2, [r8, #-2053]	; 0xfffff7fb
     6ac:	15053c1e 	strne	r3, [r5, #-3102]	; 0xfffff3e2
     6b0:	052e0903 	streq	r0, [lr, #-2307]!	; 0xfffff6fd
     6b4:	200b0321 	andcs	r0, fp, r1, lsr #6
     6b8:	054a1f05 	strbeq	r1, [sl, #-3845]	; 0xfffff0fb
     6bc:	1e05251d 	mcrne	5, 0, r2, cr5, cr13, {0}
     6c0:	341d0533 	ldrcc	r0, [sp], #-1331	; 0xfffffacd
     6c4:	05331505 	ldreq	r1, [r3, #-1285]!	; 0xfffffafb
     6c8:	20100321 	andscs	r0, r0, r1, lsr #6
     6cc:	054a1f05 	strbeq	r1, [sl, #-3845]	; 0xfffff0fb
     6d0:	1e05251d 	mcrne	5, 0, r2, cr5, cr13, {0}
     6d4:	341d0533 	ldrcc	r0, [sp], #-1331	; 0xfffffacd
     6d8:	05352105 	ldreq	r2, [r5, #-261]!	; 0xfffffefb
     6dc:	21052e15 	tstcs	r5, r5, lsl lr
     6e0:	5837055b 	ldmdapl	r7!, {r0, r1, r3, r4, r6, r8, sl}
     6e4:	02002405 	andeq	r2, r0, #83886080	; 0x5000000
     6e8:	053a0104 	ldreq	r0, [sl, #-260]!	; 0xfffffefc
     6ec:	04020030 	streq	r0, [r2], #-48	; 0xffffffd0
     6f0:	15054a01 	strne	r4, [r5, #-2561]	; 0xfffff5ff
     6f4:	01040200 	mrseq	r0, R12_usr
     6f8:	3025051f 	eorcc	r0, r5, pc, lsl r5
     6fc:	054a3105 	strbeq	r3, [sl, #-261]	; 0xfffffefb
     700:	17053b3e 	smladxne	r5, lr, fp, r3
     704:	053c0a03 	ldreq	r0, [ip, #-2563]!	; 0xfffff5fd
     708:	17053e22 	strne	r3, [r5, -r2, lsr #28]
     70c:	00200543 	eoreq	r0, r0, r3, asr #10
     710:	3c010402 	cfstrscc	mvf0, [r1], {2}
     714:	054f2605 	strbeq	r2, [pc, #-1541]	; 117 <g_pfnVectors+0x117>
     718:	21053c2a 	tstcs	r5, sl, lsr #24
     71c:	3517056c 	ldrcc	r0, [r7, #-1388]	; 0xfffffa94
     720:	02002805 	andeq	r2, r0, #327680	; 0x50000
     724:	053c0104 	ldreq	r0, [ip, #-260]!	; 0xfffffefc
     728:	19053e26 	stmdbne	r5, {r1, r2, r5, r9, sl, fp, ip, sp}
     72c:	002a053c 	eoreq	r0, sl, ip, lsr r5
     730:	22030402 	andcs	r0, r3, #33554432	; 0x2000000
     734:	02002e05 	andeq	r2, r0, #5, 28	; 0x50
     738:	053c0304 	ldreq	r0, [ip, #-772]!	; 0xfffffcfc
     73c:	0402003e 	streq	r0, [r2], #-62	; 0xffffffc2
     740:	19057203 	stmdbne	r5, {r0, r1, r9, ip, sp, lr}
     744:	01040200 	mrseq	r0, R12_usr
     748:	0317053c 	tsteq	r7, #60, 10	; 0xf000000
     74c:	26053c0a 	strcs	r3, [r5], -sl, lsl #24
     750:	3c2a0541 	cfstr32cc	mvfx0, [sl], #-260	; 0xfffffefc
     754:	056c1505 	strbeq	r1, [ip, #-1285]!	; 0xfffffafb
     758:	04020024 	streq	r0, [r2], #-36	; 0xffffffdc
     75c:	30052302 	andcc	r2, r5, r2, lsl #6
     760:	02040200 	andeq	r0, r4, #0, 4
     764:	003b0520 	eorseq	r0, fp, r0, lsr #10
     768:	4a020402 	bmi	81778 <_etext+0x7f711>
     76c:	02002405 	andeq	r2, r0, #83886080	; 0x5000000
     770:	05740204 	ldrbeq	r0, [r4, #-516]!	; 0xfffffdfc
     774:	04020026 	streq	r0, [r2], #-38	; 0xffffffda
     778:	24051f02 	strcs	r1, [r5], #-3842	; 0xfffff0fe
     77c:	02040200 	andeq	r0, r4, #0, 4
     780:	002a053d 	eoreq	r0, sl, sp, lsr r5
     784:	1f020402 	svcne	0x00020402
     788:	02002c05 	andeq	r2, r0, #1280	; 0x500
     78c:	05560204 	ldrbeq	r0, [r6, #-516]	; 0xfffffdfc
     790:	04020015 	streq	r0, [r2], #-21	; 0xffffffeb
     794:	09035801 	stmdbeq	r3, {r0, fp, ip, lr}
     798:	0b036b3c 	bleq	db490 <_etext+0xd9429>
     79c:	0b036b20 	bleq	db424 <_etext+0xd93bd>
     7a0:	09054f20 	stmdbeq	r5, {r5, r8, r9, sl, fp, lr}
     7a4:	030b0523 	movweq	r0, #46371	; 0xb523
     7a8:	05207d88 	streq	r7, [r0, #-3464]!	; 0xfffff278
     7ac:	01052e0a 	tsteq	r5, sl, lsl #28
     7b0:	3c02fa03 			; <UNDEFINED> instruction: 0x3c02fa03
     7b4:	01000902 	tsteq	r0, r2, lsl #18
     7b8:	00010501 	andeq	r0, r1, r1, lsl #10
     7bc:	09cc0205 	stmibeq	ip, {r0, r2, r9}^
     7c0:	94030000 	strls	r0, [r3], #-0
     7c4:	0505010a 	streq	r0, [r5, #-266]	; 0xfffffef6
     7c8:	01053e50 	tsteq	r5, r0, asr lr
     7cc:	00070250 	andeq	r0, r7, r0, asr r2
     7d0:	027d0101 	rsbseq	r0, sp, #1073741824	; 0x40000000
     7d4:	00030000 	andeq	r0, r3, r0
     7d8:	0000010a 	andeq	r0, r0, sl, lsl #2
     7dc:	0efb0102 	cdpeq	1, 15, cr0, cr11, cr2, {0}
     7e0:	0101000d 	tsteq	r1, sp
     7e4:	00000101 	andeq	r0, r0, r1, lsl #2
     7e8:	00000100 	andeq	r0, r0, r0, lsl #2
     7ec:	2f2e2e01 	svccs	0x002e2e01
     7f0:	732f2e2e 			; <UNDEFINED> instruction: 0x732f2e2e
     7f4:	472f6372 			; <UNDEFINED> instruction: 0x472f6372
     7f8:	61626f6c 	cmnvs	r2, ip, ror #30
     7fc:	2e2e006c 	cdpcs	0, 2, cr0, cr14, cr12, {3}
     800:	2f2e2e2f 	svccs	0x002e2e2f
     804:	2f637273 	svccs	0x00637273
     808:	76697264 	strbtvc	r7, [r9], -r4, ror #4
     80c:	64007265 	strvs	r7, [r0], #-613	; 0xfffffd9b
     810:	63675c3a 	cmnvs	r7, #14848	; 0x3a00
     814:	72612d63 	rsbvc	r2, r1, #6336	; 0x18c0
     818:	6f6e2d6d 	svcvs	0x006e2d6d
     81c:	652d656e 	strvs	r6, [sp, #-1390]!	; 0xfffffa92
     820:	2d696261 	sfmcs	f6, 2, [r9, #-388]!	; 0xfffffe7c
     824:	322d3031 	eorcc	r3, sp, #49	; 0x31
     828:	2d303230 	lfmcs	f3, 4, [r0, #-192]!	; 0xffffff40
     82c:	6d2d3471 	cfstrsvs	mvf3, [sp, #-452]!	; 0xfffffe3c
     830:	726f6a61 	rsbvc	r6, pc, #397312	; 0x61000
     834:	6d72615c 	ldfvse	f6, [r2, #-368]!	; 0xfffffe90
     838:	6e6f6e2d 	cdpvs	14, 6, cr6, cr15, cr13, {1}
     83c:	61652d65 	cmnvs	r5, r5, ror #26
     840:	695c6962 	ldmdbvs	ip, {r1, r5, r6, r8, fp, sp, lr}^
     844:	756c636e 	strbvc	r6, [ip, #-878]!	; 0xfffffc92
     848:	6d5c6564 	cfldr64vs	mvdx6, [ip, #-400]	; 0xfffffe70
     84c:	69686361 	stmdbvs	r8!, {r0, r5, r6, r8, r9, sp, lr}^
     850:	6400656e 	strvs	r6, [r0], #-1390	; 0xfffffa92
     854:	63675c3a 	cmnvs	r7, #14848	; 0x3a00
     858:	72612d63 	rsbvc	r2, r1, #6336	; 0x18c0
     85c:	6f6e2d6d 	svcvs	0x006e2d6d
     860:	652d656e 	strvs	r6, [sp, #-1390]!	; 0xfffffa92
     864:	2d696261 	sfmcs	f6, 2, [r9, #-388]!	; 0xfffffe7c
     868:	322d3031 	eorcc	r3, sp, #49	; 0x31
     86c:	2d303230 	lfmcs	f3, 4, [r0, #-192]!	; 0xffffff40
     870:	6d2d3471 	cfstrsvs	mvf3, [sp, #-452]!	; 0xfffffe3c
     874:	726f6a61 	rsbvc	r6, pc, #397312	; 0x61000
     878:	6d72615c 	ldfvse	f6, [r2, #-368]!	; 0xfffffe90
     87c:	6e6f6e2d 	cdpvs	14, 6, cr6, cr15, cr13, {1}
     880:	61652d65 	cmnvs	r5, r5, ror #26
     884:	695c6962 	ldmdbvs	ip, {r1, r5, r6, r8, fp, sp, lr}^
     888:	756c636e 	strbvc	r6, [ip, #-878]!	; 0xfffffc92
     88c:	735c6564 	cmpvc	ip, #100, 10	; 0x19000000
     890:	2e007379 	mcrcs	3, 0, r7, cr0, cr9, {3}
     894:	2e2e2f2e 	cdpcs	15, 2, cr2, cr14, cr14, {1}
     898:	6372732f 	cmnvs	r2, #-1140850688	; 0xbc000000
     89c:	434e492f 	movtmi	r4, #59695	; 0xe92f
     8a0:	6e490000 	cdpvs	0, 4, cr0, cr9, cr0, {0}
     8a4:	64756c63 	ldrbtvs	r6, [r5], #-3171	; 0xfffff39d
     8a8:	00682e65 	rsbeq	r2, r8, r5, ror #28
     8ac:	67000001 	strvs	r0, [r0, -r1]
     8b0:	2e6f6970 			; <UNDEFINED> instruction: 0x2e6f6970
     8b4:	00707063 	rsbseq	r7, r0, r3, rrx
     8b8:	5f000002 	svcpl	0x00000002
     8bc:	61666564 	cmnvs	r6, r4, ror #10
     8c0:	5f746c75 	svcpl	0x00746c75
     8c4:	65707974 	ldrbvs	r7, [r0, #-2420]!	; 0xfffff68c
     8c8:	00682e73 	rsbeq	r2, r8, r3, ror lr
     8cc:	5f000003 	svcpl	0x00000003
     8d0:	69647473 	stmdbvs	r4!, {r0, r1, r4, r5, r6, sl, ip, sp, lr}^
     8d4:	682e746e 	stmdavs	lr!, {r1, r2, r3, r5, r6, sl, ip, sp, lr}
     8d8:	00000400 	andeq	r0, r0, r0, lsl #8
     8dc:	2e737973 			; <UNDEFINED> instruction: 0x2e737973
     8e0:	00050068 	andeq	r0, r5, r8, rrx
     8e4:	01050000 	mrseq	r0, (UNDEF: 5)
     8e8:	d4020500 	strle	r0, [r2], #-1280	; 0xfffffb00
     8ec:	0300000d 	movweq	r0, #13
     8f0:	12050121 	andne	r0, r5, #1073741832	; 0x40000008
     8f4:	2f0b054b 	svccs	0x000b054b
     8f8:	053d1105 	ldreq	r1, [sp, #-261]!	; 0xfffffefb
     8fc:	0f053c09 	svceq	0x00053c09
     900:	3a05052f 	bcc	141dc4 <_etext+0x13fd5d>
     904:	05211505 	streq	r1, [r1, #-1285]!	; 0xfffffafb
     908:	0105230c 	tsteq	r5, ip, lsl #6
     90c:	00060221 	andeq	r0, r6, r1, lsr #4
     910:	01050101 	tsteq	r5, r1, lsl #2
     914:	08020500 	stmdaeq	r2, {r8, sl}
     918:	0300000e 	movweq	r0, #14
     91c:	1205012b 	andne	r0, r5, #-1073741814	; 0xc000000a
     920:	2e1c054b 	cfmac32cs	mvfx0, mvfx12, mvfx11
     924:	052f0b05 	streq	r0, [pc, #-2821]!	; fffffe27 <_ebss+0xdfffdbd7>
     928:	09053d11 	stmdbeq	r5, {r0, r4, r8, sl, fp, ip, sp}
     92c:	2f0d053c 	svccs	0x000d053c
     930:	053d0f05 	ldreq	r0, [sp, #-3845]!	; 0xfffff0fb
     934:	15053905 	strne	r3, [r5, #-2309]	; 0xfffff6fb
     938:	240c0521 	strcs	r0, [ip], #-1313	; 0xfffffadf
     93c:	02210105 	eoreq	r0, r1, #1073741825	; 0x40000001
     940:	01010006 	tsteq	r1, r6
     944:	21050204 	tstcs	r5, r4, lsl #4
     948:	48020500 	stmdami	r2, {r8, sl}
     94c:	1800000e 	stmdane	r0, {r1, r2, r3}
     950:	053d0e05 	ldreq	r0, [sp, #-3589]!	; 0xfffff1fb
     954:	05053221 	streq	r3, [r5, #-545]	; 0xfffffddf
     958:	6868684d 	stmdavs	r8!, {r0, r2, r3, r6, fp, sp, lr}^
     95c:	05680f05 	strbeq	r0, [r8, #-3845]!	; 0xfffff0fb
     960:	0505200d 	streq	r2, [r5, #-13]
     964:	082f082f 	stmdaeq	pc!, {r0, r1, r2, r3, r5, fp}	; <UNPREDICTABLE>
     968:	3d010513 	cfstr32cc	mvfx0, [r1, #-76]	; 0xffffffb4
     96c:	01010008 	tsteq	r1, r8
     970:	21050204 	tstcs	r5, r4, lsl #4
     974:	00020500 	andeq	r0, r2, r0, lsl #10
     978:	03000000 	movweq	r0, #0
     97c:	0e05011c 	mcreq	1, 0, r0, cr5, cr12, {0}
     980:	3221053d 	eorcc	r0, r1, #255852544	; 0xf400000
     984:	684d0505 	stmdavs	sp, {r0, r2, r8, sl}^
     988:	05686868 	strbeq	r6, [r8, #-2152]!	; 0xfffff798
     98c:	0d05680f 	stceq	8, cr6, [r5, #-60]	; 0xffffffc4
     990:	2f050520 	svccs	0x00050520
     994:	2f082f08 	svccs	0x00082f08
     998:	2f082f08 	svccs	0x00082f08
     99c:	023d0105 	eorseq	r0, sp, #1073741825	; 0x40000001
     9a0:	01010013 	tsteq	r1, r3, lsl r0
     9a4:	29050204 	stmdbcs	r5, {r2, r9}
     9a8:	00020500 	andeq	r0, r2, r0, lsl #10
     9ac:	03000000 	movweq	r0, #0
     9b0:	05050136 	streq	r0, [r5, #-310]	; 0xfffffeca
     9b4:	3d09055c 	cfstr32cc	mvfx0, [r9, #-368]	; 0xfffffe90
     9b8:	056c0105 	strbeq	r0, [ip, #-261]!	; 0xfffffefb
     9bc:	05671d09 	strbeq	r1, [r7, #-3337]!	; 0xfffff2f7
     9c0:	0b026801 	bleq	9a9cc <_etext+0x98965>
     9c4:	04010100 	streq	r0, [r1], #-256	; 0xffffff00
     9c8:	00380502 	eorseq	r0, r8, r2, lsl #10
     9cc:	00000205 	andeq	r0, r0, r5, lsl #4
     9d0:	c3030000 	movwgt	r0, #12288	; 0x3000
     9d4:	05050100 	streq	r0, [r5, #-256]	; 0xffffff00
     9d8:	04020067 	streq	r0, [r2], #-103	; 0xffffff99
     9dc:	003c0601 	eorseq	r0, ip, r1, lsl #12
     9e0:	3c020402 	cfstrscc	mvf0, [r2], {2}
     9e4:	03040200 	movweq	r0, #16896	; 0x4200
     9e8:	0402003c 	streq	r0, [r2], #-60	; 0xffffffc4
     9ec:	02003c04 	andeq	r3, r0, #4, 24	; 0x400
     9f0:	003c0504 	eorseq	r0, ip, r4, lsl #10
     9f4:	3c060402 	cfstrscc	mvf0, [r6], {2}
     9f8:	07040200 	streq	r0, [r4, -r0, lsl #4]
     9fc:	0402003c 	streq	r0, [r2], #-60	; 0xffffffc4
     a00:	03063c08 	movweq	r3, #27656	; 0x6c08
     a04:	01054a09 	tsteq	r5, r9, lsl #20
     a08:	00060283 	andeq	r0, r6, r3, lsl #5
     a0c:	02040101 	andeq	r0, r4, #1073741824	; 0x40000000
     a10:	05003a05 	streq	r3, [r0, #-2565]	; 0xfffff5fb
     a14:	00000002 	andeq	r0, r0, r2
     a18:	00d00300 	sbcseq	r0, r0, r0, lsl #6
     a1c:	67050501 	strvs	r0, [r5, -r1, lsl #10]
     a20:	01040200 	mrseq	r0, R12_usr
     a24:	02003c06 	andeq	r3, r0, #1536	; 0x600
     a28:	003c0204 	eorseq	r0, ip, r4, lsl #4
     a2c:	3c030402 	cfstrscc	mvf0, [r3], {2}
     a30:	04040200 	streq	r0, [r4], #-512	; 0xfffffe00
     a34:	0402003c 	streq	r0, [r2], #-60	; 0xffffffc4
     a38:	02003c05 	andeq	r3, r0, #1280	; 0x500
     a3c:	003c0604 	eorseq	r0, ip, r4, lsl #12
     a40:	3c070402 	cfstrscc	mvf0, [r7], {2}
     a44:	08040200 	stmdaeq	r4, {r9}
     a48:	0552063c 	ldrbeq	r0, [r2, #-1596]	; 0xfffff9c4
     a4c:	06028301 	streq	r8, [r2], -r1, lsl #6
     a50:	2d010100 	stfcss	f0, [r1, #-0]
     a54:	03000004 	movweq	r0, #4
     a58:	0000eb00 	andeq	lr, r0, r0, lsl #22
     a5c:	fb010200 	blx	41266 <_etext+0x3f1ff>
     a60:	01000d0e 	tsteq	r0, lr, lsl #26
     a64:	00010101 	andeq	r0, r1, r1, lsl #2
     a68:	00010000 	andeq	r0, r1, r0
     a6c:	2e2e0100 	sufcse	f0, f6, f0
     a70:	2f2e2e2f 	svccs	0x002e2e2f
     a74:	2f637273 	svccs	0x00637273
     a78:	76697264 	strbtvc	r7, [r9], -r4, ror #4
     a7c:	64007265 	strvs	r7, [r0], #-613	; 0xfffffd9b
     a80:	63675c3a 	cmnvs	r7, #14848	; 0x3a00
     a84:	72612d63 	rsbvc	r2, r1, #6336	; 0x18c0
     a88:	6f6e2d6d 	svcvs	0x006e2d6d
     a8c:	652d656e 	strvs	r6, [sp, #-1390]!	; 0xfffffa92
     a90:	2d696261 	sfmcs	f6, 2, [r9, #-388]!	; 0xfffffe7c
     a94:	322d3031 	eorcc	r3, sp, #49	; 0x31
     a98:	2d303230 	lfmcs	f3, 4, [r0, #-192]!	; 0xffffff40
     a9c:	6d2d3471 	cfstrsvs	mvf3, [sp, #-452]!	; 0xfffffe3c
     aa0:	726f6a61 	rsbvc	r6, pc, #397312	; 0x61000
     aa4:	6d72615c 	ldfvse	f6, [r2, #-368]!	; 0xfffffe90
     aa8:	6e6f6e2d 	cdpvs	14, 6, cr6, cr15, cr13, {1}
     aac:	61652d65 	cmnvs	r5, r5, ror #26
     ab0:	695c6962 	ldmdbvs	ip, {r1, r5, r6, r8, fp, sp, lr}^
     ab4:	756c636e 	strbvc	r6, [ip, #-878]!	; 0xfffffc92
     ab8:	6d5c6564 	cfldr64vs	mvdx6, [ip, #-400]	; 0xfffffe70
     abc:	69686361 	stmdbvs	r8!, {r0, r5, r6, r8, r9, sp, lr}^
     ac0:	6400656e 	strvs	r6, [r0], #-1390	; 0xfffffa92
     ac4:	63675c3a 	cmnvs	r7, #14848	; 0x3a00
     ac8:	72612d63 	rsbvc	r2, r1, #6336	; 0x18c0
     acc:	6f6e2d6d 	svcvs	0x006e2d6d
     ad0:	652d656e 	strvs	r6, [sp, #-1390]!	; 0xfffffa92
     ad4:	2d696261 	sfmcs	f6, 2, [r9, #-388]!	; 0xfffffe7c
     ad8:	322d3031 	eorcc	r3, sp, #49	; 0x31
     adc:	2d303230 	lfmcs	f3, 4, [r0, #-192]!	; 0xffffff40
     ae0:	6d2d3471 	cfstrsvs	mvf3, [sp, #-452]!	; 0xfffffe3c
     ae4:	726f6a61 	rsbvc	r6, pc, #397312	; 0x61000
     ae8:	6d72615c 	ldfvse	f6, [r2, #-368]!	; 0xfffffe90
     aec:	6e6f6e2d 	cdpvs	14, 6, cr6, cr15, cr13, {1}
     af0:	61652d65 	cmnvs	r5, r5, ror #26
     af4:	695c6962 	ldmdbvs	ip, {r1, r5, r6, r8, fp, sp, lr}^
     af8:	756c636e 	strbvc	r6, [ip, #-878]!	; 0xfffffc92
     afc:	735c6564 	cmpvc	ip, #100, 10	; 0x19000000
     b00:	2e007379 	mcrcs	3, 0, r7, cr0, cr9, {3}
     b04:	2e2e2f2e 	cdpcs	15, 2, cr2, cr14, cr14, {1}
     b08:	6372732f 	cmnvs	r2, #-1140850688	; 0xbc000000
     b0c:	434e492f 	movtmi	r4, #59695	; 0xe92f
     b10:	32690000 	rsbcc	r0, r9, #0
     b14:	70632e63 	rsbvc	r2, r3, r3, ror #28
     b18:	00010070 	andeq	r0, r1, r0, ror r0
     b1c:	65645f00 	strbvs	r5, [r4, #-3840]!	; 0xfffff100
     b20:	6c756166 	ldfvse	f6, [r5], #-408	; 0xfffffe68
     b24:	79745f74 	ldmdbvc	r4!, {r2, r4, r5, r6, r8, r9, sl, fp, ip, lr}^
     b28:	2e736570 	mrccs	5, 3, r6, cr3, cr0, {3}
     b2c:	00020068 	andeq	r0, r2, r8, rrx
     b30:	74735f00 	ldrbtvc	r5, [r3], #-3840	; 0xfffff100
     b34:	746e6964 	strbtvc	r6, [lr], #-2404	; 0xfffff69c
     b38:	0300682e 	movweq	r6, #2094	; 0x82e
     b3c:	79730000 	ldmdbvc	r3!, {}^	; <UNPREDICTABLE>
     b40:	00682e73 	rsbeq	r2, r8, r3, ror lr
     b44:	00000004 	andeq	r0, r0, r4
     b48:	05001505 	streq	r1, [r0, #-1285]	; 0xfffffafb
     b4c:	000f0002 	andeq	r0, pc, r2
     b50:	010d0300 	mrseq	r0, SP_mon
     b54:	053d0e05 	ldreq	r0, [sp, #-3589]!	; 0xfffff1fb
     b58:	19053121 	stmdbne	r5, {r0, r5, r8, ip, sp}
     b5c:	3005054c 	andcc	r0, r5, ip, asr #10
     b60:	05201005 	streq	r1, [r0, #-5]!
     b64:	3705302c 	strcc	r3, [r5, -ip, lsr #32]
     b68:	582e053c 	stmdapl	lr!, {r2, r3, r4, r5, r8, sl}
     b6c:	052e0505 	streq	r0, [lr, #-1285]!	; 0xfffffafb
     b70:	1105203d 	tstne	r5, sp, lsr r0
     b74:	21050520 	tstcs	r5, r0, lsr #10
     b78:	05201505 	streq	r1, [r0, #-1285]!	; 0xfffffafb
     b7c:	2e0a0301 	cdpcs	3, 0, cr0, cr10, cr1, {0}
     b80:	01000e02 	tsteq	r0, r2, lsl #28
     b84:	004a0501 	subeq	r0, sl, r1, lsl #10
     b88:	0f580205 	svceq	0x00580205
     b8c:	25030000 	strcs	r0, [r3, #-0]
     b90:	750a0501 	strvc	r0, [sl, #-1281]	; 0xfffffaff
     b94:	2f2f0e05 	svccs	0x002f0e05
     b98:	05301605 	ldreq	r1, [r0, #-1541]!	; 0xfffff9fb
     b9c:	0d052e05 	stceq	14, cr2, [r5, #-20]	; 0xffffffec
     ba0:	2f12052f 	svccs	0x0012052f
     ba4:	054b0e05 	strbeq	r0, [fp, #-3589]	; 0xfffff1fb
     ba8:	20052213 	andcs	r2, r5, r3, lsl r2
     bac:	20050520 	andcs	r0, r5, r0, lsr #10
     bb0:	05202605 	streq	r2, [r0, #-1541]!	; 0xfffff9fb
     bb4:	1c052010 	stcne	0, cr2, [r5], {16}
     bb8:	3c1e0521 	cfldr32cc	mvfx0, [lr], {33}	; 0x21
     bbc:	053c0505 	ldreq	r0, [ip, #-1285]!	; 0xfffffafb
     bc0:	0c052010 	stceq	0, cr2, [r5], {16}
     bc4:	2e170522 	cfmul64cs	mvdx0, mvdx7, mvdx2
     bc8:	002e1f05 	eoreq	r1, lr, r5, lsl #30
     bcc:	06010402 	streq	r0, [r1], -r2, lsl #8
     bd0:	0402002e 	streq	r0, [r2], #-46	; 0xffffffd2
     bd4:	02003c03 	andeq	r3, r0, #768	; 0x300
     bd8:	002e0404 	eoreq	r0, lr, r4, lsl #8
     bdc:	20060402 	andcs	r0, r6, r2, lsl #8
     be0:	2e060505 	cfsh32cs	mvfx0, mvfx6, #5
     be4:	3d120523 	cfldr32cc	mvfx0, [r2, #-140]	; 0xffffff74
     be8:	054b0d05 	strbeq	r0, [fp, #-3333]	; 0xfffff2fb
     bec:	05052f0e 	streq	r2, [r5, #-3854]	; 0xfffff0f2
     bf0:	3e170523 	cfmul64cc	mvdx0, mvdx7, mvdx3
     bf4:	052e2205 	streq	r2, [lr, #-517]!	; 0xfffffdfb
     bf8:	2b052e09 	blcs	14c424 <_etext+0x14a3bd>
     bfc:	2e140520 	cfmul64cs	mvdx0, mvdx4, mvdx0
     c00:	05311705 	ldreq	r1, [r1, #-1797]!	; 0xfffff8fb
     c04:	09052e22 	stmdbeq	r5, {r1, r5, r9, sl, fp, sp}
     c08:	202b052e 	eorcs	r0, fp, lr, lsr #10
     c0c:	052e1405 	streq	r1, [lr, #-1029]!	; 0xfffffbfb
     c10:	13052305 	movwne	r2, #21253	; 0x5305
     c14:	2f14054d 	svccs	0x0014054d
     c18:	052e1f05 	streq	r1, [lr, #-3845]!	; 0xfffff0fb
     c1c:	1e05900d 	cdpne	0, 0, cr9, cr5, cr13, {0}
     c20:	00220521 	eoreq	r0, r2, r1, lsr #10
     c24:	3c020402 	cfstrscc	mvf0, [r2], {2}
     c28:	02002d05 	andeq	r2, r0, #320	; 0x140
     c2c:	052e0204 	streq	r0, [lr, #-516]!	; 0xfffffdfc
     c30:	0402001e 	streq	r0, [r2], #-30	; 0xffffffe2
     c34:	02002e02 	andeq	r2, r0, #2, 28
     c38:	2e060304 	cdpcs	3, 0, cr0, cr6, cr4, {0}
     c3c:	04040200 	streq	r0, [r4], #-512	; 0xfffffe00
     c40:	000d052e 	andeq	r0, sp, lr, lsr #10
     c44:	06060402 	streq	r0, [r6], -r2, lsl #8
     c48:	2f160520 	svccs	0x00160520
     c4c:	052e2105 	streq	r2, [lr, #-261]!	; 0xfffffefb
     c50:	11052e29 	tstne	r5, r9, lsr #28
     c54:	2f230558 	svccs	0x00230558
     c58:	052e2e05 	streq	r2, [lr, #-3589]!	; 0xfffff1fb
     c5c:	37052e15 	smladcc	r5, r5, lr, r2
     c60:	2e200520 	cfsh64cs	mvdx0, mvdx0, #16
     c64:	05221a05 	streq	r1, [r2, #-2565]!	; 0xfffff5fb
     c68:	16054b15 			; <UNDEFINED> instruction: 0x16054b15
     c6c:	2224052f 	eorcs	r0, r4, #197132288	; 0xbc00000
     c70:	053c2605 	ldreq	r2, [ip, #-1541]!	; 0xfffff9fb
     c74:	18053c0d 	stmdane	r5, {r0, r2, r3, sl, fp, ip, sp}
     c78:	210d0520 	tstcs	sp, r0, lsr #10
     c7c:	054b1f05 	strbeq	r1, [fp, #-3845]	; 0xfffff0fb
     c80:	11052e2a 	tstne	r5, sl, lsr #28
     c84:	2033052e 	eorscs	r0, r3, lr, lsr #10
     c88:	052e1c05 	streq	r1, [lr, #-3077]!	; 0xfffff3fb
     c8c:	2a05311f 	bcs	14d110 <_etext+0x14b0a9>
     c90:	2e11052e 	cfmul64cs	mvdx0, mvdx1, mvdx14
     c94:	05203305 	streq	r3, [r0, #-773]!	; 0xfffffcfb
     c98:	17052e1c 	smladne	r5, ip, lr, r2
     c9c:	11052f22 	tstne	r5, r2, lsr #30
     ca0:	211805ac 	tstcs	r8, ip, lsr #11
     ca4:	052e2305 	streq	r2, [lr, #-773]!	; 0xfffffcfb
     ca8:	16059011 			; <UNDEFINED> instruction: 0x16059011
     cac:	2e210521 	cfsh64cs	mvdx0, mvdx1, #17
     cb0:	05741105 	ldrbeq	r1, [r4, #-261]!	; 0xfffffefb
     cb4:	19052f1e 	stmdbne	r5, {r1, r2, r3, r4, r8, r9, sl, fp, sp}
     cb8:	2f1a054b 	svccs	0x001a054b
     cbc:	05231805 	streq	r1, [r3, #-2053]!	; 0xfffff7fb
     cc0:	4a640309 	bmi	19018ec <_etext+0x18ff885>
     cc4:	1f030f05 	svcne	0x00030f05
     cc8:	09052f20 	stmdbeq	r5, {r5, r8, r9, sl, fp, sp}
     ccc:	211005ac 	tstcs	r0, ip, lsr #11
     cd0:	052e1b05 	streq	r1, [lr, #-2821]!	; 0xfffff4fb
     cd4:	0e059009 	cdpeq	0, 0, cr9, cr5, cr9, {0}
     cd8:	2e190521 	cfmul64cs	mvdx0, mvdx9, mvdx1
     cdc:	05740905 	ldrbeq	r0, [r4, #-2309]!	; 0xfffff6fb
     ce0:	16052f11 			; <UNDEFINED> instruction: 0x16052f11
     ce4:	4b12052f 	blmi	4821a8 <_etext+0x480141>
     ce8:	05221705 	streq	r1, [r2, #-1797]!	; 0xfffff8fb
     cec:	09052e22 	stmdbeq	r5, {r1, r5, r9, sl, fp, sp}
     cf0:	202b052e 	eorcs	r0, fp, lr, lsr #10
     cf4:	052e1405 	streq	r1, [lr, #-1029]!	; 0xfffffbfb
     cf8:	1e052413 	cfmvdlrne	mvd5, r2
     cfc:	2e05052e 	cfsh32cs	mvfx0, mvfx5, #30
     d00:	05202705 	streq	r2, [r0, #-1797]!	; 0xfffff8fb
     d04:	0c052e10 	stceq	14, cr2, [r5], {16}
     d08:	21010521 	tstcs	r1, r1, lsr #10
     d0c:	01000d02 	tsteq	r0, r2, lsl #26
     d10:	004a0501 	subeq	r0, sl, r1, lsl #10
     d14:	11a00205 	lslne	r0, r5, #4
     d18:	f4030000 	vst4.8	{d0-d3}, [r3], r0
     d1c:	0a050100 	beq	141124 <_etext+0x13f0bd>
     d20:	2f0e0567 	svccs	0x000e0567
     d24:	3005052f 	andcc	r0, r5, pc, lsr #10
     d28:	053d0d05 	ldreq	r0, [sp, #-3333]!	; 0xfffff2fb
     d2c:	20052f0e 	andcs	r2, r5, lr, lsl #30
     d30:	2e050522 	cfsh32cs	mvfx0, mvfx5, #18
     d34:	05202605 	streq	r2, [r0, #-1541]!	; 0xfffff9fb
     d38:	0c052e10 	stceq	14, cr2, [r5], {16}
     d3c:	2e170522 	cfmul64cs	mvdx0, mvdx7, mvdx2
     d40:	002e1f05 	eoreq	r1, lr, r5, lsl #30
     d44:	06010402 	streq	r0, [r1], -r2, lsl #8
     d48:	0402002e 	streq	r0, [r2], #-46	; 0xffffffd2
     d4c:	02003c03 	andeq	r3, r0, #768	; 0x300
     d50:	002e0404 	eoreq	r0, lr, r4, lsl #8
     d54:	20060402 	andcs	r0, r6, r2, lsl #8
     d58:	2e060505 	cfsh32cs	mvfx0, mvfx6, #5
     d5c:	3d120523 	cfldr32cc	mvfx0, [r2, #-140]	; 0xffffff74
     d60:	054b0d05 	strbeq	r0, [fp, #-3333]	; 0xfffff2fb
     d64:	05052f0e 	streq	r2, [r5, #-3854]	; 0xfffff0f2
     d68:	3e170523 	cfmul64cc	mvdx0, mvdx7, mvdx3
     d6c:	052e2205 	streq	r2, [lr, #-517]!	; 0xfffffdfb
     d70:	2b052e09 	blcs	14c59c <_etext+0x14a535>
     d74:	2e140520 	cfmul64cs	mvdx0, mvdx4, mvdx0
     d78:	05311705 	ldreq	r1, [r1, #-1797]!	; 0xfffff8fb
     d7c:	09052e22 	stmdbeq	r5, {r1, r5, r9, sl, fp, sp}
     d80:	202b052e 	eorcs	r0, fp, lr, lsr #10
     d84:	052e1405 	streq	r1, [lr, #-1029]!	; 0xfffffbfb
     d88:	13052305 	movwne	r2, #21253	; 0x5305
     d8c:	0d052f4c 	stceq	15, cr2, [r5, #-304]	; 0xfffffed0
     d90:	211405ac 	tstcs	r4, ip, lsr #11
     d94:	052e1f05 	streq	r1, [lr, #-3845]!	; 0xfffff0fb
     d98:	1205900d 	andne	r9, r5, #13
     d9c:	2e1d0521 	cfmul64cs	mvdx0, mvdx13, mvdx1
     da0:	05740d05 	ldrbeq	r0, [r4, #-3333]!	; 0xfffff2fb
     da4:	21052f16 	tstcs	r5, r6, lsl pc
     da8:	2e29052e 	cfsh64cs	mvdx0, mvdx9, #30
     dac:	05581105 	ldrbeq	r1, [r8, #-261]	; 0xfffffefb
     db0:	2e052f23 	cdpcs	15, 0, cr2, cr5, cr3, {1}
     db4:	2e15052e 	cfmul64cs	mvdx0, mvdx5, mvdx14
     db8:	05203705 	streq	r3, [r0, #-1797]!	; 0xfffff8fb
     dbc:	1a052e20 	bne	14c644 <_etext+0x14a5dd>
     dc0:	4b150522 	blmi	542250 <_etext+0x5401e9>
     dc4:	052f1605 	streq	r1, [pc, #-1541]!	; 7c7 <UARTvprintf+0x203>
     dc8:	1705231d 	smladne	r5, sp, r3, r2
     dcc:	3c19052e 	cfldr32cc	mvfx0, [r9], {46}	; 0x2e
     dd0:	052e1b05 	streq	r1, [lr, #-2821]!	; 0xfffff4fb
     dd4:	0d052f21 	stceq	15, cr2, [r5, #-132]	; 0xffffff7c
     dd8:	3d1f052e 	cfldr32cc	mvfx0, [pc, #-184]	; d28 <SysCtlClockGet+0x124>
     ddc:	052e2a05 	streq	r2, [lr, #-2565]!	; 0xfffff5fb
     de0:	33052e11 	movwcc	r2, #24081	; 0x5e11
     de4:	2e1c0520 	cfmul64cs	mvdx0, mvdx12, mvdx0
     de8:	3d211705 	stccc	7, cr1, [r1, #-20]!	; 0xffffffec
     dec:	05ac1105 	streq	r1, [ip, #261]!	; 0x105
     df0:	24052119 	strcs	r2, [r5], #-281	; 0xfffffee7
     df4:	9011052e 	andsls	r0, r1, lr, lsr #10
     df8:	05211605 	streq	r1, [r1, #-1541]!	; 0xfffff9fb
     dfc:	11052e21 	tstne	r5, r1, lsr #28
     e00:	2f1e0574 	svccs	0x001e0574
     e04:	054b1905 	strbeq	r1, [fp, #-2309]	; 0xfffff6fb
     e08:	21052f1a 	tstcs	r5, sl, lsl pc
     e0c:	2e1b0523 	cfmul64cs	mvdx0, mvdx11, mvdx3
     e10:	053c1d05 	ldreq	r1, [ip, #-3333]!	; 0xfffff2fb
     e14:	053f2e1f 	ldreq	r2, [pc, #-3615]!	; fffffffd <_ebss+0xdfffddad>
     e18:	11052e2a 	tstne	r5, sl, lsr #28
     e1c:	2033052e 	eorscs	r0, r3, lr, lsr #10
     e20:	052e1c05 	streq	r1, [lr, #-3077]!	; 0xfffff3fb
     e24:	09052218 	stmdbeq	r5, {r3, r4, r9, sp}
     e28:	054a6203 	strbeq	r6, [sl, #-515]	; 0xfffffdfd
     e2c:	2021030f 	eorcs	r0, r1, pc, lsl #6
     e30:	ac09052f 	cfstr32ge	mvfx0, [r9], {47}	; 0x2f
     e34:	05211005 	streq	r1, [r1, #-5]!
     e38:	09052e1b 	stmdbeq	r5, {r0, r1, r3, r4, r9, sl, fp, sp}
     e3c:	210e0590 			; <UNDEFINED> instruction: 0x210e0590
     e40:	052e1905 	streq	r1, [lr, #-2309]!	; 0xfffff6fb
     e44:	16057409 	strne	r7, [r5], -r9, lsl #8
     e48:	4b11052f 	blmi	44230c <_etext+0x4402a5>
     e4c:	052f1205 	streq	r1, [pc, #-517]!	; c4f <SysCtlClockGet+0x4b>
     e50:	22052217 	andcs	r2, r5, #1879048193	; 0x70000001
     e54:	2e09052e 	cfsh32cs	mvfx0, mvfx9, #30
     e58:	05202b05 	streq	r2, [r0, #-2821]!	; 0xfffff4fb
     e5c:	19052e14 	stmdbne	r5, {r2, r4, r9, sl, fp, sp}
     e60:	2e130521 	cfmul64cs	mvdx0, mvdx3, mvdx1
     e64:	053c1505 	ldreq	r1, [ip, #-1285]!	; 0xfffffafb
     e68:	13052e17 	movwne	r2, #24087	; 0x5e17
     e6c:	2e1e0532 	mrccs	5, 0, r0, cr14, cr2, {1}
     e70:	052e0505 	streq	r0, [lr, #-1285]!	; 0xfffffafb
     e74:	10052027 	andne	r2, r5, r7, lsr #32
     e78:	210c052e 	tstcs	ip, lr, lsr #10
     e7c:	02210105 	eoreq	r0, r1, #1073741825	; 0x40000001
     e80:	0101000c 	tsteq	r1, ip
     e84:	0000022a 	andeq	r0, r0, sl, lsr #4
     e88:	01090003 	tsteq	r9, r3
     e8c:	01020000 	mrseq	r0, (UNDEF: 2)
     e90:	000d0efb 	strdeq	r0, [sp], -fp
     e94:	01010101 	tsteq	r1, r1, lsl #2
     e98:	01000000 	mrseq	r0, (UNDEF: 0)
     e9c:	2e010000 	cdpcs	0, 0, cr0, cr1, cr0, {0}
     ea0:	2e2e2f2e 	cdpcs	15, 2, cr2, cr14, cr14, {1}
     ea4:	6372732f 	cmnvs	r2, #-1140850688	; 0xbc000000
     ea8:	6f6c472f 	svcvs	0x006c472f
     eac:	006c6162 	rsbeq	r6, ip, r2, ror #2
     eb0:	2e2f2e2e 	cdpcs	14, 2, cr2, cr15, cr14, {1}
     eb4:	72732f2e 	rsbsvc	r2, r3, #46, 30	; 0xb8
     eb8:	72642f63 	rsbvc	r2, r4, #396	; 0x18c
     ebc:	72657669 	rsbvc	r7, r5, #110100480	; 0x6900000
     ec0:	5c3a6400 	cfldrspl	mvf6, [sl], #-0
     ec4:	2d636367 	stclcs	3, cr6, [r3, #-412]!	; 0xfffffe64
     ec8:	2d6d7261 	sfmcs	f7, 2, [sp, #-388]!	; 0xfffffe7c
     ecc:	656e6f6e 	strbvs	r6, [lr, #-3950]!	; 0xfffff092
     ed0:	6261652d 	rsbvs	r6, r1, #188743680	; 0xb400000
     ed4:	30312d69 	eorscc	r2, r1, r9, ror #26
     ed8:	3230322d 	eorscc	r3, r0, #-805306366	; 0xd0000002
     edc:	34712d30 	ldrbtcc	r2, [r1], #-3376	; 0xfffff2d0
     ee0:	6a616d2d 	bvs	185c39c <_etext+0x185a335>
     ee4:	615c726f 	cmpvs	ip, pc, ror #4
     ee8:	6e2d6d72 	mcrvs	13, 1, r6, cr13, cr2, {3}
     eec:	2d656e6f 	stclcs	14, cr6, [r5, #-444]!	; 0xfffffe44
     ef0:	69626165 	stmdbvs	r2!, {r0, r2, r5, r6, r8, sp, lr}^
     ef4:	636e695c 	cmnvs	lr, #92, 18	; 0x170000
     ef8:	6564756c 	strbvs	r7, [r4, #-1388]!	; 0xfffffa94
     efc:	63616d5c 	cmnvs	r1, #92, 26	; 0x1700
     f00:	656e6968 	strbvs	r6, [lr, #-2408]!	; 0xfffff698
     f04:	5c3a6400 	cfldrspl	mvf6, [sl], #-0
     f08:	2d636367 	stclcs	3, cr6, [r3, #-412]!	; 0xfffffe64
     f0c:	2d6d7261 	sfmcs	f7, 2, [sp, #-388]!	; 0xfffffe7c
     f10:	656e6f6e 	strbvs	r6, [lr, #-3950]!	; 0xfffff092
     f14:	6261652d 	rsbvs	r6, r1, #188743680	; 0xb400000
     f18:	30312d69 	eorscc	r2, r1, r9, ror #26
     f1c:	3230322d 	eorscc	r3, r0, #-805306366	; 0xd0000002
     f20:	34712d30 	ldrbtcc	r2, [r1], #-3376	; 0xfffff2d0
     f24:	6a616d2d 	bvs	185c3e0 <_etext+0x185a379>
     f28:	615c726f 	cmpvs	ip, pc, ror #4
     f2c:	6e2d6d72 	mcrvs	13, 1, r6, cr13, cr2, {3}
     f30:	2d656e6f 	stclcs	14, cr6, [r5, #-444]!	; 0xfffffe44
     f34:	69626165 	stmdbvs	r2!, {r0, r2, r5, r6, r8, sp, lr}^
     f38:	636e695c 	cmnvs	lr, #92, 18	; 0x170000
     f3c:	6564756c 	strbvs	r7, [r4, #-1388]!	; 0xfffffa94
     f40:	7379735c 	cmnvc	r9, #92, 6	; 0x70000001
     f44:	2f2e2e00 	svccs	0x002e2e00
     f48:	732f2e2e 			; <UNDEFINED> instruction: 0x732f2e2e
     f4c:	492f6372 	stmdbmi	pc!, {r1, r4, r5, r6, r8, r9, sp, lr}	; <UNPREDICTABLE>
     f50:	0000434e 	andeq	r4, r0, lr, asr #6
     f54:	6c636e49 	stclvs	14, cr6, [r3], #-292	; 0xfffffedc
     f58:	2e656475 	mcrcs	4, 3, r6, cr5, cr5, {3}
     f5c:	00010068 	andeq	r0, r1, r8, rrx
     f60:	73797300 	cmnvc	r9, #0, 6
     f64:	7070632e 	rsbsvc	r6, r0, lr, lsr #6
     f68:	00000200 	andeq	r0, r0, r0, lsl #4
     f6c:	6665645f 			; <UNDEFINED> instruction: 0x6665645f
     f70:	746c7561 	strbtvc	r7, [ip], #-1377	; 0xfffffa9f
     f74:	7079745f 	rsbsvc	r7, r9, pc, asr r4
     f78:	682e7365 	stmdavs	lr!, {r0, r2, r5, r6, r8, r9, ip, sp, lr}
     f7c:	00000300 	andeq	r0, r0, r0, lsl #6
     f80:	6474735f 	ldrbtvs	r7, [r4], #-863	; 0xfffffca1
     f84:	2e746e69 	cdpcs	14, 7, cr6, cr4, cr9, {3}
     f88:	00040068 	andeq	r0, r4, r8, rrx
     f8c:	73797300 	cmnvc	r9, #0, 6
     f90:	0500682e 	streq	r6, [r0, #-2094]	; 0xfffff7d2
     f94:	05000000 	streq	r0, [r0, #-0]
     f98:	02050001 	andeq	r0, r5, #1
     f9c:	00001408 	andeq	r1, r0, r8, lsl #8
     fa0:	05012103 	streq	r2, [r1, #-259]	; 0xfffffefd
     fa4:	0b054b12 	bleq	153bf4 <_etext+0x151b8d>
     fa8:	3d11052f 	cfldr32cc	mvfx0, [r1, #-188]	; 0xffffff44
     fac:	053c0905 	ldreq	r0, [ip, #-2309]!	; 0xfffff6fb
     fb0:	05052f0f 	streq	r2, [r5, #-3855]	; 0xfffff0f1
     fb4:	2115053a 	tstcs	r5, sl, lsr r5
     fb8:	05230c05 	streq	r0, [r3, #-3077]!	; 0xfffff3fb
     fbc:	06022101 	streq	r2, [r2], -r1, lsl #2
     fc0:	05010100 	streq	r0, [r1, #-256]	; 0xffffff00
     fc4:	02050001 	andeq	r0, r5, #1
     fc8:	0000143c 	andeq	r1, r0, ip, lsr r4
     fcc:	05012b03 	streq	r2, [r1, #-2819]	; 0xfffff4fd
     fd0:	1c054b12 			; <UNDEFINED> instruction: 0x1c054b12
     fd4:	2f0b052e 	svccs	0x000b052e
     fd8:	053d1105 	ldreq	r1, [sp, #-261]!	; 0xfffffefb
     fdc:	0d053c09 	stceq	12, cr3, [r5, #-36]	; 0xffffffdc
     fe0:	3d0f052f 	cfstr32cc	mvfx0, [pc, #-188]	; f2c <I2C_Init+0x2c>
     fe4:	05390505 	ldreq	r0, [r9, #-1285]!	; 0xfffffafb
     fe8:	0c052115 	stfeqs	f2, [r5], {21}
     fec:	21010524 	tstcs	r1, r4, lsr #10
     ff0:	01000602 	tsteq	r0, r2, lsl #12
     ff4:	05020401 	streq	r0, [r2, #-1025]	; 0xfffffbff
     ff8:	0205001c 	andeq	r0, r5, #28
     ffc:	0000147c 	andeq	r1, r0, ip, ror r4
    1000:	05010c03 	streq	r0, [r1, #-3075]	; 0xfffff3fd
    1004:	15053e0e 	strne	r3, [r5, #-3598]	; 0xfffff1f2
    1008:	69050533 	stmdbvs	r5, {r0, r1, r4, r5, r8, sl}
    100c:	4b084b08 	blmi	213c34 <_etext+0x211bcd>
    1010:	084c08d9 	stmdaeq	ip, {r0, r3, r4, r6, r7, fp}^
    1014:	d7bbbb4b 	ldrle	fp, [fp, fp, asr #22]!
    1018:	084b08d9 	stmdaeq	fp, {r0, r3, r4, r6, r7, fp}^
    101c:	d84b084b 	stmdale	fp, {r0, r1, r3, r6, fp}^
    1020:	4d081305 	stcmi	3, cr1, [r8, #-20]	; 0xffffffec
    1024:	02002605 	andeq	r2, r0, #5242880	; 0x500000
    1028:	053c0104 	ldreq	r0, [ip, #-260]!	; 0xfffffefc
    102c:	1b053e0c 	blne	150864 <_etext+0x14e7fd>
    1030:	2e09052e 	cfsh32cs	mvfx0, mvfx9, #30
    1034:	02000505 	andeq	r0, r0, #20971520	; 0x1400000
    1038:	052c0204 	streq	r0, [ip, #-516]!	; 0xfffffdfc
    103c:	05054e0d 	streq	r4, [r5, #-3597]	; 0xfffff1f3
    1040:	0105d725 	tsteq	r5, r5, lsr #14
    1044:	000c02d8 	ldrdeq	r0, [ip], -r8
    1048:	02040101 	andeq	r0, r4, #1073741824	; 0x40000000
    104c:	05004605 	streq	r4, [r0, #-1541]	; 0xfffff9fb
    1050:	0016f402 	andseq	pc, r6, r2, lsl #8
    1054:	00c30300 	sbceq	r0, r3, r0, lsl #6
    1058:	67050501 	strvs	r0, [r5, -r1, lsl #10]
    105c:	0f030d05 	svceq	0x00030d05
    1060:	05014e02 	streq	r4, [r1, #-3586]	; 0xfffff1fe
    1064:	20740320 	rsbscs	r0, r4, r0, lsr #6
    1068:	052e2805 	streq	r2, [lr, #-2053]!	; 0xfffff7fb
    106c:	20052025 	andcs	r2, r5, r5, lsr #32
    1070:	3d0d054a 	cfstr32cc	mvfx0, [sp, #-296]	; 0xfffffed8
    1074:	05222105 	streq	r2, [r2, #-261]!	; 0xfffffefb
    1078:	26052e29 	strcs	r2, [r5], -r9, lsr #28
    107c:	4a210520 	bmi	842504 <_etext+0x84049d>
    1080:	053d0d05 	ldreq	r0, [sp, #-3333]!	; 0xfffff2fb
    1084:	28052220 	stmdacs	r5, {r5, r9, sp}
    1088:	2025052e 	eorcs	r0, r5, lr, lsr #10
    108c:	054a2005 	strbeq	r2, [sl, #-5]
    1090:	2a053e22 	bcs	150920 <_etext+0x14e8b9>
    1094:	2027052e 	eorcs	r0, r7, lr, lsr #10
    1098:	054a2205 	strbeq	r2, [sl, #-517]	; 0xfffffdfb
    109c:	2b053e23 	blcs	150930 <_etext+0x14e8c9>
    10a0:	2028052e 	eorcs	r0, r8, lr, lsr #10
    10a4:	054a2305 	strbeq	r2, [sl, #-773]	; 0xfffffcfb
    10a8:	01053e0d 	tsteq	r5, sp, lsl #28
    10ac:	00120223 	andseq	r0, r2, r3, lsr #4
    10b0:	061c0101 	ldreq	r0, [ip], -r1, lsl #2
    10b4:	00030000 	andeq	r0, r3, r0
    10b8:	000000ff 	strdeq	r0, [r0], -pc	; <UNPREDICTABLE>
    10bc:	0efb0102 	cdpeq	1, 15, cr0, cr11, cr2, {0}
    10c0:	0101000d 	tsteq	r1, sp
    10c4:	00000101 	andeq	r0, r0, r1, lsl #2
    10c8:	00000100 	andeq	r0, r0, r0, lsl #2
    10cc:	2f2e2e01 	svccs	0x002e2e01
    10d0:	732f2e2e 			; <UNDEFINED> instruction: 0x732f2e2e
    10d4:	642f6372 	strtvs	r6, [pc], #-882	; 10dc <I2C_WriteBytes+0x184>
    10d8:	65766972 	ldrbvs	r6, [r6, #-2418]!	; 0xfffff68e
    10dc:	3a640072 	bcc	19012ac <_etext+0x18ff245>
    10e0:	6363675c 	cmnvs	r3, #92, 14	; 0x1700000
    10e4:	6d72612d 	ldfvse	f6, [r2, #-180]!	; 0xffffff4c
    10e8:	6e6f6e2d 	cdpvs	14, 6, cr6, cr15, cr13, {1}
    10ec:	61652d65 	cmnvs	r5, r5, ror #26
    10f0:	312d6962 			; <UNDEFINED> instruction: 0x312d6962
    10f4:	30322d30 	eorscc	r2, r2, r0, lsr sp
    10f8:	712d3032 			; <UNDEFINED> instruction: 0x712d3032
    10fc:	616d2d34 	cmnvs	sp, r4, lsr sp
    1100:	5c726f6a 	ldclpl	15, cr6, [r2], #-424	; 0xfffffe58
    1104:	2d6d7261 	sfmcs	f7, 2, [sp, #-388]!	; 0xfffffe7c
    1108:	656e6f6e 	strbvs	r6, [lr, #-3950]!	; 0xfffff092
    110c:	6261652d 	rsbvs	r6, r1, #188743680	; 0xb400000
    1110:	6e695c69 	cdpvs	12, 6, cr5, cr9, cr9, {3}
    1114:	64756c63 	ldrbtvs	r6, [r5], #-3171	; 0xfffff39d
    1118:	616d5c65 	cmnvs	sp, r5, ror #24
    111c:	6e696863 	cdpvs	8, 6, cr6, cr9, cr3, {3}
    1120:	3a640065 	bcc	19012bc <_etext+0x18ff255>
    1124:	6363675c 	cmnvs	r3, #92, 14	; 0x1700000
    1128:	6d72612d 	ldfvse	f6, [r2, #-180]!	; 0xffffff4c
    112c:	6e6f6e2d 	cdpvs	14, 6, cr6, cr15, cr13, {1}
    1130:	61652d65 	cmnvs	r5, r5, ror #26
    1134:	312d6962 			; <UNDEFINED> instruction: 0x312d6962
    1138:	30322d30 	eorscc	r2, r2, r0, lsr sp
    113c:	712d3032 			; <UNDEFINED> instruction: 0x712d3032
    1140:	616d2d34 	cmnvs	sp, r4, lsr sp
    1144:	5c726f6a 	ldclpl	15, cr6, [r2], #-424	; 0xfffffe58
    1148:	2d6d7261 	sfmcs	f7, 2, [sp, #-388]!	; 0xfffffe7c
    114c:	656e6f6e 	strbvs	r6, [lr, #-3950]!	; 0xfffff092
    1150:	6261652d 	rsbvs	r6, r1, #188743680	; 0xb400000
    1154:	6e695c69 	cdpvs	12, 6, cr5, cr9, cr9, {3}
    1158:	64756c63 	ldrbtvs	r6, [r5], #-3171	; 0xfffff39d
    115c:	79735c65 	ldmdbvc	r3!, {r0, r2, r5, r6, sl, fp, ip, lr}^
    1160:	2e2e0073 	mcrcs	0, 1, r0, cr14, cr3, {3}
    1164:	2f2e2e2f 	svccs	0x002e2e2f
    1168:	2f637273 	svccs	0x00637273
    116c:	00434e49 	subeq	r4, r3, r9, asr #28
    1170:	69707300 	ldmdbvs	r0!, {r8, r9, ip, sp, lr}^
    1174:	7070632e 	rsbsvc	r6, r0, lr, lsr #6
    1178:	00000100 	andeq	r0, r0, r0, lsl #2
    117c:	6665645f 			; <UNDEFINED> instruction: 0x6665645f
    1180:	746c7561 	strbtvc	r7, [ip], #-1377	; 0xfffffa9f
    1184:	7079745f 	rsbsvc	r7, r9, pc, asr r4
    1188:	682e7365 	stmdavs	lr!, {r0, r2, r5, r6, r8, r9, ip, sp, lr}
    118c:	00000200 	andeq	r0, r0, r0, lsl #4
    1190:	6474735f 	ldrbtvs	r7, [r4], #-863	; 0xfffffca1
    1194:	2e746e69 	cdpcs	14, 7, cr6, cr4, cr9, {3}
    1198:	00030068 	andeq	r0, r3, r8, rrx
    119c:	69707300 	ldmdbvs	r0!, {r8, r9, ip, sp, lr}^
    11a0:	0400682e 	streq	r6, [r0], #-2094	; 0xfffff7d2
    11a4:	65640000 	strbvs	r0, [r4, #-0]!
    11a8:	2e677562 	cdpcs	5, 6, cr7, cr7, cr2, {3}
    11ac:	00040068 	andeq	r0, r4, r8, rrx
    11b0:	73797300 	cmnvc	r9, #0, 6
    11b4:	0400682e 	streq	r6, [r0], #-2094	; 0xfffff7d2
    11b8:	05000000 	streq	r0, [r0, #-0]
    11bc:	0205002d 	andeq	r0, r5, #45	; 0x2d
    11c0:	00000000 	andeq	r0, r0, r0
    11c4:	05012d03 	streq	r2, [r1, #-3331]	; 0xfffff2fd
    11c8:	0e05590b 	vmlaeq.f16	s10, s10, s22	; <UNPREDICTABLE>
    11cc:	303030e6 	eorscc	r3, r0, r6, ror #1
    11d0:	30010530 	andcc	r0, r1, r0, lsr r5
    11d4:	01000e02 	tsteq	r0, r2, lsl #28
    11d8:	002a0501 	eoreq	r0, sl, r1, lsl #10
    11dc:	00000205 	andeq	r0, r0, r5, lsl #4
    11e0:	3e030000 	cdpcc	0, 0, cr0, cr3, cr0, {0}
    11e4:	4b070501 	blmi	1c25f0 <_etext+0x1c0589>
    11e8:	023d0105 	eorseq	r0, sp, #1073741825	; 0x40000001
    11ec:	01010009 	tsteq	r1, r9
    11f0:	05003405 	streq	r3, [r0, #-1029]	; 0xfffffbfb
    11f4:	00182c02 	andseq	r2, r8, r2, lsl #24
    11f8:	00c20300 	sbceq	r0, r2, r0, lsl #6
    11fc:	590d0501 	stmdbpl	sp, {r0, r8, sl}
    1200:	02750105 	rsbseq	r0, r5, #1073741825	; 0x40000001
    1204:	01010006 	tsteq	r1, r6
    1208:	05003305 	streq	r3, [r0, #-773]	; 0xfffffcfb
    120c:	00185002 	andseq	r5, r8, r2
    1210:	00c60300 	sbceq	r0, r6, r0, lsl #6
    1214:	590c0501 	stmdbpl	ip, {r0, r8, sl}
    1218:	02750105 	rsbseq	r0, r5, #1073741825	; 0x40000001
    121c:	01010006 	tsteq	r1, r6
    1220:	05000105 	streq	r0, [r0, #-261]	; 0xfffffefb
    1224:	00000002 	andeq	r0, r0, r2
    1228:	00ce0300 	sbceq	r0, lr, r0, lsl #6
    122c:	910b0501 	tstls	fp, r1, lsl #10
    1230:	052f0c05 	streq	r0, [pc, #-3077]!	; 633 <UARTvprintf+0x6f>
    1234:	3d3d3d15 	ldccc	13, cr3, [sp, #-84]!	; 0xffffffac
    1238:	053d1705 	ldreq	r1, [sp, #-1797]!	; 0xfffff8fb
    123c:	3d2f2e15 	stccc	14, cr2, [pc, #-84]!	; 11f0 <I2C_ReadBytes+0x50>
    1240:	053d3d3d 	ldreq	r3, [sp, #-3389]!	; 0xfffff2c3
    1244:	15053d18 	strne	r3, [r5, #-3352]	; 0xfffff2e8
    1248:	3c0d053e 	cfstr32cc	mvfx0, [sp], {62}	; 0x3e
    124c:	05201505 	streq	r1, [r0, #-1285]!	; 0xfffffafb
    1250:	14054a03 	strne	r4, [r5], #-2563	; 0xfffff5fd
    1254:	9f05052f 	svcls	0x0005052f
    1258:	05232005 	streq	r2, [r3, #-5]!
    125c:	1905201d 	stmdbne	r5, {r0, r2, r3, r4, sp}
    1260:	4022053c 	eormi	r0, r2, ip, lsr r5
    1264:	05750305 	ldrbeq	r0, [r5, #-773]!	; 0xfffffcfb
    1268:	05053d14 	streq	r3, [r5, #-3348]	; 0xfffff2ec
    126c:	231e05bb 	tstcs	lr, #784334848	; 0x2ec00000
    1270:	05910305 	ldreq	r0, [r1, #773]	; 0x305
    1274:	05053d14 	streq	r3, [r5, #-3348]	; 0xfffff2ec
    1278:	230105bb 	movwcs	r0, #5563	; 0x15bb
    127c:	01010008 	tsteq	r1, r8
    1280:	05003a05 	streq	r3, [r0, #-2565]	; 0xfffff5fb
    1284:	00000002 	andeq	r0, r0, r2
    1288:	00f30300 	rscseq	r0, r3, r0, lsl #6
    128c:	681f0501 	ldmdavs	pc, {r0, r8, sl}	; <UNPREDICTABLE>
    1290:	054e0a05 	strbeq	r0, [lr, #-2565]	; 0xfffff5fb
    1294:	07022101 	streq	r2, [r2, -r1, lsl #2]
    1298:	05010100 	streq	r0, [r1, #-256]	; 0xffffff00
    129c:	0205002f 	andeq	r0, r5, #47	; 0x2f
    12a0:	00000000 	andeq	r0, r0, r0
    12a4:	01018403 	tsteq	r1, r3, lsl #8
    12a8:	05590a05 	ldrbeq	r0, [r9, #-2565]	; 0xfffff5fb
    12ac:	3030e60e 	eorscc	lr, r0, lr, lsl #12
    12b0:	01053030 	tsteq	r5, r0, lsr r0
    12b4:	00060222 	andeq	r0, r6, r2, lsr #4
    12b8:	32050101 	andcc	r0, r5, #1073741824	; 0x40000000
    12bc:	00020500 	andeq	r0, r2, r0, lsl #10
    12c0:	03000000 	movweq	r0, #0
    12c4:	05010193 	streq	r0, [r1, #-403]	; 0xfffffe6d
    12c8:	0305590a 	movweq	r5, #22794	; 0x590a
    12cc:	bc0e0520 	cfstr32lt	mvfx0, [lr], {32}
    12d0:	05303330 	ldreq	r3, [r0, #-816]!	; 0xfffffcd0
    12d4:	06022201 	streq	r2, [r2], -r1, lsl #4
    12d8:	05010100 	streq	r0, [r1, #-256]	; 0xffffff00
    12dc:	0205004a 	andeq	r0, r5, #74	; 0x4a
    12e0:	00000000 	andeq	r0, r0, r0
    12e4:	0101a303 	tsteq	r1, r3, lsl #6
    12e8:	05830c05 	streq	r0, [r3, #3077]	; 0xc05
    12ec:	1d053112 	stfnes	f3, [r5, #-72]	; 0xffffffb8
    12f0:	2e0e052e 	cfsh32cs	mvfx0, mvfx14, #30
    12f4:	055a0305 	ldrbeq	r0, [sl, #-773]	; 0xfffffcfb
    12f8:	0305200e 	movweq	r2, #20494	; 0x500e
    12fc:	200d0530 	andcs	r0, sp, r0, lsr r5
    1300:	05300305 	ldreq	r0, [r0, #-773]!	; 0xfffffcfb
    1304:	1c05200f 	stcne	0, cr2, [r5], {15}
    1308:	3c260530 	cfstr32cc	mvfx0, [r6], #-192	; 0xffffff40
    130c:	052e2f05 	streq	r2, [lr, #-3845]!	; 0xfffff0fb
    1310:	1e052e2e 	cdpne	14, 0, cr2, cr5, cr14, {1}
    1314:	2e0b052e 	cfsh32cs	mvfx0, mvfx11, #30
    1318:	052f1c05 	streq	r1, [pc, #-3077]!	; 71b <UARTvprintf+0x157>
    131c:	0b055828 	bleq	1573c4 <_etext+0x15535d>
    1320:	4b1f0520 	blmi	7c27a8 <_etext+0x7c0741>
    1324:	05582b05 	ldrbeq	r2, [r8, #-2821]	; 0xfffff4fb
    1328:	0e05200b 	cdpeq	0, 0, cr2, cr5, cr11, {0}
    132c:	2016054b 	andscs	r0, r6, fp, asr #10
    1330:	052e0b05 	streq	r0, [lr, #-2821]!	; 0xfffff4fb
    1334:	0e053d03 	cdpeq	13, 0, cr3, cr5, cr3, {0}
    1338:	17053120 	strne	r3, [r5, -r0, lsr #2]
    133c:	2f0a0567 	svccs	0x000a0567
    1340:	02210105 	eoreq	r0, r1, #1073741825	; 0x40000001
    1344:	0101000d 	tsteq	r1, sp
    1348:	05003c05 	streq	r3, [r0, #-3077]	; 0xfffff3fb
    134c:	00187402 	andseq	r7, r8, r2, lsl #8
    1350:	01bc0300 			; <UNDEFINED> instruction: 0x01bc0300
    1354:	670b0501 	strvs	r0, [fp, -r1, lsl #10]
    1358:	052f0305 	streq	r0, [pc, #-773]!	; 105b <I2C_WriteBytes+0x103>
    135c:	12053d11 	andne	r3, r5, #1088	; 0x440
    1360:	3d11053d 	cfldr32cc	mvfx0, [r1, #-244]	; 0xffffff0c
    1364:	053e1405 	ldreq	r1, [lr, #-1029]!	; 0xfffffbfb
    1368:	2105a013 	tstcs	r5, r3, lsl r0
    136c:	2e29052e 	cfsh64cs	mvdx0, mvdx9, #30
    1370:	02003305 	andeq	r3, r0, #335544320	; 0x14000000
    1374:	052e0104 	streq	r0, [lr, #-260]!	; 0xfffffefc
    1378:	0402003d 	streq	r0, [r2], #-61	; 0xffffffc3
    137c:	29052e01 	stmdbcs	r5, {r0, r9, sl, fp, sp}
    1380:	01040200 	mrseq	r0, R12_usr
    1384:	0402002e 	streq	r0, [r2], #-46	; 0xffffffd2
    1388:	002e0603 	eoreq	r0, lr, r3, lsl #12
    138c:	2e040402 	cdpcs	4, 0, cr0, cr4, cr2, {0}
    1390:	06040200 	streq	r0, [r4], -r0, lsl #4
    1394:	061b0520 	ldreq	r0, [fp], -r0, lsr #10
    1398:	2e27052f 	cfsh64cs	mvdx0, mvdx7, #31
    139c:	052e2d05 	streq	r2, [lr, #-3333]!	; 0xfffff2fb
    13a0:	09053c2f 	stmdbeq	r5, {r0, r1, r2, r3, r5, sl, fp, ip, sp}
    13a4:	2013052e 	andscs	r0, r3, lr, lsr #10
    13a8:	051f0505 	ldreq	r0, [pc, #-1285]	; eab <PAD_GPIOI2CPinConfig+0x63>
    13ac:	1d05230f 	stcne	3, cr2, [r5, #-60]	; 0xffffffc4
    13b0:	2e15052e 	cfmul64cs	mvdx0, mvdx5, mvdx14
    13b4:	05580505 	ldrbeq	r0, [r8, #-1285]	; 0xfffffafb
    13b8:	11053016 	tstne	r5, r6, lsl r0
    13bc:	78140575 	ldmdavc	r4, {r0, r2, r4, r5, r6, r8, sl}
    13c0:	05750c05 	ldrbeq	r0, [r5, #-3077]!	; 0xfffff3fb
    13c4:	0105300a 	tsteq	r5, sl
    13c8:	00100221 	andseq	r0, r0, r1, lsr #4
    13cc:	3b050101 	blcc	1417d8 <_etext+0x13f771>
    13d0:	50020500 	andpl	r0, r2, r0, lsl #10
    13d4:	03000019 	movweq	r0, #25
    13d8:	050101d5 	streq	r0, [r1, #-469]	; 0xfffffe2b
    13dc:	0305670b 	movweq	r6, #22283	; 0x570b
    13e0:	3d12052f 	cfldr32cc	mvfx0, [r2, #-188]	; 0xffffff44
    13e4:	053d1305 	ldreq	r1, [sp, #-773]!	; 0xfffffcfb
    13e8:	052f2e11 	streq	r2, [pc, #-3601]!	; 5df <UARTvprintf+0x1b>
    13ec:	57053e14 	smladpl	r5, r4, lr, r3
    13f0:	2e14052e 	cfmul64cs	mvdx0, mvdx4, mvdx14
    13f4:	05761305 	ldrbeq	r1, [r6, #-773]!	; 0xfffffcfb
    13f8:	2a052e22 	bcs	14cc88 <_etext+0x14ac21>
    13fc:	002e052e 	eoreq	r0, lr, lr, lsr #10
    1400:	2e010402 	cdpcs	4, 0, cr0, cr1, cr2, {0}
    1404:	02003805 	andeq	r3, r0, #327680	; 0x50000
    1408:	052e0104 	streq	r0, [lr, #-260]!	; 0xfffffefc
    140c:	0402002a 	streq	r0, [r2], #-42	; 0xffffffd6
    1410:	02002e01 	andeq	r2, r0, #1, 28
    1414:	2e060304 	cdpcs	3, 0, cr0, cr6, cr4, {0}
    1418:	04040200 	streq	r0, [r4], #-512	; 0xfffffe00
    141c:	0402002e 	streq	r0, [r2], #-46	; 0xffffffd2
    1420:	21052006 	tstcs	r5, r6
    1424:	0f052f06 	svceq	0x00052f06
    1428:	2e15052e 	cfmul64cs	mvdx0, mvdx5, mvdx14
    142c:	052e1b05 	streq	r1, [lr, #-2821]!	; 0xfffff4fb
    1430:	1f053c1d 	svcne	0x00053c1d
    1434:	2d050520 	cfstr32cs	mvfx0, [r5, #-128]	; 0xffffff80
    1438:	05251405 	streq	r1, [r5, #-1029]!	; 0xfffffbfb
    143c:	0a05750c 	beq	15e874 <_etext+0x15c80d>
    1440:	21010530 	tstcs	r1, r0, lsr r5
    1444:	01000e02 	tsteq	r0, r2, lsl #28
    1448:	00300501 	eorseq	r0, r0, r1, lsl #10
    144c:	00000205 	andeq	r0, r0, r5, lsl #4
    1450:	e9030000 	stmdb	r3, {}	; <UNPREDICTABLE>
    1454:	03050101 	movweq	r0, #20737	; 0x5101
    1458:	04020059 	streq	r0, [r2], #-89	; 0xffffffa7
    145c:	00580601 	subseq	r0, r8, r1, lsl #12
    1460:	58020402 	stmdapl	r2, {r1, sl}
    1464:	03040200 	movweq	r0, #16896	; 0x4200
    1468:	04020058 	streq	r0, [r2], #-88	; 0xffffffa8
    146c:	0d055804 	stceq	8, cr5, [r5, #-16]
    1470:	10054f06 	andne	r4, r5, r6, lsl #30
    1474:	200d052e 	andcs	r0, sp, lr, lsr #10
    1478:	023d0105 	eorseq	r0, sp, #1073741825	; 0x40000001
    147c:	01010009 	tsteq	r1, r9
    1480:	05002e05 	streq	r2, [r0, #-3589]	; 0xfffff1fb
    1484:	00000002 	andeq	r0, r0, r2
    1488:	01f20300 	mvnseq	r0, r0, lsl #6
    148c:	59030501 	stmdbpl	r3, {r0, r8, sl}
    1490:	01040200 	mrseq	r0, R12_usr
    1494:	02005806 	andeq	r5, r0, #393216	; 0x60000
    1498:	00580204 	subseq	r0, r8, r4, lsl #4
    149c:	58030402 	stmdapl	r3, {r1, sl}
    14a0:	04040200 	streq	r0, [r4], #-512	; 0xfffffe00
    14a4:	054f0658 	strbeq	r0, [pc, #-1624]	; e54 <PAD_GPIOI2CPinConfig+0xc>
    14a8:	0e052010 	mcreq	0, 0, r2, cr5, cr0, {0}
    14ac:	21010520 	tstcs	r1, r0, lsr #10
    14b0:	01000802 	tsteq	r0, r2, lsl #16
    14b4:	00240501 	eoreq	r0, r4, r1, lsl #10
    14b8:	00000205 	andeq	r0, r0, r5, lsl #4
    14bc:	fb030000 	blx	c14c6 <_etext+0xbf45f>
    14c0:	11050101 	tstne	r5, r1, lsl #2
    14c4:	2e20054c 	cfsh64cs	mvdx0, mvdx0, #44
    14c8:	052e2805 	streq	r2, [lr, #-2053]!	; 0xfffff7fb
    14cc:	04020032 	streq	r0, [r2], #-50	; 0xffffffce
    14d0:	3c052e01 	stccc	14, cr2, [r5], {1}
    14d4:	01040200 	mrseq	r0, R12_usr
    14d8:	0028052e 	eoreq	r0, r8, lr, lsr #10
    14dc:	2e010402 	cdpcs	4, 0, cr0, cr1, cr2, {0}
    14e0:	03040200 	movweq	r0, #16896	; 0x4200
    14e4:	02002e06 	andeq	r2, r0, #6, 28	; 0x60
    14e8:	002e0404 	eoreq	r0, lr, r4, lsl #8
    14ec:	20060402 	andcs	r0, r6, r2, lsl #8
    14f0:	2f061905 	svccs	0x00061905
    14f4:	052e2505 	streq	r2, [lr, #-1285]!	; 0xfffffafb
    14f8:	2d052e2b 	stccs	14, cr2, [r5, #-172]	; 0xffffff54
    14fc:	2e07053c 	mcrcs	5, 0, r0, cr7, cr12, {1}
    1500:	05201105 	streq	r1, [r0, #-261]!	; 0xfffffefb
    1504:	0d051f03 	stceq	15, cr1, [r5, #-12]
    1508:	2e1c0523 	cfmul64cs	mvdx0, mvdx12, mvdx3
    150c:	052e1305 	streq	r1, [lr, #-773]!	; 0xfffffcfb
    1510:	10055803 	andne	r5, r5, r3, lsl #16
    1514:	6a11052f 	bvs	4429d8 <_etext+0x440971>
    1518:	052e2005 	streq	r2, [lr, #-5]!
    151c:	2c052e28 	stccs	14, cr2, [r5], {40}	; 0x28
    1520:	01040200 	mrseq	r0, R12_usr
    1524:	0036052e 	eorseq	r0, r6, lr, lsr #10
    1528:	2e010402 	cdpcs	4, 0, cr0, cr1, cr2, {0}
    152c:	02002805 	andeq	r2, r0, #327680	; 0x50000
    1530:	002e0104 	eoreq	r0, lr, r4, lsl #2
    1534:	06030402 	streq	r0, [r3], -r2, lsl #8
    1538:	0402002e 	streq	r0, [r2], #-46	; 0xffffffd2
    153c:	02002e04 	andeq	r2, r0, #4, 28	; 0x40
    1540:	05200604 	streq	r0, [r0, #-1540]!	; 0xfffff9fc
    1544:	052f061f 	streq	r0, [pc, #-1567]!	; f2d <I2C_Init+0x2d>
    1548:	13052e0d 	movwne	r2, #24077	; 0x5e0d
    154c:	2e19052e 	cfmul64cs	mvdx0, mvdx9, mvdx14
    1550:	053c1b05 	ldreq	r1, [ip, #-2821]!	; 0xfffff4fb
    1554:	0305201d 	movweq	r2, #20509	; 0x501d
    1558:	250e052d 	strcs	r0, [lr, #-1325]	; 0xfffffad3
    155c:	052e1d05 	streq	r1, [lr, #-3333]!	; 0xfffff2fb
    1560:	29052e25 	stmdbcs	r5, {r0, r2, r5, r9, sl, fp, sp}
    1564:	01040200 	mrseq	r0, R12_usr
    1568:	0033052e 	eorseq	r0, r3, lr, lsr #10
    156c:	2e010402 	cdpcs	4, 0, cr0, cr1, cr2, {0}
    1570:	02002505 	andeq	r2, r0, #20971520	; 0x1400000
    1574:	002e0104 	eoreq	r0, lr, r4, lsl #2
    1578:	06030402 	streq	r0, [r3], -r2, lsl #8
    157c:	0402002e 	streq	r0, [r2], #-46	; 0xffffffd2
    1580:	03052e04 	movweq	r2, #24068	; 0x5e04
    1584:	06040200 	streq	r0, [r4], -r0, lsl #4
    1588:	13052006 	movwne	r2, #20486	; 0x5006
    158c:	2e22052f 	cfsh64cs	mvdx0, mvdx2, #31
    1590:	052e2a05 	streq	r2, [lr, #-2565]!	; 0xfffff5fb
    1594:	0402002d 	streq	r0, [r2], #-45	; 0xffffffd3
    1598:	37052e01 	strcc	r2, [r5, -r1, lsl #28]
    159c:	01040200 	mrseq	r0, R12_usr
    15a0:	002a052e 	eoreq	r0, sl, lr, lsr #10
    15a4:	2e010402 	cdpcs	4, 0, cr0, cr1, cr2, {0}
    15a8:	03040200 	movweq	r0, #16896	; 0x4200
    15ac:	02002e06 	andeq	r2, r0, #6, 28	; 0x60
    15b0:	002e0404 	eoreq	r0, lr, r4, lsl #8
    15b4:	20060402 	andcs	r0, r6, r2, lsl #8
    15b8:	2f062005 	svccs	0x00062005
    15bc:	052e1a05 	streq	r1, [lr, #-2565]!	; 0xfffff5fb
    15c0:	1505821e 	strne	r8, [r5, #-542]	; 0xfffffde2
    15c4:	9e07054b 	cfsh32ls	mvfx0, mvfx7, #43
    15c8:	052f1305 	streq	r1, [pc, #-773]!	; 12cb <I2C_ReadBytes+0x12b>
    15cc:	13053905 	movwne	r3, #22789	; 0x5905
    15d0:	9e050527 	cfsh32ls	mvfx0, mvfx5, #23
    15d4:	052f1105 	streq	r1, [pc, #-261]!	; 14d7 <PAD_SysClockSet+0x5b>
    15d8:	1c053e18 	stcne	14, cr3, [r5], {24}
    15dc:	4c010582 	cfstr32mi	mvfx0, [r1], {130}	; 0x82
    15e0:	01000f02 	tsteq	r0, r2, lsl #30
    15e4:	00320501 	eorseq	r0, r2, r1, lsl #10
    15e8:	00000205 	andeq	r0, r0, r5, lsl #4
    15ec:	99030000 	stmdbls	r3, {}	; <UNPREDICTABLE>
    15f0:	16050102 	strne	r0, [r5], -r2, lsl #2
    15f4:	2f0d054b 	svccs	0x000d054b
    15f8:	052e1c05 	streq	r1, [lr, #-3077]!	; 0xfffff3fb
    15fc:	03052e13 	movweq	r2, #24083	; 0x5e13
    1600:	2f0c0558 	svccs	0x000c0558
    1604:	05300a05 	ldreq	r0, [r0, #-2565]!	; 0xfffff5fb
    1608:	06022101 	streq	r2, [r2], -r1, lsl #2
    160c:	05010100 	streq	r0, [r1, #-256]	; 0xffffff00
    1610:	02050032 	andeq	r0, r5, #50	; 0x32
    1614:	00000000 	andeq	r0, r0, r0
    1618:	0102a003 	tsteq	r2, r3
    161c:	054b1605 	strbeq	r1, [fp, #-1541]	; 0xfffff9fb
    1620:	1c052f0d 	stcne	15, cr2, [r5], {13}
    1624:	2e13052e 	cfmul64cs	mvdx0, mvdx3, mvdx14
    1628:	05580305 	ldrbeq	r0, [r8, #-773]	; 0xfffffcfb
    162c:	0a052f0c 	beq	14d264 <_etext+0x14b1fd>
    1630:	21010530 	tstcs	r1, r0, lsr r5
    1634:	01000602 	tsteq	r0, r2, lsl #12
    1638:	002b0501 	eoreq	r0, fp, r1, lsl #10
    163c:	00000205 	andeq	r0, r0, r5, lsl #4
    1640:	a8030000 	stmdage	r3, {}	; <UNPREDICTABLE>
    1644:	15050102 	strne	r0, [r5, #-258]	; 0xfffffefe
    1648:	3d19054b 	cfldr32cc	mvfx0, [r9, #-300]	; 0xfffffed4
    164c:	052e1705 	streq	r1, [lr, #-1797]!	; 0xfffff8fb
    1650:	12052f3a 	andne	r2, r5, #58, 30	; 0xe8
    1654:	0e05592e 	vmlaeq.f16	s10, s10, s29	; <UNPREDICTABLE>
    1658:	3c030568 	cfstr32cc	mvfx0, [r3], {104}	; 0x68
    165c:	05301005 	ldreq	r1, [r0, #-5]!
    1660:	0305690e 	movweq	r6, #22798	; 0x590e
    1664:	300e053c 	andcc	r0, lr, ip, lsr r5
    1668:	053d1005 	ldreq	r1, [sp, #-5]!
    166c:	0305690e 	movweq	r6, #22798	; 0x590e
    1670:	300e053c 	andcc	r0, lr, ip, lsr r5
    1674:	053d1005 	ldreq	r1, [sp, #-5]!
    1678:	0305690e 	movweq	r6, #22798	; 0x590e
    167c:	300e053c 	andcc	r0, lr, ip, lsr r5
    1680:	053d1005 	ldreq	r1, [sp, #-5]!
    1684:	00086801 	andeq	r6, r8, r1, lsl #16
    1688:	33050101 	movwcc	r0, #20737	; 0x5101
    168c:	00020500 	andeq	r0, r2, r0, lsl #10
    1690:	03000000 	movweq	r0, #0
    1694:	050102c6 	streq	r0, [r1, #-710]	; 0xfffffd3a
    1698:	01056719 	tsteq	r5, r9, lsl r7
    169c:	0004024b 	andeq	r0, r4, fp, asr #4
    16a0:	23050101 	movwcs	r0, #20737	; 0x5101
    16a4:	00020500 	andeq	r0, r2, r0, lsl #10
    16a8:	03000000 	movweq	r0, #0
    16ac:	050102ca 	streq	r0, [r1, #-714]	; 0xfffffd36
    16b0:	01054b11 	tsteq	r5, r1, lsl fp
    16b4:	00040259 	andeq	r0, r4, r9, asr r2
    16b8:	25050101 	strcs	r0, [r5, #-257]	; 0xfffffeff
    16bc:	00020500 	andeq	r0, r2, r0, lsl #10
    16c0:	03000000 	movweq	r0, #0
    16c4:	050102ce 	streq	r0, [r1, #-718]	; 0xfffffd32
    16c8:	01054b13 	tsteq	r5, r3, lsl fp
    16cc:	00040259 	andeq	r0, r4, r9, asr r2
    16d0:	02350101 	eorseq	r0, r5, #1073741824	; 0x40000000
    16d4:	00030000 	andeq	r0, r3, r0
    16d8:	000000ff 	strdeq	r0, [r0], -pc	; <UNPREDICTABLE>
    16dc:	0efb0102 	cdpeq	1, 15, cr0, cr11, cr2, {0}
    16e0:	0101000d 	tsteq	r1, sp
    16e4:	00000101 	andeq	r0, r0, r1, lsl #2
    16e8:	00000100 	andeq	r0, r0, r0, lsl #2
    16ec:	2f2e2e01 	svccs	0x002e2e01
    16f0:	732f2e2e 			; <UNDEFINED> instruction: 0x732f2e2e
    16f4:	642f6372 	strtvs	r6, [pc], #-882	; 16fc <PAD_SysPeripheralClockEnable+0x8>
    16f8:	65766972 	ldrbvs	r6, [r6, #-2418]!	; 0xfffff68e
    16fc:	65642f72 	strbvs	r2, [r4, #-3954]!	; 0xfffff08e
    1700:	65636976 	strbvs	r6, [r3, #-2422]!	; 0xfffff68a
    1704:	5c3a6400 	cfldrspl	mvf6, [sl], #-0
    1708:	2d636367 	stclcs	3, cr6, [r3, #-412]!	; 0xfffffe64
    170c:	2d6d7261 	sfmcs	f7, 2, [sp, #-388]!	; 0xfffffe7c
    1710:	656e6f6e 	strbvs	r6, [lr, #-3950]!	; 0xfffff092
    1714:	6261652d 	rsbvs	r6, r1, #188743680	; 0xb400000
    1718:	30312d69 	eorscc	r2, r1, r9, ror #26
    171c:	3230322d 	eorscc	r3, r0, #-805306366	; 0xd0000002
    1720:	34712d30 	ldrbtcc	r2, [r1], #-3376	; 0xfffff2d0
    1724:	6a616d2d 	bvs	185cbe0 <_etext+0x185ab79>
    1728:	615c726f 	cmpvs	ip, pc, ror #4
    172c:	6e2d6d72 	mcrvs	13, 1, r6, cr13, cr2, {3}
    1730:	2d656e6f 	stclcs	14, cr6, [r5, #-444]!	; 0xfffffe44
    1734:	69626165 	stmdbvs	r2!, {r0, r2, r5, r6, r8, sp, lr}^
    1738:	636e695c 	cmnvs	lr, #92, 18	; 0x170000
    173c:	6564756c 	strbvs	r7, [r4, #-1388]!	; 0xfffffa94
    1740:	63616d5c 	cmnvs	r1, #92, 26	; 0x1700
    1744:	656e6968 	strbvs	r6, [lr, #-2408]!	; 0xfffff698
    1748:	5c3a6400 	cfldrspl	mvf6, [sl], #-0
    174c:	2d636367 	stclcs	3, cr6, [r3, #-412]!	; 0xfffffe64
    1750:	2d6d7261 	sfmcs	f7, 2, [sp, #-388]!	; 0xfffffe7c
    1754:	656e6f6e 	strbvs	r6, [lr, #-3950]!	; 0xfffff092
    1758:	6261652d 	rsbvs	r6, r1, #188743680	; 0xb400000
    175c:	30312d69 	eorscc	r2, r1, r9, ror #26
    1760:	3230322d 	eorscc	r3, r0, #-805306366	; 0xd0000002
    1764:	34712d30 	ldrbtcc	r2, [r1], #-3376	; 0xfffff2d0
    1768:	6a616d2d 	bvs	185cc24 <_etext+0x185abbd>
    176c:	615c726f 	cmpvs	ip, pc, ror #4
    1770:	6e2d6d72 	mcrvs	13, 1, r6, cr13, cr2, {3}
    1774:	2d656e6f 	stclcs	14, cr6, [r5, #-444]!	; 0xfffffe44
    1778:	69626165 	stmdbvs	r2!, {r0, r2, r5, r6, r8, sp, lr}^
    177c:	636e695c 	cmnvs	lr, #92, 18	; 0x170000
    1780:	6564756c 	strbvs	r7, [r4, #-1388]!	; 0xfffffa94
    1784:	7379735c 	cmnvc	r9, #92, 6	; 0x70000001
    1788:	2f2e2e00 	svccs	0x002e2e00
    178c:	732f2e2e 			; <UNDEFINED> instruction: 0x732f2e2e
    1790:	492f6372 	stmdbmi	pc!, {r1, r4, r5, r6, r8, r9, sp, lr}	; <UNPREDICTABLE>
    1794:	642f434e 	strtvs	r4, [pc], #-846	; 179c <PAD_SysPeripheralClockEnable+0xa8>
    1798:	63697665 	cmnvs	r9, #105906176	; 0x6500000
    179c:	65000065 	strvs	r0, [r0, #-101]	; 0xffffff9b
    17a0:	6f727065 	svcvs	0x00727065
    17a4:	70632e6d 	rsbvc	r2, r3, sp, ror #28
    17a8:	00010070 	andeq	r0, r1, r0, ror r0
    17ac:	65645f00 	strbvs	r5, [r4, #-3840]!	; 0xfffff100
    17b0:	6c756166 	ldfvse	f6, [r5], #-408	; 0xfffffe68
    17b4:	79745f74 	ldmdbvc	r4!, {r2, r4, r5, r6, r8, r9, sl, fp, ip, lr}^
    17b8:	2e736570 	mrccs	5, 3, r6, cr3, cr0, {3}
    17bc:	00020068 	andeq	r0, r2, r8, rrx
    17c0:	74735f00 	ldrbtvc	r5, [r3], #-3840	; 0xfffff100
    17c4:	746e6964 	strbtvc	r6, [lr], #-2404	; 0xfffff69c
    17c8:	0300682e 	movweq	r6, #2094	; 0x82e
    17cc:	65650000 	strbvs	r0, [r5, #-0]!
    17d0:	6d6f7270 	sfmvs	f7, 2, [pc, #-448]!	; 1618 <PAD_SysClockSet+0x19c>
    17d4:	0400682e 	streq	r6, [r0], #-2094	; 0xfffff7d2
    17d8:	05000000 	streq	r0, [r0, #-0]
    17dc:	02050027 	andeq	r0, r5, #39	; 0x27
    17e0:	000019fc 	strdeq	r1, [r0], -ip
    17e4:	05010d03 	streq	r0, [r1, #-3331]	; 0xfffff2fd
    17e8:	14054b05 	strne	r4, [r5], #-2821	; 0xfffff4fb
    17ec:	4001053d 	andmi	r0, r1, sp, lsr r5
    17f0:	051e1405 	ldreq	r1, [lr, #-1029]	; 0xfffffbfb
    17f4:	08023e01 	stmdaeq	r2, {r0, r9, sl, fp, ip, sp}
    17f8:	05010100 	streq	r0, [r1, #-256]	; 0xffffff00
    17fc:	02050029 	andeq	r0, r5, #41	; 0x29
    1800:	00000000 	andeq	r0, r0, r0
    1804:	05011503 	streq	r1, [r1, #-1283]	; 0xfffffafd
    1808:	14054b05 	strne	r4, [r5], #-2821	; 0xfffff4fb
    180c:	4101053d 	tstmi	r1, sp, lsr r5
    1810:	051e1405 	ldreq	r1, [lr, #-1029]	; 0xfffffbfb
    1814:	08023e01 	stmdaeq	r2, {r0, r9, sl, fp, ip, sp}
    1818:	05010100 	streq	r0, [r1, #-256]	; 0xffffff00
    181c:	02050045 	andeq	r0, r5, #69	; 0x45
    1820:	00000000 	andeq	r0, r0, r0
    1824:	05011e03 	streq	r1, [r1, #-3587]	; 0xfffff1fd
    1828:	05056714 	streq	r6, [r5, #-1812]	; 0xfffff8ec
    182c:	3043052e 	subcc	r0, r3, lr, lsr #10
    1830:	05665c05 	strbeq	r5, [r6, #-3077]!	; 0xfffff3fb
    1834:	052f590f 	streq	r5, [pc, #-2319]!	; f2d <I2C_Init+0x2d>
    1838:	01056717 	tsteq	r5, r7, lsl r7
    183c:	05740b03 	ldrbeq	r0, [r4, #-2819]!	; 0xfffff4fd
    1840:	20770319 	rsbscs	r0, r7, r9, lsl r3
    1844:	052e0a05 	streq	r0, [lr, #-2565]!	; 0xfffff5fb
    1848:	3305314a 	movwcc	r3, #20810	; 0x514a
    184c:	3c6f0566 	cfstr64cc	mvdx0, [pc], #-408	; 16bc <PAD_SysClockSet+0x240>
    1850:	2f590f05 	svccs	0x00590f05
    1854:	05672405 	strbeq	r2, [r7, #-1029]!	; 0xfffffbfb
    1858:	24052e0f 	strcs	r2, [r5], #-3599	; 0xfffff1f1
    185c:	2e170575 	mrccs	5, 0, r0, cr7, cr5, {3}
    1860:	025a0105 	subseq	r0, sl, #1073741825	; 0x40000001
    1864:	0101000b 	tsteq	r1, fp
    1868:	05004305 	streq	r4, [r0, #-773]	; 0xfffffcfb
    186c:	001a2802 	andseq	r2, sl, r2, lsl #16
    1870:	01310300 	teqeq	r1, r0, lsl #6
    1874:	05671405 	strbeq	r1, [r7, #-1029]!	; 0xfffffbfb
    1878:	41052e05 	tstmi	r5, r5, lsl #28
    187c:	6663052f 	strbtvs	r0, [r3], -pc, lsr #10
    1880:	054b1705 	strbeq	r1, [fp, #-1797]	; 0xfffff8fb
    1884:	01057516 	tsteq	r5, r6, lsl r5
    1888:	05580b03 	ldrbeq	r0, [r8, #-2819]	; 0xfffff4fd
    188c:	20770319 	rsbscs	r0, r7, r9, lsl r3
    1890:	052e0a05 	streq	r0, [lr, #-2565]!	; 0xfffff5fb
    1894:	33053149 	movwcc	r3, #20809	; 0x5149
    1898:	3c6d0566 	cfstr64cc	mvdx0, [sp], #-408	; 0xfffffe68
    189c:	2f590f05 	svccs	0x00590f05
    18a0:	05671705 	strbeq	r1, [r7, #-1797]!	; 0xfffff8fb
    18a4:	01056716 	tsteq	r5, r6, lsl r7
    18a8:	000b024c 	andeq	r0, fp, ip, asr #4
    18ac:	30050101 	andcc	r0, r5, r1, lsl #2
    18b0:	00020500 	andeq	r0, r2, r0, lsl #10
    18b4:	03000000 	movweq	r0, #0
    18b8:	050100c3 	streq	r0, [r1, #-195]	; 0xffffff3d
    18bc:	05055914 	streq	r5, [r5, #-2324]	; 0xfffff6ec
    18c0:	2f45052e 	svccs	0x0045052e
    18c4:	05663305 	strbeq	r3, [r6, #-773]!	; 0xfffffcfb
    18c8:	17053c65 	strne	r3, [r5, -r5, ror #24]
    18cc:	6901054b 	stmdbvs	r1, {r0, r1, r3, r6, r8, sl}
    18d0:	01000602 	tsteq	r0, r2, lsl #12
    18d4:	001b0501 	andseq	r0, fp, r1, lsl #10
    18d8:	00000205 	andeq	r0, r0, r5, lsl #4
    18dc:	cb030000 	blgt	c18e4 <_etext+0xbf87d>
    18e0:	01050100 	mrseq	r0, (UNDEF: 21)
    18e4:	00050231 	andeq	r0, r5, r1, lsr r2
    18e8:	1e050101 	adfnes	f0, f5, f1
    18ec:	00020500 	andeq	r0, r2, r0, lsl #10
    18f0:	03000000 	movweq	r0, #0
    18f4:	050100d0 	streq	r0, [r1, #-208]	; 0xffffff30
    18f8:	05053d14 	streq	r3, [r5, #-3348]	; 0xfffff2ec
    18fc:	2f11052e 	svccs	0x0011052e
    1900:	05831705 	streq	r1, [r3, #1797]	; 0x705
    1904:	08025a01 	stmdaeq	r2, {r0, r9, fp, ip, lr}
    1908:	44010100 	strmi	r0, [r1], #-256	; 0xffffff00
    190c:	03000002 	movweq	r0, #2
    1910:	00015400 	andeq	r5, r1, r0, lsl #8
    1914:	fb010200 	blx	4211e <_etext+0x400b7>
    1918:	01000d0e 	tsteq	r0, lr, lsl #26
    191c:	00010101 	andeq	r0, r1, r1, lsl #2
    1920:	00010000 	andeq	r0, r1, r0
    1924:	2e2e0100 	sufcse	f0, f6, f0
    1928:	2f2e2e2f 	svccs	0x002e2e2f
    192c:	2f637273 	svccs	0x00637273
    1930:	76697264 	strbtvc	r7, [r9], -r4, ror #4
    1934:	64007265 	strvs	r7, [r0], #-613	; 0xfffffd9b
    1938:	63675c3a 	cmnvs	r7, #14848	; 0x3a00
    193c:	72612d63 	rsbvc	r2, r1, #6336	; 0x18c0
    1940:	6f6e2d6d 	svcvs	0x006e2d6d
    1944:	652d656e 	strvs	r6, [sp, #-1390]!	; 0xfffffa92
    1948:	2d696261 	sfmcs	f6, 2, [r9, #-388]!	; 0xfffffe7c
    194c:	322d3031 	eorcc	r3, sp, #49	; 0x31
    1950:	2d303230 	lfmcs	f3, 4, [r0, #-192]!	; 0xffffff40
    1954:	6d2d3471 	cfstrsvs	mvf3, [sp, #-452]!	; 0xfffffe3c
    1958:	726f6a61 	rsbvc	r6, pc, #397312	; 0x61000
    195c:	6d72615c 	ldfvse	f6, [r2, #-368]!	; 0xfffffe90
    1960:	6e6f6e2d 	cdpvs	14, 6, cr6, cr15, cr13, {1}
    1964:	61652d65 	cmnvs	r5, r5, ror #26
    1968:	695c6962 	ldmdbvs	ip, {r1, r5, r6, r8, fp, sp, lr}^
    196c:	756c636e 	strbvc	r6, [ip, #-878]!	; 0xfffffc92
    1970:	6d5c6564 	cfldr64vs	mvdx6, [ip, #-400]	; 0xfffffe70
    1974:	69686361 	stmdbvs	r8!, {r0, r5, r6, r8, r9, sp, lr}^
    1978:	6400656e 	strvs	r6, [r0], #-1390	; 0xfffffa92
    197c:	63675c3a 	cmnvs	r7, #14848	; 0x3a00
    1980:	72612d63 	rsbvc	r2, r1, #6336	; 0x18c0
    1984:	6f6e2d6d 	svcvs	0x006e2d6d
    1988:	652d656e 	strvs	r6, [sp, #-1390]!	; 0xfffffa92
    198c:	2d696261 	sfmcs	f6, 2, [r9, #-388]!	; 0xfffffe7c
    1990:	322d3031 	eorcc	r3, sp, #49	; 0x31
    1994:	2d303230 	lfmcs	f3, 4, [r0, #-192]!	; 0xffffff40
    1998:	6d2d3471 	cfstrsvs	mvf3, [sp, #-452]!	; 0xfffffe3c
    199c:	726f6a61 	rsbvc	r6, pc, #397312	; 0x61000
    19a0:	6d72615c 	ldfvse	f6, [r2, #-368]!	; 0xfffffe90
    19a4:	6e6f6e2d 	cdpvs	14, 6, cr6, cr15, cr13, {1}
    19a8:	61652d65 	cmnvs	r5, r5, ror #26
    19ac:	695c6962 	ldmdbvs	ip, {r1, r5, r6, r8, fp, sp, lr}^
    19b0:	756c636e 	strbvc	r6, [ip, #-878]!	; 0xfffffc92
    19b4:	735c6564 	cmpvc	ip, #100, 10	; 0x19000000
    19b8:	64007379 	strvs	r7, [r0], #-889	; 0xfffffc87
    19bc:	63675c3a 	cmnvs	r7, #14848	; 0x3a00
    19c0:	72612d63 	rsbvc	r2, r1, #6336	; 0x18c0
    19c4:	6f6e2d6d 	svcvs	0x006e2d6d
    19c8:	652d656e 	strvs	r6, [sp, #-1390]!	; 0xfffffa92
    19cc:	2d696261 	sfmcs	f6, 2, [r9, #-388]!	; 0xfffffe7c
    19d0:	322d3031 	eorcc	r3, sp, #49	; 0x31
    19d4:	2d303230 	lfmcs	f3, 4, [r0, #-192]!	; 0xffffff40
    19d8:	6d2d3471 	cfstrsvs	mvf3, [sp, #-452]!	; 0xfffffe3c
    19dc:	726f6a61 	rsbvc	r6, pc, #397312	; 0x61000
    19e0:	62696c5c 	rsbvs	r6, r9, #92, 24	; 0x5c00
    19e4:	6363675c 	cmnvs	r3, #92, 14	; 0x1700000
    19e8:	6d72615c 	ldfvse	f6, [r2, #-368]!	; 0xfffffe90
    19ec:	6e6f6e2d 	cdpvs	14, 6, cr6, cr15, cr13, {1}
    19f0:	61652d65 	cmnvs	r5, r5, ror #26
    19f4:	315c6962 	cmpcc	ip, r2, ror #18
    19f8:	2e322e30 	mrccs	14, 1, r2, cr2, cr0, {1}
    19fc:	6e695c31 	mcrvs	12, 3, r5, cr9, cr1, {1}
    1a00:	64756c63 	ldrbtvs	r6, [r5], #-3171	; 0xfffff39d
    1a04:	2e2e0065 	cdpcs	0, 2, cr0, cr14, cr5, {3}
    1a08:	2f2e2e2f 	svccs	0x002e2e2f
    1a0c:	2f637273 	svccs	0x00637273
    1a10:	00434e49 	subeq	r4, r3, r9, asr #28
    1a14:	62656400 	rsbvs	r6, r5, #0, 8
    1a18:	632e6775 			; <UNDEFINED> instruction: 0x632e6775
    1a1c:	01007070 	tsteq	r0, r0, ror r0
    1a20:	645f0000 	ldrbvs	r0, [pc], #-0	; 1a28 <eepromRead>
    1a24:	75616665 	strbvc	r6, [r1, #-1637]!	; 0xfffff99b
    1a28:	745f746c 	ldrbvc	r7, [pc], #-1132	; 1a30 <eepromRead+0x8>
    1a2c:	73657079 	cmnvc	r5, #121	; 0x79
    1a30:	0200682e 	andeq	r6, r0, #3014656	; 0x2e0000
    1a34:	735f0000 	cmpvc	pc, #0
    1a38:	6e696474 	mcrvs	4, 3, r6, cr9, cr4, {3}
    1a3c:	00682e74 	rsbeq	r2, r8, r4, ror lr
    1a40:	73000003 	movwvc	r0, #3
    1a44:	72616474 	rsbvc	r6, r1, #116, 8	; 0x74000000
    1a48:	00682e67 	rsbeq	r2, r8, r7, ror #28
    1a4c:	64000004 	strvs	r0, [r0], #-4
    1a50:	67756265 	ldrbvs	r6, [r5, -r5, ror #4]!
    1a54:	0500682e 	streq	r6, [r0, #-2094]	; 0xfffff7d2
    1a58:	623c0000 	eorsvs	r0, ip, #0
    1a5c:	746c6975 	strbtvc	r6, [ip], #-2421	; 0xfffff68b
    1a60:	3e6e692d 	vmulcc.f16	s13, s28, s27	; <UNPREDICTABLE>
    1a64:	00000000 	andeq	r0, r0, r0
    1a68:	00010500 	andeq	r0, r1, r0, lsl #10
    1a6c:	1ac80205 	bne	ff202288 <_ebss+0xdf200038>
    1a70:	0b030000 	bleq	c1a78 <_etext+0xbfa11>
    1a74:	590f0501 	stmdbpl	pc, {r0, r8, sl}	; <UNPREDICTABLE>
    1a78:	025a0105 	subseq	r0, sl, #1073741825	; 0x40000001
    1a7c:	01010006 	tsteq	r1, r6
    1a80:	05000105 	streq	r0, [r0, #-261]	; 0xfffffefb
    1a84:	001ae802 	andseq	lr, sl, r2, lsl #16
    1a88:	01110300 	tsteq	r1, r0, lsl #6
    1a8c:	05590c05 	ldrbeq	r0, [r9, #-3077]	; 0xfffff3fb
    1a90:	30310814 	eorscc	r0, r1, r4, lsl r8
    1a94:	30303030 	eorscc	r3, r0, r0, lsr r0
    1a98:	22010530 	andcs	r0, r1, #48, 10	; 0xc000000
    1a9c:	01001502 	tsteq	r0, r2, lsl #10
    1aa0:	00010501 	andeq	r0, r1, r1, lsl #10
    1aa4:	00000205 	andeq	r0, r0, r5, lsl #4
    1aa8:	25030000 	strcs	r0, [r3, #-0]
    1aac:	4b160501 	blmi	582eb8 <_etext+0x580e51>
    1ab0:	023d0105 	eorseq	r0, sp, #1073741825	; 0x40000001
    1ab4:	01010007 	tsteq	r1, r7
    1ab8:	05003605 	streq	r3, [r0, #-1541]	; 0xfffff9fb
    1abc:	00000002 	andeq	r0, r0, r2
    1ac0:	01290300 			; <UNDEFINED> instruction: 0x01290300
    1ac4:	05670505 	strbeq	r0, [r7, #-1285]!	; 0xfffffafb
    1ac8:	1a053d1c 	bne	150f40 <_etext+0x14eed9>
    1acc:	30010520 	andcc	r0, r1, r0, lsr #10
    1ad0:	01000602 	tsteq	r0, r2, lsl #12
    1ad4:	00470501 	subeq	r0, r7, r1, lsl #10
    1ad8:	1b5c0205 	blne	17022f4 <_etext+0x170028d>
    1adc:	2f030000 	svccs	0x00030000
    1ae0:	76050501 	strvc	r0, [r5], -r1, lsl #10
    1ae4:	053d0805 	ldreq	r0, [sp, #-2053]!	; 0xfffff7fb
    1ae8:	05052017 	streq	r2, [r5, #-23]	; 0xffffffe9
    1aec:	2f13052e 	svccs	0x0013052e
    1af0:	05921105 	ldreq	r1, [r2, #261]	; 0x105
    1af4:	0d052009 	stceq	0, cr2, [r5, #-36]	; 0xffffffdc
    1af8:	054a0b03 	strbeq	r0, [sl, #-2819]	; 0xfffff4fd
    1afc:	20780317 	rsbscs	r0, r8, r7, lsl r3
    1b00:	053d0d05 	ldreq	r0, [sp, #-3333]!	; 0xfffff2fb
    1b04:	0d052317 	stceq	3, cr2, [r5, #-92]	; 0xffffffa4
    1b08:	2614053d 			; <UNDEFINED> instruction: 0x2614053d
    1b0c:	054b0905 	strbeq	r0, [fp, #-2309]	; 0xfffff6fb
    1b10:	13053d17 	movwne	r3, #23831	; 0x5d17
    1b14:	4001053e 	andmi	r0, r1, lr, lsr r5
    1b18:	01010008 	tsteq	r1, r8
    1b1c:	05001b05 	streq	r1, [r0, #-2821]	; 0xfffff4fb
    1b20:	00000002 	andeq	r0, r0, r2
    1b24:	00cd0300 	sbceq	r0, sp, r0, lsl #6
    1b28:	02005801 	andeq	r5, r0, #65536	; 0x10000
    1b2c:	3c060104 	stfccs	f0, [r6], {4}
    1b30:	02001005 	andeq	r1, r0, #5
    1b34:	58060304 	stmdapl	r6, {r2, r8, r9}
    1b38:	023c1b05 	eorseq	r1, ip, #5120	; 0x1400
    1b3c:	01010006 	tsteq	r1, r6
    1b40:	05001b05 	streq	r1, [r0, #-2821]	; 0xfffff4fb
    1b44:	00000002 	andeq	r0, r0, r2
    1b48:	00cd0300 	sbceq	r0, sp, r0, lsl #6
    1b4c:	06022e01 	streq	r2, [r2], -r1, lsl #28
    1b50:	Address 0x00001b50 is out of bounds.


Disassembly of section .debug_str:

00000000 <.debug_str>:
   0:	20554e47 	subscs	r4, r5, r7, asr #28
   4:	312b2b43 			; <UNDEFINED> instruction: 0x312b2b43
   8:	30312031 	eorscc	r2, r1, r1, lsr r0
   c:	312e322e 			; <UNDEFINED> instruction: 0x312e322e
  10:	32303220 	eorscc	r3, r0, #32, 4
  14:	30313130 	eorscc	r3, r1, r0, lsr r1
  18:	72282033 	eorvc	r2, r8, #51	; 0x33
  1c:	61656c65 	cmnvs	r5, r5, ror #24
  20:	20296573 	eorcs	r6, r9, r3, ror r5
  24:	68746d2d 	ldmdavs	r4!, {r0, r2, r3, r5, r8, sl, fp, sp, lr}^
  28:	20626d75 	rsbcs	r6, r2, r5, ror sp
  2c:	70636d2d 	rsbvc	r6, r3, sp, lsr #26
  30:	6f633d75 	svcvs	0x00633d75
  34:	78657472 	stmdavc	r5!, {r1, r4, r5, r6, sl, ip, sp, lr}^
  38:	20346d2d 	eorscs	r6, r4, sp, lsr #26
  3c:	70666d2d 	rsbvc	r6, r6, sp, lsr #26
  40:	70663d75 	rsbvc	r3, r6, r5, ror sp
  44:	732d3476 			; <UNDEFINED> instruction: 0x732d3476
  48:	31642d70 	smccc	17104	; 0x42d0
  4c:	6d2d2036 	stcvs	0, cr2, [sp, #-216]!	; 0xffffff28
  50:	616f6c66 	cmnvs	pc, r6, ror #24
  54:	62612d74 	rsbvs	r2, r1, #116, 26	; 0x1d00
  58:	61683d69 	cmnvs	r8, r9, ror #26
  5c:	2d206472 	cfstrscs	mvf6, [r0, #-456]!	; 0xfffffe38
  60:	6372616d 	cmnvs	r2, #1073741851	; 0x4000001b
  64:	72613d68 	rsbvc	r3, r1, #104, 26	; 0x1a00
  68:	6537766d 	ldrvs	r7, [r7, #-1645]!	; 0xfffff993
  6c:	662b6d2d 	strtvs	r6, [fp], -sp, lsr #26
  70:	672d2070 			; <UNDEFINED> instruction: 0x672d2070
  74:	304f2d20 	subcc	r2, pc, r0, lsr #26
  78:	74732d20 	ldrbtvc	r2, [r3], #-3360	; 0xfffff2e0
  7c:	2b633d64 	blcs	18cf614 <_etext+0x18cd5ad>
  80:	2031312b 	eorscs	r3, r1, fp, lsr #2
  84:	7566662d 	strbvc	r6, [r6, #-1581]!	; 0xfffff9d3
  88:	6974636e 	ldmdbvs	r4!, {r1, r2, r3, r5, r6, r8, r9, sp, lr}^
  8c:	732d6e6f 			; <UNDEFINED> instruction: 0x732d6e6f
  90:	69746365 	ldmdbvs	r4!, {r0, r2, r5, r6, r8, r9, sp, lr}^
  94:	20736e6f 	rsbscs	r6, r3, pc, ror #28
  98:	6164662d 	cmnvs	r4, sp, lsr #12
  9c:	732d6174 			; <UNDEFINED> instruction: 0x732d6174
  a0:	69746365 	ldmdbvs	r4!, {r0, r2, r5, r6, r8, r9, sp, lr}^
  a4:	20736e6f 	rsbscs	r6, r3, pc, ror #28
  a8:	6f6e662d 	svcvs	0x006e662d
  ac:	6378652d 	cmnvs	r8, #188743680	; 0xb400000
  b0:	69747065 	ldmdbvs	r4!, {r0, r2, r5, r6, ip, sp, lr}^
  b4:	00736e6f 	rsbseq	r6, r3, pc, ror #28
  b8:	69755f5f 	ldmdbvs	r5!, {r0, r1, r2, r3, r4, r6, r8, r9, sl, fp, ip, lr}^
  bc:	5f38746e 	svcpl	0x0038746e
  c0:	50530074 	subspl	r0, r3, r4, ror r0
  c4:	646f4d49 	strbtvs	r4, [pc], #-3401	; cc <g_pfnVectors+0xcc>
  c8:	44630065 	strbtmi	r0, [r3], #-101	; 0xffffff9b
  cc:	00617461 	rsbeq	r7, r1, r1, ror #8
  d0:	74736574 	ldrbtvc	r6, [r3], #-1396	; 0xfffffa8c
  d4:	66667562 	strbtvs	r7, [r6], -r2, ror #10
  d8:	63656400 	cmnvs	r5, #0, 8
  dc:	7079746c 	rsbsvc	r7, r9, ip, ror #8
  e0:	756e2865 	strbvc	r2, [lr, #-2149]!	; 0xfffff79b
  e4:	74706c6c 	ldrbtvc	r6, [r0], #-3180	; 0xfffff394
  e8:	44002972 	strmi	r2, [r0], #-2418	; 0xfffff68e
  ec:	6f575c3a 	svcvs	0x00575c3a
  f0:	70736b72 	rsbsvc	r6, r3, r2, ror fp
  f4:	5c656361 	stclpl	3, cr6, [r5], #-388	; 0xfffffe7c
  f8:	61766974 	cmnvs	r6, r4, ror r9
  fc:	72705c43 	rsbsvc	r5, r0, #17152	; 0x4300
 100:	63656a6f 	cmnvs	r5, #454656	; 0x6f000
 104:	695c7374 	ldmdbvs	ip, {r2, r4, r5, r6, r8, r9, ip, sp, lr}^
 108:	72706332 	rsbsvc	r6, r0, #-939524096	; 0xc8000000
 10c:	6e49006a 	cdpvs	0, 4, cr0, cr9, cr10, {3}
 110:	696c6176 	stmdbvs	ip!, {r1, r2, r4, r5, r6, r8, sp, lr}^
 114:	646f4d64 	strbtvs	r4, [pc], #-3428	; 11c <g_pfnVectors+0x11c>
 118:	32490065 	subcc	r0, r9, #101	; 0x65
 11c:	646f4d43 	strbtvs	r4, [pc], #-3395	; 124 <g_pfnVectors+0x124>
 120:	44640065 	strbtmi	r0, [r4], #-101	; 0xffffff9b
 124:	00617461 	rsbeq	r7, r1, r1, ror #8
 128:	657a6973 	ldrbvs	r6, [sl, #-2419]!	; 0xfffff68d
 12c:	6c756d00 	ldclvs	13, cr6, [r5], #-0
 130:	65747962 	ldrbvs	r7, [r4, #-2402]!	; 0xfffff69e
 134:	68730073 	ldmdavs	r3!, {r0, r1, r4, r5, r6}^
 138:	2074726f 	rsbscs	r7, r4, pc, ror #4
 13c:	69736e75 	ldmdbvs	r3!, {r0, r2, r4, r5, r6, r9, sl, fp, sp, lr}^
 140:	64656e67 	strbtvs	r6, [r5], #-3687	; 0xfffff199
 144:	746e6920 	strbtvc	r6, [lr], #-2336	; 0xfffff6e0
 148:	61747300 	cmnvs	r4, r0, lsl #6
 14c:	64417472 	strbvs	r7, [r1], #-1138	; 0xfffffb8e
 150:	75007264 	strvc	r7, [r0, #-612]	; 0xfffffd9c
 154:	6769736e 	strbvs	r7, [r9, -lr, ror #6]!
 158:	2064656e 	rsbcs	r6, r4, lr, ror #10
 15c:	72616863 	rsbvc	r6, r1, #6488064	; 0x630000
 160:	70656500 	rsbvc	r6, r5, r0, lsl #10
 164:	446d6f72 	strbtmi	r6, [sp], #-3954	; 0xfffff08e
 168:	00706d75 	rsbseq	r6, r0, r5, ror sp
 16c:	69755f5f 	ldmdbvs	r5!, {r0, r1, r2, r3, r4, r6, r8, r9, sl, fp, ip, lr}^
 170:	3233746e 	eorscc	r7, r3, #1845493760	; 0x6e000000
 174:	6500745f 	strvs	r7, [r0, #-1119]	; 0xfffffba1
 178:	6f727065 	svcvs	0x00727065
 17c:	6172546d 	cmnvs	r2, sp, ror #8
 180:	6566736e 	strbvs	r7, [r6, #-878]!	; 0xfffffc92
 184:	646f4d72 	strbtvs	r4, [pc], #-3442	; 18c <g_pfnVectors+0x18c>
 188:	6f6c0065 	svcvs	0x006c0065
 18c:	6c20676e 	stcvs	7, cr6, [r0], #-440	; 0xfffffe48
 190:	20676e6f 	rsbcs	r6, r7, pc, ror #28
 194:	69736e75 	ldmdbvs	r3!, {r0, r2, r4, r5, r6, r9, sl, fp, sp, lr}^
 198:	64656e67 	strbtvs	r6, [r5], #-3687	; 0xfffff199
 19c:	746e6920 	strbtvc	r6, [lr], #-2336	; 0xfffff6e0
 1a0:	69616d00 	stmdbvs	r1!, {r8, sl, fp, sp, lr}^
 1a4:	70632e6e 	rsbvc	r2, r3, lr, ror #28
 1a8:	616d0070 	smcvs	53248	; 0xd000
 1ac:	6c006e69 	stcvs	14, cr6, [r0], {105}	; 0x69
 1b0:	20676e6f 	rsbcs	r6, r7, pc, ror #28
 1b4:	676e6f6c 	strbvs	r6, [lr, -ip, ror #30]!
 1b8:	746e6920 	strbtvc	r6, [lr], #-2336	; 0xfffff6e0
 1bc:	696e4900 	stmdbvs	lr!, {r8, fp, lr}^
 1c0:	6e6f4374 	mcrvs	3, 3, r4, cr15, cr4, {3}
 1c4:	656c6f73 	strbvs	r6, [ip, #-3955]!	; 0xfffff08d
 1c8:	6f687300 	svcvs	0x00687300
 1cc:	69207472 	stmdbvs	r0!, {r1, r4, r5, r6, sl, ip, sp, lr}
 1d0:	4d00746e 	cfstrsmi	mvf7, [r0, #-440]	; 0xfffffe48
 1d4:	5f65646f 	svcpl	0x0065646f
 1d8:	0058414d 	subseq	r4, r8, sp, asr #2
 1dc:	30315a5f 	eorscc	r5, r1, pc, asr sl
 1e0:	72706565 	rsbsvc	r6, r0, #423624704	; 0x19400000
 1e4:	75446d6f 	strbvc	r6, [r4, #-3439]	; 0xfffff291
 1e8:	506d706d 	rsbpl	r7, sp, sp, rrx
 1ec:	6f6c0068 	svcvs	0x006c0068
 1f0:	6420676e 	strtvs	r6, [r0], #-1902	; 0xfffff892
 1f4:	6c62756f 	cfstr64vs	mvdx7, [r2], #-444	; 0xfffffe44
 1f8:	5a5f0065 	bpl	17c0394 <_etext+0x17be32d>
 1fc:	6e493131 	mcrvs	1, 2, r3, cr9, cr1, {1}
 200:	6f437469 	svcvs	0x00437469
 204:	6c6f736e 	stclvs	3, cr7, [pc], #-440	; 54 <g_pfnVectors+0x54>
 208:	67007665 	strvs	r7, [r0, -r5, ror #12]
 20c:	6e66705f 	mcrvs	0, 3, r7, cr6, cr15, {2}
 210:	74636556 	strbtvc	r6, [r3], #-1366	; 0xfffffaaa
 214:	0073726f 	rsbseq	r7, r3, pc, ror #4
 218:	65736552 	ldrbvs	r6, [r3, #-1362]!	; 0xfffffaae
 21c:	52534974 	subspl	r4, r3, #116, 18	; 0x1d0000
 220:	646c5f00 	strbtvs	r5, [ip], #-3840	; 0xfffff100
 224:	00617461 	rsbeq	r7, r1, r1, ror #8
 228:	20554e47 	subscs	r4, r5, r7, asr #28
 22c:	20393943 	eorscs	r3, r9, r3, asr #18
 230:	322e3031 	eorcc	r3, lr, #49	; 0x31
 234:	3220312e 	eorcc	r3, r0, #-2147483637	; 0x8000000b
 238:	31303230 	teqcc	r0, r0, lsr r2
 23c:	20333031 	eorscs	r3, r3, r1, lsr r0
 240:	6c657228 	sfmvs	f7, 2, [r5], #-160	; 0xffffff60
 244:	65736165 	ldrbvs	r6, [r3, #-357]!	; 0xfffffe9b
 248:	6d2d2029 	stcvs	0, cr2, [sp, #-164]!	; 0xffffff5c
 24c:	6d756874 	ldclvs	8, cr6, [r5, #-464]!	; 0xfffffe30
 250:	6d2d2062 	stcvs	0, cr2, [sp, #-392]!	; 0xfffffe78
 254:	3d757063 	ldclcc	0, cr7, [r5, #-396]!	; 0xfffffe74
 258:	74726f63 	ldrbtvc	r6, [r2], #-3939	; 0xfffff09d
 25c:	6d2d7865 	stcvs	8, cr7, [sp, #-404]!	; 0xfffffe6c
 260:	6d2d2034 	stcvs	0, cr2, [sp, #-208]!	; 0xffffff30
 264:	3d757066 	ldclcc	0, cr7, [r5, #-408]!	; 0xfffffe68
 268:	34767066 	ldrbtcc	r7, [r6], #-102	; 0xffffff9a
 26c:	2d70732d 	ldclcs	3, cr7, [r0, #-180]!	; 0xffffff4c
 270:	20363164 	eorscs	r3, r6, r4, ror #2
 274:	6c666d2d 	stclvs	13, cr6, [r6], #-180	; 0xffffff4c
 278:	2d74616f 	ldfcse	f6, [r4, #-444]!	; 0xfffffe44
 27c:	3d696261 	sfmcc	f6, 2, [r9, #-388]!	; 0xfffffe7c
 280:	64726168 	ldrbtvs	r6, [r2], #-360	; 0xfffffe98
 284:	616d2d20 	cmnvs	sp, r0, lsr #26
 288:	3d686372 	stclcc	3, cr6, [r8, #-456]!	; 0xfffffe38
 28c:	766d7261 	strbtvc	r7, [sp], -r1, ror #4
 290:	6d2d6537 	cfstr32vs	mvfx6, [sp, #-220]!	; 0xffffff24
 294:	2070662b 	rsbscs	r6, r0, fp, lsr #12
 298:	2d20672d 	stccs	7, cr6, [r0, #-180]!	; 0xffffff4c
 29c:	2d20304f 	stccs	0, cr3, [r0, #-316]!	; 0xfffffec4
 2a0:	3d647473 	cfstrdcc	mvd7, [r4, #-460]!	; 0xfffffe34
 2a4:	20393963 	eorscs	r3, r9, r3, ror #18
 2a8:	7566662d 	strbvc	r6, [r6, #-1581]!	; 0xfffff9d3
 2ac:	6974636e 	ldmdbvs	r4!, {r1, r2, r3, r5, r6, r8, r9, sp, lr}^
 2b0:	732d6e6f 			; <UNDEFINED> instruction: 0x732d6e6f
 2b4:	69746365 	ldmdbvs	r4!, {r0, r2, r5, r6, r8, r9, sp, lr}^
 2b8:	20736e6f 	rsbscs	r6, r3, pc, ror #28
 2bc:	6164662d 	cmnvs	r4, sp, lsr #12
 2c0:	732d6174 			; <UNDEFINED> instruction: 0x732d6174
 2c4:	69746365 	ldmdbvs	r4!, {r0, r2, r5, r6, r8, r9, sp, lr}^
 2c8:	00736e6f 	rsbseq	r6, r3, pc, ror #28
 2cc:	6164655f 	cmnvs	r4, pc, asr r5
 2d0:	70006174 	andvc	r6, r0, r4, ror r1
 2d4:	32336975 	eorscc	r6, r3, #1916928	; 0x1d4000
 2d8:	63617453 	cmnvs	r1, #1392508928	; 0x53000000
 2dc:	6e49006b 	cdpvs	0, 4, cr0, cr9, cr11, {3}
 2e0:	66654474 			; <UNDEFINED> instruction: 0x66654474
 2e4:	746c7561 	strbtvc	r7, [ip], #-1377	; 0xfffffa9f
 2e8:	646e6148 	strbtvs	r6, [lr], #-328	; 0xfffffeb8
 2ec:	0072656c 	rsbseq	r6, r2, ip, ror #10
 2f0:	6c756146 	ldfvse	f6, [r5], #-280	; 0xfffffee8
 2f4:	52534974 	subspl	r4, r3, #116, 18	; 0x1d0000
 2f8:	61747300 	cmnvs	r4, r0, lsl #6
 2fc:	70757472 	rsbsvc	r7, r5, r2, ror r4
 300:	6363675f 	cmnvs	r3, #24903680	; 0x17c0000
 304:	7000632e 	andvc	r6, r0, lr, lsr #6
 308:	32336975 	eorscc	r6, r3, #1916928	; 0x1d4000
 30c:	00637253 	rsbeq	r7, r3, r3, asr r2
 310:	33697570 	cmncc	r9, #112, 10	; 0x1c000000
 314:	73654432 	cmnvc	r5, #838860800	; 0x32000000
 318:	645f0074 	ldrbvs	r0, [pc], #-116	; 320 <_Z10eepromDumpmPh+0x60>
 31c:	00617461 	rsbeq	r7, r1, r1, ror #8
 320:	53696d4e 	cmnpl	r9, #4992	; 0x1380
 324:	61760052 	cmnvs	r6, r2, asr r0
 328:	50677241 	rsbpl	r7, r7, r1, asr #4
 32c:	33697500 	cmncc	r9, #0, 10
 330:	75614232 	strbvc	r4, [r1, #-562]!	; 0xfffffdce
 334:	63700064 	cmnvs	r0, #100	; 0x64
 338:	69727453 	ldmdbvs	r2!, {r0, r1, r4, r6, sl, ip, sp, lr}^
 33c:	7500676e 	strvc	r6, [r0, #-1902]	; 0xfffff892
 340:	56323369 	ldrtpl	r3, [r2], -r9, ror #6
 344:	65756c61 	ldrbvs	r6, [r5, #-3169]!	; 0xfffff39f
 348:	64497500 	strbvs	r7, [r9], #-1280	; 0xfffffb00
 34c:	41550078 	cmpmi	r5, r8, ror r0
 350:	72775452 	rsbsvc	r5, r7, #1375731712	; 0x52000000
 354:	00657469 	rsbeq	r7, r5, r9, ror #8
 358:	32336975 	eorscc	r6, r3, #1916928	; 0x1d4000
 35c:	6e756f43 	cdpvs	15, 7, cr6, cr5, cr3, {2}
 360:	5f670074 	svcpl	0x00670074
 364:	32336975 	eorscc	r6, r3, #1916928	; 0x1d4000
 368:	54524155 	ldrbpl	r4, [r2], #-341	; 0xfffffeab
 36c:	69726550 	ldmdbvs	r2!, {r4, r6, r8, sl, sp, lr}^
 370:	63006870 	movwvs	r6, #2160	; 0x870
 374:	6c6c6946 			; <UNDEFINED> instruction: 0x6c6c6946
 378:	52415500 	subpl	r5, r1, #0, 10
 37c:	64745354 	ldrbtvs	r5, [r4], #-852	; 0xfffffcac
 380:	6f436f69 	svcvs	0x00436f69
 384:	6769666e 	strbvs	r6, [r9, -lr, ror #12]!
 388:	33697500 	cmncc	r9, #0, 10
 38c:	726f5032 	rsbvc	r5, pc, #50	; 0x32
 390:	6d754e74 	ldclvs	14, cr4, [r5, #-464]!	; 0xfffffe30
 394:	765f5f00 	ldrbvc	r5, [pc], -r0, lsl #30
 398:	696c5f61 	stmdbvs	ip!, {r0, r5, r6, r8, r9, sl, fp, ip, lr}^
 39c:	67007473 	smlsdxvs	r0, r3, r4, r7
 3a0:	3369755f 	cmncc	r9, #398458880	; 0x17c00000
 3a4:	73614232 	cmnvc	r1, #536870915	; 0x20000003
 3a8:	41550065 	cmpmi	r5, r5, rrx
 3ac:	70765452 	rsbsvc	r5, r6, r2, asr r4
 3b0:	746e6972 	strbtvc	r6, [lr], #-2418	; 0xfffff68e
 3b4:	43630066 	cmnmi	r3, #102	; 0x66
 3b8:	00726168 	rsbseq	r6, r2, r8, ror #2
 3bc:	32336975 	eorscc	r6, r3, #1916928	; 0x1d4000
 3c0:	0067654e 	rsbeq	r6, r7, lr, asr #10
 3c4:	54524155 	ldrbpl	r4, [r2], #-341	; 0xfffffeab
 3c8:	6e697270 	mcrvs	2, 3, r7, cr9, cr0, {3}
 3cc:	75006674 	strvc	r6, [r0, #-1652]	; 0xfffff98c
 3d0:	53323369 	teqpl	r2, #-1543503871	; 0xa4000001
 3d4:	6c436372 	mcrrvs	3, 7, r6, r3, cr2
 3d8:	006b636f 	rsbeq	r6, fp, pc, ror #6
 3dc:	6e695f5f 	mcrvs	15, 3, r5, cr9, cr15, {2}
 3e0:	745f3874 	ldrbvc	r3, [pc], #-2164	; 3e8 <main+0x88>
 3e4:	615f5f00 	cmpvs	pc, r0, lsl #30
 3e8:	6f630070 	svcvs	0x00630070
 3ec:	7265766e 	rsbvc	r7, r5, #115343360	; 0x6e00000
 3f0:	69750074 	ldmdbvs	r5!, {r2, r4, r5, r6}^
 3f4:	654c3233 	strbvs	r3, [ip, #-563]	; 0xfffffdcd
 3f8:	2e2e006e 	cdpcs	0, 2, cr0, cr14, cr14, {3}
 3fc:	2f2e2e2f 	svccs	0x002e2e2f
 400:	61766954 	cmnvs	r6, r4, asr r9
 404:	65726157 	ldrbvs	r6, [r2, #-343]!	; 0xfffffea9
 408:	6974752f 	ldmdbvs	r4!, {r0, r1, r2, r3, r5, r8, sl, ip, sp, lr}^
 40c:	752f736c 	strvc	r7, [pc, #-876]!	; a8 <g_pfnVectors+0xa8>
 410:	73747261 	cmnvc	r4, #268435462	; 0x10000006
 414:	6f696474 	svcvs	0x00696474
 418:	6700632e 	strvs	r6, [r0, -lr, lsr #6]
 41c:	4863705f 	stmdami	r3!, {r0, r1, r2, r3, r4, r6, ip, sp, lr}^
 420:	70007865 	andvc	r7, r0, r5, ror #16
 424:	72745363 	rsbsvc	r5, r4, #-1946157055	; 0x8c000001
 428:	614c6200 	mrsvs	r6, (UNDEF: 108)
 42c:	61577473 	cmpvs	r7, r3, ror r4
 430:	00524373 	subseq	r4, r2, r3, ror r3
 434:	6e695f5f 	mcrvs	15, 3, r5, cr9, cr15, {2}
 438:	5f323374 	svcpl	0x00323374
 43c:	69750074 	ldmdbvs	r5!, {r2, r4, r5, r6}^
 440:	64493233 	strbvs	r3, [r9], #-563	; 0xfffffdcd
 444:	5f5f0078 	svcpl	0x005f0078
 448:	63756e67 	cmnvs	r5, #1648	; 0x670
 44c:	5f61765f 	svcpl	0x0061765f
 450:	7473696c 	ldrbtvc	r6, [r3], #-2412	; 0xfffff694
 454:	52415500 	subpl	r5, r1, #0, 10
 458:	74656754 	strbtvc	r6, [r5], #-1876	; 0xfffff8ac
 45c:	5f670063 	svcpl	0x00670063
 460:	32336975 	eorscc	r6, r3, #1916928	; 0x1d4000
 464:	54524155 	ldrbpl	r4, [r2], #-341	; 0xfffffeab
 468:	65736142 	ldrbvs	r6, [r3, #-322]!	; 0xfffffebe
 46c:	33697500 	cmncc	r9, #0, 10
 470:	736f5032 	cmnvc	pc, #50	; 0x32
 474:	42637000 	rsbmi	r7, r3, #0
 478:	55006675 	strpl	r6, [r0, #-1653]	; 0xfffff98b
 47c:	67545241 	ldrbvs	r5, [r4, -r1, asr #4]
 480:	00737465 	rsbseq	r7, r3, r5, ror #8
 484:	69616761 	stmdbvs	r1!, {r0, r5, r6, r8, r9, sl, sp, lr}^
 488:	4537006e 	ldrmi	r0, [r7, #-110]!	; 0xffffff92
 48c:	75646f4d 	strbvc	r6, [r4, #-3917]!	; 0xfffff0b3
 490:	5000656c 	andpl	r6, r0, ip, ror #10
 494:	475f4441 	ldrbmi	r4, [pc, -r1, asr #8]
 498:	504f4950 	subpl	r4, pc, r0, asr r9	; <UNPREDICTABLE>
 49c:	6c436e69 	mcrrvs	14, 6, r6, r3, cr9
 4a0:	00726165 	rsbseq	r6, r2, r5, ror #2
 4a4:	65736162 	ldrbvs	r6, [r3, #-354]!	; 0xfffffe9e
 4a8:	72646441 	rsbvc	r6, r4, #1090519040	; 0x41000000
 4ac:	44415000 	strbmi	r5, [r1], #-0
 4b0:	4950475f 	ldmdbmi	r0, {r0, r1, r2, r3, r4, r6, r8, r9, sl, lr}^
 4b4:	4953534f 	ldmdbmi	r3, {r0, r1, r2, r3, r6, r8, r9, ip, lr}^
 4b8:	436e6950 	cmnmi	lr, #80, 18	; 0x140000
 4bc:	69666e6f 	stmdbvs	r6!, {r0, r1, r2, r3, r5, r6, r9, sl, fp, sp, lr}^
 4c0:	6f620067 	svcvs	0x00620067
 4c4:	50006c6f 	andpl	r6, r0, pc, ror #24
 4c8:	475f4441 	ldrbmi	r4, [pc, -r1, asr #8]
 4cc:	494f4950 	stmdbmi	pc, {r4, r6, r8, fp, lr}^	; <UNPREDICTABLE>
 4d0:	69504332 	ldmdbvs	r0, {r1, r4, r5, r8, r9, lr}^
 4d4:	6e6f436e 	cdpvs	3, 6, cr4, cr15, cr14, {3}
 4d8:	00676966 	rsbeq	r6, r7, r6, ror #18
 4dc:	5f444150 	svcpl	0x00444150
 4e0:	4f495047 	svcmi	0x00495047
 4e4:	43495353 	movtmi	r5, #37715	; 0x9353
 4e8:	6e695053 	mcrvs	0, 3, r5, cr9, cr3, {2}
 4ec:	666e6f43 	strbtvs	r6, [lr], -r3, asr #30
 4f0:	5f006769 	svcpl	0x00006769
 4f4:	00736f70 	rsbseq	r6, r3, r0, ror pc
 4f8:	73616d5f 	cmnvc	r1, #6080	; 0x17c0
 4fc:	6970006b 	ldmdbvs	r0!, {r0, r1, r3, r5, r6}^
 500:	6d754e6e 	ldclvs	14, cr4, [r5, #-440]!	; 0xfffffe48
 504:	6f4d6500 	svcvs	0x004d6500
 508:	656c7564 	strbvs	r7, [ip, #-1380]!	; 0xfffffa9c
 50c:	6500315f 	strvs	r3, [r0, #-351]	; 0xfffffea1
 510:	75646f4d 	strbvc	r6, [r4, #-3917]!	; 0xfffff0b3
 514:	345f656c 	ldrbcc	r6, [pc], #-1388	; 51c <UARTStdioConfig+0x78>
 518:	6f4d6500 	svcvs	0x004d6500
 51c:	656c7564 	strbvs	r7, [ip, #-1380]!	; 0xfffffa9c
 520:	6500305f 	strvs	r3, [r0, #-95]	; 0xffffffa1
 524:	75646f4d 	strbvc	r6, [r4, #-3917]!	; 0xfffff0b3
 528:	325f656c 	subscc	r6, pc, #108, 10	; 0x1b000000
 52c:	6f4d6500 	svcvs	0x004d6500
 530:	656c7564 	strbvs	r7, [ip, #-1380]!	; 0xfffffa9c
 534:	6500335f 	strvs	r3, [r0, #-863]	; 0xfffffca1
 538:	75646f4d 	strbvc	r6, [r4, #-3917]!	; 0xfffff0b3
 53c:	355f656c 	ldrbcc	r6, [pc, #-1388]	; ffffffd8 <_ebss+0xdfffdd88>
 540:	6f4d6500 	svcvs	0x004d6500
 544:	656c7564 	strbvs	r7, [ip, #-1380]!	; 0xfffffa9c
 548:	6500365f 	strvs	r3, [r0, #-1631]	; 0xfffff9a1
 54c:	75646f4d 	strbvc	r6, [r4, #-3917]!	; 0xfffff0b3
 550:	375f656c 	ldrbcc	r6, [pc, -ip, ror #10]
 554:	2f2e2e00 	svccs	0x002e2e00
 558:	732f2e2e 			; <UNDEFINED> instruction: 0x732f2e2e
 55c:	642f6372 	strtvs	r6, [pc], #-882	; 564 <UARTwrite+0x30>
 560:	65766972 	ldrbvs	r6, [r6, #-2418]!	; 0xfffff68e
 564:	70672f72 	rsbvc	r2, r7, r2, ror pc
 568:	632e6f69 			; <UNDEFINED> instruction: 0x632e6f69
 56c:	47007070 	smlsdxmi	r0, r0, r0, r7
 570:	535f5445 	cmppl	pc, #1157627904	; 0x45000000
 574:	54464948 	strbpl	r4, [r6], #-2376	; 0xfffff6b8
 578:	53544942 	cmppl	r4, #1081344	; 0x108000
 57c:	53414d5f 	movtpl	r4, #7519	; 0x1d5f
 580:	4150004b 	cmpmi	r0, fp, asr #32
 584:	50475f44 	subpl	r5, r7, r4, asr #30
 588:	69504f49 	ldmdbvs	r0, {r0, r3, r6, r8, r9, sl, fp, lr}^
 58c:	7465536e 	strbtvc	r5, [r5], #-878	; 0xfffffc92
 590:	67657200 	strbvs	r7, [r5, -r0, lsl #4]!
 594:	706d6554 	rsbvc	r6, sp, r4, asr r5
 598:	55736900 	ldrbpl	r6, [r3, #-2304]!	; 0xfffff700
 59c:	47006573 	smlsdxmi	r0, r3, r5, r6
 5a0:	4d5f5445 	cfldrdmi	mvd5, [pc, #-276]	; 494 <NmiSR+0x4>
 5a4:	5f4b5341 	svcpl	0x004b5341
 5a8:	00534f50 	subseq	r4, r3, r0, asr pc
 5ac:	74697865 	strbtvc	r7, [r9], #-2149	; 0xfffff79b
 5b0:	756f6300 	strbvc	r6, [pc, #-768]!	; 2b8 <_Z11InitConsolev+0x4c>
 5b4:	2e00746e 	cdpcs	4, 0, cr7, cr0, cr14, {3}
 5b8:	2e2e2f2e 	cdpcs	15, 2, cr2, cr14, cr14, {1}
 5bc:	6372732f 	cmnvs	r2, #-1140850688	; 0xbc000000
 5c0:	6972642f 	ldmdbvs	r2!, {r0, r1, r2, r3, r5, sl, sp, lr}^
 5c4:	2f726576 	svccs	0x00726576
 5c8:	2e633269 	cdpcs	2, 6, cr3, cr3, cr9, {3}
 5cc:	00707063 	rsbseq	r7, r0, r3, rrx
 5d0:	43324967 	teqmi	r2, #1687552	; 0x19c000
 5d4:	616c6544 	cmnvs	ip, r4, asr #10
 5d8:	65640079 	strbvs	r0, [r4, #-121]!	; 0xffffff87
 5dc:	0079616c 	rsbseq	r6, r9, ip, ror #2
 5e0:	5f433249 	svcpl	0x00433249
 5e4:	64616552 	strbtvs	r6, [r1], #-1362	; 0xfffffaae
 5e8:	65747942 	ldrbvs	r7, [r4, #-2370]!	; 0xfffff6be
 5ec:	6c730073 	ldclvs	0, cr0, [r3], #-460	; 0xfffffe34
 5f0:	41657661 	cmnmi	r5, r1, ror #12
 5f4:	65726464 	ldrbvs	r6, [r2, #-1124]!	; 0xfffffb9c
 5f8:	49007373 	stmdbmi	r0, {r0, r1, r4, r5, r6, r8, r9, ip, sp, lr}
 5fc:	495f4332 	ldmdbmi	pc, {r1, r4, r5, r8, r9, lr}^	; <UNPREDICTABLE>
 600:	0074696e 	rsbseq	r6, r4, lr, ror #18
 604:	65646e69 	strbvs	r6, [r4, #-3689]!	; 0xfffff197
 608:	32690078 	rsbcc	r0, r9, #120	; 0x78
 60c:	6c635f63 	stclvs	15, cr5, [r3], #-396	; 0xfffffe74
 610:	3249006b 	subcc	r0, r9, #107	; 0x6b
 614:	72575f43 	subsvc	r5, r7, #268	; 0x10c
 618:	42657469 	rsbmi	r7, r5, #1761607680	; 0x69000000
 61c:	73657479 	cmnvc	r5, #2030043136	; 0x79000000
 620:	44415000 	strbmi	r5, [r1], #-0
 624:	7379535f 	cmnvc	r9, #2080374785	; 0x7c000001
 628:	69726550 	ldmdbvs	r2!, {r4, r6, r8, sl, sp, lr}^
 62c:	72656870 	rsbvc	r6, r5, #112, 16	; 0x700000
 630:	6c436c61 	mcrrvs	12, 6, r6, r3, cr1
 634:	456b636f 	strbmi	r6, [fp, #-879]!	; 0xfffffc91
 638:	6c62616e 	stfvse	f6, [r2], #-440	; 0xfffffe48
 63c:	4d650065 	stclmi	0, cr0, [r5, #-404]!	; 0xfffffe6c
 640:	6c75646f 	cfldrdvs	mvd6, [r5], #-444	; 0xfffffe44
 644:	2e2e0065 	cdpcs	0, 2, cr0, cr14, cr5, {3}
 648:	2f2e2e2f 	svccs	0x002e2e2f
 64c:	2f637273 	svccs	0x00637273
 650:	76697264 	strbtvc	r7, [r9], -r4, ror #4
 654:	732f7265 			; <UNDEFINED> instruction: 0x732f7265
 658:	632e7379 			; <UNDEFINED> instruction: 0x632e7379
 65c:	72007070 	andvc	r7, r0, #112	; 0x70
 660:	61426765 	cmpvs	r2, r5, ror #14
 664:	75006573 	strvc	r6, [r0, #-1395]	; 0xfffffa8d
 668:	65443233 	strbvs	r3, [r4, #-563]	; 0xfffffdcd
 66c:	0079616c 	rsbseq	r6, r9, ip, ror #2
 670:	5f444150 	svcpl	0x00444150
 674:	43737953 	cmnmi	r3, #1359872	; 0x14c000
 678:	6b636f6c 	blvs	18dc430 <_etext+0x18da3c9>
 67c:	00746553 	rsbseq	r6, r4, r3, asr r5
 680:	5f495053 	svcpl	0x00495053
 684:	65646f4d 	strbvs	r6, [r4, #-3917]!	; 0xfffff0b3
 688:	0049545f 	subeq	r5, r9, pc, asr r4
 68c:	61487772 	hvcvs	34674	; 0x8772
 690:	656c646e 	strbvs	r6, [ip, #-1134]!	; 0xfffffb92
 694:	5a5f0072 	bpl	17c0864 <_etext+0x17be7fd>
 698:	5332314e 	teqpl	r2, #-2147483629	; 0x80000013
 69c:	6e494950 			; <UNDEFINED> instruction: 0x6e494950
 6a0:	66726574 			; <UNDEFINED> instruction: 0x66726574
 6a4:	31656361 	cmncc	r5, r1, ror #6
 6a8:	746e6936 	strbtvc	r6, [lr], #-2358	; 0xfffff6ca
 6ac:	75727265 	ldrbvc	r7, [r2, #-613]!	; 0xfffffd9b
 6b0:	61487470 	hvcvs	34624	; 0x8740
 6b4:	656c646e 	strbvs	r6, [ip, #-1134]!	; 0xfffffb92
 6b8:	00764572 	rsbseq	r4, r6, r2, ror r5
 6bc:	73557369 	cmpvc	r5, #-1543503871	; 0xa4000001
 6c0:	656c6261 	strbvs	r6, [ip, #-609]!	; 0xfffffd9f
 6c4:	49535300 	ldmdbmi	r3, {r8, r9, ip, lr}^
 6c8:	4d54525f 	lfmmi	f5, 2, [r4, #-380]	; 0xfffffe84
 6cc:	72005349 	andvc	r5, r0, #603979777	; 0x24000001
 6d0:	65646e49 	strbvs	r6, [r4, #-3657]!	; 0xfffff1b7
 6d4:	45440078 	strbmi	r0, [r4, #-120]	; 0xffffff88
 6d8:	5f475542 	svcpl	0x00475542
 6dc:	0030564c 	eorseq	r5, r0, ip, asr #12
 6e0:	55424544 	strbpl	r4, [r2, #-1348]	; 0xfffffabc
 6e4:	564c5f47 	strbpl	r5, [ip], -r7, asr #30
 6e8:	45440031 	strbmi	r0, [r4, #-49]	; 0xffffffcf
 6ec:	5f475542 	svcpl	0x00475542
 6f0:	0032564c 	eorseq	r5, r2, ip, asr #12
 6f4:	32495053 	subcc	r5, r9, #83	; 0x53
 6f8:	5645445f 			; <UNDEFINED> instruction: 0x5645445f
 6fc:	76656400 	strbtvc	r6, [r5], -r0, lsl #8
 700:	00656369 	rsbeq	r6, r5, r9, ror #6
 704:	314e5a5f 	cmpcc	lr, pc, asr sl
 708:	49505332 	ldmdbmi	r0, {r1, r4, r5, r8, r9, ip, lr}^
 70c:	65746e49 	ldrbvs	r6, [r4, #-3657]!	; 0xfffff1b7
 710:	63616672 	cmnvs	r1, #119537664	; 0x7200000
 714:	45324365 	ldrmi	r4, [r2, #-869]!	; 0xfffffc9b
 718:	50536538 	subspl	r6, r3, r8, lsr r5
 71c:	45445f49 	strbmi	r5, [r4, #-3913]	; 0xfffff0b7
 720:	53653956 	cmnpl	r5, #1409024	; 0x158000
 724:	4d5f4950 	vldrmi.16	s9, [pc, #-160]	; 68c <UARTvprintf+0xc8>	; <UNPREDICTABLE>
 728:	6d65646f 	cfstrdvs	mvd6, [r5, #-444]!	; 0xfffffe44
 72c:	5a5f0068 	bpl	17c08d4 <_etext+0x17be86d>
 730:	5332314e 	teqpl	r2, #-2147483629	; 0x80000013
 734:	6e494950 			; <UNDEFINED> instruction: 0x6e494950
 738:	66726574 			; <UNDEFINED> instruction: 0x66726574
 73c:	31656361 	cmncc	r5, r1, ror #6
 740:	746e6934 	strbtvc	r6, [lr], #-2356	; 0xfffff6cc
 744:	75727265 	ldrbvc	r7, [r2, #-613]!	; 0xfffffd9b
 748:	6c437470 	cfstrdvs	mvd7, [r3], {112}	; 0x70
 74c:	45726165 	ldrbmi	r6, [r2, #-357]!	; 0xfffffe9b
 750:	5a5f0069 	bpl	17c08fc <_etext+0x17be895>
 754:	5332314e 	teqpl	r2, #-2147483629	; 0x80000013
 758:	6e494950 			; <UNDEFINED> instruction: 0x6e494950
 75c:	66726574 			; <UNDEFINED> instruction: 0x66726574
 760:	31656361 	cmncc	r5, r1, ror #6
 764:	646f6d36 	strbtvs	r6, [pc], #-3382	; 76c <UARTvprintf+0x1a8>
 768:	49656c75 	stmdbmi	r5!, {r0, r2, r4, r5, r6, sl, fp, sp, lr}^
 76c:	6974696e 	ldmdbvs	r4!, {r1, r2, r3, r5, r6, r8, fp, sp, lr}^
 770:	7a696c61 	bvc	1a5b8fc <_etext+0x1a59895>
 774:	65384565 	ldrvs	r4, [r8, #-1381]!	; 0xfffffa9b
 778:	5f495053 	svcpl	0x00495053
 77c:	00564544 	subseq	r4, r6, r4, asr #10
 780:	314e5a5f 	cmpcc	lr, pc, asr sl
 784:	49505332 	ldmdbmi	r0, {r1, r4, r5, r8, r9, ip, lr}^
 788:	65746e49 	ldrbvs	r6, [r4, #-3657]!	; 0xfffff1b7
 78c:	63616672 	cmnvs	r1, #119537664	; 0x7200000
 790:	73693965 	cmnvc	r9, #1654784	; 0x194000
 794:	64616552 	strbtvs	r6, [r1], #-1362	; 0xfffffaae
 798:	45676e69 	strbmi	r6, [r7, #-3689]!	; 0xfffff197
 79c:	5a5f0076 	bpl	17c097c <_etext+0x17be915>
 7a0:	5332314e 	teqpl	r2, #-2147483629	; 0x80000013
 7a4:	6e494950 			; <UNDEFINED> instruction: 0x6e494950
 7a8:	66726574 			; <UNDEFINED> instruction: 0x66726574
 7ac:	38656361 	stmdacc	r5!, {r0, r5, r6, r8, r9, sp, lr}^
 7b0:	43746573 	cmnmi	r4, #482344960	; 0x1cc00000
 7b4:	6e695053 	mcrvs	0, 3, r5, cr9, cr3, {2}
 7b8:	69007645 	stmdbvs	r0, {r0, r2, r6, r9, sl, ip, sp, lr}
 7bc:	7265746e 	rsbvc	r7, r5, #1845493760	; 0x6e000000
 7c0:	74707572 	ldrbtvc	r7, [r0], #-1394	; 0xfffffa8e
 7c4:	646e6148 	strbtvs	r6, [lr], #-328	; 0xfffffeb8
 7c8:	0072656c 	rsbseq	r6, r2, ip, ror #10
 7cc:	53653831 	cmnpl	r5, #3211264	; 0x310000
 7d0:	485f4953 	ldmdami	pc, {r0, r1, r4, r6, r8, fp, lr}^	; <UNPREDICTABLE>
 7d4:	4c444e41 	mcrrmi	14, 4, r4, r4, cr1
 7d8:	54535f45 	ldrbpl	r5, [r3], #-3909	; 0xfffff0bb
 7dc:	53555441 	cmppl	r5, #1090519040	; 0x41000000
 7e0:	746e6900 	strbtvc	r6, [lr], #-2304	; 0xfffff700
 7e4:	75727265 	ldrbvc	r7, [r2, #-613]!	; 0xfffffd9b
 7e8:	614d7470 	hvcvs	55104	; 0xd740
 7ec:	65536b73 	ldrbvs	r6, [r3, #-2931]	; 0xfffff48d
 7f0:	65390074 	ldrvs	r0, [r9, #-116]!	; 0xffffff8c
 7f4:	5f495053 	svcpl	0x00495053
 7f8:	65646f4d 	strbvs	r6, [r4, #-3917]!	; 0xfffff0b3
 7fc:	74656700 	strbtvc	r6, [r5], #-1792	; 0xfffff900
 800:	53485053 	movtpl	r5, #32851	; 0x8053
 804:	61564f50 	cmpvs	r6, r0, asr pc
 808:	0065756c 	rsbeq	r7, r5, ip, ror #10
 80c:	73696874 	cmnvc	r9, #116, 16	; 0x740000
 810:	57736900 	ldrbpl	r6, [r3, -r0, lsl #18]!
 814:	69746972 	ldmdbvs	r4!, {r1, r4, r5, r6, r8, fp, sp, lr}^
 818:	5f00676e 	svcpl	0x0000676e
 81c:	32314e5a 	eorscc	r4, r1, #1440	; 0x5a0
 820:	49495053 	stmdbmi	r9, {r0, r1, r4, r6, ip, lr}^
 824:	7265746e 	rsbvc	r7, r5, #1845493760	; 0x6e000000
 828:	65636166 	strbvs	r6, [r3, #-358]!	; 0xfffffe9a
 82c:	61657234 	cmnvs	r5, r4, lsr r2
 830:	506d4564 	rsbpl	r4, sp, r4, ror #10
 834:	65640076 	strbvs	r0, [r4, #-118]!	; 0xffffff8a
 838:	65636976 	strbvs	r6, [r3, #-2422]!	; 0xfffff68a
 83c:	656d614e 	strbvs	r6, [sp, #-334]!	; 0xfffffeb2
 840:	67756200 	ldrbvs	r6, [r5, -r0, lsl #4]!
 844:	66667542 	strbtvs	r7, [r6], -r2, asr #10
 848:	73007265 	movwvc	r7, #613	; 0x265
 84c:	73557465 	cmpvc	r5, #1694498816	; 0x65000000
 850:	646f4d65 	strbtvs	r4, [pc], #-3429	; 858 <UARTvprintf+0x294>
 854:	46656c75 			; <UNDEFINED> instruction: 0x46656c75
 858:	69507373 	ldmdbvs	r0, {r0, r1, r4, r5, r6, r8, r9, ip, sp, lr}^
 85c:	5353006e 	cmppl	r3, #110	; 0x6e
 860:	41485f49 	cmpmi	r8, r9, asr #30
 864:	454c444e 	strbmi	r4, [ip, #-1102]	; 0xfffffbb2
 868:	004b4f5f 	subeq	r4, fp, pc, asr pc
 86c:	64697073 	strbtvs	r7, [r9], #-115	; 0xffffff8d
 870:	73007665 	movwvc	r7, #1637	; 0x665
 874:	65447465 	strbvs	r7, [r4, #-1125]	; 0xfffffb9b
 878:	4c677562 	cfstr64mi	mvdx7, [r7], #-392	; 0xfffffe78
 87c:	6c657665 	stclvs	6, cr7, [r5], #-404	; 0xfffffe6c
 880:	4e5a5f00 	cdpmi	15, 5, cr5, cr10, cr0, {0}
 884:	50533231 	subspl	r3, r3, r1, lsr r2
 888:	746e4949 	strbtvc	r4, [lr], #-2377	; 0xfffff6b7
 88c:	61667265 	cmnvs	r6, r5, ror #4
 890:	72396563 	eorsvc	r6, r9, #415236096	; 0x18c00000
 894:	6e614877 	mcrvs	8, 3, r4, cr1, cr7, {3}
 898:	72656c64 	rsbvc	r6, r5, #100, 24	; 0x6400
 89c:	67007645 	strvs	r7, [r0, -r5, asr #12]
 8a0:	72467465 	subvc	r7, r6, #1694498816	; 0x65000000
 8a4:	4d656d61 	stclmi	13, cr6, [r5, #-388]!	; 0xfffffe7c
 8a8:	5665646f 	strbtpl	r6, [r5], -pc, ror #8
 8ac:	65756c61 	ldrbvs	r6, [r5, #-3169]!	; 0xfffff39f
 8b0:	52736900 	rsbspl	r6, r3, #0, 18
 8b4:	69646165 	stmdbvs	r4!, {r0, r2, r5, r6, r8, sp, lr}^
 8b8:	5f00676e 	svcpl	0x0000676e
 8bc:	32314e5a 	eorscc	r4, r1, #1440	; 0x5a0
 8c0:	49495053 	stmdbmi	r9, {r0, r1, r4, r6, ip, lr}^
 8c4:	7265746e 	rsbvc	r7, r5, #1845493760	; 0x6e000000
 8c8:	65636166 	strbvs	r6, [r3, #-358]!	; 0xfffffe9a
 8cc:	73693331 	cmnvc	r9, #-1006632960	; 0xc4000000
 8d0:	74696e49 	strbtvc	r6, [r9], #-3657	; 0xfffff1b7
 8d4:	696c6169 	stmdbvs	ip!, {r0, r3, r5, r6, r8, sp, lr}^
 8d8:	4564657a 	strbmi	r6, [r4, #-1402]!	; 0xfffffa86
 8dc:	75427200 	strbvc	r7, [r2, #-512]	; 0xfffffe00
 8e0:	72656666 	rsbvc	r6, r5, #106954752	; 0x6600000
 8e4:	656c6300 	strbvs	r6, [ip, #-768]!	; 0xfffffd00
 8e8:	53437261 	movtpl	r7, #12897	; 0x3261
 8ec:	006e6950 	rsbeq	r6, lr, r0, asr r9
 8f0:	55424544 	strbpl	r4, [r2, #-1348]	; 0xfffffabc
 8f4:	4f4c5f47 	svcmi	0x004c5f47
 8f8:	5a5f0047 	bpl	17c0a1c <_etext+0x17be9b5>
 8fc:	50533331 	subspl	r3, r3, r1, lsr r3
 900:	65535f49 	ldrbvs	r5, [r3, #-3913]	; 0xfffff0b7
 904:	76654474 			; <UNDEFINED> instruction: 0x76654474
 908:	50656369 	rsbpl	r6, r5, r9, ror #6
 90c:	50533231 	subspl	r3, r3, r1, lsr r2
 910:	746e4949 	strbtvc	r4, [lr], #-2377	; 0xfffff6b7
 914:	61667265 	cmnvs	r6, r5, ror #4
 918:	5f006563 	svcpl	0x00006563
 91c:	32314e5a 	eorscc	r4, r1, #1440	; 0x5a0
 920:	49495053 	stmdbmi	r9, {r0, r1, r4, r6, ip, lr}^
 924:	7265746e 	rsbvc	r7, r5, #1845493760	; 0x6e000000
 928:	65636166 	strbvs	r6, [r3, #-358]!	; 0xfffffe9a
 92c:	6c633031 	stclvs	0, cr3, [r3], #-196	; 0xffffff3c
 930:	43726165 	cmnmi	r2, #1073741849	; 0x40000019
 934:	6e695053 	mcrvs	0, 3, r5, cr9, cr3, {2}
 938:	53007645 	movwpl	r7, #1605	; 0x645
 93c:	525f4953 	subspl	r4, pc, #1359872	; 0x14c000
 940:	494d524f 	stmdbmi	sp, {r0, r1, r2, r3, r6, r9, ip, lr}^
 944:	50530053 	subspl	r0, r3, r3, asr r0
 948:	445f3349 	ldrbmi	r3, [pc], #-841	; 950 <UARTvprintf+0x38c>
 94c:	64005645 	strvs	r5, [r0], #-1605	; 0xfffff9bb
 950:	61427665 	cmpvs	r2, r5, ror #12
 954:	64416573 	strbvs	r6, [r1], #-1395	; 0xfffffa8d
 958:	53007264 	movwpl	r7, #612	; 0x264
 95c:	525f4953 	subspl	r4, pc, #1359872	; 0x14c000
 960:	5f444145 	svcpl	0x00444145
 964:	00525245 	subseq	r5, r2, r5, asr #4
 968:	53536538 	cmppl	r3, #56, 10	; 0xe000000
 96c:	4e495f49 	cdpmi	15, 4, cr5, cr9, cr9, {2}
 970:	61660054 	qdsubvs	r0, r4, r6
 974:	6e49656b 	cdpvs	5, 4, cr6, cr9, cr11, {3}
 978:	00786564 	rsbseq	r6, r8, r4, ror #10
 97c:	31495053 	qdaddcc	r5, r3, r9
 980:	5645445f 			; <UNDEFINED> instruction: 0x5645445f
 984:	6d657400 	cfstrdvs	mvd7, [r5, #-0]
 988:	6c615670 	stclvs	6, cr5, [r1], #-448	; 0xfffffe40
 98c:	69537200 	ldmdbvs	r3, {r9, ip, sp, lr}^
 990:	5300657a 	movwpl	r6, #1402	; 0x57a
 994:	4d5f4950 	vldrmi.16	s9, [pc, #-160]	; 8fc <UARTvprintf+0x338>	; <UNPREDICTABLE>
 998:	5f65646f 	svcpl	0x0065646f
 99c:	7263694d 	rsbvc	r6, r3, #1261568	; 0x134000
 9a0:	7269776f 	rsbvc	r7, r9, #29097984	; 0x1bc0000
 9a4:	50530065 	subspl	r0, r3, r5, rrx
 9a8:	414d5f49 	cmpmi	sp, r9, asr #30
 9ac:	61680058 	qdsubvs	r0, r8, r8
 9b0:	656c646e 	strbvs	r6, [ip, #-1134]!	; 0xfffffb92
 9b4:	61745372 	cmnvs	r4, r2, ror r3
 9b8:	00737574 	rsbseq	r7, r3, r4, ror r5
 9bc:	314e5a5f 	cmpcc	lr, pc, asr sl
 9c0:	49505332 	ldmdbmi	r0, {r1, r4, r5, r8, r9, ip, lr}^
 9c4:	65746e49 	ldrbvs	r6, [r4, #-3657]!	; 0xfffff1b7
 9c8:	63616672 	cmnvs	r1, #119537664	; 0x7200000
 9cc:	45344365 	ldrmi	r4, [r4, #-869]!	; 0xfffffc9b
 9d0:	50536538 	subspl	r6, r3, r8, lsr r5
 9d4:	45445f49 	strbmi	r5, [r4, #-3913]	; 0xfffff0b7
 9d8:	53653956 	cmnpl	r5, #1409024	; 0x158000
 9dc:	4d5f4950 	vldrmi.16	s9, [pc, #-160]	; 944 <UARTvprintf+0x380>	; <UNPREDICTABLE>
 9e0:	6d65646f 	cfstrdvs	mvd6, [r5, #-444]!	; 0xfffffe44
 9e4:	5a5f0068 	bpl	17c0b8c <_etext+0x17beb25>
 9e8:	4434314e 	ldrtmi	r3, [r4], #-334	; 0xfffffeb2
 9ec:	67756265 	ldrbvs	r6, [r5, -r5, ror #4]!
 9f0:	65746e49 	ldrbvs	r6, [r4, #-3657]!	; 0xfffff1b7
 9f4:	63616672 	cmnvs	r1, #119537664	; 0x7200000
 9f8:	6f6c3365 	svcvs	0x006c3365
 9fc:	30314567 	eorscc	r4, r1, r7, ror #10
 a00:	75626544 	strbvc	r6, [r2, #-1348]!	; 0xfffffabc
 a04:	76654c67 	strbtvc	r4, [r5], -r7, ror #24
 a08:	4b506c65 	blmi	141bba4 <_etext+0x1419b3d>
 a0c:	5f007a63 	svcpl	0x00007a63
 a10:	34314e5a 	ldrtcc	r4, [r1], #-3674	; 0xfffff1a6
 a14:	75626544 	strbvc	r6, [r2, #-1348]!	; 0xfffffabc
 a18:	746e4967 	strbtvc	r4, [lr], #-2407	; 0xfffff699
 a1c:	61667265 	cmnvs	r6, r5, ror #4
 a20:	33316563 	teqcc	r1, #415236096	; 0x18c00000
 a24:	44746573 	ldrbtmi	r6, [r4], #-1395	; 0xfffffa8d
 a28:	67756265 	ldrbvs	r6, [r5, -r5, ror #4]!
 a2c:	6576654c 	ldrbvs	r6, [r6, #-1356]!	; 0xfffffab4
 a30:	3031456c 	eorscc	r4, r1, ip, ror #10
 a34:	75626544 	strbvc	r6, [r2, #-1348]!	; 0xfffffabc
 a38:	76654c67 	strbtvc	r4, [r5], -r7, ror #24
 a3c:	44006c65 	strmi	r6, [r0], #-3173	; 0xfffff39b
 a40:	47554245 	ldrbmi	r4, [r5, -r5, asr #4]
 a44:	58414d5f 	stmdapl	r1, {r0, r1, r2, r3, r4, r6, r8, sl, fp, lr}^
 a48:	54504f5f 	ldrbpl	r4, [r0], #-3935	; 0xfffff0a1
 a4c:	49535300 	ldmdbmi	r3, {r8, r9, ip, lr}^
 a50:	4d58525f 	lfmmi	f5, 2, [r8, #-380]	; 0xfffffe84
 a54:	53005349 	movwpl	r5, #841	; 0x349
 a58:	535f4953 	cmppl	pc, #1359872	; 0x14c000
 a5c:	55544154 	ldrbpl	r4, [r4, #-340]	; 0xfffffeac
 a60:	414d5f53 	cmpmi	sp, r3, asr pc
 a64:	5a5f0058 	bpl	17c0bcc <_etext+0x17beb65>
 a68:	4434314e 	ldrtmi	r3, [r4], #-334	; 0xfffffeb2
 a6c:	67756265 	ldrbvs	r6, [r5, -r5, ror #4]!
 a70:	65746e49 	ldrbvs	r6, [r4, #-3657]!	; 0xfffff1b7
 a74:	63616672 	cmnvs	r1, #119537664	; 0x7200000
 a78:	45344365 	ldrmi	r4, [r4, #-869]!	; 0xfffffc9b
 a7c:	49770076 	ldmdbmi	r7!, {r1, r2, r4, r5, r6}^
 a80:	7865646e 	stmdavc	r5!, {r1, r2, r3, r5, r6, sl, sp, lr}^
 a84:	42454400 	submi	r4, r5, #0, 8
 a88:	575f4755 			; <UNDEFINED> instruction: 0x575f4755
 a8c:	2e004e52 	mcrcs	14, 0, r4, cr0, cr2, {2}
 a90:	2e2e2f2e 	cdpcs	15, 2, cr2, cr14, cr14, {1}
 a94:	6372732f 	cmnvs	r2, #-1140850688	; 0xbc000000
 a98:	6972642f 	ldmdbvs	r2!, {r0, r1, r2, r3, r5, sl, sp, lr}^
 a9c:	2f726576 	svccs	0x00726576
 aa0:	2e697073 	mcrcs	0, 3, r7, cr9, cr3, {3}
 aa4:	00707063 	rsbseq	r7, r0, r3, rrx
 aa8:	7a695377 	bvc	1a5588c <_etext+0x1a53825>
 aac:	50530065 	subspl	r0, r3, r5, rrx
 ab0:	72575f49 	subsvc	r5, r7, #292	; 0x124
 ab4:	42657469 	rsbmi	r7, r5, #1761607680	; 0x69000000
 ab8:	73657479 	cmnvc	r5, #2030043136	; 0x79000000
 abc:	49505300 	ldmdbmi	r0, {r8, r9, ip, lr}^
 ac0:	6165525f 	cmnvs	r5, pc, asr r2
 ac4:	74794264 	ldrbtvc	r4, [r9], #-612	; 0xfffffd9c
 ac8:	53007365 	movwpl	r7, #869	; 0x365
 acc:	4d5f4950 	vldrmi.16	s9, [pc, #-160]	; a34 <GPIOPadConfigSet+0x1c>	; <UNPREDICTABLE>
 ad0:	5f65646f 	svcpl	0x0065646f
 ad4:	50530030 	subspl	r0, r3, r0, lsr r0
 ad8:	6f4d5f49 	svcvs	0x004d5f49
 adc:	315f6564 	cmpcc	pc, r4, ror #10
 ae0:	49505300 	ldmdbmi	r0, {r8, r9, ip, lr}^
 ae4:	646f4d5f 	strbtvs	r4, [pc], #-3423	; aec <GPIOPadConfigSet+0xd4>
 ae8:	00325f65 	eorseq	r5, r2, r5, ror #30
 aec:	5f495053 	svcpl	0x00495053
 af0:	65646f4d 	strbvs	r6, [r4, #-3917]!	; 0xfffff0b3
 af4:	7300335f 	movwvc	r3, #863	; 0x35f
 af8:	6c437465 	cfstrdvs	mvd7, [r3], {101}	; 0x65
 afc:	006b636f 	rsbeq	r6, fp, pc, ror #6
 b00:	314e5a5f 	cmpcc	lr, pc, asr sl
 b04:	49505332 	ldmdbmi	r0, {r1, r4, r5, r8, r9, ip, lr}^
 b08:	65746e49 	ldrbvs	r6, [r4, #-3657]!	; 0xfffff1b7
 b0c:	63616672 	cmnvs	r1, #119537664	; 0x7200000
 b10:	73693965 	cmnvc	r9, #1654784	; 0x194000
 b14:	74697257 	strbtvc	r7, [r9], #-599	; 0xfffffda9
 b18:	45676e69 	strbmi	r6, [r7, #-3689]!	; 0xfffff197
 b1c:	72660076 	rsbvc	r0, r6, #118	; 0x76
 b20:	53656d61 	cmnpl	r5, #6208	; 0x1840
 b24:	6f707075 	svcvs	0x00707075
 b28:	5f007472 	svcpl	0x00007472
 b2c:	32314e5a 	eorscc	r4, r1, #1440	; 0x5a0
 b30:	49495053 	stmdbmi	r9, {r0, r1, r4, r6, ip, lr}^
 b34:	7265746e 	rsbvc	r7, r5, #1845493760	; 0x6e000000
 b38:	65636166 	strbvs	r6, [r3, #-358]!	; 0xfffffe9a
 b3c:	6e693631 	mcrvs	6, 3, r3, cr9, cr1, {1}
 b40:	72726574 	rsbsvc	r6, r2, #116, 10	; 0x1d000000
 b44:	4d747075 	ldclmi	0, cr7, [r4, #-468]!	; 0xfffffe2c
 b48:	536b7361 	cmnpl	fp, #-2080374783	; 0x84000001
 b4c:	69457465 	stmdbvs	r5, {r0, r2, r5, r6, sl, ip, sp, lr}^
 b50:	49535300 	ldmdbmi	r3, {r8, r9, ip, lr}^
 b54:	4952575f 	ldmdbmi	r2, {r0, r1, r2, r3, r4, r6, r8, r9, sl, ip, lr}^
 b58:	455f4554 	ldrbmi	r4, [pc, #-1364]	; 60c <UARTvprintf+0x48>
 b5c:	5f005252 	svcpl	0x00005252
 b60:	32314e5a 	eorscc	r4, r1, #1440	; 0x5a0
 b64:	49495053 	stmdbmi	r9, {r0, r1, r4, r6, ip, lr}^
 b68:	7265746e 	rsbvc	r7, r5, #1845493760	; 0x6e000000
 b6c:	65636166 	strbvs	r6, [r3, #-358]!	; 0xfffffe9a
 b70:	69727735 	ldmdbvs	r2!, {r0, r2, r4, r5, r8, r9, sl, ip, sp, lr}^
 b74:	6d456574 	cfstr64vs	mvdx6, [r5, #-464]	; 0xfffffe30
 b78:	6d007650 	stcvs	6, cr7, [r0, #-320]	; 0xfffffec0
 b7c:	0065646f 	rsbeq	r6, r5, pc, ror #8
 b80:	69755f5f 	ldmdbvs	r5!, {r0, r1, r2, r3, r4, r6, r8, r9, sl, fp, ip, lr}^
 b84:	3631746e 	ldrtcc	r7, [r1], -lr, ror #8
 b88:	6d00745f 	cfstrsvs	mvf7, [r0, #-380]	; 0xfffffe84
 b8c:	6c75646f 	cfldrdvs	mvd6, [r5], #-444	; 0xfffffe44
 b90:	696e4965 	stmdbvs	lr!, {r0, r2, r5, r6, r8, fp, lr}^
 b94:	6c616974 			; <UNDEFINED> instruction: 0x6c616974
 b98:	00657a69 	rsbeq	r7, r5, r9, ror #20
 b9c:	6e617274 	mcrvs	2, 3, r7, cr1, cr4, {3}
 ba0:	646f4d73 	strbtvs	r4, [pc], #-3443	; ba8 <GPIOPinConfigure+0x2c>
 ba4:	6e690065 	cdpvs	0, 6, cr0, cr9, cr5, {3}
 ba8:	72726574 	rsbsvc	r6, r2, #116, 10	; 0x1d000000
 bac:	43747075 	cmnmi	r4, #117	; 0x75
 bb0:	7261656c 	rsbvc	r6, r1, #108, 10	; 0x1b000000
 bb4:	49736900 	ldmdbmi	r3!, {r8, fp, sp, lr}^
 bb8:	6974696e 	ldmdbvs	r4!, {r1, r2, r3, r5, r6, r8, fp, sp, lr}^
 bbc:	7a696c61 	bvc	1a5bd48 <_etext+0x1a59ce1>
 bc0:	5f006465 	svcpl	0x00006465
 bc4:	32314e5a 	eorscc	r4, r1, #1440	; 0x5a0
 bc8:	49495053 	stmdbmi	r9, {r0, r1, r4, r6, ip, lr}^
 bcc:	7265746e 	rsbvc	r7, r5, #1845493760	; 0x6e000000
 bd0:	65636166 	strbvs	r6, [r3, #-358]!	; 0xfffffe9a
 bd4:	65733831 	ldrbvs	r3, [r3, #-2097]!	; 0xfffff7cf
 bd8:	65735574 	ldrbvs	r5, [r3, #-1396]!	; 0xfffffa8c
 bdc:	75646f4d 	strbvc	r6, [r4, #-3917]!	; 0xfffff0b3
 be0:	7346656c 	movtvc	r6, #25964	; 0x656c
 be4:	6e695073 	mcrvs	0, 3, r5, cr9, cr3, {3}
 be8:	5f006245 	svcpl	0x00006245
 bec:	32314e5a 	eorscc	r4, r1, #1440	; 0x5a0
 bf0:	49495053 	stmdbmi	r9, {r0, r1, r4, r6, ip, lr}^
 bf4:	7265746e 	rsbvc	r7, r5, #1845493760	; 0x6e000000
 bf8:	65636166 	strbvs	r6, [r3, #-358]!	; 0xfffffe9a
 bfc:	72663231 	rsbvc	r3, r6, #268435459	; 0x10000003
 c00:	53656d61 	cmnpl	r5, #6208	; 0x1840
 c04:	6f707075 	svcvs	0x00707075
 c08:	39457472 	stmdbcc	r5, {r1, r4, r5, r6, sl, ip, sp, lr}^
 c0c:	49505365 	ldmdbmi	r0, {r0, r2, r5, r6, r8, r9, ip, lr}^
 c10:	646f4d5f 	strbtvs	r4, [pc], #-3423	; c18 <SysCtlClockGet+0x14>
 c14:	72006865 	andvc	r6, r0, #6619136	; 0x650000
 c18:	61746144 	cmnvs	r4, r4, asr #2
 c1c:	49505300 	ldmdbmi	r0, {r8, r9, ip, lr}^
 c20:	7465535f 	strbtvc	r5, [r5], #-863	; 0xfffffca1
 c24:	69766544 	ldmdbvs	r6!, {r2, r6, r8, sl, sp, lr}^
 c28:	73006563 	movwvc	r6, #1379	; 0x563
 c2c:	53437465 	movtpl	r7, #13413	; 0x3465
 c30:	006e6950 	rsbeq	r6, lr, r0, asr r9
 c34:	30495053 	subcc	r5, r9, r3, asr r0
 c38:	5645445f 			; <UNDEFINED> instruction: 0x5645445f
 c3c:	61747300 	cmnvs	r4, r0, lsl #6
 c40:	00737574 	rsbseq	r7, r3, r4, ror r5
 c44:	5f495353 	svcpl	0x00495353
 c48:	494d5854 	stmdbmi	sp, {r2, r4, r6, fp, ip, lr}^
 c4c:	69620053 	stmdbvs	r2!, {r0, r1, r4, r6}^
 c50:	7a695374 	bvc	1a55a28 <_etext+0x1a539c1>
 c54:	65640065 	strbvs	r0, [r4, #-101]!	; 0xffffff9b
 c58:	4c677562 	cfstr64mi	mvdx7, [r7], #-392	; 0xfffffe78
 c5c:	6c657665 	stclvs	6, cr7, [r5], #-404	; 0xfffffe6c
 c60:	62654400 	rsbvs	r4, r5, #0, 8
 c64:	6e496775 	mcrvs	7, 2, r6, cr9, cr5, {3}
 c68:	66726574 			; <UNDEFINED> instruction: 0x66726574
 c6c:	00656361 	rsbeq	r6, r5, r1, ror #6
 c70:	67616c66 	strbvs	r6, [r1, -r6, ror #24]!
 c74:	65720073 	ldrbvs	r0, [r2, #-115]!	; 0xffffff8d
 c78:	44006461 	strmi	r6, [r0], #-1121	; 0xfffffb9f
 c7c:	47554245 	ldrbmi	r4, [r5, -r5, asr #4]
 c80:	5252455f 	subspl	r4, r2, #398458880	; 0x17c00000
 c84:	73795300 	cmnvc	r9, #0, 6
 c88:	446d6574 	strbtmi	r6, [sp], #-1396	; 0xfffffa8c
 c8c:	67756265 	ldrbvs	r6, [r5, -r5, ror #4]!
 c90:	74656700 	strbtvc	r6, [r5], #-1792	; 0xfffff900
 c94:	41495053 	qdaddmi	r5, r3, r9
 c98:	00726464 	rsbseq	r6, r2, r4, ror #8
 c9c:	66754277 			; <UNDEFINED> instruction: 0x66754277
 ca0:	00726566 	rsbseq	r6, r2, r6, ror #10
 ca4:	74614477 	strbtvc	r4, [r1], #-1143	; 0xfffffb89
 ca8:	53530061 	cmppl	r3, #97	; 0x61
 cac:	4e495f49 	cdpmi	15, 4, cr5, cr9, cr9, {2}
 cb0:	414d5f54 	cmpmi	sp, r4, asr pc
 cb4:	65720058 	ldrbvs	r0, [r2, #-88]!	; 0xffffffa8
 cb8:	64416461 	strbvs	r6, [r1], #-1121	; 0xfffffb9f
 cbc:	5f007264 	svcpl	0x00007264
 cc0:	6534315a 	ldrvs	r3, [r4, #-346]!	; 0xfffffea6
 cc4:	6f727065 	svcvs	0x00727065
 cc8:	6172456d 	cmnvs	r2, sp, ror #10
 ccc:	6c416573 	cfstr64vs	mvdx6, [r1], {115}	; 0x73
 cd0:	6500766c 	strvs	r7, [r0, #-1644]	; 0xfffff994
 cd4:	6f727065 	svcvs	0x00727065
 cd8:	6972576d 	ldmdbvs	r2!, {r0, r2, r3, r5, r6, r8, r9, sl, ip, lr}^
 cdc:	73006574 	movwvc	r6, #1396	; 0x574
 ce0:	74726174 	ldrbtvc	r6, [r2], #-372	; 0xfffffe8c
 ce4:	6d617246 	sfmvs	f7, 2, [r1, #-280]!	; 0xfffffee8
 ce8:	65640065 	strbvs	r0, [r4, #-101]!	; 0xffffff9b
 cec:	65636976 	strbvs	r6, [r3, #-2422]!	; 0xfffff68a
 cf0:	65707954 	ldrbvs	r7, [r0, #-2388]!	; 0xfffff6ac
 cf4:	50454500 	subpl	r4, r5, r0, lsl #10
 cf8:	5f4d4f52 	svcpl	0x004d4f52
 cfc:	45505954 	ldrbmi	r5, [r0, #-2388]	; 0xfffff6ac
 d00:	4333395f 	teqmi	r3, #1556480	; 0x17c000
 d04:	70656500 	rsbvc	r6, r5, r0, lsl #10
 d08:	456d6f72 	strbmi	r6, [sp, #-3954]!	; 0xfffff08e
 d0c:	65736172 	ldrbvs	r6, [r3, #-370]!	; 0xfffffe8e
 d10:	64646100 	strbtvs	r6, [r4], #-256	; 0xffffff00
 d14:	65640072 	strbvs	r0, [r4, #-114]!	; 0xffffff8e
 d18:	65636976 	strbvs	r6, [r3, #-2422]!	; 0xfffff68a
 d1c:	65646f4d 	strbvs	r6, [r4, #-3917]!	; 0xfffff0b3
 d20:	70656500 	rsbvc	r6, r5, r0, lsl #10
 d24:	456d6f72 	strbmi	r6, [sp, #-3954]!	; 0xfffff08e
 d28:	65736172 	ldrbvs	r6, [r3, #-370]!	; 0xfffffe8e
 d2c:	006c6c41 	rsbeq	r6, ip, r1, asr #24
 d30:	72706565 	rsbsvc	r6, r0, #423624704	; 0x19400000
 d34:	65526d6f 	ldrbvs	r6, [r2, #-3439]	; 0xfffff291
 d38:	45006461 	strmi	r6, [r0, #-1121]	; 0xfffffb9f
 d3c:	4f525045 	svcmi	0x00525045
 d40:	59545f4d 	ldmdbpl	r4, {r0, r2, r3, r6, r8, r9, sl, fp, ip, lr}^
 d44:	495f4550 	ldmdbmi	pc, {r4, r6, r8, sl, lr}^	; <UNPREDICTABLE>
 d48:	4c41564e 	mcrrmi	6, 4, r5, r1, cr14
 d4c:	65004449 	strvs	r4, [r0, #-1097]	; 0xfffffbb7
 d50:	6c62616e 	stfvse	f6, [r2], #-440	; 0xfffffe48
 d54:	61724665 	cmnvs	r2, r5, ror #12
 d58:	5f00656d 	svcpl	0x0000656d
 d5c:	6531315a 	ldrvs	r3, [r1, #-346]!	; 0xfffffea6
 d60:	6f727065 	svcvs	0x00727065
 d64:	6172456d 	cmnvs	r2, sp, ror #10
 d68:	6d6d6573 	cfstr64vs	mvdx6, [sp, #-460]!	; 0xfffffe34
 d6c:	70656500 	rsbvc	r6, r5, r0, lsl #10
 d70:	446d6f72 	strbtmi	r6, [sp], #-3954	; 0xfffff08e
 d74:	63697665 	cmnvs	r9, #105906176	; 0x6500000
 d78:	45450065 	strbmi	r0, [r5, #-101]	; 0xffffff9b
 d7c:	4d4f5250 	sfmmi	f5, 2, [pc, #-320]	; c44 <SysCtlClockGet+0x40>
 d80:	5059545f 	subspl	r5, r9, pc, asr r4
 d84:	34325f45 	ldrtcc	r5, [r2], #-3909	; 0xfffff0bb
 d88:	65650043 	strbvs	r0, [r5, #-67]!	; 0xffffffbd
 d8c:	6d6f7270 	sfmvs	f7, 2, [pc, #-448]!	; bd4 <SysCtlPeripheralPresent+0x14>
 d90:	66667542 	strbtvs	r7, [r6], -r2, asr #10
 d94:	45007265 	strmi	r7, [r0, #-613]	; 0xfffffd9b
 d98:	4f525045 	svcmi	0x00525045
 d9c:	59545f4d 	ldmdbpl	r4, {r0, r2, r3, r6, r8, r9, sl, fp, ip, lr}^
 da0:	4d5f4550 	cfldr64mi	mvdx4, [pc, #-320]	; c68 <SysCtlClockGet+0x64>
 da4:	65005841 	strvs	r5, [r0, #-2113]	; 0xfffff7bf
 da8:	6f727065 	svcvs	0x00727065
 dac:	7079546d 	rsbsvc	r5, r9, sp, ror #8
 db0:	65730065 	ldrbvs	r0, [r3, #-101]!	; 0xffffff9b
 db4:	50454574 	subpl	r4, r5, r4, ror r5
 db8:	504d4f52 	subpl	r4, sp, r2, asr pc
 dbc:	6f746f72 	svcvs	0x00746f72
 dc0:	006c6f63 	rsbeq	r6, ip, r3, ror #30
 dc4:	45746573 	ldrbmi	r6, [r4, #-1395]!	; 0xfffffa8d
 dc8:	4f525045 	svcmi	0x00525045
 dcc:	7079544d 	rsbsvc	r5, r9, sp, asr #8
 dd0:	65650065 	strbvs	r0, [r5, #-101]!	; 0xffffff9b
 dd4:	6d6f7270 	sfmvs	f7, 2, [pc, #-448]!	; c1c <SysCtlClockGet+0x18>
 dd8:	74697257 	strbtvc	r7, [r9], #-599	; 0xfffffda9
 ddc:	616e4565 	cmnvs	lr, r5, ror #10
 de0:	00656c62 	rsbeq	r6, r5, r2, ror #24
 de4:	74697277 	strbtvc	r7, [r9], #-631	; 0xfffffd89
 de8:	64644165 	strbtvs	r4, [r4], #-357	; 0xfffffe9b
 dec:	2e2e0072 	mcrcs	0, 1, r0, cr14, cr2, {3}
 df0:	2f2e2e2f 	svccs	0x002e2e2f
 df4:	2f637273 	svccs	0x00637273
 df8:	76697264 	strbtvc	r7, [r9], -r4, ror #4
 dfc:	642f7265 	strtvs	r7, [pc], #-613	; e04 <GET_SHIFTBITS_MASK+0x30>
 e00:	63697665 	cmnvs	r9, #105906176	; 0x6500000
 e04:	65652f65 	strbvs	r2, [r5, #-3941]!	; 0xfffff09b
 e08:	6d6f7270 	sfmvs	f7, 2, [pc, #-448]!	; c50 <SysCtlClockGet+0x4c>
 e0c:	7070632e 	rsbsvc	r6, r0, lr, lsr #6
 e10:	46637000 	strbtmi	r7, [r3], -r0
 e14:	6e656c69 	cdpvs	12, 6, cr6, cr5, cr9, {3}
 e18:	00656d61 	rsbeq	r6, r5, r1, ror #26
 e1c:	4f4c475f 	svcmi	0x004c475f
 e20:	5f4c4142 	svcpl	0x004c4142
 e24:	6275735f 	rsbsvs	r7, r5, #2080374785	; 0x7c000001
 e28:	5f5f495f 	svcpl	0x005f495f
 e2c:	7272655f 	rsbsvc	r6, r2, #398458880	; 0x17c00000
 e30:	5f5f726f 	svcpl	0x005f726f
 e34:	4e5a5f00 	cdpmi	15, 5, cr5, cr10, cr0, {0}
 e38:	65443431 	strbvs	r3, [r4, #-1073]	; 0xfffffbcf
 e3c:	49677562 	stmdbmi	r7!, {r1, r5, r6, r8, sl, ip, sp, lr}^
 e40:	7265746e 	rsbvc	r7, r5, #1845493760	; 0x6e000000
 e44:	65636166 	strbvs	r6, [r3, #-358]!	; 0xfffffe9a
 e48:	76453243 	strbvc	r3, [r5], -r3, asr #4
 e4c:	65675f00 	strbvs	r5, [r7, #-3840]!	; 0xfffff100
 e50:	6f6c5f74 	svcvs	0x006c5f74
 e54:	656c5f67 	strbvs	r5, [ip, #-3943]!	; 0xfffff099
 e58:	5f6c6576 	svcpl	0x006c6576
 e5c:	69727473 	ldmdbvs	r2!, {r0, r1, r4, r5, r6, sl, ip, sp, lr}^
 e60:	5f00676e 	svcpl	0x0000676e
 e64:	696e695f 	stmdbvs	lr!, {r0, r1, r2, r3, r4, r6, r8, fp, sp, lr}^
 e68:	6c616974 			; <UNDEFINED> instruction: 0x6c616974
 e6c:	5f657a69 	svcpl	0x00657a69
 e70:	6f6c0070 	svcvs	0x006c0070
 e74:	656c5f67 	strbvs	r5, [ip, #-3943]!	; 0xfffff099
 e78:	006c6576 	rsbeq	r6, ip, r6, ror r5
 e7c:	74735f5f 	ldrbtvc	r5, [r3], #-3935	; 0xfffff0a1
 e80:	63697461 	cmnvs	r9, #1627389952	; 0x61000000
 e84:	696e695f 	stmdbvs	lr!, {r0, r1, r2, r3, r4, r6, r8, fp, sp, lr}^
 e88:	6c616974 			; <UNDEFINED> instruction: 0x6c616974
 e8c:	74617a69 	strbtvc	r7, [r1], #-2665	; 0xfffff597
 e90:	5f6e6f69 	svcpl	0x006e6f69
 e94:	5f646e61 	svcpl	0x00646e61
 e98:	74736564 	ldrbtvc	r6, [r3], #-1380	; 0xfffffa9c
 e9c:	74637572 	strbtvc	r7, [r3], #-1394	; 0xfffffa8e
 ea0:	5f6e6f69 	svcpl	0x006e6f69
 ea4:	5f5f0030 	svcpl	0x005f0030
 ea8:	6f697270 	svcvs	0x00697270
 eac:	79746972 	ldmdbvc	r4!, {r1, r4, r5, r6, r8, fp, sp, lr}^
 eb0:	33697500 	cmncc	r9, #0, 10
 eb4:	6e694c32 	mcrvs	12, 3, r4, cr9, cr2, {1}
 eb8:	2e2e0065 	cdpcs	0, 2, cr0, cr14, cr5, {3}
 ebc:	2f2e2e2f 	svccs	0x002e2e2f
 ec0:	2f637273 	svccs	0x00637273
 ec4:	76697264 	strbtvc	r7, [r9], -r4, ror #4
 ec8:	642f7265 	strtvs	r7, [pc], #-613	; ed0 <PAD_GPIOI2CPinConfig+0x88>
 ecc:	67756265 	ldrbvs	r6, [r5, -r5, ror #4]!
 ed0:	7070632e 	rsbsvc	r6, r0, lr, lsr #6
	...

Disassembly of section .comment:

00000000 <.comment>:
   0:	3a434347 	bcc	10d0d24 <_etext+0x10cecbd>
   4:	4e472820 	cdpmi	8, 4, cr2, cr7, cr0, {1}
   8:	72412055 	subvc	r2, r1, #85	; 0x55
   c:	6d45206d 	stclvs	0, cr2, [r5, #-436]	; 0xfffffe4c
  10:	64646562 	strbtvs	r6, [r4], #-1378	; 0xfffffa9e
  14:	54206465 	strtpl	r6, [r0], #-1125	; 0xfffffb9b
  18:	636c6f6f 	cmnvs	ip, #444	; 0x1bc
  1c:	6e696168 	powvsez	f6, f1, #0.0
  20:	2d303120 	ldfcss	f3, [r0, #-128]!	; 0xffffff80
  24:	30323032 	eorscc	r3, r2, r2, lsr r0
  28:	2d34712d 	ldfcss	f7, [r4, #-180]!	; 0xffffff4c
  2c:	6f6a616d 	svcvs	0x006a616d
  30:	31202972 			; <UNDEFINED> instruction: 0x31202972
  34:	2e322e30 	mrccs	14, 1, r2, cr2, cr0, {1}
  38:	30322031 	eorscc	r2, r2, r1, lsr r0
  3c:	31313032 	teqcc	r1, r2, lsr r0
  40:	28203330 	stmdacs	r0!, {r4, r5, r8, r9, ip, sp}
  44:	656c6572 	strbvs	r6, [ip, #-1394]!	; 0xfffffa8e
  48:	29657361 	stmdbcs	r5!, {r0, r5, r6, r8, r9, ip, sp, lr}^
	...

Disassembly of section .ARM.attributes:

00000000 <.ARM.attributes>:
   0:	00003141 	andeq	r3, r0, r1, asr #2
   4:	61656100 	cmnvs	r5, r0, lsl #2
   8:	01006962 	tsteq	r0, r2, ror #18
   c:	00000027 	andeq	r0, r0, r7, lsr #32
  10:	2d453705 	stclcs	7, cr3, [r5, #-20]	; 0xffffffec
  14:	0d06004d 	stceq	0, cr0, [r6, #-308]	; 0xfffffecc
  18:	02094d07 	andeq	r4, r9, #448	; 0x1c0
  1c:	0412060a 	ldreq	r0, [r2], #-1546	; 0xfffff9f6
  20:	01150114 	tsteq	r5, r4, lsl r1
  24:	01180317 	tsteq	r8, r7, lsl r3
  28:	011b011a 	tsteq	fp, sl, lsl r1
  2c:	061e011c 			; <UNDEFINED> instruction: 0x061e011c
  30:	Address 0x00000030 is out of bounds.


Disassembly of section .debug_frame:

00000000 <.debug_frame>:
   0:	0000000c 	andeq	r0, r0, ip
   4:	ffffffff 			; <UNDEFINED> instruction: 0xffffffff
   8:	7c020001 	stcvc	0, cr0, [r2], {1}
   c:	000d0c0e 	andeq	r0, sp, lr, lsl #24
  10:	00000018 	andeq	r0, r0, r8, lsl r0
  14:	00000000 	andeq	r0, r0, r0
  18:	0000026c 	andeq	r0, r0, ip, ror #4
  1c:	00000054 	andeq	r0, r0, r4, asr r0
  20:	87080e41 	strhi	r0, [r8, -r1, asr #28]
  24:	41018e02 	tstmi	r1, r2, lsl #28
  28:	0000070d 	andeq	r0, r0, sp, lsl #14
  2c:	00000020 	andeq	r0, r0, r0, lsr #32
  30:	00000000 	andeq	r0, r0, r0
  34:	000002c0 	andeq	r0, r0, r0, asr #5
  38:	000000a0 	andeq	r0, r0, r0, lsr #1
  3c:	87080e41 	strhi	r0, [r8, -r1, asr #28]
  40:	41018e02 	tstmi	r1, r2, lsl #28
  44:	0d41180e 	stcleq	8, cr1, [r1, #-56]	; 0xffffffc8
  48:	080e7d07 	stmdaeq	lr, {r0, r1, r2, r8, sl, fp, ip, sp, lr}
  4c:	000d0d41 	andeq	r0, sp, r1, asr #26
  50:	0000001c 	andeq	r0, r0, ip, lsl r0
  54:	00000000 	andeq	r0, r0, r0
  58:	00000360 	andeq	r0, r0, r0, ror #6
  5c:	000000c4 	andeq	r0, r0, r4, asr #1
  60:	87080e41 	strhi	r0, [r8, -r1, asr #28]
  64:	41018e02 	tstmi	r1, r2, lsl #28
  68:	0d41200e 	stcleq	0, cr2, [r1, #-56]	; 0xffffffc8
  6c:	00000007 	andeq	r0, r0, r7
  70:	0000000c 	andeq	r0, r0, ip
  74:	ffffffff 			; <UNDEFINED> instruction: 0xffffffff
  78:	7c020001 	stcvc	0, cr0, [r2], {1}
  7c:	000d0c0e 	andeq	r0, sp, lr, lsl #24
  80:	00000020 	andeq	r0, r0, r0, lsr #32
  84:	00000070 	andeq	r0, r0, r0, ror r0
  88:	00000424 	andeq	r0, r0, r4, lsr #8
  8c:	00000064 	andeq	r0, r0, r4, rrx
  90:	87080e41 	strhi	r0, [r8, -r1, asr #28]
  94:	41018e02 	tstmi	r1, r2, lsl #28
  98:	0d41100e 	stcleq	0, cr1, [r1, #-56]	; 0xffffffc8
  9c:	080e6407 	stmdaeq	lr, {r0, r1, r2, sl, sp, lr}
  a0:	000d0d41 	andeq	r0, sp, r1, asr #26
  a4:	00000014 	andeq	r0, r0, r4, lsl r0
  a8:	00000070 	andeq	r0, r0, r0, ror r0
  ac:	00000490 	muleq	r0, r0, r4
  b0:	00000006 	andeq	r0, r0, r6
  b4:	87040e41 	strhi	r0, [r4, -r1, asr #28]
  b8:	070d4101 	streq	r4, [sp, -r1, lsl #2]
  bc:	00000014 	andeq	r0, r0, r4, lsl r0
  c0:	00000070 	andeq	r0, r0, r0, ror r0
  c4:	00000496 	muleq	r0, r6, r4
  c8:	00000006 	andeq	r0, r0, r6
  cc:	87040e41 	strhi	r0, [r4, -r1, asr #28]
  d0:	070d4101 	streq	r4, [sp, -r1, lsl #2]
  d4:	00000014 	andeq	r0, r0, r4, lsl r0
  d8:	00000070 	andeq	r0, r0, r0, ror r0
  dc:	0000049c 	muleq	r0, ip, r4
  e0:	00000006 	andeq	r0, r0, r6
  e4:	87040e41 	strhi	r0, [r4, -r1, asr #28]
  e8:	070d4101 	streq	r4, [sp, -r1, lsl #2]
  ec:	0000000c 	andeq	r0, r0, ip
  f0:	ffffffff 			; <UNDEFINED> instruction: 0xffffffff
  f4:	7c020001 	stcvc	0, cr0, [r2], {1}
  f8:	000d0c0e 	andeq	r0, sp, lr, lsl #24
  fc:	00000020 	andeq	r0, r0, r0, lsr #32
 100:	000000ec 	andeq	r0, r0, ip, ror #1
 104:	000004a4 	andeq	r0, r0, r4, lsr #9
 108:	00000090 	muleq	r0, r0, r0
 10c:	87080e41 	strhi	r0, [r8, -r1, asr #28]
 110:	41018e02 	tstmi	r1, r2, lsl #28
 114:	0d41180e 	stcleq	8, cr1, [r1, #-56]	; 0xffffffc8
 118:	080e7a07 	stmdaeq	lr, {r0, r1, r2, r9, fp, ip, sp, lr}
 11c:	000d0d41 	andeq	r0, sp, r1, asr #26
 120:	00000020 	andeq	r0, r0, r0, lsr #32
 124:	000000ec 	andeq	r0, r0, ip, ror #1
 128:	00000534 	andeq	r0, r0, r4, lsr r5
 12c:	00000090 	muleq	r0, r0, r0
 130:	87080e41 	strhi	r0, [r8, -r1, asr #28]
 134:	41018e02 	tstmi	r1, r2, lsl #28
 138:	0d41180e 	stcleq	8, cr1, [r1, #-56]	; 0xffffffc8
 13c:	080e7e07 	stmdaeq	lr, {r0, r1, r2, r9, sl, fp, ip, sp, lr}
 140:	000d0d41 	andeq	r0, sp, r1, asr #26
 144:	00000020 	andeq	r0, r0, r0, lsr #32
 148:	000000ec 	andeq	r0, r0, ip, ror #1
 14c:	00000000 	andeq	r0, r0, r0
 150:	00000114 	andeq	r0, r0, r4, lsl r1
 154:	87080e41 	strhi	r0, [r8, -r1, asr #28]
 158:	41018e02 	tstmi	r1, r2, lsl #28
 15c:	0d41180e 	stcleq	8, cr1, [r1, #-56]	; 0xffffffc8
 160:	0e7a0207 	cdpeq	2, 7, cr0, cr10, cr7, {0}
 164:	0d0d4108 	stfeqs	f4, [sp, #-32]	; 0xffffffe0
 168:	00000018 	andeq	r0, r0, r8, lsl r0
 16c:	000000ec 	andeq	r0, r0, ip, ror #1
 170:	00000000 	andeq	r0, r0, r0
 174:	0000001c 	andeq	r0, r0, ip, lsl r0
 178:	87080e41 	strhi	r0, [r8, -r1, asr #28]
 17c:	41018e02 	tstmi	r1, r2, lsl #28
 180:	0000070d 	andeq	r0, r0, sp, lsl #14
 184:	00000024 	andeq	r0, r0, r4, lsr #32
 188:	000000ec 	andeq	r0, r0, ip, ror #1
 18c:	000005c4 	andeq	r0, r0, r4, asr #11
 190:	00000408 	andeq	r0, r0, r8, lsl #8
 194:	87080e41 	strhi	r0, [r8, -r1, asr #28]
 198:	41018e02 	tstmi	r1, r2, lsl #28
 19c:	0d41400e 	stcleq	0, cr4, [r1, #-56]	; 0xffffffc8
 1a0:	01fb0307 	mvnseq	r0, r7, lsl #6
 1a4:	0d41080e 	stcleq	8, cr0, [r1, #-56]	; 0xffffffc8
 1a8:	0000000d 	andeq	r0, r0, sp
 1ac:	00000038 	andeq	r0, r0, r8, lsr r0
 1b0:	000000ec 	andeq	r0, r0, ip, ror #1
 1b4:	000009cc 	andeq	r0, r0, ip, asr #19
 1b8:	00000024 	andeq	r0, r0, r4, lsr #32
 1bc:	80100e41 	andshi	r0, r0, r1, asr #28
 1c0:	82038104 	andhi	r8, r3, #4, 2
 1c4:	41018302 	tstmi	r1, r2, lsl #6
 1c8:	0687180e 	streq	r1, [r7], lr, lsl #16
 1cc:	0e41058e 	cdpeq	5, 4, cr0, cr1, cr14, {4}
 1d0:	070d4120 	streq	r4, [sp, -r0, lsr #2]
 1d4:	41180e49 	tstmi	r8, r9, asr #28
 1d8:	ce420d0d 	cdpgt	13, 4, cr0, cr2, cr13, {0}
 1dc:	41100ec7 	tstmi	r0, r7, asr #29
 1e0:	c0c1c2c3 	sbcgt	ip, r1, r3, asr #5
 1e4:	0000000e 	andeq	r0, r0, lr
 1e8:	0000000c 	andeq	r0, r0, ip
 1ec:	ffffffff 			; <UNDEFINED> instruction: 0xffffffff
 1f0:	7c020001 	stcvc	0, cr0, [r2], {1}
 1f4:	000d0c0e 	andeq	r0, sp, lr, lsl #24
 1f8:	00000024 	andeq	r0, r0, r4, lsr #32
 1fc:	000001e8 	andeq	r0, r0, r8, ror #3
 200:	00000dd4 	ldrdeq	r0, [r0], -r4
 204:	00000034 	andeq	r0, r0, r4, lsr r0
 208:	87040e41 	strhi	r0, [r4, -r1, asr #28]
 20c:	180e4101 	stmdane	lr, {r0, r8, lr}
 210:	53070d41 	movwpl	r0, #32065	; 0x7d41
 214:	0d41040e 	cfstrdeq	mvd0, [r1, #-56]	; 0xffffffc8
 218:	0ec7420d 	cdpeq	2, 12, cr4, cr7, cr13, {0}
 21c:	00000000 	andeq	r0, r0, r0
 220:	00000024 	andeq	r0, r0, r4, lsr #32
 224:	000001e8 	andeq	r0, r0, r8, ror #3
 228:	00000e08 	andeq	r0, r0, r8, lsl #28
 22c:	0000003e 	andeq	r0, r0, lr, lsr r0
 230:	87040e41 	strhi	r0, [r4, -r1, asr #28]
 234:	180e4101 	stmdane	lr, {r0, r8, lr}
 238:	58070d41 	stmdapl	r7, {r0, r6, r8, sl, fp}
 23c:	0d41040e 	cfstrdeq	mvd0, [r1, #-56]	; 0xffffffc8
 240:	0ec7420d 	cdpeq	2, 12, cr4, cr7, cr13, {0}
 244:	00000000 	andeq	r0, r0, r0
 248:	00000024 	andeq	r0, r0, r4, lsr #32
 24c:	000001e8 	andeq	r0, r0, r8, ror #3
 250:	00000e48 	andeq	r0, r0, r8, asr #28
 254:	000000b8 	strheq	r0, [r0], -r8
 258:	84100e41 	ldrhi	r0, [r0], #-3649	; 0xfffff1bf
 25c:	87038504 	strhi	r8, [r3, -r4, lsl #10]
 260:	41018e02 	tstmi	r1, r2, lsl #28
 264:	0d41180e 	stcleq	8, cr1, [r1, #-56]	; 0xffffffc8
 268:	0e4a0207 	cdpeq	2, 4, cr0, cr10, cr7, {0}
 26c:	0d0d4110 	stfeqs	f4, [sp, #-64]	; 0xffffffc0
 270:	00000024 	andeq	r0, r0, r4, lsr #32
 274:	000001e8 	andeq	r0, r0, r8, ror #3
 278:	00000000 	andeq	r0, r0, r0
 27c:	00000118 	andeq	r0, r0, r8, lsl r1
 280:	84100e41 	ldrhi	r0, [r0], #-3649	; 0xfffff1bf
 284:	87038504 	strhi	r8, [r3, -r4, lsl #10]
 288:	41018e02 	tstmi	r1, r2, lsl #28
 28c:	0d41180e 	stcleq	8, cr1, [r1, #-56]	; 0xffffffc8
 290:	0e780207 	cdpeq	2, 7, cr0, cr8, cr7, {0}
 294:	0d0d4110 	stfeqs	f4, [sp, #-64]	; 0xffffffc0
 298:	00000024 	andeq	r0, r0, r4, lsr #32
 29c:	000001e8 	andeq	r0, r0, r8, ror #3
 2a0:	00000000 	andeq	r0, r0, r0
 2a4:	0000004c 	andeq	r0, r0, ip, asr #32
 2a8:	87040e41 	strhi	r0, [r4, -r1, asr #28]
 2ac:	100e4101 	andne	r4, lr, r1, lsl #2
 2b0:	5a070d41 	bpl	1c37bc <_etext+0x1c1755>
 2b4:	0d41040e 	cfstrdeq	mvd0, [r1, #-56]	; 0xffffffc8
 2b8:	0ec7420d 	cdpeq	2, 12, cr4, cr7, cr13, {0}
 2bc:	00000000 	andeq	r0, r0, r0
 2c0:	00000020 	andeq	r0, r0, r0, lsr #32
 2c4:	000001e8 	andeq	r0, r0, r8, ror #3
 2c8:	00000000 	andeq	r0, r0, r0
 2cc:	00000060 	andeq	r0, r0, r0, rrx
 2d0:	87080e41 	strhi	r0, [r8, -r1, asr #28]
 2d4:	41018e02 	tstmi	r1, r2, lsl #28
 2d8:	0d41100e 	stcleq	0, cr1, [r1, #-56]	; 0xffffffc8
 2dc:	080e6907 	stmdaeq	lr, {r0, r1, r2, r8, fp, sp, lr}
 2e0:	000d0d41 	andeq	r0, sp, r1, asr #26
 2e4:	00000020 	andeq	r0, r0, r0, lsr #32
 2e8:	000001e8 	andeq	r0, r0, r8, ror #3
 2ec:	00000000 	andeq	r0, r0, r0
 2f0:	00000060 	andeq	r0, r0, r0, rrx
 2f4:	87080e41 	strhi	r0, [r8, -r1, asr #28]
 2f8:	41018e02 	tstmi	r1, r2, lsl #28
 2fc:	0d41100e 	stcleq	0, cr1, [r1, #-56]	; 0xffffffc8
 300:	080e6907 	stmdaeq	lr, {r0, r1, r2, r8, fp, sp, lr}
 304:	000d0d41 	andeq	r0, sp, r1, asr #26
 308:	0000000c 	andeq	r0, r0, ip
 30c:	ffffffff 			; <UNDEFINED> instruction: 0xffffffff
 310:	7c020001 	stcvc	0, cr0, [r2], {1}
 314:	000d0c0e 	andeq	r0, sp, lr, lsl #24
 318:	00000020 	andeq	r0, r0, r0, lsr #32
 31c:	00000308 	andeq	r0, r0, r8, lsl #6
 320:	00000f00 	andeq	r0, r0, r0, lsl #30
 324:	00000058 	andeq	r0, r0, r8, asr r0
 328:	87080e41 	strhi	r0, [r8, -r1, asr #28]
 32c:	41018e02 	tstmi	r1, r2, lsl #28
 330:	0d41100e 	stcleq	0, cr1, [r1, #-56]	; 0xffffffc8
 334:	080e5d07 	stmdaeq	lr, {r0, r1, r2, r8, sl, fp, ip, lr}
 338:	000d0d41 	andeq	r0, sp, r1, asr #26
 33c:	00000024 	andeq	r0, r0, r4, lsr #32
 340:	00000308 	andeq	r0, r0, r8, lsl #6
 344:	00000f58 	andeq	r0, r0, r8, asr pc
 348:	00000248 	andeq	r0, r0, r8, asr #4
 34c:	87080e41 	strhi	r0, [r8, -r1, asr #28]
 350:	41018e02 	tstmi	r1, r2, lsl #28
 354:	0d41280e 	stcleq	8, cr2, [r1, #-56]	; 0xffffffc8
 358:	01160307 	tsteq	r6, r7, lsl #6
 35c:	0d41080e 	stcleq	8, cr0, [r1, #-56]	; 0xffffffc8
 360:	0000000d 	andeq	r0, r0, sp
 364:	00000024 	andeq	r0, r0, r4, lsr #32
 368:	00000308 	andeq	r0, r0, r8, lsl #6
 36c:	000011a0 	andeq	r1, r0, r0, lsr #3
 370:	00000268 	andeq	r0, r0, r8, ror #4
 374:	87080e41 	strhi	r0, [r8, -r1, asr #28]
 378:	41018e02 	tstmi	r1, r2, lsl #28
 37c:	0d41280e 	stcleq	8, cr2, [r1, #-56]	; 0xffffffc8
 380:	01270307 			; <UNDEFINED> instruction: 0x01270307
 384:	0d41080e 	stcleq	8, cr0, [r1, #-56]	; 0xffffffc8
 388:	0000000d 	andeq	r0, r0, sp
 38c:	0000000c 	andeq	r0, r0, ip
 390:	ffffffff 			; <UNDEFINED> instruction: 0xffffffff
 394:	7c020001 	stcvc	0, cr0, [r2], {1}
 398:	000d0c0e 	andeq	r0, sp, lr, lsl #24
 39c:	00000024 	andeq	r0, r0, r4, lsr #32
 3a0:	0000038c 	andeq	r0, r0, ip, lsl #7
 3a4:	00001408 	andeq	r1, r0, r8, lsl #8
 3a8:	00000034 	andeq	r0, r0, r4, lsr r0
 3ac:	87040e41 	strhi	r0, [r4, -r1, asr #28]
 3b0:	180e4101 	stmdane	lr, {r0, r8, lr}
 3b4:	53070d41 	movwpl	r0, #32065	; 0x7d41
 3b8:	0d41040e 	cfstrdeq	mvd0, [r1, #-56]	; 0xffffffc8
 3bc:	0ec7420d 	cdpeq	2, 12, cr4, cr7, cr13, {0}
 3c0:	00000000 	andeq	r0, r0, r0
 3c4:	00000024 	andeq	r0, r0, r4, lsr #32
 3c8:	0000038c 	andeq	r0, r0, ip, lsl #7
 3cc:	0000143c 	andeq	r1, r0, ip, lsr r4
 3d0:	0000003e 	andeq	r0, r0, lr, lsr r0
 3d4:	87040e41 	strhi	r0, [r4, -r1, asr #28]
 3d8:	180e4101 	stmdane	lr, {r0, r8, lr}
 3dc:	58070d41 	stmdapl	r7, {r0, r6, r8, sl, fp}
 3e0:	0d41040e 	cfstrdeq	mvd0, [r1, #-56]	; 0xffffffc8
 3e4:	0ec7420d 	cdpeq	2, 12, cr4, cr7, cr13, {0}
 3e8:	00000000 	andeq	r0, r0, r0
 3ec:	00000028 	andeq	r0, r0, r8, lsr #32
 3f0:	0000038c 	andeq	r0, r0, ip, lsl #7
 3f4:	0000147c 	andeq	r1, r0, ip, ror r4
 3f8:	00000278 	andeq	r0, r0, r8, ror r2
 3fc:	84100e41 	ldrhi	r0, [r0], #-3649	; 0xfffff1bf
 400:	87038504 	strhi	r8, [r3, -r4, lsl #10]
 404:	41018e02 	tstmi	r1, r2, lsl #28
 408:	0d41180e 	stcleq	8, cr1, [r1, #-56]	; 0xffffffc8
 40c:	012f0307 			; <UNDEFINED> instruction: 0x012f0307
 410:	0d41100e 	stcleq	0, cr1, [r1, #-56]	; 0xffffffc8
 414:	0000000d 	andeq	r0, r0, sp
 418:	00000024 	andeq	r0, r0, r4, lsr #32
 41c:	0000038c 	andeq	r0, r0, ip, lsl #7
 420:	000016f4 	strdeq	r1, [r0], -r4
 424:	00000138 	andeq	r0, r0, r8, lsr r1
 428:	87040e41 	strhi	r0, [r4, -r1, asr #28]
 42c:	100e4101 	andne	r4, lr, r1, lsl #2
 430:	02070d41 	andeq	r0, r7, #4160	; 0x1040
 434:	41040e89 	smlabbmi	r4, r9, lr, r0
 438:	c7420d0d 	strbgt	r0, [r2, -sp, lsl #26]
 43c:	0000000e 	andeq	r0, r0, lr
 440:	0000000c 	andeq	r0, r0, ip
 444:	ffffffff 			; <UNDEFINED> instruction: 0xffffffff
 448:	7c020001 	stcvc	0, cr0, [r2], {1}
 44c:	000d0c0e 	andeq	r0, sp, lr, lsl #24
 450:	00000024 	andeq	r0, r0, r4, lsr #32
 454:	00000440 	andeq	r0, r0, r0, asr #8
 458:	00000000 	andeq	r0, r0, r0
 45c:	00000058 	andeq	r0, r0, r8, asr r0
 460:	87040e41 	strhi	r0, [r4, -r1, asr #28]
 464:	100e4101 	andne	r4, lr, r1, lsl #2
 468:	5d070d41 	stcpl	13, cr0, [r7, #-260]	; 0xfffffefc
 46c:	0d41040e 	cfstrdeq	mvd0, [r1, #-56]	; 0xffffffc8
 470:	0ec7420d 	cdpeq	2, 12, cr4, cr7, cr13, {0}
 474:	00000000 	andeq	r0, r0, r0
 478:	00000024 	andeq	r0, r0, r4, lsr #32
 47c:	00000440 	andeq	r0, r0, r0, asr #8
 480:	00000000 	andeq	r0, r0, r0
 484:	00000020 	andeq	r0, r0, r0, lsr #32
 488:	87040e41 	strhi	r0, [r4, -r1, asr #28]
 48c:	100e4101 	andne	r4, lr, r1, lsl #2
 490:	46070d41 	strmi	r0, [r7], -r1, asr #26
 494:	0d41040e 	cfstrdeq	mvd0, [r1, #-56]	; 0xffffffc8
 498:	0ec7420d 	cdpeq	2, 12, cr4, cr7, cr13, {0}
 49c:	00000000 	andeq	r0, r0, r0
 4a0:	00000020 	andeq	r0, r0, r0, lsr #32
 4a4:	00000440 	andeq	r0, r0, r0, asr #8
 4a8:	0000182c 	andeq	r1, r0, ip, lsr #16
 4ac:	00000024 	andeq	r0, r0, r4, lsr #32
 4b0:	87080e41 	strhi	r0, [r8, -r1, asr #28]
 4b4:	41018e02 	tstmi	r1, r2, lsl #28
 4b8:	0d41100e 	stcleq	0, cr1, [r1, #-56]	; 0xffffffc8
 4bc:	080e4b07 	stmdaeq	lr, {r0, r1, r2, r8, r9, fp, lr}
 4c0:	000d0d41 	andeq	r0, sp, r1, asr #26
 4c4:	00000020 	andeq	r0, r0, r0, lsr #32
 4c8:	00000440 	andeq	r0, r0, r0, asr #8
 4cc:	00001850 	andeq	r1, r0, r0, asr r8
 4d0:	00000024 	andeq	r0, r0, r4, lsr #32
 4d4:	87080e41 	strhi	r0, [r8, -r1, asr #28]
 4d8:	41018e02 	tstmi	r1, r2, lsl #28
 4dc:	0d41100e 	stcleq	0, cr1, [r1, #-56]	; 0xffffffc8
 4e0:	080e4b07 	stmdaeq	lr, {r0, r1, r2, r8, r9, fp, lr}
 4e4:	000d0d41 	andeq	r0, sp, r1, asr #26
 4e8:	00000024 	andeq	r0, r0, r4, lsr #32
 4ec:	00000440 	andeq	r0, r0, r0, asr #8
 4f0:	00000000 	andeq	r0, r0, r0
 4f4:	00000114 	andeq	r0, r0, r4, lsl r1
 4f8:	87080e41 	strhi	r0, [r8, -r1, asr #28]
 4fc:	41018e02 	tstmi	r1, r2, lsl #28
 500:	0c41280e 	mcrreq	8, 0, r2, r1, cr14
 504:	79022007 	stmdbvc	r2, {r0, r1, r2, sp}
 508:	0d41080e 	stcleq	8, cr0, [r1, #-56]	; 0xffffffc8
 50c:	0000000d 	andeq	r0, r0, sp
 510:	00000020 	andeq	r0, r0, r0, lsr #32
 514:	00000440 	andeq	r0, r0, r0, asr #8
 518:	00000000 	andeq	r0, r0, r0
 51c:	00000024 	andeq	r0, r0, r4, lsr #32
 520:	87080e41 	strhi	r0, [r8, -r1, asr #28]
 524:	41018e02 	tstmi	r1, r2, lsl #28
 528:	0d41100e 	stcleq	0, cr1, [r1, #-56]	; 0xffffffc8
 52c:	080e4a07 	stmdaeq	lr, {r0, r1, r2, r9, fp, lr}
 530:	000d0d41 	andeq	r0, sp, r1, asr #26
 534:	00000024 	andeq	r0, r0, r4, lsr #32
 538:	00000440 	andeq	r0, r0, r0, asr #8
 53c:	00000000 	andeq	r0, r0, r0
 540:	00000046 	andeq	r0, r0, r6, asr #32
 544:	87040e41 	strhi	r0, [r4, -r1, asr #28]
 548:	100e4101 	andne	r4, lr, r1, lsl #2
 54c:	5c070d41 	stcpl	13, cr0, [r7], {65}	; 0x41
 550:	0d41040e 	cfstrdeq	mvd0, [r1, #-56]	; 0xffffffc8
 554:	0ec7420d 	cdpeq	2, 12, cr4, cr7, cr13, {0}
 558:	00000000 	andeq	r0, r0, r0
 55c:	00000024 	andeq	r0, r0, r4, lsr #32
 560:	00000440 	andeq	r0, r0, r0, asr #8
 564:	00000000 	andeq	r0, r0, r0
 568:	0000003e 	andeq	r0, r0, lr, lsr r0
 56c:	87040e41 	strhi	r0, [r4, -r1, asr #28]
 570:	100e4101 	andne	r4, lr, r1, lsl #2
 574:	58070d41 	stmdapl	r7, {r0, r6, r8, sl, fp}
 578:	0d41040e 	cfstrdeq	mvd0, [r1, #-56]	; 0xffffffc8
 57c:	0ec7420d 	cdpeq	2, 12, cr4, cr7, cr13, {0}
 580:	00000000 	andeq	r0, r0, r0
 584:	00000020 	andeq	r0, r0, r0, lsr #32
 588:	00000440 	andeq	r0, r0, r0, asr #8
 58c:	00000000 	andeq	r0, r0, r0
 590:	000000b8 	strheq	r0, [r0], -r8
 594:	87080e41 	strhi	r0, [r8, -r1, asr #28]
 598:	41018e02 	tstmi	r1, r2, lsl #28
 59c:	0d41180e 	stcleq	8, cr1, [r1, #-56]	; 0xffffffc8
 5a0:	0e4e0207 	cdpeq	2, 4, cr0, cr14, cr7, {0}
 5a4:	0d0d4108 	stfeqs	f4, [sp, #-32]	; 0xffffffe0
 5a8:	00000024 	andeq	r0, r0, r4, lsr #32
 5ac:	00000440 	andeq	r0, r0, r0, asr #8
 5b0:	00001874 	andeq	r1, r0, r4, ror r8
 5b4:	000000dc 	ldrdeq	r0, [r0], -ip
 5b8:	87080e41 	strhi	r0, [r8, -r1, asr #28]
 5bc:	41018e02 	tstmi	r1, r2, lsl #28
 5c0:	0c41280e 	mcrreq	8, 0, r2, r1, cr14
 5c4:	5d022007 	stcpl	0, cr2, [r2, #-28]	; 0xffffffe4
 5c8:	0d41080e 	stcleq	8, cr0, [r1, #-56]	; 0xffffffc8
 5cc:	0000000d 	andeq	r0, r0, sp
 5d0:	00000024 	andeq	r0, r0, r4, lsr #32
 5d4:	00000440 	andeq	r0, r0, r0, asr #8
 5d8:	00001950 	andeq	r1, r0, r0, asr r9
 5dc:	000000ac 	andeq	r0, r0, ip, lsr #1
 5e0:	840c0e41 	strhi	r0, [ip], #-3649	; 0xfffff1bf
 5e4:	8e028703 	cdphi	7, 0, cr8, cr2, cr3, {0}
 5e8:	300e4101 	andcc	r4, lr, r1, lsl #2
 5ec:	28070c41 	stmdacs	r7, {r0, r6, sl, fp}
 5f0:	0c0e4702 	stceq	7, cr4, [lr], {2}
 5f4:	000d0d41 	andeq	r0, sp, r1, asr #26
 5f8:	00000020 	andeq	r0, r0, r0, lsr #32
 5fc:	00000440 	andeq	r0, r0, r0, asr #8
 600:	00000000 	andeq	r0, r0, r0
 604:	00000058 	andeq	r0, r0, r8, asr r0
 608:	87080e41 	strhi	r0, [r8, -r1, asr #28]
 60c:	41018e02 	tstmi	r1, r2, lsl #28
 610:	0d41100e 	stcleq	0, cr1, [r1, #-56]	; 0xffffffc8
 614:	080e6207 	stmdaeq	lr, {r0, r1, r2, r9, sp, lr}
 618:	000d0d41 	andeq	r0, sp, r1, asr #26
 61c:	00000020 	andeq	r0, r0, r0, lsr #32
 620:	00000440 	andeq	r0, r0, r0, asr #8
 624:	00000000 	andeq	r0, r0, r0
 628:	00000050 	andeq	r0, r0, r0, asr r0
 62c:	87080e41 	strhi	r0, [r8, -r1, asr #28]
 630:	41018e02 	tstmi	r1, r2, lsl #28
 634:	0d41100e 	stcleq	0, cr1, [r1, #-56]	; 0xffffffc8
 638:	080e5f07 	stmdaeq	lr, {r0, r1, r2, r8, r9, sl, fp, ip, lr}
 63c:	000d0d41 	andeq	r0, sp, r1, asr #26
 640:	00000028 	andeq	r0, r0, r8, lsr #32
 644:	00000440 	andeq	r0, r0, r0, asr #8
 648:	00000000 	andeq	r0, r0, r0
 64c:	00000174 	andeq	r0, r0, r4, ror r1
 650:	84080e41 	strhi	r0, [r8], #-3649	; 0xfffff1bf
 654:	41018702 	tstmi	r1, r2, lsl #14
 658:	0d41100e 	stcleq	0, cr1, [r1, #-56]	; 0xffffffc8
 65c:	0eaa0207 	cdpeq	2, 10, cr0, cr10, cr7, {0}
 660:	0d0d4108 	stfeqs	f4, [sp, #-32]	; 0xffffffe0
 664:	0ec4c741 	cdpeq	7, 12, cr12, cr4, cr1, {2}
 668:	00000000 	andeq	r0, r0, r0
 66c:	00000024 	andeq	r0, r0, r4, lsr #32
 670:	00000440 	andeq	r0, r0, r0, asr #8
 674:	00000000 	andeq	r0, r0, r0
 678:	00000034 	andeq	r0, r0, r4, lsr r0
 67c:	87040e41 	strhi	r0, [r4, -r1, asr #28]
 680:	180e4101 	stmdane	lr, {r0, r8, lr}
 684:	53070d41 	movwpl	r0, #32065	; 0x7d41
 688:	0d41040e 	cfstrdeq	mvd0, [r1, #-56]	; 0xffffffc8
 68c:	0ec7420d 	cdpeq	2, 12, cr4, cr7, cr13, {0}
 690:	00000000 	andeq	r0, r0, r0
 694:	00000024 	andeq	r0, r0, r4, lsr #32
 698:	00000440 	andeq	r0, r0, r0, asr #8
 69c:	00000000 	andeq	r0, r0, r0
 6a0:	00000034 	andeq	r0, r0, r4, lsr r0
 6a4:	87040e41 	strhi	r0, [r4, -r1, asr #28]
 6a8:	180e4101 	stmdane	lr, {r0, r8, lr}
 6ac:	53070d41 	movwpl	r0, #32065	; 0x7d41
 6b0:	0d41040e 	cfstrdeq	mvd0, [r1, #-56]	; 0xffffffc8
 6b4:	0ec7420d 	cdpeq	2, 12, cr4, cr7, cr13, {0}
 6b8:	00000000 	andeq	r0, r0, r0
 6bc:	00000020 	andeq	r0, r0, r0, lsr #32
 6c0:	00000440 	andeq	r0, r0, r0, asr #8
 6c4:	00000000 	andeq	r0, r0, r0
 6c8:	000000bc 	strheq	r0, [r0], -ip
 6cc:	87080e41 	strhi	r0, [r8, -r1, asr #28]
 6d0:	41018e02 	tstmi	r1, r2, lsl #28
 6d4:	0d41180e 	stcleq	8, cr1, [r1, #-56]	; 0xffffffc8
 6d8:	0e4c0207 	cdpeq	2, 4, cr0, cr12, cr7, {0}
 6dc:	0d0d4108 	stfeqs	f4, [sp, #-32]	; 0xffffffe0
 6e0:	00000020 	andeq	r0, r0, r0, lsr #32
 6e4:	00000440 	andeq	r0, r0, r0, asr #8
 6e8:	00000000 	andeq	r0, r0, r0
 6ec:	0000001c 	andeq	r0, r0, ip, lsl r0
 6f0:	87080e41 	strhi	r0, [r8, -r1, asr #28]
 6f4:	41018e02 	tstmi	r1, r2, lsl #28
 6f8:	0d41100e 	stcleq	0, cr1, [r1, #-56]	; 0xffffffc8
 6fc:	080e4907 	stmdaeq	lr, {r0, r1, r2, r8, fp, lr}
 700:	000d0d41 	andeq	r0, sp, r1, asr #26
 704:	00000020 	andeq	r0, r0, r0, lsr #32
 708:	00000440 	andeq	r0, r0, r0, asr #8
 70c:	00000000 	andeq	r0, r0, r0
 710:	0000001a 	andeq	r0, r0, sl, lsl r0
 714:	87080e41 	strhi	r0, [r8, -r1, asr #28]
 718:	41018e02 	tstmi	r1, r2, lsl #28
 71c:	0d41100e 	stcleq	0, cr1, [r1, #-56]	; 0xffffffc8
 720:	080e4807 	stmdaeq	lr, {r0, r1, r2, fp, lr}
 724:	000d0d41 	andeq	r0, sp, r1, asr #26
 728:	00000020 	andeq	r0, r0, r0, lsr #32
 72c:	00000440 	andeq	r0, r0, r0, asr #8
 730:	00000000 	andeq	r0, r0, r0
 734:	0000001a 	andeq	r0, r0, sl, lsl r0
 738:	87080e41 	strhi	r0, [r8, -r1, asr #28]
 73c:	41018e02 	tstmi	r1, r2, lsl #28
 740:	0d41100e 	stcleq	0, cr1, [r1, #-56]	; 0xffffffc8
 744:	080e4807 	stmdaeq	lr, {r0, r1, r2, fp, lr}
 748:	000d0d41 	andeq	r0, sp, r1, asr #26
 74c:	0000000c 	andeq	r0, r0, ip
 750:	ffffffff 			; <UNDEFINED> instruction: 0xffffffff
 754:	7c020001 	stcvc	0, cr0, [r2], {1}
 758:	000d0c0e 	andeq	r0, sp, lr, lsl #24
 75c:	00000024 	andeq	r0, r0, r4, lsr #32
 760:	0000074c 	andeq	r0, r0, ip, asr #14
 764:	000019fc 	strdeq	r1, [r0], -ip
 768:	0000002c 	andeq	r0, r0, ip, lsr #32
 76c:	87040e41 	strhi	r0, [r4, -r1, asr #28]
 770:	100e4101 	andne	r4, lr, r1, lsl #2
 774:	4d070d41 	stcmi	13, cr0, [r7, #-260]	; 0xfffffefc
 778:	0d41040e 	cfstrdeq	mvd0, [r1, #-56]	; 0xffffffc8
 77c:	0ec7420d 	cdpeq	2, 12, cr4, cr7, cr13, {0}
 780:	00000000 	andeq	r0, r0, r0
 784:	00000024 	andeq	r0, r0, r4, lsr #32
 788:	0000074c 	andeq	r0, r0, ip, asr #14
 78c:	00000000 	andeq	r0, r0, r0
 790:	0000002c 	andeq	r0, r0, ip, lsr #32
 794:	87040e41 	strhi	r0, [r4, -r1, asr #28]
 798:	100e4101 	andne	r4, lr, r1, lsl #2
 79c:	4d070d41 	stcmi	13, cr0, [r7, #-260]	; 0xfffffefc
 7a0:	0d41040e 	cfstrdeq	mvd0, [r1, #-56]	; 0xffffffc8
 7a4:	0ec7420d 	cdpeq	2, 12, cr4, cr7, cr13, {0}
 7a8:	00000000 	andeq	r0, r0, r0
 7ac:	00000020 	andeq	r0, r0, r0, lsr #32
 7b0:	0000074c 	andeq	r0, r0, ip, asr #14
 7b4:	00000000 	andeq	r0, r0, r0
 7b8:	000000b4 	strheq	r0, [r0], -r4
 7bc:	87080e41 	strhi	r0, [r8, -r1, asr #28]
 7c0:	41018e02 	tstmi	r1, r2, lsl #28
 7c4:	0d41200e 	stcleq	0, cr2, [r1, #-56]	; 0xffffffc8
 7c8:	0e4e0207 	cdpeq	2, 4, cr0, cr14, cr7, {0}
 7cc:	0d0d4108 	stfeqs	f4, [sp, #-32]	; 0xffffffe0
 7d0:	00000020 	andeq	r0, r0, r0, lsr #32
 7d4:	0000074c 	andeq	r0, r0, ip, asr #14
 7d8:	00001a28 	andeq	r1, r0, r8, lsr #20
 7dc:	000000a0 	andeq	r0, r0, r0, lsr #1
 7e0:	87080e41 	strhi	r0, [r8, -r1, asr #28]
 7e4:	41018e02 	tstmi	r1, r2, lsl #28
 7e8:	0d41200e 	stcleq	0, cr2, [r1, #-56]	; 0xffffffc8
 7ec:	0e440207 	cdpeq	2, 4, cr0, cr4, cr7, {0}
 7f0:	0d0d4108 	stfeqs	f4, [sp, #-32]	; 0xffffffe0
 7f4:	00000020 	andeq	r0, r0, r0, lsr #32
 7f8:	0000074c 	andeq	r0, r0, ip, asr #14
 7fc:	00000000 	andeq	r0, r0, r0
 800:	00000044 	andeq	r0, r0, r4, asr #32
 804:	87080e41 	strhi	r0, [r8, -r1, asr #28]
 808:	41018e02 	tstmi	r1, r2, lsl #28
 80c:	0d41180e 	stcleq	8, cr1, [r1, #-56]	; 0xffffffc8
 810:	080e5b07 	stmdaeq	lr, {r0, r1, r2, r8, r9, fp, ip, lr}
 814:	000d0d41 	andeq	r0, sp, r1, asr #26
 818:	0000001c 	andeq	r0, r0, ip, lsl r0
 81c:	0000074c 	andeq	r0, r0, ip, asr #14
 820:	00000000 	andeq	r0, r0, r0
 824:	0000000e 	andeq	r0, r0, lr
 828:	87040e41 	strhi	r0, [r4, -r1, asr #28]
 82c:	070d4101 	streq	r4, [sp, -r1, lsl #2]
 830:	420d0d42 	andmi	r0, sp, #4224	; 0x1080
 834:	00000ec7 	andeq	r0, r0, r7, asr #29
 838:	00000020 	andeq	r0, r0, r0, lsr #32
 83c:	0000074c 	andeq	r0, r0, ip, asr #14
 840:	00000000 	andeq	r0, r0, r0
 844:	00000038 	andeq	r0, r0, r8, lsr r0
 848:	87080e41 	strhi	r0, [r8, -r1, asr #28]
 84c:	41018e02 	tstmi	r1, r2, lsl #28
 850:	0d41100e 	stcleq	0, cr1, [r1, #-56]	; 0xffffffc8
 854:	080e5307 	stmdaeq	lr, {r0, r1, r2, r8, r9, ip, lr}
 858:	000d0d41 	andeq	r0, sp, r1, asr #26
 85c:	0000000c 	andeq	r0, r0, ip
 860:	ffffffff 			; <UNDEFINED> instruction: 0xffffffff
 864:	7c020001 	stcvc	0, cr0, [r2], {1}
 868:	000d0c0e 	andeq	r0, sp, lr, lsl #24
 86c:	00000020 	andeq	r0, r0, r0, lsr #32
 870:	0000085c 	andeq	r0, r0, ip, asr r8
 874:	00001ac8 	andeq	r1, r0, r8, asr #21
 878:	00000020 	andeq	r0, r0, r0, lsr #32
 87c:	87080e41 	strhi	r0, [r8, -r1, asr #28]
 880:	41018e02 	tstmi	r1, r2, lsl #28
 884:	0d41100e 	stcleq	0, cr1, [r1, #-56]	; 0xffffffc8
 888:	080e4907 	stmdaeq	lr, {r0, r1, r2, r8, fp, lr}
 88c:	000d0d41 	andeq	r0, sp, r1, asr #26
 890:	00000024 	andeq	r0, r0, r4, lsr #32
 894:	0000085c 	andeq	r0, r0, ip, asr r8
 898:	00001ae8 	andeq	r1, r0, r8, ror #21
 89c:	00000074 	andeq	r0, r0, r4, ror r0
 8a0:	87040e41 	strhi	r0, [r4, -r1, asr #28]
 8a4:	100e4101 	andne	r4, lr, r1, lsl #2
 8a8:	64070d41 	strvs	r0, [r7], #-3393	; 0xfffff2bf
 8ac:	0d41040e 	cfstrdeq	mvd0, [r1, #-56]	; 0xffffffc8
 8b0:	0ec7420d 	cdpeq	2, 12, cr4, cr7, cr13, {0}
 8b4:	00000000 	andeq	r0, r0, r0
 8b8:	00000024 	andeq	r0, r0, r4, lsr #32
 8bc:	0000085c 	andeq	r0, r0, ip, asr r8
 8c0:	00000000 	andeq	r0, r0, r0
 8c4:	0000001c 	andeq	r0, r0, ip, lsl r0
 8c8:	87040e41 	strhi	r0, [r4, -r1, asr #28]
 8cc:	100e4101 	andne	r4, lr, r1, lsl #2
 8d0:	47070d41 	strmi	r0, [r7, -r1, asr #26]
 8d4:	0d41040e 	cfstrdeq	mvd0, [r1, #-56]	; 0xffffffc8
 8d8:	0ec7420d 	cdpeq	2, 12, cr4, cr7, cr13, {0}
 8dc:	00000000 	andeq	r0, r0, r0
 8e0:	00000024 	andeq	r0, r0, r4, lsr #32
 8e4:	0000085c 	andeq	r0, r0, ip, asr r8
 8e8:	00000000 	andeq	r0, r0, r0
 8ec:	00000024 	andeq	r0, r0, r4, lsr #32
 8f0:	87040e41 	strhi	r0, [r4, -r1, asr #28]
 8f4:	100e4101 	andne	r4, lr, r1, lsl #2
 8f8:	4b070d41 	blmi	1c3e04 <_etext+0x1c1d9d>
 8fc:	0d41040e 	cfstrdeq	mvd0, [r1, #-56]	; 0xffffffc8
 900:	0ec7420d 	cdpeq	2, 12, cr4, cr7, cr13, {0}
 904:	00000000 	andeq	r0, r0, r0
 908:	00000030 	andeq	r0, r0, r0, lsr r0
 90c:	0000085c 	andeq	r0, r0, ip, asr r8
 910:	00001b5c 	andeq	r1, r0, ip, asr fp
 914:	00000088 	andeq	r0, r0, r8, lsl #1
 918:	82080e41 	andhi	r0, r8, #1040	; 0x410
 91c:	41018302 	tstmi	r1, r2, lsl #6
 920:	0487100e 	streq	r1, [r7], #14
 924:	0e41038e 	cdpeq	3, 4, cr0, cr1, cr14, {4}
 928:	070d4120 	streq	r4, [sp, -r0, lsr #2]
 92c:	41100e71 	tstmi	r0, r1, ror lr
 930:	ce420d0d 	cdpgt	13, 4, cr0, cr2, cr13, {0}
 934:	41080ec7 	smlabtmi	r8, r7, lr, r0
 938:	000ec2c3 	andeq	ip, lr, r3, asr #5
 93c:	00000020 	andeq	r0, r0, r0, lsr #32
 940:	0000085c 	andeq	r0, r0, ip, asr r8
 944:	00000000 	andeq	r0, r0, r0
 948:	0000002c 	andeq	r0, r0, ip, lsr #32
 94c:	87080e41 	strhi	r0, [r8, -r1, asr #28]
 950:	41018e02 	tstmi	r1, r2, lsl #28
 954:	0d41100e 	stcleq	0, cr1, [r1, #-56]	; 0xffffffc8
 958:	080e4f07 	stmdaeq	lr, {r0, r1, r2, r8, r9, sl, fp, lr}
 95c:	000d0d41 	andeq	r0, sp, r1, asr #26
 960:	00000018 	andeq	r0, r0, r8, lsl r0
 964:	0000085c 	andeq	r0, r0, ip, asr r8
 968:	00000000 	andeq	r0, r0, r0
 96c:	00000010 	andeq	r0, r0, r0, lsl r0
 970:	87080e41 	strhi	r0, [r8, -r1, asr #28]
 974:	41018e02 	tstmi	r1, r2, lsl #28
 978:	0000070d 	andeq	r0, r0, sp, lsl #14
 97c:	0000000c 	andeq	r0, r0, ip
 980:	ffffffff 			; <UNDEFINED> instruction: 0xffffffff
 984:	7c020001 	stcvc	0, cr0, [r2], {1}
 988:	000d0c0e 	andeq	r0, sp, lr, lsl #24
 98c:	00000018 	andeq	r0, r0, r8, lsl r0
 990:	0000097c 	andeq	r0, r0, ip, ror r9
 994:	00001be4 	andeq	r1, r0, r4, ror #23
 998:	000000a4 	andeq	r0, r0, r4, lsr #1
 99c:	840c0e42 	strhi	r0, [ip], #-3650	; 0xfffff1be
 9a0:	8e028503 	cfsh32hi	mvfx8, mvfx2, #3
 9a4:	00000001 	andeq	r0, r0, r1
